ARM GAS  C:\Users\gigig\AppData\Local\Temp\ccsPSJdA.s 			page 1


   1              		.cpu cortex-m7
   2              		.arch armv7e-m
   3              		.fpu fpv5-d16
   4              		.eabi_attribute 28, 1
   5              		.eabi_attribute 20, 1
   6              		.eabi_attribute 21, 1
   7              		.eabi_attribute 23, 3
   8              		.eabi_attribute 24, 1
   9              		.eabi_attribute 25, 1
  10              		.eabi_attribute 26, 1
  11              		.eabi_attribute 30, 1
  12              		.eabi_attribute 34, 1
  13              		.eabi_attribute 18, 4
  14              		.file	"event_groups.c"
  15              		.text
  16              	.Ltext0:
  17              		.cfi_sections	.debug_frame
  18              		.file 1 "../../Middlewares/Third_Party/FreeRTOS/Source/event_groups.c"
  19              		.section	.text.prvTestWaitCondition,"ax",%progbits
  20              		.align	1
  21              		.syntax unified
  22              		.thumb
  23              		.thumb_func
  25              	prvTestWaitCondition:
  26              	.LVL0:
  27              	.LFB15:
   1:../../Middlewares/Third_Party/FreeRTOS/Source/event_groups.c **** /*
   2:../../Middlewares/Third_Party/FreeRTOS/Source/event_groups.c ****  * FreeRTOS Kernel V10.3.1
   3:../../Middlewares/Third_Party/FreeRTOS/Source/event_groups.c ****  * Copyright (C) 2020 Amazon.com, Inc. or its affiliates.  All Rights Reserved.
   4:../../Middlewares/Third_Party/FreeRTOS/Source/event_groups.c ****  *
   5:../../Middlewares/Third_Party/FreeRTOS/Source/event_groups.c ****  * Permission is hereby granted, free of charge, to any person obtaining a copy of
   6:../../Middlewares/Third_Party/FreeRTOS/Source/event_groups.c ****  * this software and associated documentation files (the "Software"), to deal in
   7:../../Middlewares/Third_Party/FreeRTOS/Source/event_groups.c ****  * the Software without restriction, including without limitation the rights to
   8:../../Middlewares/Third_Party/FreeRTOS/Source/event_groups.c ****  * use, copy, modify, merge, publish, distribute, sublicense, and/or sell copies of
   9:../../Middlewares/Third_Party/FreeRTOS/Source/event_groups.c ****  * the Software, and to permit persons to whom the Software is furnished to do so,
  10:../../Middlewares/Third_Party/FreeRTOS/Source/event_groups.c ****  * subject to the following conditions:
  11:../../Middlewares/Third_Party/FreeRTOS/Source/event_groups.c ****  *
  12:../../Middlewares/Third_Party/FreeRTOS/Source/event_groups.c ****  * The above copyright notice and this permission notice shall be included in all
  13:../../Middlewares/Third_Party/FreeRTOS/Source/event_groups.c ****  * copies or substantial portions of the Software.
  14:../../Middlewares/Third_Party/FreeRTOS/Source/event_groups.c ****  *
  15:../../Middlewares/Third_Party/FreeRTOS/Source/event_groups.c ****  * THE SOFTWARE IS PROVIDED "AS IS", WITHOUT WARRANTY OF ANY KIND, EXPRESS OR
  16:../../Middlewares/Third_Party/FreeRTOS/Source/event_groups.c ****  * IMPLIED, INCLUDING BUT NOT LIMITED TO THE WARRANTIES OF MERCHANTABILITY, FITNESS
  17:../../Middlewares/Third_Party/FreeRTOS/Source/event_groups.c ****  * FOR A PARTICULAR PURPOSE AND NONINFRINGEMENT. IN NO EVENT SHALL THE AUTHORS OR
  18:../../Middlewares/Third_Party/FreeRTOS/Source/event_groups.c ****  * COPYRIGHT HOLDERS BE LIABLE FOR ANY CLAIM, DAMAGES OR OTHER LIABILITY, WHETHER
  19:../../Middlewares/Third_Party/FreeRTOS/Source/event_groups.c ****  * IN AN ACTION OF CONTRACT, TORT OR OTHERWISE, ARISING FROM, OUT OF OR IN
  20:../../Middlewares/Third_Party/FreeRTOS/Source/event_groups.c ****  * CONNECTION WITH THE SOFTWARE OR THE USE OR OTHER DEALINGS IN THE SOFTWARE.
  21:../../Middlewares/Third_Party/FreeRTOS/Source/event_groups.c ****  *
  22:../../Middlewares/Third_Party/FreeRTOS/Source/event_groups.c ****  * http://www.FreeRTOS.org
  23:../../Middlewares/Third_Party/FreeRTOS/Source/event_groups.c ****  * http://aws.amazon.com/freertos
  24:../../Middlewares/Third_Party/FreeRTOS/Source/event_groups.c ****  *
  25:../../Middlewares/Third_Party/FreeRTOS/Source/event_groups.c ****  * 1 tab == 4 spaces!
  26:../../Middlewares/Third_Party/FreeRTOS/Source/event_groups.c ****  */
  27:../../Middlewares/Third_Party/FreeRTOS/Source/event_groups.c **** 
  28:../../Middlewares/Third_Party/FreeRTOS/Source/event_groups.c **** /* Standard includes. */
  29:../../Middlewares/Third_Party/FreeRTOS/Source/event_groups.c **** #include <stdlib.h>
  30:../../Middlewares/Third_Party/FreeRTOS/Source/event_groups.c **** 
  31:../../Middlewares/Third_Party/FreeRTOS/Source/event_groups.c **** /* Defining MPU_WRAPPERS_INCLUDED_FROM_API_FILE prevents task.h from redefining
ARM GAS  C:\Users\gigig\AppData\Local\Temp\ccsPSJdA.s 			page 2


  32:../../Middlewares/Third_Party/FreeRTOS/Source/event_groups.c **** all the API functions to use the MPU wrappers.  That should only be done when
  33:../../Middlewares/Third_Party/FreeRTOS/Source/event_groups.c **** task.h is included from an application file. */
  34:../../Middlewares/Third_Party/FreeRTOS/Source/event_groups.c **** #define MPU_WRAPPERS_INCLUDED_FROM_API_FILE
  35:../../Middlewares/Third_Party/FreeRTOS/Source/event_groups.c **** 
  36:../../Middlewares/Third_Party/FreeRTOS/Source/event_groups.c **** /* FreeRTOS includes. */
  37:../../Middlewares/Third_Party/FreeRTOS/Source/event_groups.c **** #include "FreeRTOS.h"
  38:../../Middlewares/Third_Party/FreeRTOS/Source/event_groups.c **** #include "task.h"
  39:../../Middlewares/Third_Party/FreeRTOS/Source/event_groups.c **** #include "timers.h"
  40:../../Middlewares/Third_Party/FreeRTOS/Source/event_groups.c **** #include "event_groups.h"
  41:../../Middlewares/Third_Party/FreeRTOS/Source/event_groups.c **** 
  42:../../Middlewares/Third_Party/FreeRTOS/Source/event_groups.c **** /* Lint e961, e750 and e9021 are suppressed as a MISRA exception justified
  43:../../Middlewares/Third_Party/FreeRTOS/Source/event_groups.c **** because the MPU ports require MPU_WRAPPERS_INCLUDED_FROM_API_FILE to be defined
  44:../../Middlewares/Third_Party/FreeRTOS/Source/event_groups.c **** for the header files above, but not in this file, in order to generate the
  45:../../Middlewares/Third_Party/FreeRTOS/Source/event_groups.c **** correct privileged Vs unprivileged linkage and placement. */
  46:../../Middlewares/Third_Party/FreeRTOS/Source/event_groups.c **** #undef MPU_WRAPPERS_INCLUDED_FROM_API_FILE /*lint !e961 !e750 !e9021 See comment above. */
  47:../../Middlewares/Third_Party/FreeRTOS/Source/event_groups.c **** 
  48:../../Middlewares/Third_Party/FreeRTOS/Source/event_groups.c **** /* The following bit fields convey control information in a task's event list
  49:../../Middlewares/Third_Party/FreeRTOS/Source/event_groups.c **** item value.  It is important they don't clash with the
  50:../../Middlewares/Third_Party/FreeRTOS/Source/event_groups.c **** taskEVENT_LIST_ITEM_VALUE_IN_USE definition. */
  51:../../Middlewares/Third_Party/FreeRTOS/Source/event_groups.c **** #if configUSE_16_BIT_TICKS == 1
  52:../../Middlewares/Third_Party/FreeRTOS/Source/event_groups.c **** 	#define eventCLEAR_EVENTS_ON_EXIT_BIT	0x0100U
  53:../../Middlewares/Third_Party/FreeRTOS/Source/event_groups.c **** 	#define eventUNBLOCKED_DUE_TO_BIT_SET	0x0200U
  54:../../Middlewares/Third_Party/FreeRTOS/Source/event_groups.c **** 	#define eventWAIT_FOR_ALL_BITS			0x0400U
  55:../../Middlewares/Third_Party/FreeRTOS/Source/event_groups.c **** 	#define eventEVENT_BITS_CONTROL_BYTES	0xff00U
  56:../../Middlewares/Third_Party/FreeRTOS/Source/event_groups.c **** #else
  57:../../Middlewares/Third_Party/FreeRTOS/Source/event_groups.c **** 	#define eventCLEAR_EVENTS_ON_EXIT_BIT	0x01000000UL
  58:../../Middlewares/Third_Party/FreeRTOS/Source/event_groups.c **** 	#define eventUNBLOCKED_DUE_TO_BIT_SET	0x02000000UL
  59:../../Middlewares/Third_Party/FreeRTOS/Source/event_groups.c **** 	#define eventWAIT_FOR_ALL_BITS			0x04000000UL
  60:../../Middlewares/Third_Party/FreeRTOS/Source/event_groups.c **** 	#define eventEVENT_BITS_CONTROL_BYTES	0xff000000UL
  61:../../Middlewares/Third_Party/FreeRTOS/Source/event_groups.c **** #endif
  62:../../Middlewares/Third_Party/FreeRTOS/Source/event_groups.c **** 
  63:../../Middlewares/Third_Party/FreeRTOS/Source/event_groups.c **** typedef struct EventGroupDef_t
  64:../../Middlewares/Third_Party/FreeRTOS/Source/event_groups.c **** {
  65:../../Middlewares/Third_Party/FreeRTOS/Source/event_groups.c **** 	EventBits_t uxEventBits;
  66:../../Middlewares/Third_Party/FreeRTOS/Source/event_groups.c **** 	List_t xTasksWaitingForBits;		/*< List of tasks waiting for a bit to be set. */
  67:../../Middlewares/Third_Party/FreeRTOS/Source/event_groups.c **** 
  68:../../Middlewares/Third_Party/FreeRTOS/Source/event_groups.c **** 	#if( configUSE_TRACE_FACILITY == 1 )
  69:../../Middlewares/Third_Party/FreeRTOS/Source/event_groups.c **** 		UBaseType_t uxEventGroupNumber;
  70:../../Middlewares/Third_Party/FreeRTOS/Source/event_groups.c **** 	#endif
  71:../../Middlewares/Third_Party/FreeRTOS/Source/event_groups.c **** 
  72:../../Middlewares/Third_Party/FreeRTOS/Source/event_groups.c **** 	#if( ( configSUPPORT_STATIC_ALLOCATION == 1 ) && ( configSUPPORT_DYNAMIC_ALLOCATION == 1 ) )
  73:../../Middlewares/Third_Party/FreeRTOS/Source/event_groups.c **** 		uint8_t ucStaticallyAllocated; /*< Set to pdTRUE if the event group is statically allocated to en
  74:../../Middlewares/Third_Party/FreeRTOS/Source/event_groups.c **** 	#endif
  75:../../Middlewares/Third_Party/FreeRTOS/Source/event_groups.c **** } EventGroup_t;
  76:../../Middlewares/Third_Party/FreeRTOS/Source/event_groups.c **** 
  77:../../Middlewares/Third_Party/FreeRTOS/Source/event_groups.c **** /*-----------------------------------------------------------*/
  78:../../Middlewares/Third_Party/FreeRTOS/Source/event_groups.c **** 
  79:../../Middlewares/Third_Party/FreeRTOS/Source/event_groups.c **** /*
  80:../../Middlewares/Third_Party/FreeRTOS/Source/event_groups.c ****  * Test the bits set in uxCurrentEventBits to see if the wait condition is met.
  81:../../Middlewares/Third_Party/FreeRTOS/Source/event_groups.c ****  * The wait condition is defined by xWaitForAllBits.  If xWaitForAllBits is
  82:../../Middlewares/Third_Party/FreeRTOS/Source/event_groups.c ****  * pdTRUE then the wait condition is met if all the bits set in uxBitsToWaitFor
  83:../../Middlewares/Third_Party/FreeRTOS/Source/event_groups.c ****  * are also set in uxCurrentEventBits.  If xWaitForAllBits is pdFALSE then the
  84:../../Middlewares/Third_Party/FreeRTOS/Source/event_groups.c ****  * wait condition is met if any of the bits set in uxBitsToWait for are also set
  85:../../Middlewares/Third_Party/FreeRTOS/Source/event_groups.c ****  * in uxCurrentEventBits.
  86:../../Middlewares/Third_Party/FreeRTOS/Source/event_groups.c ****  */
  87:../../Middlewares/Third_Party/FreeRTOS/Source/event_groups.c **** static BaseType_t prvTestWaitCondition( const EventBits_t uxCurrentEventBits, const EventBits_t uxB
  88:../../Middlewares/Third_Party/FreeRTOS/Source/event_groups.c **** 
ARM GAS  C:\Users\gigig\AppData\Local\Temp\ccsPSJdA.s 			page 3


  89:../../Middlewares/Third_Party/FreeRTOS/Source/event_groups.c **** /*-----------------------------------------------------------*/
  90:../../Middlewares/Third_Party/FreeRTOS/Source/event_groups.c **** 
  91:../../Middlewares/Third_Party/FreeRTOS/Source/event_groups.c **** #if( configSUPPORT_STATIC_ALLOCATION == 1 )
  92:../../Middlewares/Third_Party/FreeRTOS/Source/event_groups.c **** 
  93:../../Middlewares/Third_Party/FreeRTOS/Source/event_groups.c **** 	EventGroupHandle_t xEventGroupCreateStatic( StaticEventGroup_t *pxEventGroupBuffer )
  94:../../Middlewares/Third_Party/FreeRTOS/Source/event_groups.c **** 	{
  95:../../Middlewares/Third_Party/FreeRTOS/Source/event_groups.c **** 	EventGroup_t *pxEventBits;
  96:../../Middlewares/Third_Party/FreeRTOS/Source/event_groups.c **** 
  97:../../Middlewares/Third_Party/FreeRTOS/Source/event_groups.c **** 		/* A StaticEventGroup_t object must be provided. */
  98:../../Middlewares/Third_Party/FreeRTOS/Source/event_groups.c **** 		configASSERT( pxEventGroupBuffer );
  99:../../Middlewares/Third_Party/FreeRTOS/Source/event_groups.c **** 
 100:../../Middlewares/Third_Party/FreeRTOS/Source/event_groups.c **** 		#if( configASSERT_DEFINED == 1 )
 101:../../Middlewares/Third_Party/FreeRTOS/Source/event_groups.c **** 		{
 102:../../Middlewares/Third_Party/FreeRTOS/Source/event_groups.c **** 			/* Sanity check that the size of the structure used to declare a
 103:../../Middlewares/Third_Party/FreeRTOS/Source/event_groups.c **** 			variable of type StaticEventGroup_t equals the size of the real
 104:../../Middlewares/Third_Party/FreeRTOS/Source/event_groups.c **** 			event group structure. */
 105:../../Middlewares/Third_Party/FreeRTOS/Source/event_groups.c **** 			volatile size_t xSize = sizeof( StaticEventGroup_t );
 106:../../Middlewares/Third_Party/FreeRTOS/Source/event_groups.c **** 			configASSERT( xSize == sizeof( EventGroup_t ) );
 107:../../Middlewares/Third_Party/FreeRTOS/Source/event_groups.c **** 		} /*lint !e529 xSize is referenced if configASSERT() is defined. */
 108:../../Middlewares/Third_Party/FreeRTOS/Source/event_groups.c **** 		#endif /* configASSERT_DEFINED */
 109:../../Middlewares/Third_Party/FreeRTOS/Source/event_groups.c **** 
 110:../../Middlewares/Third_Party/FreeRTOS/Source/event_groups.c **** 		/* The user has provided a statically allocated event group - use it. */
 111:../../Middlewares/Third_Party/FreeRTOS/Source/event_groups.c **** 		pxEventBits = ( EventGroup_t * ) pxEventGroupBuffer; /*lint !e740 !e9087 EventGroup_t and StaticE
 112:../../Middlewares/Third_Party/FreeRTOS/Source/event_groups.c **** 
 113:../../Middlewares/Third_Party/FreeRTOS/Source/event_groups.c **** 		if( pxEventBits != NULL )
 114:../../Middlewares/Third_Party/FreeRTOS/Source/event_groups.c **** 		{
 115:../../Middlewares/Third_Party/FreeRTOS/Source/event_groups.c **** 			pxEventBits->uxEventBits = 0;
 116:../../Middlewares/Third_Party/FreeRTOS/Source/event_groups.c **** 			vListInitialise( &( pxEventBits->xTasksWaitingForBits ) );
 117:../../Middlewares/Third_Party/FreeRTOS/Source/event_groups.c **** 
 118:../../Middlewares/Third_Party/FreeRTOS/Source/event_groups.c **** 			#if( configSUPPORT_DYNAMIC_ALLOCATION == 1 )
 119:../../Middlewares/Third_Party/FreeRTOS/Source/event_groups.c **** 			{
 120:../../Middlewares/Third_Party/FreeRTOS/Source/event_groups.c **** 				/* Both static and dynamic allocation can be used, so note that
 121:../../Middlewares/Third_Party/FreeRTOS/Source/event_groups.c **** 				this event group was created statically in case the event group
 122:../../Middlewares/Third_Party/FreeRTOS/Source/event_groups.c **** 				is later deleted. */
 123:../../Middlewares/Third_Party/FreeRTOS/Source/event_groups.c **** 				pxEventBits->ucStaticallyAllocated = pdTRUE;
 124:../../Middlewares/Third_Party/FreeRTOS/Source/event_groups.c **** 			}
 125:../../Middlewares/Third_Party/FreeRTOS/Source/event_groups.c **** 			#endif /* configSUPPORT_DYNAMIC_ALLOCATION */
 126:../../Middlewares/Third_Party/FreeRTOS/Source/event_groups.c **** 
 127:../../Middlewares/Third_Party/FreeRTOS/Source/event_groups.c **** 			traceEVENT_GROUP_CREATE( pxEventBits );
 128:../../Middlewares/Third_Party/FreeRTOS/Source/event_groups.c **** 		}
 129:../../Middlewares/Third_Party/FreeRTOS/Source/event_groups.c **** 		else
 130:../../Middlewares/Third_Party/FreeRTOS/Source/event_groups.c **** 		{
 131:../../Middlewares/Third_Party/FreeRTOS/Source/event_groups.c **** 			/* xEventGroupCreateStatic should only ever be called with
 132:../../Middlewares/Third_Party/FreeRTOS/Source/event_groups.c **** 			pxEventGroupBuffer pointing to a pre-allocated (compile time
 133:../../Middlewares/Third_Party/FreeRTOS/Source/event_groups.c **** 			allocated) StaticEventGroup_t variable. */
 134:../../Middlewares/Third_Party/FreeRTOS/Source/event_groups.c **** 			traceEVENT_GROUP_CREATE_FAILED();
 135:../../Middlewares/Third_Party/FreeRTOS/Source/event_groups.c **** 		}
 136:../../Middlewares/Third_Party/FreeRTOS/Source/event_groups.c **** 
 137:../../Middlewares/Third_Party/FreeRTOS/Source/event_groups.c **** 		return pxEventBits;
 138:../../Middlewares/Third_Party/FreeRTOS/Source/event_groups.c **** 	}
 139:../../Middlewares/Third_Party/FreeRTOS/Source/event_groups.c **** 
 140:../../Middlewares/Third_Party/FreeRTOS/Source/event_groups.c **** #endif /* configSUPPORT_STATIC_ALLOCATION */
 141:../../Middlewares/Third_Party/FreeRTOS/Source/event_groups.c **** /*-----------------------------------------------------------*/
 142:../../Middlewares/Third_Party/FreeRTOS/Source/event_groups.c **** 
 143:../../Middlewares/Third_Party/FreeRTOS/Source/event_groups.c **** #if( configSUPPORT_DYNAMIC_ALLOCATION == 1 )
 144:../../Middlewares/Third_Party/FreeRTOS/Source/event_groups.c **** 
 145:../../Middlewares/Third_Party/FreeRTOS/Source/event_groups.c **** 	EventGroupHandle_t xEventGroupCreate( void )
ARM GAS  C:\Users\gigig\AppData\Local\Temp\ccsPSJdA.s 			page 4


 146:../../Middlewares/Third_Party/FreeRTOS/Source/event_groups.c **** 	{
 147:../../Middlewares/Third_Party/FreeRTOS/Source/event_groups.c **** 	EventGroup_t *pxEventBits;
 148:../../Middlewares/Third_Party/FreeRTOS/Source/event_groups.c **** 
 149:../../Middlewares/Third_Party/FreeRTOS/Source/event_groups.c **** 		/* Allocate the event group.  Justification for MISRA deviation as
 150:../../Middlewares/Third_Party/FreeRTOS/Source/event_groups.c **** 		follows:  pvPortMalloc() always ensures returned memory blocks are
 151:../../Middlewares/Third_Party/FreeRTOS/Source/event_groups.c **** 		aligned per the requirements of the MCU stack.  In this case
 152:../../Middlewares/Third_Party/FreeRTOS/Source/event_groups.c **** 		pvPortMalloc() must return a pointer that is guaranteed to meet the
 153:../../Middlewares/Third_Party/FreeRTOS/Source/event_groups.c **** 		alignment requirements of the EventGroup_t structure - which (if you
 154:../../Middlewares/Third_Party/FreeRTOS/Source/event_groups.c **** 		follow it through) is the alignment requirements of the TickType_t type
 155:../../Middlewares/Third_Party/FreeRTOS/Source/event_groups.c **** 		(EventBits_t being of TickType_t itself).  Therefore, whenever the
 156:../../Middlewares/Third_Party/FreeRTOS/Source/event_groups.c **** 		stack alignment requirements are greater than or equal to the
 157:../../Middlewares/Third_Party/FreeRTOS/Source/event_groups.c **** 		TickType_t alignment requirements the cast is safe.  In other cases,
 158:../../Middlewares/Third_Party/FreeRTOS/Source/event_groups.c **** 		where the natural word size of the architecture is less than
 159:../../Middlewares/Third_Party/FreeRTOS/Source/event_groups.c **** 		sizeof( TickType_t ), the TickType_t variables will be accessed in two
 160:../../Middlewares/Third_Party/FreeRTOS/Source/event_groups.c **** 		or more reads operations, and the alignment requirements is only that
 161:../../Middlewares/Third_Party/FreeRTOS/Source/event_groups.c **** 		of each individual read. */
 162:../../Middlewares/Third_Party/FreeRTOS/Source/event_groups.c **** 		pxEventBits = ( EventGroup_t * ) pvPortMalloc( sizeof( EventGroup_t ) ); /*lint !e9087 !e9079 see
 163:../../Middlewares/Third_Party/FreeRTOS/Source/event_groups.c **** 
 164:../../Middlewares/Third_Party/FreeRTOS/Source/event_groups.c **** 		if( pxEventBits != NULL )
 165:../../Middlewares/Third_Party/FreeRTOS/Source/event_groups.c **** 		{
 166:../../Middlewares/Third_Party/FreeRTOS/Source/event_groups.c **** 			pxEventBits->uxEventBits = 0;
 167:../../Middlewares/Third_Party/FreeRTOS/Source/event_groups.c **** 			vListInitialise( &( pxEventBits->xTasksWaitingForBits ) );
 168:../../Middlewares/Third_Party/FreeRTOS/Source/event_groups.c **** 
 169:../../Middlewares/Third_Party/FreeRTOS/Source/event_groups.c **** 			#if( configSUPPORT_STATIC_ALLOCATION == 1 )
 170:../../Middlewares/Third_Party/FreeRTOS/Source/event_groups.c **** 			{
 171:../../Middlewares/Third_Party/FreeRTOS/Source/event_groups.c **** 				/* Both static and dynamic allocation can be used, so note this
 172:../../Middlewares/Third_Party/FreeRTOS/Source/event_groups.c **** 				event group was allocated statically in case the event group is
 173:../../Middlewares/Third_Party/FreeRTOS/Source/event_groups.c **** 				later deleted. */
 174:../../Middlewares/Third_Party/FreeRTOS/Source/event_groups.c **** 				pxEventBits->ucStaticallyAllocated = pdFALSE;
 175:../../Middlewares/Third_Party/FreeRTOS/Source/event_groups.c **** 			}
 176:../../Middlewares/Third_Party/FreeRTOS/Source/event_groups.c **** 			#endif /* configSUPPORT_STATIC_ALLOCATION */
 177:../../Middlewares/Third_Party/FreeRTOS/Source/event_groups.c **** 
 178:../../Middlewares/Third_Party/FreeRTOS/Source/event_groups.c **** 			traceEVENT_GROUP_CREATE( pxEventBits );
 179:../../Middlewares/Third_Party/FreeRTOS/Source/event_groups.c **** 		}
 180:../../Middlewares/Third_Party/FreeRTOS/Source/event_groups.c **** 		else
 181:../../Middlewares/Third_Party/FreeRTOS/Source/event_groups.c **** 		{
 182:../../Middlewares/Third_Party/FreeRTOS/Source/event_groups.c **** 			traceEVENT_GROUP_CREATE_FAILED(); /*lint !e9063 Else branch only exists to allow tracing and doe
 183:../../Middlewares/Third_Party/FreeRTOS/Source/event_groups.c **** 		}
 184:../../Middlewares/Third_Party/FreeRTOS/Source/event_groups.c **** 
 185:../../Middlewares/Third_Party/FreeRTOS/Source/event_groups.c **** 		return pxEventBits;
 186:../../Middlewares/Third_Party/FreeRTOS/Source/event_groups.c **** 	}
 187:../../Middlewares/Third_Party/FreeRTOS/Source/event_groups.c **** 
 188:../../Middlewares/Third_Party/FreeRTOS/Source/event_groups.c **** #endif /* configSUPPORT_DYNAMIC_ALLOCATION */
 189:../../Middlewares/Third_Party/FreeRTOS/Source/event_groups.c **** /*-----------------------------------------------------------*/
 190:../../Middlewares/Third_Party/FreeRTOS/Source/event_groups.c **** 
 191:../../Middlewares/Third_Party/FreeRTOS/Source/event_groups.c **** EventBits_t xEventGroupSync( EventGroupHandle_t xEventGroup, const EventBits_t uxBitsToSet, const E
 192:../../Middlewares/Third_Party/FreeRTOS/Source/event_groups.c **** {
 193:../../Middlewares/Third_Party/FreeRTOS/Source/event_groups.c **** EventBits_t uxOriginalBitValue, uxReturn;
 194:../../Middlewares/Third_Party/FreeRTOS/Source/event_groups.c **** EventGroup_t *pxEventBits = xEventGroup;
 195:../../Middlewares/Third_Party/FreeRTOS/Source/event_groups.c **** BaseType_t xAlreadyYielded;
 196:../../Middlewares/Third_Party/FreeRTOS/Source/event_groups.c **** BaseType_t xTimeoutOccurred = pdFALSE;
 197:../../Middlewares/Third_Party/FreeRTOS/Source/event_groups.c **** 
 198:../../Middlewares/Third_Party/FreeRTOS/Source/event_groups.c **** 	configASSERT( ( uxBitsToWaitFor & eventEVENT_BITS_CONTROL_BYTES ) == 0 );
 199:../../Middlewares/Third_Party/FreeRTOS/Source/event_groups.c **** 	configASSERT( uxBitsToWaitFor != 0 );
 200:../../Middlewares/Third_Party/FreeRTOS/Source/event_groups.c **** 	#if ( ( INCLUDE_xTaskGetSchedulerState == 1 ) || ( configUSE_TIMERS == 1 ) )
 201:../../Middlewares/Third_Party/FreeRTOS/Source/event_groups.c **** 	{
 202:../../Middlewares/Third_Party/FreeRTOS/Source/event_groups.c **** 		configASSERT( !( ( xTaskGetSchedulerState() == taskSCHEDULER_SUSPENDED ) && ( xTicksToWait != 0 )
ARM GAS  C:\Users\gigig\AppData\Local\Temp\ccsPSJdA.s 			page 5


 203:../../Middlewares/Third_Party/FreeRTOS/Source/event_groups.c **** 	}
 204:../../Middlewares/Third_Party/FreeRTOS/Source/event_groups.c **** 	#endif
 205:../../Middlewares/Third_Party/FreeRTOS/Source/event_groups.c **** 
 206:../../Middlewares/Third_Party/FreeRTOS/Source/event_groups.c **** 	vTaskSuspendAll();
 207:../../Middlewares/Third_Party/FreeRTOS/Source/event_groups.c **** 	{
 208:../../Middlewares/Third_Party/FreeRTOS/Source/event_groups.c **** 		uxOriginalBitValue = pxEventBits->uxEventBits;
 209:../../Middlewares/Third_Party/FreeRTOS/Source/event_groups.c **** 
 210:../../Middlewares/Third_Party/FreeRTOS/Source/event_groups.c **** 		( void ) xEventGroupSetBits( xEventGroup, uxBitsToSet );
 211:../../Middlewares/Third_Party/FreeRTOS/Source/event_groups.c **** 
 212:../../Middlewares/Third_Party/FreeRTOS/Source/event_groups.c **** 		if( ( ( uxOriginalBitValue | uxBitsToSet ) & uxBitsToWaitFor ) == uxBitsToWaitFor )
 213:../../Middlewares/Third_Party/FreeRTOS/Source/event_groups.c **** 		{
 214:../../Middlewares/Third_Party/FreeRTOS/Source/event_groups.c **** 			/* All the rendezvous bits are now set - no need to block. */
 215:../../Middlewares/Third_Party/FreeRTOS/Source/event_groups.c **** 			uxReturn = ( uxOriginalBitValue | uxBitsToSet );
 216:../../Middlewares/Third_Party/FreeRTOS/Source/event_groups.c **** 
 217:../../Middlewares/Third_Party/FreeRTOS/Source/event_groups.c **** 			/* Rendezvous always clear the bits.  They will have been cleared
 218:../../Middlewares/Third_Party/FreeRTOS/Source/event_groups.c **** 			already unless this is the only task in the rendezvous. */
 219:../../Middlewares/Third_Party/FreeRTOS/Source/event_groups.c **** 			pxEventBits->uxEventBits &= ~uxBitsToWaitFor;
 220:../../Middlewares/Third_Party/FreeRTOS/Source/event_groups.c **** 
 221:../../Middlewares/Third_Party/FreeRTOS/Source/event_groups.c **** 			xTicksToWait = 0;
 222:../../Middlewares/Third_Party/FreeRTOS/Source/event_groups.c **** 		}
 223:../../Middlewares/Third_Party/FreeRTOS/Source/event_groups.c **** 		else
 224:../../Middlewares/Third_Party/FreeRTOS/Source/event_groups.c **** 		{
 225:../../Middlewares/Third_Party/FreeRTOS/Source/event_groups.c **** 			if( xTicksToWait != ( TickType_t ) 0 )
 226:../../Middlewares/Third_Party/FreeRTOS/Source/event_groups.c **** 			{
 227:../../Middlewares/Third_Party/FreeRTOS/Source/event_groups.c **** 				traceEVENT_GROUP_SYNC_BLOCK( xEventGroup, uxBitsToSet, uxBitsToWaitFor );
 228:../../Middlewares/Third_Party/FreeRTOS/Source/event_groups.c **** 
 229:../../Middlewares/Third_Party/FreeRTOS/Source/event_groups.c **** 				/* Store the bits that the calling task is waiting for in the
 230:../../Middlewares/Third_Party/FreeRTOS/Source/event_groups.c **** 				task's event list item so the kernel knows when a match is
 231:../../Middlewares/Third_Party/FreeRTOS/Source/event_groups.c **** 				found.  Then enter the blocked state. */
 232:../../Middlewares/Third_Party/FreeRTOS/Source/event_groups.c **** 				vTaskPlaceOnUnorderedEventList( &( pxEventBits->xTasksWaitingForBits ), ( uxBitsToWaitFor | eve
 233:../../Middlewares/Third_Party/FreeRTOS/Source/event_groups.c **** 
 234:../../Middlewares/Third_Party/FreeRTOS/Source/event_groups.c **** 				/* This assignment is obsolete as uxReturn will get set after
 235:../../Middlewares/Third_Party/FreeRTOS/Source/event_groups.c **** 				the task unblocks, but some compilers mistakenly generate a
 236:../../Middlewares/Third_Party/FreeRTOS/Source/event_groups.c **** 				warning about uxReturn being returned without being set if the
 237:../../Middlewares/Third_Party/FreeRTOS/Source/event_groups.c **** 				assignment is omitted. */
 238:../../Middlewares/Third_Party/FreeRTOS/Source/event_groups.c **** 				uxReturn = 0;
 239:../../Middlewares/Third_Party/FreeRTOS/Source/event_groups.c **** 			}
 240:../../Middlewares/Third_Party/FreeRTOS/Source/event_groups.c **** 			else
 241:../../Middlewares/Third_Party/FreeRTOS/Source/event_groups.c **** 			{
 242:../../Middlewares/Third_Party/FreeRTOS/Source/event_groups.c **** 				/* The rendezvous bits were not set, but no block time was
 243:../../Middlewares/Third_Party/FreeRTOS/Source/event_groups.c **** 				specified - just return the current event bit value. */
 244:../../Middlewares/Third_Party/FreeRTOS/Source/event_groups.c **** 				uxReturn = pxEventBits->uxEventBits;
 245:../../Middlewares/Third_Party/FreeRTOS/Source/event_groups.c **** 				xTimeoutOccurred = pdTRUE;
 246:../../Middlewares/Third_Party/FreeRTOS/Source/event_groups.c **** 			}
 247:../../Middlewares/Third_Party/FreeRTOS/Source/event_groups.c **** 		}
 248:../../Middlewares/Third_Party/FreeRTOS/Source/event_groups.c **** 	}
 249:../../Middlewares/Third_Party/FreeRTOS/Source/event_groups.c **** 	xAlreadyYielded = xTaskResumeAll();
 250:../../Middlewares/Third_Party/FreeRTOS/Source/event_groups.c **** 
 251:../../Middlewares/Third_Party/FreeRTOS/Source/event_groups.c **** 	if( xTicksToWait != ( TickType_t ) 0 )
 252:../../Middlewares/Third_Party/FreeRTOS/Source/event_groups.c **** 	{
 253:../../Middlewares/Third_Party/FreeRTOS/Source/event_groups.c **** 		if( xAlreadyYielded == pdFALSE )
 254:../../Middlewares/Third_Party/FreeRTOS/Source/event_groups.c **** 		{
 255:../../Middlewares/Third_Party/FreeRTOS/Source/event_groups.c **** 			portYIELD_WITHIN_API();
 256:../../Middlewares/Third_Party/FreeRTOS/Source/event_groups.c **** 		}
 257:../../Middlewares/Third_Party/FreeRTOS/Source/event_groups.c **** 		else
 258:../../Middlewares/Third_Party/FreeRTOS/Source/event_groups.c **** 		{
 259:../../Middlewares/Third_Party/FreeRTOS/Source/event_groups.c **** 			mtCOVERAGE_TEST_MARKER();
ARM GAS  C:\Users\gigig\AppData\Local\Temp\ccsPSJdA.s 			page 6


 260:../../Middlewares/Third_Party/FreeRTOS/Source/event_groups.c **** 		}
 261:../../Middlewares/Third_Party/FreeRTOS/Source/event_groups.c **** 
 262:../../Middlewares/Third_Party/FreeRTOS/Source/event_groups.c **** 		/* The task blocked to wait for its required bits to be set - at this
 263:../../Middlewares/Third_Party/FreeRTOS/Source/event_groups.c **** 		point either the required bits were set or the block time expired.  If
 264:../../Middlewares/Third_Party/FreeRTOS/Source/event_groups.c **** 		the required bits were set they will have been stored in the task's
 265:../../Middlewares/Third_Party/FreeRTOS/Source/event_groups.c **** 		event list item, and they should now be retrieved then cleared. */
 266:../../Middlewares/Third_Party/FreeRTOS/Source/event_groups.c **** 		uxReturn = uxTaskResetEventItemValue();
 267:../../Middlewares/Third_Party/FreeRTOS/Source/event_groups.c **** 
 268:../../Middlewares/Third_Party/FreeRTOS/Source/event_groups.c **** 		if( ( uxReturn & eventUNBLOCKED_DUE_TO_BIT_SET ) == ( EventBits_t ) 0 )
 269:../../Middlewares/Third_Party/FreeRTOS/Source/event_groups.c **** 		{
 270:../../Middlewares/Third_Party/FreeRTOS/Source/event_groups.c **** 			/* The task timed out, just return the current event bit value. */
 271:../../Middlewares/Third_Party/FreeRTOS/Source/event_groups.c **** 			taskENTER_CRITICAL();
 272:../../Middlewares/Third_Party/FreeRTOS/Source/event_groups.c **** 			{
 273:../../Middlewares/Third_Party/FreeRTOS/Source/event_groups.c **** 				uxReturn = pxEventBits->uxEventBits;
 274:../../Middlewares/Third_Party/FreeRTOS/Source/event_groups.c **** 
 275:../../Middlewares/Third_Party/FreeRTOS/Source/event_groups.c **** 				/* Although the task got here because it timed out before the
 276:../../Middlewares/Third_Party/FreeRTOS/Source/event_groups.c **** 				bits it was waiting for were set, it is possible that since it
 277:../../Middlewares/Third_Party/FreeRTOS/Source/event_groups.c **** 				unblocked another task has set the bits.  If this is the case
 278:../../Middlewares/Third_Party/FreeRTOS/Source/event_groups.c **** 				then it needs to clear the bits before exiting. */
 279:../../Middlewares/Third_Party/FreeRTOS/Source/event_groups.c **** 				if( ( uxReturn & uxBitsToWaitFor ) == uxBitsToWaitFor )
 280:../../Middlewares/Third_Party/FreeRTOS/Source/event_groups.c **** 				{
 281:../../Middlewares/Third_Party/FreeRTOS/Source/event_groups.c **** 					pxEventBits->uxEventBits &= ~uxBitsToWaitFor;
 282:../../Middlewares/Third_Party/FreeRTOS/Source/event_groups.c **** 				}
 283:../../Middlewares/Third_Party/FreeRTOS/Source/event_groups.c **** 				else
 284:../../Middlewares/Third_Party/FreeRTOS/Source/event_groups.c **** 				{
 285:../../Middlewares/Third_Party/FreeRTOS/Source/event_groups.c **** 					mtCOVERAGE_TEST_MARKER();
 286:../../Middlewares/Third_Party/FreeRTOS/Source/event_groups.c **** 				}
 287:../../Middlewares/Third_Party/FreeRTOS/Source/event_groups.c **** 			}
 288:../../Middlewares/Third_Party/FreeRTOS/Source/event_groups.c **** 			taskEXIT_CRITICAL();
 289:../../Middlewares/Third_Party/FreeRTOS/Source/event_groups.c **** 
 290:../../Middlewares/Third_Party/FreeRTOS/Source/event_groups.c **** 			xTimeoutOccurred = pdTRUE;
 291:../../Middlewares/Third_Party/FreeRTOS/Source/event_groups.c **** 		}
 292:../../Middlewares/Third_Party/FreeRTOS/Source/event_groups.c **** 		else
 293:../../Middlewares/Third_Party/FreeRTOS/Source/event_groups.c **** 		{
 294:../../Middlewares/Third_Party/FreeRTOS/Source/event_groups.c **** 			/* The task unblocked because the bits were set. */
 295:../../Middlewares/Third_Party/FreeRTOS/Source/event_groups.c **** 		}
 296:../../Middlewares/Third_Party/FreeRTOS/Source/event_groups.c **** 
 297:../../Middlewares/Third_Party/FreeRTOS/Source/event_groups.c **** 		/* Control bits might be set as the task had blocked should not be
 298:../../Middlewares/Third_Party/FreeRTOS/Source/event_groups.c **** 		returned. */
 299:../../Middlewares/Third_Party/FreeRTOS/Source/event_groups.c **** 		uxReturn &= ~eventEVENT_BITS_CONTROL_BYTES;
 300:../../Middlewares/Third_Party/FreeRTOS/Source/event_groups.c **** 	}
 301:../../Middlewares/Third_Party/FreeRTOS/Source/event_groups.c **** 
 302:../../Middlewares/Third_Party/FreeRTOS/Source/event_groups.c **** 	traceEVENT_GROUP_SYNC_END( xEventGroup, uxBitsToSet, uxBitsToWaitFor, xTimeoutOccurred );
 303:../../Middlewares/Third_Party/FreeRTOS/Source/event_groups.c **** 
 304:../../Middlewares/Third_Party/FreeRTOS/Source/event_groups.c **** 	/* Prevent compiler warnings when trace macros are not used. */
 305:../../Middlewares/Third_Party/FreeRTOS/Source/event_groups.c **** 	( void ) xTimeoutOccurred;
 306:../../Middlewares/Third_Party/FreeRTOS/Source/event_groups.c **** 
 307:../../Middlewares/Third_Party/FreeRTOS/Source/event_groups.c **** 	return uxReturn;
 308:../../Middlewares/Third_Party/FreeRTOS/Source/event_groups.c **** }
 309:../../Middlewares/Third_Party/FreeRTOS/Source/event_groups.c **** /*-----------------------------------------------------------*/
 310:../../Middlewares/Third_Party/FreeRTOS/Source/event_groups.c **** 
 311:../../Middlewares/Third_Party/FreeRTOS/Source/event_groups.c **** EventBits_t xEventGroupWaitBits( EventGroupHandle_t xEventGroup, const EventBits_t uxBitsToWaitFor,
 312:../../Middlewares/Third_Party/FreeRTOS/Source/event_groups.c **** {
 313:../../Middlewares/Third_Party/FreeRTOS/Source/event_groups.c **** EventGroup_t *pxEventBits = xEventGroup;
 314:../../Middlewares/Third_Party/FreeRTOS/Source/event_groups.c **** EventBits_t uxReturn, uxControlBits = 0;
 315:../../Middlewares/Third_Party/FreeRTOS/Source/event_groups.c **** BaseType_t xWaitConditionMet, xAlreadyYielded;
 316:../../Middlewares/Third_Party/FreeRTOS/Source/event_groups.c **** BaseType_t xTimeoutOccurred = pdFALSE;
ARM GAS  C:\Users\gigig\AppData\Local\Temp\ccsPSJdA.s 			page 7


 317:../../Middlewares/Third_Party/FreeRTOS/Source/event_groups.c **** 
 318:../../Middlewares/Third_Party/FreeRTOS/Source/event_groups.c **** 	/* Check the user is not attempting to wait on the bits used by the kernel
 319:../../Middlewares/Third_Party/FreeRTOS/Source/event_groups.c **** 	itself, and that at least one bit is being requested. */
 320:../../Middlewares/Third_Party/FreeRTOS/Source/event_groups.c **** 	configASSERT( xEventGroup );
 321:../../Middlewares/Third_Party/FreeRTOS/Source/event_groups.c **** 	configASSERT( ( uxBitsToWaitFor & eventEVENT_BITS_CONTROL_BYTES ) == 0 );
 322:../../Middlewares/Third_Party/FreeRTOS/Source/event_groups.c **** 	configASSERT( uxBitsToWaitFor != 0 );
 323:../../Middlewares/Third_Party/FreeRTOS/Source/event_groups.c **** 	#if ( ( INCLUDE_xTaskGetSchedulerState == 1 ) || ( configUSE_TIMERS == 1 ) )
 324:../../Middlewares/Third_Party/FreeRTOS/Source/event_groups.c **** 	{
 325:../../Middlewares/Third_Party/FreeRTOS/Source/event_groups.c **** 		configASSERT( !( ( xTaskGetSchedulerState() == taskSCHEDULER_SUSPENDED ) && ( xTicksToWait != 0 )
 326:../../Middlewares/Third_Party/FreeRTOS/Source/event_groups.c **** 	}
 327:../../Middlewares/Third_Party/FreeRTOS/Source/event_groups.c **** 	#endif
 328:../../Middlewares/Third_Party/FreeRTOS/Source/event_groups.c **** 
 329:../../Middlewares/Third_Party/FreeRTOS/Source/event_groups.c **** 	vTaskSuspendAll();
 330:../../Middlewares/Third_Party/FreeRTOS/Source/event_groups.c **** 	{
 331:../../Middlewares/Third_Party/FreeRTOS/Source/event_groups.c **** 		const EventBits_t uxCurrentEventBits = pxEventBits->uxEventBits;
 332:../../Middlewares/Third_Party/FreeRTOS/Source/event_groups.c **** 
 333:../../Middlewares/Third_Party/FreeRTOS/Source/event_groups.c **** 		/* Check to see if the wait condition is already met or not. */
 334:../../Middlewares/Third_Party/FreeRTOS/Source/event_groups.c **** 		xWaitConditionMet = prvTestWaitCondition( uxCurrentEventBits, uxBitsToWaitFor, xWaitForAllBits );
 335:../../Middlewares/Third_Party/FreeRTOS/Source/event_groups.c **** 
 336:../../Middlewares/Third_Party/FreeRTOS/Source/event_groups.c **** 		if( xWaitConditionMet != pdFALSE )
 337:../../Middlewares/Third_Party/FreeRTOS/Source/event_groups.c **** 		{
 338:../../Middlewares/Third_Party/FreeRTOS/Source/event_groups.c **** 			/* The wait condition has already been met so there is no need to
 339:../../Middlewares/Third_Party/FreeRTOS/Source/event_groups.c **** 			block. */
 340:../../Middlewares/Third_Party/FreeRTOS/Source/event_groups.c **** 			uxReturn = uxCurrentEventBits;
 341:../../Middlewares/Third_Party/FreeRTOS/Source/event_groups.c **** 			xTicksToWait = ( TickType_t ) 0;
 342:../../Middlewares/Third_Party/FreeRTOS/Source/event_groups.c **** 
 343:../../Middlewares/Third_Party/FreeRTOS/Source/event_groups.c **** 			/* Clear the wait bits if requested to do so. */
 344:../../Middlewares/Third_Party/FreeRTOS/Source/event_groups.c **** 			if( xClearOnExit != pdFALSE )
 345:../../Middlewares/Third_Party/FreeRTOS/Source/event_groups.c **** 			{
 346:../../Middlewares/Third_Party/FreeRTOS/Source/event_groups.c **** 				pxEventBits->uxEventBits &= ~uxBitsToWaitFor;
 347:../../Middlewares/Third_Party/FreeRTOS/Source/event_groups.c **** 			}
 348:../../Middlewares/Third_Party/FreeRTOS/Source/event_groups.c **** 			else
 349:../../Middlewares/Third_Party/FreeRTOS/Source/event_groups.c **** 			{
 350:../../Middlewares/Third_Party/FreeRTOS/Source/event_groups.c **** 				mtCOVERAGE_TEST_MARKER();
 351:../../Middlewares/Third_Party/FreeRTOS/Source/event_groups.c **** 			}
 352:../../Middlewares/Third_Party/FreeRTOS/Source/event_groups.c **** 		}
 353:../../Middlewares/Third_Party/FreeRTOS/Source/event_groups.c **** 		else if( xTicksToWait == ( TickType_t ) 0 )
 354:../../Middlewares/Third_Party/FreeRTOS/Source/event_groups.c **** 		{
 355:../../Middlewares/Third_Party/FreeRTOS/Source/event_groups.c **** 			/* The wait condition has not been met, but no block time was
 356:../../Middlewares/Third_Party/FreeRTOS/Source/event_groups.c **** 			specified, so just return the current value. */
 357:../../Middlewares/Third_Party/FreeRTOS/Source/event_groups.c **** 			uxReturn = uxCurrentEventBits;
 358:../../Middlewares/Third_Party/FreeRTOS/Source/event_groups.c **** 			xTimeoutOccurred = pdTRUE;
 359:../../Middlewares/Third_Party/FreeRTOS/Source/event_groups.c **** 		}
 360:../../Middlewares/Third_Party/FreeRTOS/Source/event_groups.c **** 		else
 361:../../Middlewares/Third_Party/FreeRTOS/Source/event_groups.c **** 		{
 362:../../Middlewares/Third_Party/FreeRTOS/Source/event_groups.c **** 			/* The task is going to block to wait for its required bits to be
 363:../../Middlewares/Third_Party/FreeRTOS/Source/event_groups.c **** 			set.  uxControlBits are used to remember the specified behaviour of
 364:../../Middlewares/Third_Party/FreeRTOS/Source/event_groups.c **** 			this call to xEventGroupWaitBits() - for use when the event bits
 365:../../Middlewares/Third_Party/FreeRTOS/Source/event_groups.c **** 			unblock the task. */
 366:../../Middlewares/Third_Party/FreeRTOS/Source/event_groups.c **** 			if( xClearOnExit != pdFALSE )
 367:../../Middlewares/Third_Party/FreeRTOS/Source/event_groups.c **** 			{
 368:../../Middlewares/Third_Party/FreeRTOS/Source/event_groups.c **** 				uxControlBits |= eventCLEAR_EVENTS_ON_EXIT_BIT;
 369:../../Middlewares/Third_Party/FreeRTOS/Source/event_groups.c **** 			}
 370:../../Middlewares/Third_Party/FreeRTOS/Source/event_groups.c **** 			else
 371:../../Middlewares/Third_Party/FreeRTOS/Source/event_groups.c **** 			{
 372:../../Middlewares/Third_Party/FreeRTOS/Source/event_groups.c **** 				mtCOVERAGE_TEST_MARKER();
 373:../../Middlewares/Third_Party/FreeRTOS/Source/event_groups.c **** 			}
ARM GAS  C:\Users\gigig\AppData\Local\Temp\ccsPSJdA.s 			page 8


 374:../../Middlewares/Third_Party/FreeRTOS/Source/event_groups.c **** 
 375:../../Middlewares/Third_Party/FreeRTOS/Source/event_groups.c **** 			if( xWaitForAllBits != pdFALSE )
 376:../../Middlewares/Third_Party/FreeRTOS/Source/event_groups.c **** 			{
 377:../../Middlewares/Third_Party/FreeRTOS/Source/event_groups.c **** 				uxControlBits |= eventWAIT_FOR_ALL_BITS;
 378:../../Middlewares/Third_Party/FreeRTOS/Source/event_groups.c **** 			}
 379:../../Middlewares/Third_Party/FreeRTOS/Source/event_groups.c **** 			else
 380:../../Middlewares/Third_Party/FreeRTOS/Source/event_groups.c **** 			{
 381:../../Middlewares/Third_Party/FreeRTOS/Source/event_groups.c **** 				mtCOVERAGE_TEST_MARKER();
 382:../../Middlewares/Third_Party/FreeRTOS/Source/event_groups.c **** 			}
 383:../../Middlewares/Third_Party/FreeRTOS/Source/event_groups.c **** 
 384:../../Middlewares/Third_Party/FreeRTOS/Source/event_groups.c **** 			/* Store the bits that the calling task is waiting for in the
 385:../../Middlewares/Third_Party/FreeRTOS/Source/event_groups.c **** 			task's event list item so the kernel knows when a match is
 386:../../Middlewares/Third_Party/FreeRTOS/Source/event_groups.c **** 			found.  Then enter the blocked state. */
 387:../../Middlewares/Third_Party/FreeRTOS/Source/event_groups.c **** 			vTaskPlaceOnUnorderedEventList( &( pxEventBits->xTasksWaitingForBits ), ( uxBitsToWaitFor | uxCo
 388:../../Middlewares/Third_Party/FreeRTOS/Source/event_groups.c **** 
 389:../../Middlewares/Third_Party/FreeRTOS/Source/event_groups.c **** 			/* This is obsolete as it will get set after the task unblocks, but
 390:../../Middlewares/Third_Party/FreeRTOS/Source/event_groups.c **** 			some compilers mistakenly generate a warning about the variable
 391:../../Middlewares/Third_Party/FreeRTOS/Source/event_groups.c **** 			being returned without being set if it is not done. */
 392:../../Middlewares/Third_Party/FreeRTOS/Source/event_groups.c **** 			uxReturn = 0;
 393:../../Middlewares/Third_Party/FreeRTOS/Source/event_groups.c **** 
 394:../../Middlewares/Third_Party/FreeRTOS/Source/event_groups.c **** 			traceEVENT_GROUP_WAIT_BITS_BLOCK( xEventGroup, uxBitsToWaitFor );
 395:../../Middlewares/Third_Party/FreeRTOS/Source/event_groups.c **** 		}
 396:../../Middlewares/Third_Party/FreeRTOS/Source/event_groups.c **** 	}
 397:../../Middlewares/Third_Party/FreeRTOS/Source/event_groups.c **** 	xAlreadyYielded = xTaskResumeAll();
 398:../../Middlewares/Third_Party/FreeRTOS/Source/event_groups.c **** 
 399:../../Middlewares/Third_Party/FreeRTOS/Source/event_groups.c **** 	if( xTicksToWait != ( TickType_t ) 0 )
 400:../../Middlewares/Third_Party/FreeRTOS/Source/event_groups.c **** 	{
 401:../../Middlewares/Third_Party/FreeRTOS/Source/event_groups.c **** 		if( xAlreadyYielded == pdFALSE )
 402:../../Middlewares/Third_Party/FreeRTOS/Source/event_groups.c **** 		{
 403:../../Middlewares/Third_Party/FreeRTOS/Source/event_groups.c **** 			portYIELD_WITHIN_API();
 404:../../Middlewares/Third_Party/FreeRTOS/Source/event_groups.c **** 		}
 405:../../Middlewares/Third_Party/FreeRTOS/Source/event_groups.c **** 		else
 406:../../Middlewares/Third_Party/FreeRTOS/Source/event_groups.c **** 		{
 407:../../Middlewares/Third_Party/FreeRTOS/Source/event_groups.c **** 			mtCOVERAGE_TEST_MARKER();
 408:../../Middlewares/Third_Party/FreeRTOS/Source/event_groups.c **** 		}
 409:../../Middlewares/Third_Party/FreeRTOS/Source/event_groups.c **** 
 410:../../Middlewares/Third_Party/FreeRTOS/Source/event_groups.c **** 		/* The task blocked to wait for its required bits to be set - at this
 411:../../Middlewares/Third_Party/FreeRTOS/Source/event_groups.c **** 		point either the required bits were set or the block time expired.  If
 412:../../Middlewares/Third_Party/FreeRTOS/Source/event_groups.c **** 		the required bits were set they will have been stored in the task's
 413:../../Middlewares/Third_Party/FreeRTOS/Source/event_groups.c **** 		event list item, and they should now be retrieved then cleared. */
 414:../../Middlewares/Third_Party/FreeRTOS/Source/event_groups.c **** 		uxReturn = uxTaskResetEventItemValue();
 415:../../Middlewares/Third_Party/FreeRTOS/Source/event_groups.c **** 
 416:../../Middlewares/Third_Party/FreeRTOS/Source/event_groups.c **** 		if( ( uxReturn & eventUNBLOCKED_DUE_TO_BIT_SET ) == ( EventBits_t ) 0 )
 417:../../Middlewares/Third_Party/FreeRTOS/Source/event_groups.c **** 		{
 418:../../Middlewares/Third_Party/FreeRTOS/Source/event_groups.c **** 			taskENTER_CRITICAL();
 419:../../Middlewares/Third_Party/FreeRTOS/Source/event_groups.c **** 			{
 420:../../Middlewares/Third_Party/FreeRTOS/Source/event_groups.c **** 				/* The task timed out, just return the current event bit value. */
 421:../../Middlewares/Third_Party/FreeRTOS/Source/event_groups.c **** 				uxReturn = pxEventBits->uxEventBits;
 422:../../Middlewares/Third_Party/FreeRTOS/Source/event_groups.c **** 
 423:../../Middlewares/Third_Party/FreeRTOS/Source/event_groups.c **** 				/* It is possible that the event bits were updated between this
 424:../../Middlewares/Third_Party/FreeRTOS/Source/event_groups.c **** 				task leaving the Blocked state and running again. */
 425:../../Middlewares/Third_Party/FreeRTOS/Source/event_groups.c **** 				if( prvTestWaitCondition( uxReturn, uxBitsToWaitFor, xWaitForAllBits ) != pdFALSE )
 426:../../Middlewares/Third_Party/FreeRTOS/Source/event_groups.c **** 				{
 427:../../Middlewares/Third_Party/FreeRTOS/Source/event_groups.c **** 					if( xClearOnExit != pdFALSE )
 428:../../Middlewares/Third_Party/FreeRTOS/Source/event_groups.c **** 					{
 429:../../Middlewares/Third_Party/FreeRTOS/Source/event_groups.c **** 						pxEventBits->uxEventBits &= ~uxBitsToWaitFor;
 430:../../Middlewares/Third_Party/FreeRTOS/Source/event_groups.c **** 					}
ARM GAS  C:\Users\gigig\AppData\Local\Temp\ccsPSJdA.s 			page 9


 431:../../Middlewares/Third_Party/FreeRTOS/Source/event_groups.c **** 					else
 432:../../Middlewares/Third_Party/FreeRTOS/Source/event_groups.c **** 					{
 433:../../Middlewares/Third_Party/FreeRTOS/Source/event_groups.c **** 						mtCOVERAGE_TEST_MARKER();
 434:../../Middlewares/Third_Party/FreeRTOS/Source/event_groups.c **** 					}
 435:../../Middlewares/Third_Party/FreeRTOS/Source/event_groups.c **** 				}
 436:../../Middlewares/Third_Party/FreeRTOS/Source/event_groups.c **** 				else
 437:../../Middlewares/Third_Party/FreeRTOS/Source/event_groups.c **** 				{
 438:../../Middlewares/Third_Party/FreeRTOS/Source/event_groups.c **** 					mtCOVERAGE_TEST_MARKER();
 439:../../Middlewares/Third_Party/FreeRTOS/Source/event_groups.c **** 				}
 440:../../Middlewares/Third_Party/FreeRTOS/Source/event_groups.c **** 				xTimeoutOccurred = pdTRUE;
 441:../../Middlewares/Third_Party/FreeRTOS/Source/event_groups.c **** 			}
 442:../../Middlewares/Third_Party/FreeRTOS/Source/event_groups.c **** 			taskEXIT_CRITICAL();
 443:../../Middlewares/Third_Party/FreeRTOS/Source/event_groups.c **** 		}
 444:../../Middlewares/Third_Party/FreeRTOS/Source/event_groups.c **** 		else
 445:../../Middlewares/Third_Party/FreeRTOS/Source/event_groups.c **** 		{
 446:../../Middlewares/Third_Party/FreeRTOS/Source/event_groups.c **** 			/* The task unblocked because the bits were set. */
 447:../../Middlewares/Third_Party/FreeRTOS/Source/event_groups.c **** 		}
 448:../../Middlewares/Third_Party/FreeRTOS/Source/event_groups.c **** 
 449:../../Middlewares/Third_Party/FreeRTOS/Source/event_groups.c **** 		/* The task blocked so control bits may have been set. */
 450:../../Middlewares/Third_Party/FreeRTOS/Source/event_groups.c **** 		uxReturn &= ~eventEVENT_BITS_CONTROL_BYTES;
 451:../../Middlewares/Third_Party/FreeRTOS/Source/event_groups.c **** 	}
 452:../../Middlewares/Third_Party/FreeRTOS/Source/event_groups.c **** 	traceEVENT_GROUP_WAIT_BITS_END( xEventGroup, uxBitsToWaitFor, xTimeoutOccurred );
 453:../../Middlewares/Third_Party/FreeRTOS/Source/event_groups.c **** 
 454:../../Middlewares/Third_Party/FreeRTOS/Source/event_groups.c **** 	/* Prevent compiler warnings when trace macros are not used. */
 455:../../Middlewares/Third_Party/FreeRTOS/Source/event_groups.c **** 	( void ) xTimeoutOccurred;
 456:../../Middlewares/Third_Party/FreeRTOS/Source/event_groups.c **** 
 457:../../Middlewares/Third_Party/FreeRTOS/Source/event_groups.c **** 	return uxReturn;
 458:../../Middlewares/Third_Party/FreeRTOS/Source/event_groups.c **** }
 459:../../Middlewares/Third_Party/FreeRTOS/Source/event_groups.c **** /*-----------------------------------------------------------*/
 460:../../Middlewares/Third_Party/FreeRTOS/Source/event_groups.c **** 
 461:../../Middlewares/Third_Party/FreeRTOS/Source/event_groups.c **** EventBits_t xEventGroupClearBits( EventGroupHandle_t xEventGroup, const EventBits_t uxBitsToClear )
 462:../../Middlewares/Third_Party/FreeRTOS/Source/event_groups.c **** {
 463:../../Middlewares/Third_Party/FreeRTOS/Source/event_groups.c **** EventGroup_t *pxEventBits = xEventGroup;
 464:../../Middlewares/Third_Party/FreeRTOS/Source/event_groups.c **** EventBits_t uxReturn;
 465:../../Middlewares/Third_Party/FreeRTOS/Source/event_groups.c **** 
 466:../../Middlewares/Third_Party/FreeRTOS/Source/event_groups.c **** 	/* Check the user is not attempting to clear the bits used by the kernel
 467:../../Middlewares/Third_Party/FreeRTOS/Source/event_groups.c **** 	itself. */
 468:../../Middlewares/Third_Party/FreeRTOS/Source/event_groups.c **** 	configASSERT( xEventGroup );
 469:../../Middlewares/Third_Party/FreeRTOS/Source/event_groups.c **** 	configASSERT( ( uxBitsToClear & eventEVENT_BITS_CONTROL_BYTES ) == 0 );
 470:../../Middlewares/Third_Party/FreeRTOS/Source/event_groups.c **** 
 471:../../Middlewares/Third_Party/FreeRTOS/Source/event_groups.c **** 	taskENTER_CRITICAL();
 472:../../Middlewares/Third_Party/FreeRTOS/Source/event_groups.c **** 	{
 473:../../Middlewares/Third_Party/FreeRTOS/Source/event_groups.c **** 		traceEVENT_GROUP_CLEAR_BITS( xEventGroup, uxBitsToClear );
 474:../../Middlewares/Third_Party/FreeRTOS/Source/event_groups.c **** 
 475:../../Middlewares/Third_Party/FreeRTOS/Source/event_groups.c **** 		/* The value returned is the event group value prior to the bits being
 476:../../Middlewares/Third_Party/FreeRTOS/Source/event_groups.c **** 		cleared. */
 477:../../Middlewares/Third_Party/FreeRTOS/Source/event_groups.c **** 		uxReturn = pxEventBits->uxEventBits;
 478:../../Middlewares/Third_Party/FreeRTOS/Source/event_groups.c **** 
 479:../../Middlewares/Third_Party/FreeRTOS/Source/event_groups.c **** 		/* Clear the bits. */
 480:../../Middlewares/Third_Party/FreeRTOS/Source/event_groups.c **** 		pxEventBits->uxEventBits &= ~uxBitsToClear;
 481:../../Middlewares/Third_Party/FreeRTOS/Source/event_groups.c **** 	}
 482:../../Middlewares/Third_Party/FreeRTOS/Source/event_groups.c **** 	taskEXIT_CRITICAL();
 483:../../Middlewares/Third_Party/FreeRTOS/Source/event_groups.c **** 
 484:../../Middlewares/Third_Party/FreeRTOS/Source/event_groups.c **** 	return uxReturn;
 485:../../Middlewares/Third_Party/FreeRTOS/Source/event_groups.c **** }
 486:../../Middlewares/Third_Party/FreeRTOS/Source/event_groups.c **** /*-----------------------------------------------------------*/
 487:../../Middlewares/Third_Party/FreeRTOS/Source/event_groups.c **** 
ARM GAS  C:\Users\gigig\AppData\Local\Temp\ccsPSJdA.s 			page 10


 488:../../Middlewares/Third_Party/FreeRTOS/Source/event_groups.c **** #if ( ( configUSE_TRACE_FACILITY == 1 ) && ( INCLUDE_xTimerPendFunctionCall == 1 ) && ( configUSE_T
 489:../../Middlewares/Third_Party/FreeRTOS/Source/event_groups.c **** 
 490:../../Middlewares/Third_Party/FreeRTOS/Source/event_groups.c **** 	BaseType_t xEventGroupClearBitsFromISR( EventGroupHandle_t xEventGroup, const EventBits_t uxBitsTo
 491:../../Middlewares/Third_Party/FreeRTOS/Source/event_groups.c **** 	{
 492:../../Middlewares/Third_Party/FreeRTOS/Source/event_groups.c **** 		BaseType_t xReturn;
 493:../../Middlewares/Third_Party/FreeRTOS/Source/event_groups.c **** 
 494:../../Middlewares/Third_Party/FreeRTOS/Source/event_groups.c **** 		traceEVENT_GROUP_CLEAR_BITS_FROM_ISR( xEventGroup, uxBitsToClear );
 495:../../Middlewares/Third_Party/FreeRTOS/Source/event_groups.c **** 		xReturn = xTimerPendFunctionCallFromISR( vEventGroupClearBitsCallback, ( void * ) xEventGroup, ( 
 496:../../Middlewares/Third_Party/FreeRTOS/Source/event_groups.c **** 
 497:../../Middlewares/Third_Party/FreeRTOS/Source/event_groups.c **** 		return xReturn;
 498:../../Middlewares/Third_Party/FreeRTOS/Source/event_groups.c **** 	}
 499:../../Middlewares/Third_Party/FreeRTOS/Source/event_groups.c **** 
 500:../../Middlewares/Third_Party/FreeRTOS/Source/event_groups.c **** #endif
 501:../../Middlewares/Third_Party/FreeRTOS/Source/event_groups.c **** /*-----------------------------------------------------------*/
 502:../../Middlewares/Third_Party/FreeRTOS/Source/event_groups.c **** 
 503:../../Middlewares/Third_Party/FreeRTOS/Source/event_groups.c **** EventBits_t xEventGroupGetBitsFromISR( EventGroupHandle_t xEventGroup )
 504:../../Middlewares/Third_Party/FreeRTOS/Source/event_groups.c **** {
 505:../../Middlewares/Third_Party/FreeRTOS/Source/event_groups.c **** UBaseType_t uxSavedInterruptStatus;
 506:../../Middlewares/Third_Party/FreeRTOS/Source/event_groups.c **** EventGroup_t const * const pxEventBits = xEventGroup;
 507:../../Middlewares/Third_Party/FreeRTOS/Source/event_groups.c **** EventBits_t uxReturn;
 508:../../Middlewares/Third_Party/FreeRTOS/Source/event_groups.c **** 
 509:../../Middlewares/Third_Party/FreeRTOS/Source/event_groups.c **** 	uxSavedInterruptStatus = portSET_INTERRUPT_MASK_FROM_ISR();
 510:../../Middlewares/Third_Party/FreeRTOS/Source/event_groups.c **** 	{
 511:../../Middlewares/Third_Party/FreeRTOS/Source/event_groups.c **** 		uxReturn = pxEventBits->uxEventBits;
 512:../../Middlewares/Third_Party/FreeRTOS/Source/event_groups.c **** 	}
 513:../../Middlewares/Third_Party/FreeRTOS/Source/event_groups.c **** 	portCLEAR_INTERRUPT_MASK_FROM_ISR( uxSavedInterruptStatus );
 514:../../Middlewares/Third_Party/FreeRTOS/Source/event_groups.c **** 
 515:../../Middlewares/Third_Party/FreeRTOS/Source/event_groups.c **** 	return uxReturn;
 516:../../Middlewares/Third_Party/FreeRTOS/Source/event_groups.c **** } /*lint !e818 EventGroupHandle_t is a typedef used in other functions to so can't be pointer to co
 517:../../Middlewares/Third_Party/FreeRTOS/Source/event_groups.c **** /*-----------------------------------------------------------*/
 518:../../Middlewares/Third_Party/FreeRTOS/Source/event_groups.c **** 
 519:../../Middlewares/Third_Party/FreeRTOS/Source/event_groups.c **** EventBits_t xEventGroupSetBits( EventGroupHandle_t xEventGroup, const EventBits_t uxBitsToSet )
 520:../../Middlewares/Third_Party/FreeRTOS/Source/event_groups.c **** {
 521:../../Middlewares/Third_Party/FreeRTOS/Source/event_groups.c **** ListItem_t *pxListItem, *pxNext;
 522:../../Middlewares/Third_Party/FreeRTOS/Source/event_groups.c **** ListItem_t const *pxListEnd;
 523:../../Middlewares/Third_Party/FreeRTOS/Source/event_groups.c **** List_t const * pxList;
 524:../../Middlewares/Third_Party/FreeRTOS/Source/event_groups.c **** EventBits_t uxBitsToClear = 0, uxBitsWaitedFor, uxControlBits;
 525:../../Middlewares/Third_Party/FreeRTOS/Source/event_groups.c **** EventGroup_t *pxEventBits = xEventGroup;
 526:../../Middlewares/Third_Party/FreeRTOS/Source/event_groups.c **** BaseType_t xMatchFound = pdFALSE;
 527:../../Middlewares/Third_Party/FreeRTOS/Source/event_groups.c **** 
 528:../../Middlewares/Third_Party/FreeRTOS/Source/event_groups.c **** 	/* Check the user is not attempting to set the bits used by the kernel
 529:../../Middlewares/Third_Party/FreeRTOS/Source/event_groups.c **** 	itself. */
 530:../../Middlewares/Third_Party/FreeRTOS/Source/event_groups.c **** 	configASSERT( xEventGroup );
 531:../../Middlewares/Third_Party/FreeRTOS/Source/event_groups.c **** 	configASSERT( ( uxBitsToSet & eventEVENT_BITS_CONTROL_BYTES ) == 0 );
 532:../../Middlewares/Third_Party/FreeRTOS/Source/event_groups.c **** 
 533:../../Middlewares/Third_Party/FreeRTOS/Source/event_groups.c **** 	pxList = &( pxEventBits->xTasksWaitingForBits );
 534:../../Middlewares/Third_Party/FreeRTOS/Source/event_groups.c **** 	pxListEnd = listGET_END_MARKER( pxList ); /*lint !e826 !e740 !e9087 The mini list structure is use
 535:../../Middlewares/Third_Party/FreeRTOS/Source/event_groups.c **** 	vTaskSuspendAll();
 536:../../Middlewares/Third_Party/FreeRTOS/Source/event_groups.c **** 	{
 537:../../Middlewares/Third_Party/FreeRTOS/Source/event_groups.c **** 		traceEVENT_GROUP_SET_BITS( xEventGroup, uxBitsToSet );
 538:../../Middlewares/Third_Party/FreeRTOS/Source/event_groups.c **** 
 539:../../Middlewares/Third_Party/FreeRTOS/Source/event_groups.c **** 		pxListItem = listGET_HEAD_ENTRY( pxList );
 540:../../Middlewares/Third_Party/FreeRTOS/Source/event_groups.c **** 
 541:../../Middlewares/Third_Party/FreeRTOS/Source/event_groups.c **** 		/* Set the bits. */
 542:../../Middlewares/Third_Party/FreeRTOS/Source/event_groups.c **** 		pxEventBits->uxEventBits |= uxBitsToSet;
 543:../../Middlewares/Third_Party/FreeRTOS/Source/event_groups.c **** 
 544:../../Middlewares/Third_Party/FreeRTOS/Source/event_groups.c **** 		/* See if the new bit value should unblock any tasks. */
ARM GAS  C:\Users\gigig\AppData\Local\Temp\ccsPSJdA.s 			page 11


 545:../../Middlewares/Third_Party/FreeRTOS/Source/event_groups.c **** 		while( pxListItem != pxListEnd )
 546:../../Middlewares/Third_Party/FreeRTOS/Source/event_groups.c **** 		{
 547:../../Middlewares/Third_Party/FreeRTOS/Source/event_groups.c **** 			pxNext = listGET_NEXT( pxListItem );
 548:../../Middlewares/Third_Party/FreeRTOS/Source/event_groups.c **** 			uxBitsWaitedFor = listGET_LIST_ITEM_VALUE( pxListItem );
 549:../../Middlewares/Third_Party/FreeRTOS/Source/event_groups.c **** 			xMatchFound = pdFALSE;
 550:../../Middlewares/Third_Party/FreeRTOS/Source/event_groups.c **** 
 551:../../Middlewares/Third_Party/FreeRTOS/Source/event_groups.c **** 			/* Split the bits waited for from the control bits. */
 552:../../Middlewares/Third_Party/FreeRTOS/Source/event_groups.c **** 			uxControlBits = uxBitsWaitedFor & eventEVENT_BITS_CONTROL_BYTES;
 553:../../Middlewares/Third_Party/FreeRTOS/Source/event_groups.c **** 			uxBitsWaitedFor &= ~eventEVENT_BITS_CONTROL_BYTES;
 554:../../Middlewares/Third_Party/FreeRTOS/Source/event_groups.c **** 
 555:../../Middlewares/Third_Party/FreeRTOS/Source/event_groups.c **** 			if( ( uxControlBits & eventWAIT_FOR_ALL_BITS ) == ( EventBits_t ) 0 )
 556:../../Middlewares/Third_Party/FreeRTOS/Source/event_groups.c **** 			{
 557:../../Middlewares/Third_Party/FreeRTOS/Source/event_groups.c **** 				/* Just looking for single bit being set. */
 558:../../Middlewares/Third_Party/FreeRTOS/Source/event_groups.c **** 				if( ( uxBitsWaitedFor & pxEventBits->uxEventBits ) != ( EventBits_t ) 0 )
 559:../../Middlewares/Third_Party/FreeRTOS/Source/event_groups.c **** 				{
 560:../../Middlewares/Third_Party/FreeRTOS/Source/event_groups.c **** 					xMatchFound = pdTRUE;
 561:../../Middlewares/Third_Party/FreeRTOS/Source/event_groups.c **** 				}
 562:../../Middlewares/Third_Party/FreeRTOS/Source/event_groups.c **** 				else
 563:../../Middlewares/Third_Party/FreeRTOS/Source/event_groups.c **** 				{
 564:../../Middlewares/Third_Party/FreeRTOS/Source/event_groups.c **** 					mtCOVERAGE_TEST_MARKER();
 565:../../Middlewares/Third_Party/FreeRTOS/Source/event_groups.c **** 				}
 566:../../Middlewares/Third_Party/FreeRTOS/Source/event_groups.c **** 			}
 567:../../Middlewares/Third_Party/FreeRTOS/Source/event_groups.c **** 			else if( ( uxBitsWaitedFor & pxEventBits->uxEventBits ) == uxBitsWaitedFor )
 568:../../Middlewares/Third_Party/FreeRTOS/Source/event_groups.c **** 			{
 569:../../Middlewares/Third_Party/FreeRTOS/Source/event_groups.c **** 				/* All bits are set. */
 570:../../Middlewares/Third_Party/FreeRTOS/Source/event_groups.c **** 				xMatchFound = pdTRUE;
 571:../../Middlewares/Third_Party/FreeRTOS/Source/event_groups.c **** 			}
 572:../../Middlewares/Third_Party/FreeRTOS/Source/event_groups.c **** 			else
 573:../../Middlewares/Third_Party/FreeRTOS/Source/event_groups.c **** 			{
 574:../../Middlewares/Third_Party/FreeRTOS/Source/event_groups.c **** 				/* Need all bits to be set, but not all the bits were set. */
 575:../../Middlewares/Third_Party/FreeRTOS/Source/event_groups.c **** 			}
 576:../../Middlewares/Third_Party/FreeRTOS/Source/event_groups.c **** 
 577:../../Middlewares/Third_Party/FreeRTOS/Source/event_groups.c **** 			if( xMatchFound != pdFALSE )
 578:../../Middlewares/Third_Party/FreeRTOS/Source/event_groups.c **** 			{
 579:../../Middlewares/Third_Party/FreeRTOS/Source/event_groups.c **** 				/* The bits match.  Should the bits be cleared on exit? */
 580:../../Middlewares/Third_Party/FreeRTOS/Source/event_groups.c **** 				if( ( uxControlBits & eventCLEAR_EVENTS_ON_EXIT_BIT ) != ( EventBits_t ) 0 )
 581:../../Middlewares/Third_Party/FreeRTOS/Source/event_groups.c **** 				{
 582:../../Middlewares/Third_Party/FreeRTOS/Source/event_groups.c **** 					uxBitsToClear |= uxBitsWaitedFor;
 583:../../Middlewares/Third_Party/FreeRTOS/Source/event_groups.c **** 				}
 584:../../Middlewares/Third_Party/FreeRTOS/Source/event_groups.c **** 				else
 585:../../Middlewares/Third_Party/FreeRTOS/Source/event_groups.c **** 				{
 586:../../Middlewares/Third_Party/FreeRTOS/Source/event_groups.c **** 					mtCOVERAGE_TEST_MARKER();
 587:../../Middlewares/Third_Party/FreeRTOS/Source/event_groups.c **** 				}
 588:../../Middlewares/Third_Party/FreeRTOS/Source/event_groups.c **** 
 589:../../Middlewares/Third_Party/FreeRTOS/Source/event_groups.c **** 				/* Store the actual event flag value in the task's event list
 590:../../Middlewares/Third_Party/FreeRTOS/Source/event_groups.c **** 				item before removing the task from the event list.  The
 591:../../Middlewares/Third_Party/FreeRTOS/Source/event_groups.c **** 				eventUNBLOCKED_DUE_TO_BIT_SET bit is set so the task knows
 592:../../Middlewares/Third_Party/FreeRTOS/Source/event_groups.c **** 				that is was unblocked due to its required bits matching, rather
 593:../../Middlewares/Third_Party/FreeRTOS/Source/event_groups.c **** 				than because it timed out. */
 594:../../Middlewares/Third_Party/FreeRTOS/Source/event_groups.c **** 				vTaskRemoveFromUnorderedEventList( pxListItem, pxEventBits->uxEventBits | eventUNBLOCKED_DUE_TO
 595:../../Middlewares/Third_Party/FreeRTOS/Source/event_groups.c **** 			}
 596:../../Middlewares/Third_Party/FreeRTOS/Source/event_groups.c **** 
 597:../../Middlewares/Third_Party/FreeRTOS/Source/event_groups.c **** 			/* Move onto the next list item.  Note pxListItem->pxNext is not
 598:../../Middlewares/Third_Party/FreeRTOS/Source/event_groups.c **** 			used here as the list item may have been removed from the event list
 599:../../Middlewares/Third_Party/FreeRTOS/Source/event_groups.c **** 			and inserted into the ready/pending reading list. */
 600:../../Middlewares/Third_Party/FreeRTOS/Source/event_groups.c **** 			pxListItem = pxNext;
 601:../../Middlewares/Third_Party/FreeRTOS/Source/event_groups.c **** 		}
ARM GAS  C:\Users\gigig\AppData\Local\Temp\ccsPSJdA.s 			page 12


 602:../../Middlewares/Third_Party/FreeRTOS/Source/event_groups.c **** 
 603:../../Middlewares/Third_Party/FreeRTOS/Source/event_groups.c **** 		/* Clear any bits that matched when the eventCLEAR_EVENTS_ON_EXIT_BIT
 604:../../Middlewares/Third_Party/FreeRTOS/Source/event_groups.c **** 		bit was set in the control word. */
 605:../../Middlewares/Third_Party/FreeRTOS/Source/event_groups.c **** 		pxEventBits->uxEventBits &= ~uxBitsToClear;
 606:../../Middlewares/Third_Party/FreeRTOS/Source/event_groups.c **** 	}
 607:../../Middlewares/Third_Party/FreeRTOS/Source/event_groups.c **** 	( void ) xTaskResumeAll();
 608:../../Middlewares/Third_Party/FreeRTOS/Source/event_groups.c **** 
 609:../../Middlewares/Third_Party/FreeRTOS/Source/event_groups.c **** 	return pxEventBits->uxEventBits;
 610:../../Middlewares/Third_Party/FreeRTOS/Source/event_groups.c **** }
 611:../../Middlewares/Third_Party/FreeRTOS/Source/event_groups.c **** /*-----------------------------------------------------------*/
 612:../../Middlewares/Third_Party/FreeRTOS/Source/event_groups.c **** 
 613:../../Middlewares/Third_Party/FreeRTOS/Source/event_groups.c **** void vEventGroupDelete( EventGroupHandle_t xEventGroup )
 614:../../Middlewares/Third_Party/FreeRTOS/Source/event_groups.c **** {
 615:../../Middlewares/Third_Party/FreeRTOS/Source/event_groups.c **** EventGroup_t *pxEventBits = xEventGroup;
 616:../../Middlewares/Third_Party/FreeRTOS/Source/event_groups.c **** const List_t *pxTasksWaitingForBits = &( pxEventBits->xTasksWaitingForBits );
 617:../../Middlewares/Third_Party/FreeRTOS/Source/event_groups.c **** 
 618:../../Middlewares/Third_Party/FreeRTOS/Source/event_groups.c **** 	vTaskSuspendAll();
 619:../../Middlewares/Third_Party/FreeRTOS/Source/event_groups.c **** 	{
 620:../../Middlewares/Third_Party/FreeRTOS/Source/event_groups.c **** 		traceEVENT_GROUP_DELETE( xEventGroup );
 621:../../Middlewares/Third_Party/FreeRTOS/Source/event_groups.c **** 
 622:../../Middlewares/Third_Party/FreeRTOS/Source/event_groups.c **** 		while( listCURRENT_LIST_LENGTH( pxTasksWaitingForBits ) > ( UBaseType_t ) 0 )
 623:../../Middlewares/Third_Party/FreeRTOS/Source/event_groups.c **** 		{
 624:../../Middlewares/Third_Party/FreeRTOS/Source/event_groups.c **** 			/* Unblock the task, returning 0 as the event list is being deleted
 625:../../Middlewares/Third_Party/FreeRTOS/Source/event_groups.c **** 			and cannot therefore have any bits set. */
 626:../../Middlewares/Third_Party/FreeRTOS/Source/event_groups.c **** 			configASSERT( pxTasksWaitingForBits->xListEnd.pxNext != ( const ListItem_t * ) &( pxTasksWaiting
 627:../../Middlewares/Third_Party/FreeRTOS/Source/event_groups.c **** 			vTaskRemoveFromUnorderedEventList( pxTasksWaitingForBits->xListEnd.pxNext, eventUNBLOCKED_DUE_TO
 628:../../Middlewares/Third_Party/FreeRTOS/Source/event_groups.c **** 		}
 629:../../Middlewares/Third_Party/FreeRTOS/Source/event_groups.c **** 
 630:../../Middlewares/Third_Party/FreeRTOS/Source/event_groups.c **** 		#if( ( configSUPPORT_DYNAMIC_ALLOCATION == 1 ) && ( configSUPPORT_STATIC_ALLOCATION == 0 ) )
 631:../../Middlewares/Third_Party/FreeRTOS/Source/event_groups.c **** 		{
 632:../../Middlewares/Third_Party/FreeRTOS/Source/event_groups.c **** 			/* The event group can only have been allocated dynamically - free
 633:../../Middlewares/Third_Party/FreeRTOS/Source/event_groups.c **** 			it again. */
 634:../../Middlewares/Third_Party/FreeRTOS/Source/event_groups.c **** 			vPortFree( pxEventBits );
 635:../../Middlewares/Third_Party/FreeRTOS/Source/event_groups.c **** 		}
 636:../../Middlewares/Third_Party/FreeRTOS/Source/event_groups.c **** 		#elif( ( configSUPPORT_DYNAMIC_ALLOCATION == 1 ) && ( configSUPPORT_STATIC_ALLOCATION == 1 ) )
 637:../../Middlewares/Third_Party/FreeRTOS/Source/event_groups.c **** 		{
 638:../../Middlewares/Third_Party/FreeRTOS/Source/event_groups.c **** 			/* The event group could have been allocated statically or
 639:../../Middlewares/Third_Party/FreeRTOS/Source/event_groups.c **** 			dynamically, so check before attempting to free the memory. */
 640:../../Middlewares/Third_Party/FreeRTOS/Source/event_groups.c **** 			if( pxEventBits->ucStaticallyAllocated == ( uint8_t ) pdFALSE )
 641:../../Middlewares/Third_Party/FreeRTOS/Source/event_groups.c **** 			{
 642:../../Middlewares/Third_Party/FreeRTOS/Source/event_groups.c **** 				vPortFree( pxEventBits );
 643:../../Middlewares/Third_Party/FreeRTOS/Source/event_groups.c **** 			}
 644:../../Middlewares/Third_Party/FreeRTOS/Source/event_groups.c **** 			else
 645:../../Middlewares/Third_Party/FreeRTOS/Source/event_groups.c **** 			{
 646:../../Middlewares/Third_Party/FreeRTOS/Source/event_groups.c **** 				mtCOVERAGE_TEST_MARKER();
 647:../../Middlewares/Third_Party/FreeRTOS/Source/event_groups.c **** 			}
 648:../../Middlewares/Third_Party/FreeRTOS/Source/event_groups.c **** 		}
 649:../../Middlewares/Third_Party/FreeRTOS/Source/event_groups.c **** 		#endif /* configSUPPORT_DYNAMIC_ALLOCATION */
 650:../../Middlewares/Third_Party/FreeRTOS/Source/event_groups.c **** 	}
 651:../../Middlewares/Third_Party/FreeRTOS/Source/event_groups.c **** 	( void ) xTaskResumeAll();
 652:../../Middlewares/Third_Party/FreeRTOS/Source/event_groups.c **** }
 653:../../Middlewares/Third_Party/FreeRTOS/Source/event_groups.c **** /*-----------------------------------------------------------*/
 654:../../Middlewares/Third_Party/FreeRTOS/Source/event_groups.c **** 
 655:../../Middlewares/Third_Party/FreeRTOS/Source/event_groups.c **** /* For internal use only - execute a 'set bits' command that was pended from
 656:../../Middlewares/Third_Party/FreeRTOS/Source/event_groups.c **** an interrupt. */
 657:../../Middlewares/Third_Party/FreeRTOS/Source/event_groups.c **** void vEventGroupSetBitsCallback( void *pvEventGroup, const uint32_t ulBitsToSet )
 658:../../Middlewares/Third_Party/FreeRTOS/Source/event_groups.c **** {
ARM GAS  C:\Users\gigig\AppData\Local\Temp\ccsPSJdA.s 			page 13


 659:../../Middlewares/Third_Party/FreeRTOS/Source/event_groups.c **** 	( void ) xEventGroupSetBits( pvEventGroup, ( EventBits_t ) ulBitsToSet ); /*lint !e9079 Can't avoi
 660:../../Middlewares/Third_Party/FreeRTOS/Source/event_groups.c **** }
 661:../../Middlewares/Third_Party/FreeRTOS/Source/event_groups.c **** /*-----------------------------------------------------------*/
 662:../../Middlewares/Third_Party/FreeRTOS/Source/event_groups.c **** 
 663:../../Middlewares/Third_Party/FreeRTOS/Source/event_groups.c **** /* For internal use only - execute a 'clear bits' command that was pended from
 664:../../Middlewares/Third_Party/FreeRTOS/Source/event_groups.c **** an interrupt. */
 665:../../Middlewares/Third_Party/FreeRTOS/Source/event_groups.c **** void vEventGroupClearBitsCallback( void *pvEventGroup, const uint32_t ulBitsToClear )
 666:../../Middlewares/Third_Party/FreeRTOS/Source/event_groups.c **** {
 667:../../Middlewares/Third_Party/FreeRTOS/Source/event_groups.c **** 	( void ) xEventGroupClearBits( pvEventGroup, ( EventBits_t ) ulBitsToClear ); /*lint !e9079 Can't 
 668:../../Middlewares/Third_Party/FreeRTOS/Source/event_groups.c **** }
 669:../../Middlewares/Third_Party/FreeRTOS/Source/event_groups.c **** /*-----------------------------------------------------------*/
 670:../../Middlewares/Third_Party/FreeRTOS/Source/event_groups.c **** 
 671:../../Middlewares/Third_Party/FreeRTOS/Source/event_groups.c **** static BaseType_t prvTestWaitCondition( const EventBits_t uxCurrentEventBits, const EventBits_t uxB
 672:../../Middlewares/Third_Party/FreeRTOS/Source/event_groups.c **** {
  28              		.loc 1 672 1 view -0
  29              		.cfi_startproc
  30              		@ args = 0, pretend = 0, frame = 0
  31              		@ frame_needed = 0, uses_anonymous_args = 0
  32              		@ link register save eliminated.
 673:../../Middlewares/Third_Party/FreeRTOS/Source/event_groups.c **** BaseType_t xWaitConditionMet = pdFALSE;
  33              		.loc 1 673 1 view .LVU1
 674:../../Middlewares/Third_Party/FreeRTOS/Source/event_groups.c **** 
 675:../../Middlewares/Third_Party/FreeRTOS/Source/event_groups.c **** 	if( xWaitForAllBits == pdFALSE )
  34              		.loc 1 675 2 view .LVU2
  35              		.loc 1 675 4 is_stmt 0 view .LVU3
  36 0000 1AB9     		cbnz	r2, .L2
 676:../../Middlewares/Third_Party/FreeRTOS/Source/event_groups.c **** 	{
 677:../../Middlewares/Third_Party/FreeRTOS/Source/event_groups.c **** 		/* Task only has to wait for one bit within uxBitsToWaitFor to be
 678:../../Middlewares/Third_Party/FreeRTOS/Source/event_groups.c **** 		set.  Is one already set? */
 679:../../Middlewares/Third_Party/FreeRTOS/Source/event_groups.c **** 		if( ( uxCurrentEventBits & uxBitsToWaitFor ) != ( EventBits_t ) 0 )
  37              		.loc 1 679 3 is_stmt 1 view .LVU4
  38              		.loc 1 679 5 is_stmt 0 view .LVU5
  39 0002 0842     		tst	r0, r1
  40 0004 05D1     		bne	.L4
 673:../../Middlewares/Third_Party/FreeRTOS/Source/event_groups.c **** 
  41              		.loc 1 673 12 view .LVU6
  42 0006 1046     		mov	r0, r2
  43              	.LVL1:
 673:../../Middlewares/Third_Party/FreeRTOS/Source/event_groups.c **** 
  44              		.loc 1 673 12 view .LVU7
  45 0008 7047     		bx	lr
  46              	.LVL2:
  47              	.L2:
 680:../../Middlewares/Third_Party/FreeRTOS/Source/event_groups.c **** 		{
 681:../../Middlewares/Third_Party/FreeRTOS/Source/event_groups.c **** 			xWaitConditionMet = pdTRUE;
 682:../../Middlewares/Third_Party/FreeRTOS/Source/event_groups.c **** 		}
 683:../../Middlewares/Third_Party/FreeRTOS/Source/event_groups.c **** 		else
 684:../../Middlewares/Third_Party/FreeRTOS/Source/event_groups.c **** 		{
 685:../../Middlewares/Third_Party/FreeRTOS/Source/event_groups.c **** 			mtCOVERAGE_TEST_MARKER();
 686:../../Middlewares/Third_Party/FreeRTOS/Source/event_groups.c **** 		}
 687:../../Middlewares/Third_Party/FreeRTOS/Source/event_groups.c **** 	}
 688:../../Middlewares/Third_Party/FreeRTOS/Source/event_groups.c **** 	else
 689:../../Middlewares/Third_Party/FreeRTOS/Source/event_groups.c **** 	{
 690:../../Middlewares/Third_Party/FreeRTOS/Source/event_groups.c **** 		/* Task has to wait for all the bits in uxBitsToWaitFor to be set.
 691:../../Middlewares/Third_Party/FreeRTOS/Source/event_groups.c **** 		Are they set already? */
 692:../../Middlewares/Third_Party/FreeRTOS/Source/event_groups.c **** 		if( ( uxCurrentEventBits & uxBitsToWaitFor ) == uxBitsToWaitFor )
  48              		.loc 1 692 3 is_stmt 1 view .LVU8
ARM GAS  C:\Users\gigig\AppData\Local\Temp\ccsPSJdA.s 			page 14


  49              		.loc 1 692 5 is_stmt 0 view .LVU9
  50 000a 8143     		bics	r1, r1, r0
  51              	.LVL3:
  52              		.loc 1 692 5 view .LVU10
  53 000c 03D0     		beq	.L5
 673:../../Middlewares/Third_Party/FreeRTOS/Source/event_groups.c **** 
  54              		.loc 1 673 12 view .LVU11
  55 000e 0020     		movs	r0, #0
  56              	.LVL4:
 673:../../Middlewares/Third_Party/FreeRTOS/Source/event_groups.c **** 
  57              		.loc 1 673 12 view .LVU12
  58 0010 7047     		bx	lr
  59              	.LVL5:
  60              	.L4:
 681:../../Middlewares/Third_Party/FreeRTOS/Source/event_groups.c **** 		}
  61              		.loc 1 681 22 view .LVU13
  62 0012 0120     		movs	r0, #1
  63              	.LVL6:
 681:../../Middlewares/Third_Party/FreeRTOS/Source/event_groups.c **** 		}
  64              		.loc 1 681 22 view .LVU14
  65 0014 7047     		bx	lr
  66              	.LVL7:
  67              	.L5:
 693:../../Middlewares/Third_Party/FreeRTOS/Source/event_groups.c **** 		{
 694:../../Middlewares/Third_Party/FreeRTOS/Source/event_groups.c **** 			xWaitConditionMet = pdTRUE;
  68              		.loc 1 694 22 view .LVU15
  69 0016 0120     		movs	r0, #1
  70              	.LVL8:
 695:../../Middlewares/Third_Party/FreeRTOS/Source/event_groups.c **** 		}
 696:../../Middlewares/Third_Party/FreeRTOS/Source/event_groups.c **** 		else
 697:../../Middlewares/Third_Party/FreeRTOS/Source/event_groups.c **** 		{
 698:../../Middlewares/Third_Party/FreeRTOS/Source/event_groups.c **** 			mtCOVERAGE_TEST_MARKER();
  71              		.loc 1 698 28 is_stmt 1 view .LVU16
 699:../../Middlewares/Third_Party/FreeRTOS/Source/event_groups.c **** 		}
 700:../../Middlewares/Third_Party/FreeRTOS/Source/event_groups.c **** 	}
 701:../../Middlewares/Third_Party/FreeRTOS/Source/event_groups.c **** 
 702:../../Middlewares/Third_Party/FreeRTOS/Source/event_groups.c **** 	return xWaitConditionMet;
  72              		.loc 1 702 2 view .LVU17
 703:../../Middlewares/Third_Party/FreeRTOS/Source/event_groups.c **** }
  73              		.loc 1 703 1 is_stmt 0 view .LVU18
  74 0018 7047     		bx	lr
  75              		.cfi_endproc
  76              	.LFE15:
  78              		.section	.text.xEventGroupCreateStatic,"ax",%progbits
  79              		.align	1
  80              		.global	xEventGroupCreateStatic
  81              		.syntax unified
  82              		.thumb
  83              		.thumb_func
  85              	xEventGroupCreateStatic:
  86              	.LVL9:
  87              	.LFB4:
  94:../../Middlewares/Third_Party/FreeRTOS/Source/event_groups.c **** 	EventGroup_t *pxEventBits;
  88              		.loc 1 94 2 is_stmt 1 view -0
  89              		.cfi_startproc
  90              		@ args = 0, pretend = 0, frame = 8
  91              		@ frame_needed = 0, uses_anonymous_args = 0
ARM GAS  C:\Users\gigig\AppData\Local\Temp\ccsPSJdA.s 			page 15


  95:../../Middlewares/Third_Party/FreeRTOS/Source/event_groups.c **** 
  92              		.loc 1 95 2 view .LVU20
  98:../../Middlewares/Third_Party/FreeRTOS/Source/event_groups.c **** 
  93              		.loc 1 98 3 view .LVU21
  94 0000 80B1     		cbz	r0, .L13
  94:../../Middlewares/Third_Party/FreeRTOS/Source/event_groups.c **** 	EventGroup_t *pxEventBits;
  95              		.loc 1 94 2 is_stmt 0 discriminator 2 view .LVU22
  96 0002 10B5     		push	{r4, lr}
  97              	.LCFI0:
  98              		.cfi_def_cfa_offset 8
  99              		.cfi_offset 4, -8
 100              		.cfi_offset 14, -4
 101 0004 82B0     		sub	sp, sp, #8
 102              	.LCFI1:
 103              		.cfi_def_cfa_offset 16
 104 0006 0446     		mov	r4, r0
  98:../../Middlewares/Third_Party/FreeRTOS/Source/event_groups.c **** 
 105              		.loc 1 98 37 is_stmt 1 discriminator 2 view .LVU23
 106              	.LBB36:
 105:../../Middlewares/Third_Party/FreeRTOS/Source/event_groups.c **** 			configASSERT( xSize == sizeof( EventGroup_t ) );
 107              		.loc 1 105 4 discriminator 2 view .LVU24
 105:../../Middlewares/Third_Party/FreeRTOS/Source/event_groups.c **** 			configASSERT( xSize == sizeof( EventGroup_t ) );
 108              		.loc 1 105 20 is_stmt 0 discriminator 2 view .LVU25
 109 0008 2023     		movs	r3, #32
 110 000a 0193     		str	r3, [sp, #4]
 106:../../Middlewares/Third_Party/FreeRTOS/Source/event_groups.c **** 		} /*lint !e529 xSize is referenced if configASSERT() is defined. */
 111              		.loc 1 106 4 is_stmt 1 discriminator 2 view .LVU26
 112 000c 019B     		ldr	r3, [sp, #4]
 113 000e 202B     		cmp	r3, #32
 114 0010 11D0     		beq	.L9
 106:../../Middlewares/Third_Party/FreeRTOS/Source/event_groups.c **** 		} /*lint !e529 xSize is referenced if configASSERT() is defined. */
 115              		.loc 1 106 4 view .LVU27
 116              	.LBB37:
 117              	.LBI37:
 118              		.file 2 "../../Middlewares/Third_Party/FreeRTOS/Source/portable/GCC/ARM_CM4F/portmacro.h"
   1:../../Middlewares/Third_Party/FreeRTOS/Source/portable/GCC/ARM_CM4F/portmacro.h **** /*
   2:../../Middlewares/Third_Party/FreeRTOS/Source/portable/GCC/ARM_CM4F/portmacro.h ****  * FreeRTOS Kernel V10.3.1
   3:../../Middlewares/Third_Party/FreeRTOS/Source/portable/GCC/ARM_CM4F/portmacro.h ****  * Copyright (C) 2020 Amazon.com, Inc. or its affiliates.  All Rights Reserved.
   4:../../Middlewares/Third_Party/FreeRTOS/Source/portable/GCC/ARM_CM4F/portmacro.h ****  *
   5:../../Middlewares/Third_Party/FreeRTOS/Source/portable/GCC/ARM_CM4F/portmacro.h ****  * Permission is hereby granted, free of charge, to any person obtaining a copy of
   6:../../Middlewares/Third_Party/FreeRTOS/Source/portable/GCC/ARM_CM4F/portmacro.h ****  * this software and associated documentation files (the "Software"), to deal in
   7:../../Middlewares/Third_Party/FreeRTOS/Source/portable/GCC/ARM_CM4F/portmacro.h ****  * the Software without restriction, including without limitation the rights to
   8:../../Middlewares/Third_Party/FreeRTOS/Source/portable/GCC/ARM_CM4F/portmacro.h ****  * use, copy, modify, merge, publish, distribute, sublicense, and/or sell copies of
   9:../../Middlewares/Third_Party/FreeRTOS/Source/portable/GCC/ARM_CM4F/portmacro.h ****  * the Software, and to permit persons to whom the Software is furnished to do so,
  10:../../Middlewares/Third_Party/FreeRTOS/Source/portable/GCC/ARM_CM4F/portmacro.h ****  * subject to the following conditions:
  11:../../Middlewares/Third_Party/FreeRTOS/Source/portable/GCC/ARM_CM4F/portmacro.h ****  *
  12:../../Middlewares/Third_Party/FreeRTOS/Source/portable/GCC/ARM_CM4F/portmacro.h ****  * The above copyright notice and this permission notice shall be included in all
  13:../../Middlewares/Third_Party/FreeRTOS/Source/portable/GCC/ARM_CM4F/portmacro.h ****  * copies or substantial portions of the Software.
  14:../../Middlewares/Third_Party/FreeRTOS/Source/portable/GCC/ARM_CM4F/portmacro.h ****  *
  15:../../Middlewares/Third_Party/FreeRTOS/Source/portable/GCC/ARM_CM4F/portmacro.h ****  * THE SOFTWARE IS PROVIDED "AS IS", WITHOUT WARRANTY OF ANY KIND, EXPRESS OR
  16:../../Middlewares/Third_Party/FreeRTOS/Source/portable/GCC/ARM_CM4F/portmacro.h ****  * IMPLIED, INCLUDING BUT NOT LIMITED TO THE WARRANTIES OF MERCHANTABILITY, FITNESS
  17:../../Middlewares/Third_Party/FreeRTOS/Source/portable/GCC/ARM_CM4F/portmacro.h ****  * FOR A PARTICULAR PURPOSE AND NONINFRINGEMENT. IN NO EVENT SHALL THE AUTHORS OR
  18:../../Middlewares/Third_Party/FreeRTOS/Source/portable/GCC/ARM_CM4F/portmacro.h ****  * COPYRIGHT HOLDERS BE LIABLE FOR ANY CLAIM, DAMAGES OR OTHER LIABILITY, WHETHER
  19:../../Middlewares/Third_Party/FreeRTOS/Source/portable/GCC/ARM_CM4F/portmacro.h ****  * IN AN ACTION OF CONTRACT, TORT OR OTHERWISE, ARISING FROM, OUT OF OR IN
  20:../../Middlewares/Third_Party/FreeRTOS/Source/portable/GCC/ARM_CM4F/portmacro.h ****  * CONNECTION WITH THE SOFTWARE OR THE USE OR OTHER DEALINGS IN THE SOFTWARE.
  21:../../Middlewares/Third_Party/FreeRTOS/Source/portable/GCC/ARM_CM4F/portmacro.h ****  *
  22:../../Middlewares/Third_Party/FreeRTOS/Source/portable/GCC/ARM_CM4F/portmacro.h ****  * http://www.FreeRTOS.org
ARM GAS  C:\Users\gigig\AppData\Local\Temp\ccsPSJdA.s 			page 16


  23:../../Middlewares/Third_Party/FreeRTOS/Source/portable/GCC/ARM_CM4F/portmacro.h ****  * http://aws.amazon.com/freertos
  24:../../Middlewares/Third_Party/FreeRTOS/Source/portable/GCC/ARM_CM4F/portmacro.h ****  *
  25:../../Middlewares/Third_Party/FreeRTOS/Source/portable/GCC/ARM_CM4F/portmacro.h ****  * 1 tab == 4 spaces!
  26:../../Middlewares/Third_Party/FreeRTOS/Source/portable/GCC/ARM_CM4F/portmacro.h ****  */
  27:../../Middlewares/Third_Party/FreeRTOS/Source/portable/GCC/ARM_CM4F/portmacro.h **** 
  28:../../Middlewares/Third_Party/FreeRTOS/Source/portable/GCC/ARM_CM4F/portmacro.h **** 
  29:../../Middlewares/Third_Party/FreeRTOS/Source/portable/GCC/ARM_CM4F/portmacro.h **** #ifndef PORTMACRO_H
  30:../../Middlewares/Third_Party/FreeRTOS/Source/portable/GCC/ARM_CM4F/portmacro.h **** #define PORTMACRO_H
  31:../../Middlewares/Third_Party/FreeRTOS/Source/portable/GCC/ARM_CM4F/portmacro.h **** 
  32:../../Middlewares/Third_Party/FreeRTOS/Source/portable/GCC/ARM_CM4F/portmacro.h **** #ifdef __cplusplus
  33:../../Middlewares/Third_Party/FreeRTOS/Source/portable/GCC/ARM_CM4F/portmacro.h **** extern "C" {
  34:../../Middlewares/Third_Party/FreeRTOS/Source/portable/GCC/ARM_CM4F/portmacro.h **** #endif
  35:../../Middlewares/Third_Party/FreeRTOS/Source/portable/GCC/ARM_CM4F/portmacro.h **** 
  36:../../Middlewares/Third_Party/FreeRTOS/Source/portable/GCC/ARM_CM4F/portmacro.h **** /*-----------------------------------------------------------
  37:../../Middlewares/Third_Party/FreeRTOS/Source/portable/GCC/ARM_CM4F/portmacro.h ****  * Port specific definitions.
  38:../../Middlewares/Third_Party/FreeRTOS/Source/portable/GCC/ARM_CM4F/portmacro.h ****  *
  39:../../Middlewares/Third_Party/FreeRTOS/Source/portable/GCC/ARM_CM4F/portmacro.h ****  * The settings in this file configure FreeRTOS correctly for the
  40:../../Middlewares/Third_Party/FreeRTOS/Source/portable/GCC/ARM_CM4F/portmacro.h ****  * given hardware and compiler.
  41:../../Middlewares/Third_Party/FreeRTOS/Source/portable/GCC/ARM_CM4F/portmacro.h ****  *
  42:../../Middlewares/Third_Party/FreeRTOS/Source/portable/GCC/ARM_CM4F/portmacro.h ****  * These settings should not be altered.
  43:../../Middlewares/Third_Party/FreeRTOS/Source/portable/GCC/ARM_CM4F/portmacro.h ****  *-----------------------------------------------------------
  44:../../Middlewares/Third_Party/FreeRTOS/Source/portable/GCC/ARM_CM4F/portmacro.h ****  */
  45:../../Middlewares/Third_Party/FreeRTOS/Source/portable/GCC/ARM_CM4F/portmacro.h **** 
  46:../../Middlewares/Third_Party/FreeRTOS/Source/portable/GCC/ARM_CM4F/portmacro.h **** /* Type definitions. */
  47:../../Middlewares/Third_Party/FreeRTOS/Source/portable/GCC/ARM_CM4F/portmacro.h **** #define portCHAR		char
  48:../../Middlewares/Third_Party/FreeRTOS/Source/portable/GCC/ARM_CM4F/portmacro.h **** #define portFLOAT		float
  49:../../Middlewares/Third_Party/FreeRTOS/Source/portable/GCC/ARM_CM4F/portmacro.h **** #define portDOUBLE		double
  50:../../Middlewares/Third_Party/FreeRTOS/Source/portable/GCC/ARM_CM4F/portmacro.h **** #define portLONG		long
  51:../../Middlewares/Third_Party/FreeRTOS/Source/portable/GCC/ARM_CM4F/portmacro.h **** #define portSHORT		short
  52:../../Middlewares/Third_Party/FreeRTOS/Source/portable/GCC/ARM_CM4F/portmacro.h **** #define portSTACK_TYPE	uint32_t
  53:../../Middlewares/Third_Party/FreeRTOS/Source/portable/GCC/ARM_CM4F/portmacro.h **** #define portBASE_TYPE	long
  54:../../Middlewares/Third_Party/FreeRTOS/Source/portable/GCC/ARM_CM4F/portmacro.h **** 
  55:../../Middlewares/Third_Party/FreeRTOS/Source/portable/GCC/ARM_CM4F/portmacro.h **** typedef portSTACK_TYPE StackType_t;
  56:../../Middlewares/Third_Party/FreeRTOS/Source/portable/GCC/ARM_CM4F/portmacro.h **** typedef long BaseType_t;
  57:../../Middlewares/Third_Party/FreeRTOS/Source/portable/GCC/ARM_CM4F/portmacro.h **** typedef unsigned long UBaseType_t;
  58:../../Middlewares/Third_Party/FreeRTOS/Source/portable/GCC/ARM_CM4F/portmacro.h **** 
  59:../../Middlewares/Third_Party/FreeRTOS/Source/portable/GCC/ARM_CM4F/portmacro.h **** #if( configUSE_16_BIT_TICKS == 1 )
  60:../../Middlewares/Third_Party/FreeRTOS/Source/portable/GCC/ARM_CM4F/portmacro.h **** 	typedef uint16_t TickType_t;
  61:../../Middlewares/Third_Party/FreeRTOS/Source/portable/GCC/ARM_CM4F/portmacro.h **** 	#define portMAX_DELAY ( TickType_t ) 0xffff
  62:../../Middlewares/Third_Party/FreeRTOS/Source/portable/GCC/ARM_CM4F/portmacro.h **** #else
  63:../../Middlewares/Third_Party/FreeRTOS/Source/portable/GCC/ARM_CM4F/portmacro.h **** 	typedef uint32_t TickType_t;
  64:../../Middlewares/Third_Party/FreeRTOS/Source/portable/GCC/ARM_CM4F/portmacro.h **** 	#define portMAX_DELAY ( TickType_t ) 0xffffffffUL
  65:../../Middlewares/Third_Party/FreeRTOS/Source/portable/GCC/ARM_CM4F/portmacro.h **** 
  66:../../Middlewares/Third_Party/FreeRTOS/Source/portable/GCC/ARM_CM4F/portmacro.h **** 	/* 32-bit tick type on a 32-bit architecture, so reads of the tick count do
  67:../../Middlewares/Third_Party/FreeRTOS/Source/portable/GCC/ARM_CM4F/portmacro.h **** 	not need to be guarded with a critical section. */
  68:../../Middlewares/Third_Party/FreeRTOS/Source/portable/GCC/ARM_CM4F/portmacro.h **** 	#define portTICK_TYPE_IS_ATOMIC 1
  69:../../Middlewares/Third_Party/FreeRTOS/Source/portable/GCC/ARM_CM4F/portmacro.h **** #endif
  70:../../Middlewares/Third_Party/FreeRTOS/Source/portable/GCC/ARM_CM4F/portmacro.h **** /*-----------------------------------------------------------*/
  71:../../Middlewares/Third_Party/FreeRTOS/Source/portable/GCC/ARM_CM4F/portmacro.h **** 
  72:../../Middlewares/Third_Party/FreeRTOS/Source/portable/GCC/ARM_CM4F/portmacro.h **** /* Architecture specifics. */
  73:../../Middlewares/Third_Party/FreeRTOS/Source/portable/GCC/ARM_CM4F/portmacro.h **** #define portSTACK_GROWTH			( -1 )
  74:../../Middlewares/Third_Party/FreeRTOS/Source/portable/GCC/ARM_CM4F/portmacro.h **** #define portTICK_PERIOD_MS			( ( TickType_t ) 1000 / configTICK_RATE_HZ )
  75:../../Middlewares/Third_Party/FreeRTOS/Source/portable/GCC/ARM_CM4F/portmacro.h **** #define portBYTE_ALIGNMENT			8
  76:../../Middlewares/Third_Party/FreeRTOS/Source/portable/GCC/ARM_CM4F/portmacro.h **** /*-----------------------------------------------------------*/
  77:../../Middlewares/Third_Party/FreeRTOS/Source/portable/GCC/ARM_CM4F/portmacro.h **** 
  78:../../Middlewares/Third_Party/FreeRTOS/Source/portable/GCC/ARM_CM4F/portmacro.h **** /* Scheduler utilities. */
  79:../../Middlewares/Third_Party/FreeRTOS/Source/portable/GCC/ARM_CM4F/portmacro.h **** #define portYIELD() 															\
ARM GAS  C:\Users\gigig\AppData\Local\Temp\ccsPSJdA.s 			page 17


  80:../../Middlewares/Third_Party/FreeRTOS/Source/portable/GCC/ARM_CM4F/portmacro.h **** {																				\
  81:../../Middlewares/Third_Party/FreeRTOS/Source/portable/GCC/ARM_CM4F/portmacro.h **** 	/* Set a PendSV to request a context switch. */								\
  82:../../Middlewares/Third_Party/FreeRTOS/Source/portable/GCC/ARM_CM4F/portmacro.h **** 	portNVIC_INT_CTRL_REG = portNVIC_PENDSVSET_BIT;								\
  83:../../Middlewares/Third_Party/FreeRTOS/Source/portable/GCC/ARM_CM4F/portmacro.h **** 																				\
  84:../../Middlewares/Third_Party/FreeRTOS/Source/portable/GCC/ARM_CM4F/portmacro.h **** 	/* Barriers are normally not required but do ensure the code is completely	\
  85:../../Middlewares/Third_Party/FreeRTOS/Source/portable/GCC/ARM_CM4F/portmacro.h **** 	within the specified behaviour for the architecture. */						\
  86:../../Middlewares/Third_Party/FreeRTOS/Source/portable/GCC/ARM_CM4F/portmacro.h **** 	__asm volatile( "dsb" ::: "memory" );										\
  87:../../Middlewares/Third_Party/FreeRTOS/Source/portable/GCC/ARM_CM4F/portmacro.h **** 	__asm volatile( "isb" );													\
  88:../../Middlewares/Third_Party/FreeRTOS/Source/portable/GCC/ARM_CM4F/portmacro.h **** }
  89:../../Middlewares/Third_Party/FreeRTOS/Source/portable/GCC/ARM_CM4F/portmacro.h **** 
  90:../../Middlewares/Third_Party/FreeRTOS/Source/portable/GCC/ARM_CM4F/portmacro.h **** #define portNVIC_INT_CTRL_REG		( * ( ( volatile uint32_t * ) 0xe000ed04 ) )
  91:../../Middlewares/Third_Party/FreeRTOS/Source/portable/GCC/ARM_CM4F/portmacro.h **** #define portNVIC_PENDSVSET_BIT		( 1UL << 28UL )
  92:../../Middlewares/Third_Party/FreeRTOS/Source/portable/GCC/ARM_CM4F/portmacro.h **** #define portEND_SWITCHING_ISR( xSwitchRequired ) if( xSwitchRequired != pdFALSE ) portYIELD()
  93:../../Middlewares/Third_Party/FreeRTOS/Source/portable/GCC/ARM_CM4F/portmacro.h **** #define portYIELD_FROM_ISR( x ) portEND_SWITCHING_ISR( x )
  94:../../Middlewares/Third_Party/FreeRTOS/Source/portable/GCC/ARM_CM4F/portmacro.h **** /*-----------------------------------------------------------*/
  95:../../Middlewares/Third_Party/FreeRTOS/Source/portable/GCC/ARM_CM4F/portmacro.h **** 
  96:../../Middlewares/Third_Party/FreeRTOS/Source/portable/GCC/ARM_CM4F/portmacro.h **** /* Critical section management. */
  97:../../Middlewares/Third_Party/FreeRTOS/Source/portable/GCC/ARM_CM4F/portmacro.h **** extern void vPortEnterCritical( void );
  98:../../Middlewares/Third_Party/FreeRTOS/Source/portable/GCC/ARM_CM4F/portmacro.h **** extern void vPortExitCritical( void );
  99:../../Middlewares/Third_Party/FreeRTOS/Source/portable/GCC/ARM_CM4F/portmacro.h **** #define portSET_INTERRUPT_MASK_FROM_ISR()		ulPortRaiseBASEPRI()
 100:../../Middlewares/Third_Party/FreeRTOS/Source/portable/GCC/ARM_CM4F/portmacro.h **** #define portCLEAR_INTERRUPT_MASK_FROM_ISR(x)	vPortSetBASEPRI(x)
 101:../../Middlewares/Third_Party/FreeRTOS/Source/portable/GCC/ARM_CM4F/portmacro.h **** #define portDISABLE_INTERRUPTS()				vPortRaiseBASEPRI()
 102:../../Middlewares/Third_Party/FreeRTOS/Source/portable/GCC/ARM_CM4F/portmacro.h **** #define portENABLE_INTERRUPTS()					vPortSetBASEPRI(0)
 103:../../Middlewares/Third_Party/FreeRTOS/Source/portable/GCC/ARM_CM4F/portmacro.h **** #define portENTER_CRITICAL()					vPortEnterCritical()
 104:../../Middlewares/Third_Party/FreeRTOS/Source/portable/GCC/ARM_CM4F/portmacro.h **** #define portEXIT_CRITICAL()						vPortExitCritical()
 105:../../Middlewares/Third_Party/FreeRTOS/Source/portable/GCC/ARM_CM4F/portmacro.h **** 
 106:../../Middlewares/Third_Party/FreeRTOS/Source/portable/GCC/ARM_CM4F/portmacro.h **** /*-----------------------------------------------------------*/
 107:../../Middlewares/Third_Party/FreeRTOS/Source/portable/GCC/ARM_CM4F/portmacro.h **** 
 108:../../Middlewares/Third_Party/FreeRTOS/Source/portable/GCC/ARM_CM4F/portmacro.h **** /* Task function macros as described on the FreeRTOS.org WEB site.  These are
 109:../../Middlewares/Third_Party/FreeRTOS/Source/portable/GCC/ARM_CM4F/portmacro.h **** not necessary for to use this port.  They are defined so the common demo files
 110:../../Middlewares/Third_Party/FreeRTOS/Source/portable/GCC/ARM_CM4F/portmacro.h **** (which build with all the ports) will build. */
 111:../../Middlewares/Third_Party/FreeRTOS/Source/portable/GCC/ARM_CM4F/portmacro.h **** #define portTASK_FUNCTION_PROTO( vFunction, pvParameters ) void vFunction( void *pvParameters )
 112:../../Middlewares/Third_Party/FreeRTOS/Source/portable/GCC/ARM_CM4F/portmacro.h **** #define portTASK_FUNCTION( vFunction, pvParameters ) void vFunction( void *pvParameters )
 113:../../Middlewares/Third_Party/FreeRTOS/Source/portable/GCC/ARM_CM4F/portmacro.h **** /*-----------------------------------------------------------*/
 114:../../Middlewares/Third_Party/FreeRTOS/Source/portable/GCC/ARM_CM4F/portmacro.h **** 
 115:../../Middlewares/Third_Party/FreeRTOS/Source/portable/GCC/ARM_CM4F/portmacro.h **** /* Tickless idle/low power functionality. */
 116:../../Middlewares/Third_Party/FreeRTOS/Source/portable/GCC/ARM_CM4F/portmacro.h **** #ifndef portSUPPRESS_TICKS_AND_SLEEP
 117:../../Middlewares/Third_Party/FreeRTOS/Source/portable/GCC/ARM_CM4F/portmacro.h **** 	extern void vPortSuppressTicksAndSleep( TickType_t xExpectedIdleTime );
 118:../../Middlewares/Third_Party/FreeRTOS/Source/portable/GCC/ARM_CM4F/portmacro.h **** 	#define portSUPPRESS_TICKS_AND_SLEEP( xExpectedIdleTime ) vPortSuppressTicksAndSleep( xExpectedIdl
 119:../../Middlewares/Third_Party/FreeRTOS/Source/portable/GCC/ARM_CM4F/portmacro.h **** #endif
 120:../../Middlewares/Third_Party/FreeRTOS/Source/portable/GCC/ARM_CM4F/portmacro.h **** /*-----------------------------------------------------------*/
 121:../../Middlewares/Third_Party/FreeRTOS/Source/portable/GCC/ARM_CM4F/portmacro.h **** 
 122:../../Middlewares/Third_Party/FreeRTOS/Source/portable/GCC/ARM_CM4F/portmacro.h **** /* Architecture specific optimisations. */
 123:../../Middlewares/Third_Party/FreeRTOS/Source/portable/GCC/ARM_CM4F/portmacro.h **** #ifndef configUSE_PORT_OPTIMISED_TASK_SELECTION
 124:../../Middlewares/Third_Party/FreeRTOS/Source/portable/GCC/ARM_CM4F/portmacro.h **** 	#define configUSE_PORT_OPTIMISED_TASK_SELECTION 1
 125:../../Middlewares/Third_Party/FreeRTOS/Source/portable/GCC/ARM_CM4F/portmacro.h **** #endif
 126:../../Middlewares/Third_Party/FreeRTOS/Source/portable/GCC/ARM_CM4F/portmacro.h **** 
 127:../../Middlewares/Third_Party/FreeRTOS/Source/portable/GCC/ARM_CM4F/portmacro.h **** #if configUSE_PORT_OPTIMISED_TASK_SELECTION == 1
 128:../../Middlewares/Third_Party/FreeRTOS/Source/portable/GCC/ARM_CM4F/portmacro.h **** 
 129:../../Middlewares/Third_Party/FreeRTOS/Source/portable/GCC/ARM_CM4F/portmacro.h **** 	/* Generic helper function. */
 130:../../Middlewares/Third_Party/FreeRTOS/Source/portable/GCC/ARM_CM4F/portmacro.h **** 	__attribute__( ( always_inline ) ) static inline uint8_t ucPortCountLeadingZeros( uint32_t ulBitma
 131:../../Middlewares/Third_Party/FreeRTOS/Source/portable/GCC/ARM_CM4F/portmacro.h **** 	{
 132:../../Middlewares/Third_Party/FreeRTOS/Source/portable/GCC/ARM_CM4F/portmacro.h **** 	uint8_t ucReturn;
 133:../../Middlewares/Third_Party/FreeRTOS/Source/portable/GCC/ARM_CM4F/portmacro.h **** 
 134:../../Middlewares/Third_Party/FreeRTOS/Source/portable/GCC/ARM_CM4F/portmacro.h **** 		__asm volatile ( "clz %0, %1" : "=r" ( ucReturn ) : "r" ( ulBitmap ) : "memory" );
 135:../../Middlewares/Third_Party/FreeRTOS/Source/portable/GCC/ARM_CM4F/portmacro.h **** 		return ucReturn;
 136:../../Middlewares/Third_Party/FreeRTOS/Source/portable/GCC/ARM_CM4F/portmacro.h **** 	}
ARM GAS  C:\Users\gigig\AppData\Local\Temp\ccsPSJdA.s 			page 18


 137:../../Middlewares/Third_Party/FreeRTOS/Source/portable/GCC/ARM_CM4F/portmacro.h **** 
 138:../../Middlewares/Third_Party/FreeRTOS/Source/portable/GCC/ARM_CM4F/portmacro.h **** 	/* Check the configuration. */
 139:../../Middlewares/Third_Party/FreeRTOS/Source/portable/GCC/ARM_CM4F/portmacro.h **** 	#if( configMAX_PRIORITIES > 32 )
 140:../../Middlewares/Third_Party/FreeRTOS/Source/portable/GCC/ARM_CM4F/portmacro.h **** 		#error configUSE_PORT_OPTIMISED_TASK_SELECTION can only be set to 1 when configMAX_PRIORITIES is 
 141:../../Middlewares/Third_Party/FreeRTOS/Source/portable/GCC/ARM_CM4F/portmacro.h **** 	#endif
 142:../../Middlewares/Third_Party/FreeRTOS/Source/portable/GCC/ARM_CM4F/portmacro.h **** 
 143:../../Middlewares/Third_Party/FreeRTOS/Source/portable/GCC/ARM_CM4F/portmacro.h **** 	/* Store/clear the ready priorities in a bit map. */
 144:../../Middlewares/Third_Party/FreeRTOS/Source/portable/GCC/ARM_CM4F/portmacro.h **** 	#define portRECORD_READY_PRIORITY( uxPriority, uxReadyPriorities ) ( uxReadyPriorities ) |= ( 1UL 
 145:../../Middlewares/Third_Party/FreeRTOS/Source/portable/GCC/ARM_CM4F/portmacro.h **** 	#define portRESET_READY_PRIORITY( uxPriority, uxReadyPriorities ) ( uxReadyPriorities ) &= ~( 1UL 
 146:../../Middlewares/Third_Party/FreeRTOS/Source/portable/GCC/ARM_CM4F/portmacro.h **** 
 147:../../Middlewares/Third_Party/FreeRTOS/Source/portable/GCC/ARM_CM4F/portmacro.h **** 	/*-----------------------------------------------------------*/
 148:../../Middlewares/Third_Party/FreeRTOS/Source/portable/GCC/ARM_CM4F/portmacro.h **** 
 149:../../Middlewares/Third_Party/FreeRTOS/Source/portable/GCC/ARM_CM4F/portmacro.h **** 	#define portGET_HIGHEST_PRIORITY( uxTopPriority, uxReadyPriorities ) uxTopPriority = ( 31UL - ( ui
 150:../../Middlewares/Third_Party/FreeRTOS/Source/portable/GCC/ARM_CM4F/portmacro.h **** 
 151:../../Middlewares/Third_Party/FreeRTOS/Source/portable/GCC/ARM_CM4F/portmacro.h **** #endif /* configUSE_PORT_OPTIMISED_TASK_SELECTION */
 152:../../Middlewares/Third_Party/FreeRTOS/Source/portable/GCC/ARM_CM4F/portmacro.h **** 
 153:../../Middlewares/Third_Party/FreeRTOS/Source/portable/GCC/ARM_CM4F/portmacro.h **** /*-----------------------------------------------------------*/
 154:../../Middlewares/Third_Party/FreeRTOS/Source/portable/GCC/ARM_CM4F/portmacro.h **** 
 155:../../Middlewares/Third_Party/FreeRTOS/Source/portable/GCC/ARM_CM4F/portmacro.h **** #ifdef configASSERT
 156:../../Middlewares/Third_Party/FreeRTOS/Source/portable/GCC/ARM_CM4F/portmacro.h **** 	void vPortValidateInterruptPriority( void );
 157:../../Middlewares/Third_Party/FreeRTOS/Source/portable/GCC/ARM_CM4F/portmacro.h **** 	#define portASSERT_IF_INTERRUPT_PRIORITY_INVALID() 	vPortValidateInterruptPriority()
 158:../../Middlewares/Third_Party/FreeRTOS/Source/portable/GCC/ARM_CM4F/portmacro.h **** #endif
 159:../../Middlewares/Third_Party/FreeRTOS/Source/portable/GCC/ARM_CM4F/portmacro.h **** 
 160:../../Middlewares/Third_Party/FreeRTOS/Source/portable/GCC/ARM_CM4F/portmacro.h **** /* portNOP() is not required by this port. */
 161:../../Middlewares/Third_Party/FreeRTOS/Source/portable/GCC/ARM_CM4F/portmacro.h **** #define portNOP()
 162:../../Middlewares/Third_Party/FreeRTOS/Source/portable/GCC/ARM_CM4F/portmacro.h **** 
 163:../../Middlewares/Third_Party/FreeRTOS/Source/portable/GCC/ARM_CM4F/portmacro.h **** #define portINLINE	__inline
 164:../../Middlewares/Third_Party/FreeRTOS/Source/portable/GCC/ARM_CM4F/portmacro.h **** 
 165:../../Middlewares/Third_Party/FreeRTOS/Source/portable/GCC/ARM_CM4F/portmacro.h **** #ifndef portFORCE_INLINE
 166:../../Middlewares/Third_Party/FreeRTOS/Source/portable/GCC/ARM_CM4F/portmacro.h **** 	#define portFORCE_INLINE inline __attribute__(( always_inline))
 167:../../Middlewares/Third_Party/FreeRTOS/Source/portable/GCC/ARM_CM4F/portmacro.h **** #endif
 168:../../Middlewares/Third_Party/FreeRTOS/Source/portable/GCC/ARM_CM4F/portmacro.h **** 
 169:../../Middlewares/Third_Party/FreeRTOS/Source/portable/GCC/ARM_CM4F/portmacro.h **** portFORCE_INLINE static BaseType_t xPortIsInsideInterrupt( void )
 170:../../Middlewares/Third_Party/FreeRTOS/Source/portable/GCC/ARM_CM4F/portmacro.h **** {
 171:../../Middlewares/Third_Party/FreeRTOS/Source/portable/GCC/ARM_CM4F/portmacro.h **** uint32_t ulCurrentInterrupt;
 172:../../Middlewares/Third_Party/FreeRTOS/Source/portable/GCC/ARM_CM4F/portmacro.h **** BaseType_t xReturn;
 173:../../Middlewares/Third_Party/FreeRTOS/Source/portable/GCC/ARM_CM4F/portmacro.h **** 
 174:../../Middlewares/Third_Party/FreeRTOS/Source/portable/GCC/ARM_CM4F/portmacro.h **** 	/* Obtain the number of the currently executing interrupt. */
 175:../../Middlewares/Third_Party/FreeRTOS/Source/portable/GCC/ARM_CM4F/portmacro.h **** 	__asm volatile( "mrs %0, ipsr" : "=r"( ulCurrentInterrupt ) :: "memory" );
 176:../../Middlewares/Third_Party/FreeRTOS/Source/portable/GCC/ARM_CM4F/portmacro.h **** 
 177:../../Middlewares/Third_Party/FreeRTOS/Source/portable/GCC/ARM_CM4F/portmacro.h **** 	if( ulCurrentInterrupt == 0 )
 178:../../Middlewares/Third_Party/FreeRTOS/Source/portable/GCC/ARM_CM4F/portmacro.h **** 	{
 179:../../Middlewares/Third_Party/FreeRTOS/Source/portable/GCC/ARM_CM4F/portmacro.h **** 		xReturn = pdFALSE;
 180:../../Middlewares/Third_Party/FreeRTOS/Source/portable/GCC/ARM_CM4F/portmacro.h **** 	}
 181:../../Middlewares/Third_Party/FreeRTOS/Source/portable/GCC/ARM_CM4F/portmacro.h **** 	else
 182:../../Middlewares/Third_Party/FreeRTOS/Source/portable/GCC/ARM_CM4F/portmacro.h **** 	{
 183:../../Middlewares/Third_Party/FreeRTOS/Source/portable/GCC/ARM_CM4F/portmacro.h **** 		xReturn = pdTRUE;
 184:../../Middlewares/Third_Party/FreeRTOS/Source/portable/GCC/ARM_CM4F/portmacro.h **** 	}
 185:../../Middlewares/Third_Party/FreeRTOS/Source/portable/GCC/ARM_CM4F/portmacro.h **** 
 186:../../Middlewares/Third_Party/FreeRTOS/Source/portable/GCC/ARM_CM4F/portmacro.h **** 	return xReturn;
 187:../../Middlewares/Third_Party/FreeRTOS/Source/portable/GCC/ARM_CM4F/portmacro.h **** }
 188:../../Middlewares/Third_Party/FreeRTOS/Source/portable/GCC/ARM_CM4F/portmacro.h **** 
 189:../../Middlewares/Third_Party/FreeRTOS/Source/portable/GCC/ARM_CM4F/portmacro.h **** /*-----------------------------------------------------------*/
 190:../../Middlewares/Third_Party/FreeRTOS/Source/portable/GCC/ARM_CM4F/portmacro.h **** 
 191:../../Middlewares/Third_Party/FreeRTOS/Source/portable/GCC/ARM_CM4F/portmacro.h **** portFORCE_INLINE static void vPortRaiseBASEPRI( void )
 119              		.loc 2 191 30 view .LVU28
 120              	.LBB38:
ARM GAS  C:\Users\gigig\AppData\Local\Temp\ccsPSJdA.s 			page 19


 192:../../Middlewares/Third_Party/FreeRTOS/Source/portable/GCC/ARM_CM4F/portmacro.h **** {
 193:../../Middlewares/Third_Party/FreeRTOS/Source/portable/GCC/ARM_CM4F/portmacro.h **** uint32_t ulNewBASEPRI;
 121              		.loc 2 193 1 view .LVU29
 194:../../Middlewares/Third_Party/FreeRTOS/Source/portable/GCC/ARM_CM4F/portmacro.h **** 
 195:../../Middlewares/Third_Party/FreeRTOS/Source/portable/GCC/ARM_CM4F/portmacro.h **** 	__asm volatile
 122              		.loc 2 195 2 view .LVU30
 123              		.syntax unified
 124              	@ 195 "../../Middlewares/Third_Party/FreeRTOS/Source/portable/GCC/ARM_CM4F/portmacro.h" 1
 125 0012 4FF05003 			mov r3, #80												
 126 0016 83F31188 		msr basepri, r3											
 127 001a BFF36F8F 		isb														
 128 001e BFF34F8F 		dsb														
 129              	
 130              	@ 0 "" 2
 131              	.LVL10:
 132              		.thumb
 133              		.syntax unified
 134              	.L10:
 135              		.loc 2 195 2 is_stmt 0 view .LVU31
 136              	.LBE38:
 137              	.LBE37:
 106:../../Middlewares/Third_Party/FreeRTOS/Source/event_groups.c **** 		} /*lint !e529 xSize is referenced if configASSERT() is defined. */
 138              		.loc 1 106 4 is_stmt 1 discriminator 2 view .LVU32
 106:../../Middlewares/Third_Party/FreeRTOS/Source/event_groups.c **** 		} /*lint !e529 xSize is referenced if configASSERT() is defined. */
 139              		.loc 1 106 4 discriminator 2 view .LVU33
 140 0022 FEE7     		b	.L10
 141              	.L13:
 142              	.LCFI2:
 143              		.cfi_def_cfa_offset 0
 144              		.cfi_restore 4
 145              		.cfi_restore 14
 106:../../Middlewares/Third_Party/FreeRTOS/Source/event_groups.c **** 		} /*lint !e529 xSize is referenced if configASSERT() is defined. */
 146              		.loc 1 106 4 is_stmt 0 discriminator 2 view .LVU34
 147              	.LBE36:
  98:../../Middlewares/Third_Party/FreeRTOS/Source/event_groups.c **** 
 148              		.loc 1 98 3 is_stmt 1 view .LVU35
 149              	.LBB39:
 150              	.LBI39:
 191:../../Middlewares/Third_Party/FreeRTOS/Source/portable/GCC/ARM_CM4F/portmacro.h **** {
 151              		.loc 2 191 30 view .LVU36
 152              	.LBB40:
 193:../../Middlewares/Third_Party/FreeRTOS/Source/portable/GCC/ARM_CM4F/portmacro.h **** 
 153              		.loc 2 193 1 view .LVU37
 154              		.loc 2 195 2 view .LVU38
 155              		.syntax unified
 156              	@ 195 "../../Middlewares/Third_Party/FreeRTOS/Source/portable/GCC/ARM_CM4F/portmacro.h" 1
 157 0024 4FF05003 			mov r3, #80												
 158 0028 83F31188 		msr basepri, r3											
 159 002c BFF36F8F 		isb														
 160 0030 BFF34F8F 		dsb														
 161              	
 162              	@ 0 "" 2
 163              	.LVL11:
 164              		.thumb
 165              		.syntax unified
 166              	.L8:
 167              		.loc 2 195 2 is_stmt 0 view .LVU39
ARM GAS  C:\Users\gigig\AppData\Local\Temp\ccsPSJdA.s 			page 20


 168              	.LBE40:
 169              	.LBE39:
  98:../../Middlewares/Third_Party/FreeRTOS/Source/event_groups.c **** 
 170              		.loc 1 98 3 is_stmt 1 discriminator 1 view .LVU40
  98:../../Middlewares/Third_Party/FreeRTOS/Source/event_groups.c **** 
 171              		.loc 1 98 3 discriminator 1 view .LVU41
 172 0034 FEE7     		b	.L8
 173              	.L9:
 174              	.LCFI3:
 175              		.cfi_def_cfa_offset 16
 176              		.cfi_offset 4, -8
 177              		.cfi_offset 14, -4
 178              	.LBB41:
 106:../../Middlewares/Third_Party/FreeRTOS/Source/event_groups.c **** 		} /*lint !e529 xSize is referenced if configASSERT() is defined. */
 179              		.loc 1 106 51 view .LVU42
 180              	.LBE41:
 111:../../Middlewares/Third_Party/FreeRTOS/Source/event_groups.c **** 
 181              		.loc 1 111 3 view .LVU43
 182              	.LVL12:
 113:../../Middlewares/Third_Party/FreeRTOS/Source/event_groups.c **** 		{
 183              		.loc 1 113 3 view .LVU44
 115:../../Middlewares/Third_Party/FreeRTOS/Source/event_groups.c **** 			vListInitialise( &( pxEventBits->xTasksWaitingForBits ) );
 184              		.loc 1 115 4 view .LVU45
 115:../../Middlewares/Third_Party/FreeRTOS/Source/event_groups.c **** 			vListInitialise( &( pxEventBits->xTasksWaitingForBits ) );
 185              		.loc 1 115 29 is_stmt 0 view .LVU46
 186 0036 0023     		movs	r3, #0
 187 0038 40F8043B 		str	r3, [r0], #4
 188              	.LVL13:
 116:../../Middlewares/Third_Party/FreeRTOS/Source/event_groups.c **** 
 189              		.loc 1 116 4 is_stmt 1 view .LVU47
 190 003c FFF7FEFF 		bl	vListInitialise
 191              	.LVL14:
 123:../../Middlewares/Third_Party/FreeRTOS/Source/event_groups.c **** 			}
 192              		.loc 1 123 5 view .LVU48
 123:../../Middlewares/Third_Party/FreeRTOS/Source/event_groups.c **** 			}
 193              		.loc 1 123 40 is_stmt 0 view .LVU49
 194 0040 0123     		movs	r3, #1
 195 0042 2377     		strb	r3, [r4, #28]
 127:../../Middlewares/Third_Party/FreeRTOS/Source/event_groups.c **** 		}
 196              		.loc 1 127 42 is_stmt 1 view .LVU50
 134:../../Middlewares/Third_Party/FreeRTOS/Source/event_groups.c **** 		}
 197              		.loc 1 134 36 view .LVU51
 137:../../Middlewares/Third_Party/FreeRTOS/Source/event_groups.c **** 	}
 198              		.loc 1 137 3 view .LVU52
 138:../../Middlewares/Third_Party/FreeRTOS/Source/event_groups.c **** 
 199              		.loc 1 138 2 is_stmt 0 view .LVU53
 200 0044 2046     		mov	r0, r4
 201 0046 02B0     		add	sp, sp, #8
 202              	.LCFI4:
 203              		.cfi_def_cfa_offset 8
 204              		@ sp needed
 205 0048 10BD     		pop	{r4, pc}
 138:../../Middlewares/Third_Party/FreeRTOS/Source/event_groups.c **** 
 206              		.loc 1 138 2 view .LVU54
 207              		.cfi_endproc
 208              	.LFE4:
 210              		.section	.text.xEventGroupCreate,"ax",%progbits
ARM GAS  C:\Users\gigig\AppData\Local\Temp\ccsPSJdA.s 			page 21


 211              		.align	1
 212              		.global	xEventGroupCreate
 213              		.syntax unified
 214              		.thumb
 215              		.thumb_func
 217              	xEventGroupCreate:
 218              	.LFB5:
 146:../../Middlewares/Third_Party/FreeRTOS/Source/event_groups.c **** 	EventGroup_t *pxEventBits;
 219              		.loc 1 146 2 is_stmt 1 view -0
 220              		.cfi_startproc
 221              		@ args = 0, pretend = 0, frame = 0
 222              		@ frame_needed = 0, uses_anonymous_args = 0
 223 0000 38B5     		push	{r3, r4, r5, lr}
 224              	.LCFI5:
 225              		.cfi_def_cfa_offset 16
 226              		.cfi_offset 3, -16
 227              		.cfi_offset 4, -12
 228              		.cfi_offset 5, -8
 229              		.cfi_offset 14, -4
 147:../../Middlewares/Third_Party/FreeRTOS/Source/event_groups.c **** 
 230              		.loc 1 147 2 view .LVU56
 162:../../Middlewares/Third_Party/FreeRTOS/Source/event_groups.c **** 
 231              		.loc 1 162 3 view .LVU57
 162:../../Middlewares/Third_Party/FreeRTOS/Source/event_groups.c **** 
 232              		.loc 1 162 36 is_stmt 0 view .LVU58
 233 0002 2020     		movs	r0, #32
 234 0004 FFF7FEFF 		bl	pvPortMalloc
 235              	.LVL15:
 164:../../Middlewares/Third_Party/FreeRTOS/Source/event_groups.c **** 		{
 236              		.loc 1 164 3 is_stmt 1 view .LVU59
 164:../../Middlewares/Third_Party/FreeRTOS/Source/event_groups.c **** 		{
 237              		.loc 1 164 5 is_stmt 0 view .LVU60
 238 0008 0446     		mov	r4, r0
 239 000a 28B1     		cbz	r0, .L14
 166:../../Middlewares/Third_Party/FreeRTOS/Source/event_groups.c **** 			vListInitialise( &( pxEventBits->xTasksWaitingForBits ) );
 240              		.loc 1 166 4 is_stmt 1 view .LVU61
 166:../../Middlewares/Third_Party/FreeRTOS/Source/event_groups.c **** 			vListInitialise( &( pxEventBits->xTasksWaitingForBits ) );
 241              		.loc 1 166 29 is_stmt 0 view .LVU62
 242 000c 0025     		movs	r5, #0
 243 000e 40F8045B 		str	r5, [r0], #4
 244              	.LVL16:
 167:../../Middlewares/Third_Party/FreeRTOS/Source/event_groups.c **** 
 245              		.loc 1 167 4 is_stmt 1 view .LVU63
 246 0012 FFF7FEFF 		bl	vListInitialise
 247              	.LVL17:
 174:../../Middlewares/Third_Party/FreeRTOS/Source/event_groups.c **** 			}
 248              		.loc 1 174 5 view .LVU64
 174:../../Middlewares/Third_Party/FreeRTOS/Source/event_groups.c **** 			}
 249              		.loc 1 174 40 is_stmt 0 view .LVU65
 250 0016 2577     		strb	r5, [r4, #28]
 178:../../Middlewares/Third_Party/FreeRTOS/Source/event_groups.c **** 		}
 251              		.loc 1 178 42 is_stmt 1 view .LVU66
 182:../../Middlewares/Third_Party/FreeRTOS/Source/event_groups.c **** 		}
 252              		.loc 1 182 36 view .LVU67
 185:../../Middlewares/Third_Party/FreeRTOS/Source/event_groups.c **** 	}
 253              		.loc 1 185 3 view .LVU68
 254              	.L14:
ARM GAS  C:\Users\gigig\AppData\Local\Temp\ccsPSJdA.s 			page 22


 186:../../Middlewares/Third_Party/FreeRTOS/Source/event_groups.c **** 
 255              		.loc 1 186 2 is_stmt 0 view .LVU69
 256 0018 2046     		mov	r0, r4
 257 001a 38BD     		pop	{r3, r4, r5, pc}
 186:../../Middlewares/Third_Party/FreeRTOS/Source/event_groups.c **** 
 258              		.loc 1 186 2 view .LVU70
 259              		.cfi_endproc
 260              	.LFE5:
 262              		.section	.text.xEventGroupWaitBits,"ax",%progbits
 263              		.align	1
 264              		.global	xEventGroupWaitBits
 265              		.syntax unified
 266              		.thumb
 267              		.thumb_func
 269              	xEventGroupWaitBits:
 270              	.LVL18:
 271              	.LFB7:
 312:../../Middlewares/Third_Party/FreeRTOS/Source/event_groups.c **** EventGroup_t *pxEventBits = xEventGroup;
 272              		.loc 1 312 1 is_stmt 1 view -0
 273              		.cfi_startproc
 274              		@ args = 4, pretend = 0, frame = 0
 275              		@ frame_needed = 0, uses_anonymous_args = 0
 313:../../Middlewares/Third_Party/FreeRTOS/Source/event_groups.c **** EventBits_t uxReturn, uxControlBits = 0;
 276              		.loc 1 313 1 view .LVU72
 314:../../Middlewares/Third_Party/FreeRTOS/Source/event_groups.c **** BaseType_t xWaitConditionMet, xAlreadyYielded;
 277              		.loc 1 314 1 view .LVU73
 315:../../Middlewares/Third_Party/FreeRTOS/Source/event_groups.c **** BaseType_t xTimeoutOccurred = pdFALSE;
 278              		.loc 1 315 1 view .LVU74
 316:../../Middlewares/Third_Party/FreeRTOS/Source/event_groups.c **** 
 279              		.loc 1 316 1 view .LVU75
 320:../../Middlewares/Third_Party/FreeRTOS/Source/event_groups.c **** 	configASSERT( ( uxBitsToWaitFor & eventEVENT_BITS_CONTROL_BYTES ) == 0 );
 280              		.loc 1 320 2 view .LVU76
 281 0000 88B1     		cbz	r0, .L38
 312:../../Middlewares/Third_Party/FreeRTOS/Source/event_groups.c **** EventGroup_t *pxEventBits = xEventGroup;
 282              		.loc 1 312 1 is_stmt 0 discriminator 2 view .LVU77
 283 0002 2DE9F041 		push	{r4, r5, r6, r7, r8, lr}
 284              	.LCFI6:
 285              		.cfi_def_cfa_offset 24
 286              		.cfi_offset 4, -24
 287              		.cfi_offset 5, -20
 288              		.cfi_offset 6, -16
 289              		.cfi_offset 7, -12
 290              		.cfi_offset 8, -8
 291              		.cfi_offset 14, -4
 292 0006 0C46     		mov	r4, r1
 293 0008 1646     		mov	r6, r2
 294 000a 1D46     		mov	r5, r3
 295 000c 0746     		mov	r7, r0
 320:../../Middlewares/Third_Party/FreeRTOS/Source/event_groups.c **** 	configASSERT( ( uxBitsToWaitFor & eventEVENT_BITS_CONTROL_BYTES ) == 0 );
 296              		.loc 1 320 29 is_stmt 1 discriminator 2 view .LVU78
 321:../../Middlewares/Third_Party/FreeRTOS/Source/event_groups.c **** 	configASSERT( uxBitsToWaitFor != 0 );
 297              		.loc 1 321 2 discriminator 2 view .LVU79
 298 000e B1F1807F 		cmp	r1, #16777216
 299 0012 11D3     		bcc	.L20
 321:../../Middlewares/Third_Party/FreeRTOS/Source/event_groups.c **** 	configASSERT( uxBitsToWaitFor != 0 );
 300              		.loc 1 321 2 view .LVU80
 301              	.LBB42:
ARM GAS  C:\Users\gigig\AppData\Local\Temp\ccsPSJdA.s 			page 23


 302              	.LBI42:
 191:../../Middlewares/Third_Party/FreeRTOS/Source/portable/GCC/ARM_CM4F/portmacro.h **** {
 303              		.loc 2 191 30 view .LVU81
 304              	.LBB43:
 193:../../Middlewares/Third_Party/FreeRTOS/Source/portable/GCC/ARM_CM4F/portmacro.h **** 
 305              		.loc 2 193 1 view .LVU82
 306              		.loc 2 195 2 view .LVU83
 307              		.syntax unified
 308              	@ 195 "../../Middlewares/Third_Party/FreeRTOS/Source/portable/GCC/ARM_CM4F/portmacro.h" 1
 309 0014 4FF05003 			mov r3, #80												
 310 0018 83F31188 		msr basepri, r3											
 311 001c BFF36F8F 		isb														
 312 0020 BFF34F8F 		dsb														
 313              	
 314              	@ 0 "" 2
 315              	.LVL19:
 316              		.thumb
 317              		.syntax unified
 318              	.L21:
 319              		.loc 2 195 2 is_stmt 0 view .LVU84
 320              	.LBE43:
 321              	.LBE42:
 321:../../Middlewares/Third_Party/FreeRTOS/Source/event_groups.c **** 	configASSERT( uxBitsToWaitFor != 0 );
 322              		.loc 1 321 2 is_stmt 1 discriminator 2 view .LVU85
 321:../../Middlewares/Third_Party/FreeRTOS/Source/event_groups.c **** 	configASSERT( uxBitsToWaitFor != 0 );
 323              		.loc 1 321 2 discriminator 2 view .LVU86
 324 0024 FEE7     		b	.L21
 325              	.LVL20:
 326              	.L38:
 327              	.LCFI7:
 328              		.cfi_def_cfa_offset 0
 329              		.cfi_restore 4
 330              		.cfi_restore 5
 331              		.cfi_restore 6
 332              		.cfi_restore 7
 333              		.cfi_restore 8
 334              		.cfi_restore 14
 320:../../Middlewares/Third_Party/FreeRTOS/Source/event_groups.c **** 	configASSERT( ( uxBitsToWaitFor & eventEVENT_BITS_CONTROL_BYTES ) == 0 );
 335              		.loc 1 320 2 view .LVU87
 336              	.LBB44:
 337              	.LBI44:
 191:../../Middlewares/Third_Party/FreeRTOS/Source/portable/GCC/ARM_CM4F/portmacro.h **** {
 338              		.loc 2 191 30 view .LVU88
 339              	.LBB45:
 193:../../Middlewares/Third_Party/FreeRTOS/Source/portable/GCC/ARM_CM4F/portmacro.h **** 
 340              		.loc 2 193 1 view .LVU89
 341              		.loc 2 195 2 view .LVU90
 342              		.syntax unified
 343              	@ 195 "../../Middlewares/Third_Party/FreeRTOS/Source/portable/GCC/ARM_CM4F/portmacro.h" 1
 344 0026 4FF05003 			mov r3, #80												
 345 002a 83F31188 		msr basepri, r3											
 346 002e BFF36F8F 		isb														
 347 0032 BFF34F8F 		dsb														
 348              	
 349              	@ 0 "" 2
 350              	.LVL21:
 351              		.thumb
ARM GAS  C:\Users\gigig\AppData\Local\Temp\ccsPSJdA.s 			page 24


 352              		.syntax unified
 353              	.L19:
 354              		.loc 2 195 2 is_stmt 0 view .LVU91
 355              	.LBE45:
 356              	.LBE44:
 320:../../Middlewares/Third_Party/FreeRTOS/Source/event_groups.c **** 	configASSERT( ( uxBitsToWaitFor & eventEVENT_BITS_CONTROL_BYTES ) == 0 );
 357              		.loc 1 320 2 is_stmt 1 discriminator 1 view .LVU92
 320:../../Middlewares/Third_Party/FreeRTOS/Source/event_groups.c **** 	configASSERT( ( uxBitsToWaitFor & eventEVENT_BITS_CONTROL_BYTES ) == 0 );
 358              		.loc 1 320 2 discriminator 1 view .LVU93
 359 0036 FEE7     		b	.L19
 360              	.LVL22:
 361              	.L20:
 362              	.LCFI8:
 363              		.cfi_def_cfa_offset 24
 364              		.cfi_offset 4, -24
 365              		.cfi_offset 5, -20
 366              		.cfi_offset 6, -16
 367              		.cfi_offset 7, -12
 368              		.cfi_offset 8, -8
 369              		.cfi_offset 14, -4
 321:../../Middlewares/Third_Party/FreeRTOS/Source/event_groups.c **** 	configASSERT( uxBitsToWaitFor != 0 );
 370              		.loc 1 321 74 discriminator 2 view .LVU94
 322:../../Middlewares/Third_Party/FreeRTOS/Source/event_groups.c **** 	#if ( ( INCLUDE_xTaskGetSchedulerState == 1 ) || ( configUSE_TIMERS == 1 ) )
 371              		.loc 1 322 2 discriminator 2 view .LVU95
 372 0038 41B9     		cbnz	r1, .L22
 322:../../Middlewares/Third_Party/FreeRTOS/Source/event_groups.c **** 	#if ( ( INCLUDE_xTaskGetSchedulerState == 1 ) || ( configUSE_TIMERS == 1 ) )
 373              		.loc 1 322 2 view .LVU96
 374              	.LBB46:
 375              	.LBI46:
 191:../../Middlewares/Third_Party/FreeRTOS/Source/portable/GCC/ARM_CM4F/portmacro.h **** {
 376              		.loc 2 191 30 view .LVU97
 377              	.LBB47:
 193:../../Middlewares/Third_Party/FreeRTOS/Source/portable/GCC/ARM_CM4F/portmacro.h **** 
 378              		.loc 2 193 1 view .LVU98
 379              		.loc 2 195 2 view .LVU99
 380              		.syntax unified
 381              	@ 195 "../../Middlewares/Third_Party/FreeRTOS/Source/portable/GCC/ARM_CM4F/portmacro.h" 1
 382 003a 4FF05003 			mov r3, #80												
 383 003e 83F31188 		msr basepri, r3											
 384 0042 BFF36F8F 		isb														
 385 0046 BFF34F8F 		dsb														
 386              	
 387              	@ 0 "" 2
 388              	.LVL23:
 389              		.thumb
 390              		.syntax unified
 391              	.L23:
 392              		.loc 2 195 2 is_stmt 0 view .LVU100
 393              	.LBE47:
 394              	.LBE46:
 322:../../Middlewares/Third_Party/FreeRTOS/Source/event_groups.c **** 	#if ( ( INCLUDE_xTaskGetSchedulerState == 1 ) || ( configUSE_TIMERS == 1 ) )
 395              		.loc 1 322 2 is_stmt 1 discriminator 3 view .LVU101
 322:../../Middlewares/Third_Party/FreeRTOS/Source/event_groups.c **** 	#if ( ( INCLUDE_xTaskGetSchedulerState == 1 ) || ( configUSE_TIMERS == 1 ) )
 396              		.loc 1 322 2 discriminator 3 view .LVU102
 397 004a FEE7     		b	.L23
 398              	.LVL24:
 399              	.L22:
ARM GAS  C:\Users\gigig\AppData\Local\Temp\ccsPSJdA.s 			page 25


 322:../../Middlewares/Third_Party/FreeRTOS/Source/event_groups.c **** 	#if ( ( INCLUDE_xTaskGetSchedulerState == 1 ) || ( configUSE_TIMERS == 1 ) )
 400              		.loc 1 322 38 discriminator 2 view .LVU103
 325:../../Middlewares/Third_Party/FreeRTOS/Source/event_groups.c **** 	}
 401              		.loc 1 325 3 discriminator 2 view .LVU104
 402 004c FFF7FEFF 		bl	xTaskGetSchedulerState
 403              	.LVL25:
 325:../../Middlewares/Third_Party/FreeRTOS/Source/event_groups.c **** 	}
 404              		.loc 1 325 3 is_stmt 0 discriminator 2 view .LVU105
 405 0050 50B9     		cbnz	r0, .L24
 406 0052 069B     		ldr	r3, [sp, #24]
 407 0054 43B1     		cbz	r3, .L24
 325:../../Middlewares/Third_Party/FreeRTOS/Source/event_groups.c **** 	}
 408              		.loc 1 325 3 is_stmt 1 view .LVU106
 409              	.LBB48:
 410              	.LBI48:
 191:../../Middlewares/Third_Party/FreeRTOS/Source/portable/GCC/ARM_CM4F/portmacro.h **** {
 411              		.loc 2 191 30 view .LVU107
 412              	.LBB49:
 193:../../Middlewares/Third_Party/FreeRTOS/Source/portable/GCC/ARM_CM4F/portmacro.h **** 
 413              		.loc 2 193 1 view .LVU108
 414              		.loc 2 195 2 view .LVU109
 415              		.syntax unified
 416              	@ 195 "../../Middlewares/Third_Party/FreeRTOS/Source/portable/GCC/ARM_CM4F/portmacro.h" 1
 417 0056 4FF05003 			mov r3, #80												
 418 005a 83F31188 		msr basepri, r3											
 419 005e BFF36F8F 		isb														
 420 0062 BFF34F8F 		dsb														
 421              	
 422              	@ 0 "" 2
 423              	.LVL26:
 424              		.thumb
 425              		.syntax unified
 426              	.L25:
 427              		.loc 2 195 2 is_stmt 0 view .LVU110
 428              	.LBE49:
 429              	.LBE48:
 325:../../Middlewares/Third_Party/FreeRTOS/Source/event_groups.c **** 	}
 430              		.loc 1 325 3 is_stmt 1 discriminator 4 view .LVU111
 325:../../Middlewares/Third_Party/FreeRTOS/Source/event_groups.c **** 	}
 431              		.loc 1 325 3 discriminator 4 view .LVU112
 432 0066 FEE7     		b	.L25
 433              	.L24:
 325:../../Middlewares/Third_Party/FreeRTOS/Source/event_groups.c **** 	}
 434              		.loc 1 325 104 discriminator 8 view .LVU113
 329:../../Middlewares/Third_Party/FreeRTOS/Source/event_groups.c **** 	{
 435              		.loc 1 329 2 discriminator 8 view .LVU114
 436 0068 FFF7FEFF 		bl	vTaskSuspendAll
 437              	.LVL27:
 438              	.LBB50:
 331:../../Middlewares/Third_Party/FreeRTOS/Source/event_groups.c **** 
 439              		.loc 1 331 3 discriminator 8 view .LVU115
 331:../../Middlewares/Third_Party/FreeRTOS/Source/event_groups.c **** 
 440              		.loc 1 331 21 is_stmt 0 discriminator 8 view .LVU116
 441 006c D7F80080 		ldr	r8, [r7]
 442              	.LVL28:
 334:../../Middlewares/Third_Party/FreeRTOS/Source/event_groups.c **** 
 443              		.loc 1 334 3 is_stmt 1 discriminator 8 view .LVU117
ARM GAS  C:\Users\gigig\AppData\Local\Temp\ccsPSJdA.s 			page 26


 334:../../Middlewares/Third_Party/FreeRTOS/Source/event_groups.c **** 
 444              		.loc 1 334 23 is_stmt 0 discriminator 8 view .LVU118
 445 0070 2A46     		mov	r2, r5
 446 0072 2146     		mov	r1, r4
 447 0074 4046     		mov	r0, r8
 448 0076 FFF7FEFF 		bl	prvTestWaitCondition
 449              	.LVL29:
 336:../../Middlewares/Third_Party/FreeRTOS/Source/event_groups.c **** 		{
 450              		.loc 1 336 3 is_stmt 1 discriminator 8 view .LVU119
 336:../../Middlewares/Third_Party/FreeRTOS/Source/event_groups.c **** 		{
 451              		.loc 1 336 5 is_stmt 0 discriminator 8 view .LVU120
 452 007a F8B1     		cbz	r0, .L26
 340:../../Middlewares/Third_Party/FreeRTOS/Source/event_groups.c **** 			xTicksToWait = ( TickType_t ) 0;
 453              		.loc 1 340 4 is_stmt 1 view .LVU121
 454              	.LVL30:
 341:../../Middlewares/Third_Party/FreeRTOS/Source/event_groups.c **** 
 455              		.loc 1 341 4 view .LVU122
 344:../../Middlewares/Third_Party/FreeRTOS/Source/event_groups.c **** 			{
 456              		.loc 1 344 4 view .LVU123
 344:../../Middlewares/Third_Party/FreeRTOS/Source/event_groups.c **** 			{
 457              		.loc 1 344 6 is_stmt 0 view .LVU124
 458 007c 8EB3     		cbz	r6, .L34
 346:../../Middlewares/Third_Party/FreeRTOS/Source/event_groups.c **** 			}
 459              		.loc 1 346 5 is_stmt 1 view .LVU125
 346:../../Middlewares/Third_Party/FreeRTOS/Source/event_groups.c **** 			}
 460              		.loc 1 346 30 is_stmt 0 view .LVU126
 461 007e 28EA0403 		bic	r3, r8, r4
 462 0082 3B60     		str	r3, [r7]
 341:../../Middlewares/Third_Party/FreeRTOS/Source/event_groups.c **** 
 463              		.loc 1 341 17 view .LVU127
 464 0084 0023     		movs	r3, #0
 465 0086 0693     		str	r3, [sp, #24]
 466              	.LVL31:
 467              	.L27:
 394:../../Middlewares/Third_Party/FreeRTOS/Source/event_groups.c **** 		}
 468              		.loc 1 394 68 is_stmt 1 view .LVU128
 469              	.LBE50:
 397:../../Middlewares/Third_Party/FreeRTOS/Source/event_groups.c **** 
 470              		.loc 1 397 2 view .LVU129
 397:../../Middlewares/Third_Party/FreeRTOS/Source/event_groups.c **** 
 471              		.loc 1 397 20 is_stmt 0 view .LVU130
 472 0088 FFF7FEFF 		bl	xTaskResumeAll
 473              	.LVL32:
 399:../../Middlewares/Third_Party/FreeRTOS/Source/event_groups.c **** 	{
 474              		.loc 1 399 2 is_stmt 1 view .LVU131
 399:../../Middlewares/Third_Party/FreeRTOS/Source/event_groups.c **** 	{
 475              		.loc 1 399 4 is_stmt 0 view .LVU132
 476 008c 069B     		ldr	r3, [sp, #24]
 477 008e 93B1     		cbz	r3, .L17
 401:../../Middlewares/Third_Party/FreeRTOS/Source/event_groups.c **** 		{
 478              		.loc 1 401 3 is_stmt 1 view .LVU133
 401:../../Middlewares/Third_Party/FreeRTOS/Source/event_groups.c **** 		{
 479              		.loc 1 401 5 is_stmt 0 view .LVU134
 480 0090 48B9     		cbnz	r0, .L31
 403:../../Middlewares/Third_Party/FreeRTOS/Source/event_groups.c **** 		}
 481              		.loc 1 403 4 is_stmt 1 view .LVU135
 482 0092 4FF0E023 		mov	r3, #-536813568
ARM GAS  C:\Users\gigig\AppData\Local\Temp\ccsPSJdA.s 			page 27


 483 0096 4FF08052 		mov	r2, #268435456
 484 009a C3F8042D 		str	r2, [r3, #3332]
 485              	.LVL33:
 403:../../Middlewares/Third_Party/FreeRTOS/Source/event_groups.c **** 		}
 486              		.loc 1 403 4 view .LVU136
 487              		.syntax unified
 488              	@ 403 "../../Middlewares/Third_Party/FreeRTOS/Source/event_groups.c" 1
 489 009e BFF34F8F 		dsb
 490              	@ 0 "" 2
 403:../../Middlewares/Third_Party/FreeRTOS/Source/event_groups.c **** 		}
 491              		.loc 1 403 4 view .LVU137
 492              	@ 403 "../../Middlewares/Third_Party/FreeRTOS/Source/event_groups.c" 1
 493 00a2 BFF36F8F 		isb
 494              	@ 0 "" 2
 403:../../Middlewares/Third_Party/FreeRTOS/Source/event_groups.c **** 		}
 495              		.loc 1 403 26 view .LVU138
 496              		.thumb
 497              		.syntax unified
 498              	.L31:
 407:../../Middlewares/Third_Party/FreeRTOS/Source/event_groups.c **** 		}
 499              		.loc 1 407 28 view .LVU139
 414:../../Middlewares/Third_Party/FreeRTOS/Source/event_groups.c **** 
 500              		.loc 1 414 3 view .LVU140
 414:../../Middlewares/Third_Party/FreeRTOS/Source/event_groups.c **** 
 501              		.loc 1 414 14 is_stmt 0 view .LVU141
 502 00a6 FFF7FEFF 		bl	uxTaskResetEventItemValue
 503              	.LVL34:
 414:../../Middlewares/Third_Party/FreeRTOS/Source/event_groups.c **** 
 504              		.loc 1 414 14 view .LVU142
 505 00aa 8046     		mov	r8, r0
 506              	.LVL35:
 416:../../Middlewares/Third_Party/FreeRTOS/Source/event_groups.c **** 		{
 507              		.loc 1 416 3 is_stmt 1 view .LVU143
 416:../../Middlewares/Third_Party/FreeRTOS/Source/event_groups.c **** 		{
 508              		.loc 1 416 5 is_stmt 0 view .LVU144
 509 00ac 10F0007F 		tst	r0, #33554432
 510 00b0 1AD0     		beq	.L39
 511              	.LVL36:
 512              	.L32:
 447:../../Middlewares/Third_Party/FreeRTOS/Source/event_groups.c **** 
 513              		.loc 1 447 3 is_stmt 1 view .LVU145
 450:../../Middlewares/Third_Party/FreeRTOS/Source/event_groups.c **** 	}
 514              		.loc 1 450 3 view .LVU146
 450:../../Middlewares/Third_Party/FreeRTOS/Source/event_groups.c **** 	}
 515              		.loc 1 450 12 is_stmt 0 view .LVU147
 516 00b2 28F07F48 		bic	r8, r8, #-16777216
 517              	.LVL37:
 452:../../Middlewares/Third_Party/FreeRTOS/Source/event_groups.c **** 
 518              		.loc 1 452 2 is_stmt 1 view .LVU148
 455:../../Middlewares/Third_Party/FreeRTOS/Source/event_groups.c **** 
 519              		.loc 1 455 2 view .LVU149
 457:../../Middlewares/Third_Party/FreeRTOS/Source/event_groups.c **** }
 520              		.loc 1 457 2 view .LVU150
 521              	.L17:
 458:../../Middlewares/Third_Party/FreeRTOS/Source/event_groups.c **** /*-----------------------------------------------------------*/
 522              		.loc 1 458 1 is_stmt 0 view .LVU151
 523 00b6 4046     		mov	r0, r8
ARM GAS  C:\Users\gigig\AppData\Local\Temp\ccsPSJdA.s 			page 28


 524 00b8 BDE8F081 		pop	{r4, r5, r6, r7, r8, pc}
 525              	.LVL38:
 526              	.L26:
 527              	.LBB51:
 353:../../Middlewares/Third_Party/FreeRTOS/Source/event_groups.c **** 		{
 528              		.loc 1 353 8 is_stmt 1 view .LVU152
 353:../../Middlewares/Third_Party/FreeRTOS/Source/event_groups.c **** 		{
 529              		.loc 1 353 10 is_stmt 0 view .LVU153
 530 00bc 069B     		ldr	r3, [sp, #24]
 531 00be 002B     		cmp	r3, #0
 532 00c0 E2D0     		beq	.L27
 366:../../Middlewares/Third_Party/FreeRTOS/Source/event_groups.c **** 			{
 533              		.loc 1 366 4 is_stmt 1 view .LVU154
 366:../../Middlewares/Third_Party/FreeRTOS/Source/event_groups.c **** 			{
 534              		.loc 1 366 6 is_stmt 0 view .LVU155
 535 00c2 5EB9     		cbnz	r6, .L35
 536              	.LBE51:
 314:../../Middlewares/Third_Party/FreeRTOS/Source/event_groups.c **** BaseType_t xWaitConditionMet, xAlreadyYielded;
 537              		.loc 1 314 23 view .LVU156
 538 00c4 0021     		movs	r1, #0
 539              	.L28:
 540              	.LVL39:
 541              	.LBB52:
 372:../../Middlewares/Third_Party/FreeRTOS/Source/event_groups.c **** 			}
 542              		.loc 1 372 29 is_stmt 1 view .LVU157
 375:../../Middlewares/Third_Party/FreeRTOS/Source/event_groups.c **** 			{
 543              		.loc 1 375 4 view .LVU158
 375:../../Middlewares/Third_Party/FreeRTOS/Source/event_groups.c **** 			{
 544              		.loc 1 375 6 is_stmt 0 view .LVU159
 545 00c6 0DB1     		cbz	r5, .L29
 377:../../Middlewares/Third_Party/FreeRTOS/Source/event_groups.c **** 			}
 546              		.loc 1 377 5 is_stmt 1 view .LVU160
 377:../../Middlewares/Third_Party/FreeRTOS/Source/event_groups.c **** 			}
 547              		.loc 1 377 19 is_stmt 0 view .LVU161
 548 00c8 41F08061 		orr	r1, r1, #67108864
 549              	.LVL40:
 550              	.L29:
 381:../../Middlewares/Third_Party/FreeRTOS/Source/event_groups.c **** 			}
 551              		.loc 1 381 29 is_stmt 1 view .LVU162
 387:../../Middlewares/Third_Party/FreeRTOS/Source/event_groups.c **** 
 552              		.loc 1 387 4 view .LVU163
 553 00cc 069A     		ldr	r2, [sp, #24]
 554 00ce 2143     		orrs	r1, r1, r4
 555              	.LVL41:
 387:../../Middlewares/Third_Party/FreeRTOS/Source/event_groups.c **** 
 556              		.loc 1 387 4 is_stmt 0 view .LVU164
 557 00d0 381D     		adds	r0, r7, #4
 558              	.LVL42:
 387:../../Middlewares/Third_Party/FreeRTOS/Source/event_groups.c **** 
 559              		.loc 1 387 4 view .LVU165
 560 00d2 FFF7FEFF 		bl	vTaskPlaceOnUnorderedEventList
 561              	.LVL43:
 392:../../Middlewares/Third_Party/FreeRTOS/Source/event_groups.c **** 
 562              		.loc 1 392 4 is_stmt 1 view .LVU166
 392:../../Middlewares/Third_Party/FreeRTOS/Source/event_groups.c **** 
 563              		.loc 1 392 13 is_stmt 0 view .LVU167
 564 00d6 4FF00008 		mov	r8, #0
ARM GAS  C:\Users\gigig\AppData\Local\Temp\ccsPSJdA.s 			page 29


 565              	.LVL44:
 392:../../Middlewares/Third_Party/FreeRTOS/Source/event_groups.c **** 
 566              		.loc 1 392 13 view .LVU168
 567 00da D5E7     		b	.L27
 568              	.LVL45:
 569              	.L35:
 368:../../Middlewares/Third_Party/FreeRTOS/Source/event_groups.c **** 			}
 570              		.loc 1 368 19 view .LVU169
 571 00dc 4FF08071 		mov	r1, #16777216
 572 00e0 F1E7     		b	.L28
 573              	.LVL46:
 574              	.L34:
 341:../../Middlewares/Third_Party/FreeRTOS/Source/event_groups.c **** 
 575              		.loc 1 341 17 view .LVU170
 576 00e2 0023     		movs	r3, #0
 577 00e4 0693     		str	r3, [sp, #24]
 578 00e6 CFE7     		b	.L27
 579              	.LVL47:
 580              	.L39:
 341:../../Middlewares/Third_Party/FreeRTOS/Source/event_groups.c **** 
 581              		.loc 1 341 17 view .LVU171
 582              	.LBE52:
 418:../../Middlewares/Third_Party/FreeRTOS/Source/event_groups.c **** 			{
 583              		.loc 1 418 4 is_stmt 1 view .LVU172
 584 00e8 FFF7FEFF 		bl	vPortEnterCritical
 585              	.LVL48:
 421:../../Middlewares/Third_Party/FreeRTOS/Source/event_groups.c **** 
 586              		.loc 1 421 5 view .LVU173
 421:../../Middlewares/Third_Party/FreeRTOS/Source/event_groups.c **** 
 587              		.loc 1 421 14 is_stmt 0 view .LVU174
 588 00ec D7F80080 		ldr	r8, [r7]
 589              	.LVL49:
 425:../../Middlewares/Third_Party/FreeRTOS/Source/event_groups.c **** 				{
 590              		.loc 1 425 5 is_stmt 1 view .LVU175
 425:../../Middlewares/Third_Party/FreeRTOS/Source/event_groups.c **** 				{
 591              		.loc 1 425 9 is_stmt 0 view .LVU176
 592 00f0 2A46     		mov	r2, r5
 593 00f2 2146     		mov	r1, r4
 594 00f4 4046     		mov	r0, r8
 595 00f6 FFF7FEFF 		bl	prvTestWaitCondition
 596              	.LVL50:
 425:../../Middlewares/Third_Party/FreeRTOS/Source/event_groups.c **** 				{
 597              		.loc 1 425 7 view .LVU177
 598 00fa 18B1     		cbz	r0, .L33
 427:../../Middlewares/Third_Party/FreeRTOS/Source/event_groups.c **** 					{
 599              		.loc 1 427 6 is_stmt 1 view .LVU178
 427:../../Middlewares/Third_Party/FreeRTOS/Source/event_groups.c **** 					{
 600              		.loc 1 427 8 is_stmt 0 view .LVU179
 601 00fc 16B1     		cbz	r6, .L33
 429:../../Middlewares/Third_Party/FreeRTOS/Source/event_groups.c **** 					}
 602              		.loc 1 429 7 is_stmt 1 view .LVU180
 429:../../Middlewares/Third_Party/FreeRTOS/Source/event_groups.c **** 					}
 603              		.loc 1 429 32 is_stmt 0 view .LVU181
 604 00fe 28EA0404 		bic	r4, r8, r4
 605              	.LVL51:
 429:../../Middlewares/Third_Party/FreeRTOS/Source/event_groups.c **** 					}
 606              		.loc 1 429 32 view .LVU182
ARM GAS  C:\Users\gigig\AppData\Local\Temp\ccsPSJdA.s 			page 30


 607 0102 3C60     		str	r4, [r7]
 608              	.L33:
 438:../../Middlewares/Third_Party/FreeRTOS/Source/event_groups.c **** 				}
 609              		.loc 1 438 30 is_stmt 1 view .LVU183
 440:../../Middlewares/Third_Party/FreeRTOS/Source/event_groups.c **** 			}
 610              		.loc 1 440 5 view .LVU184
 611              	.LVL52:
 442:../../Middlewares/Third_Party/FreeRTOS/Source/event_groups.c **** 		}
 612              		.loc 1 442 4 view .LVU185
 613 0104 FFF7FEFF 		bl	vPortExitCritical
 614              	.LVL53:
 615 0108 D3E7     		b	.L32
 616              		.cfi_endproc
 617              	.LFE7:
 619              		.section	.text.xEventGroupClearBits,"ax",%progbits
 620              		.align	1
 621              		.global	xEventGroupClearBits
 622              		.syntax unified
 623              		.thumb
 624              		.thumb_func
 626              	xEventGroupClearBits:
 627              	.LVL54:
 628              	.LFB8:
 462:../../Middlewares/Third_Party/FreeRTOS/Source/event_groups.c **** EventGroup_t *pxEventBits = xEventGroup;
 629              		.loc 1 462 1 view -0
 630              		.cfi_startproc
 631              		@ args = 0, pretend = 0, frame = 0
 632              		@ frame_needed = 0, uses_anonymous_args = 0
 463:../../Middlewares/Third_Party/FreeRTOS/Source/event_groups.c **** EventBits_t uxReturn;
 633              		.loc 1 463 1 view .LVU187
 464:../../Middlewares/Third_Party/FreeRTOS/Source/event_groups.c **** 
 634              		.loc 1 464 1 view .LVU188
 468:../../Middlewares/Third_Party/FreeRTOS/Source/event_groups.c **** 	configASSERT( ( uxBitsToClear & eventEVENT_BITS_CONTROL_BYTES ) == 0 );
 635              		.loc 1 468 2 view .LVU189
 636 0000 70B1     		cbz	r0, .L47
 462:../../Middlewares/Third_Party/FreeRTOS/Source/event_groups.c **** EventGroup_t *pxEventBits = xEventGroup;
 637              		.loc 1 462 1 is_stmt 0 discriminator 2 view .LVU190
 638 0002 70B5     		push	{r4, r5, r6, lr}
 639              	.LCFI9:
 640              		.cfi_def_cfa_offset 16
 641              		.cfi_offset 4, -16
 642              		.cfi_offset 5, -12
 643              		.cfi_offset 6, -8
 644              		.cfi_offset 14, -4
 645 0004 0C46     		mov	r4, r1
 646 0006 0546     		mov	r5, r0
 468:../../Middlewares/Third_Party/FreeRTOS/Source/event_groups.c **** 	configASSERT( ( uxBitsToClear & eventEVENT_BITS_CONTROL_BYTES ) == 0 );
 647              		.loc 1 468 29 is_stmt 1 discriminator 2 view .LVU191
 469:../../Middlewares/Third_Party/FreeRTOS/Source/event_groups.c **** 
 648              		.loc 1 469 2 discriminator 2 view .LVU192
 649 0008 B1F1807F 		cmp	r1, #16777216
 650 000c 11D3     		bcc	.L43
 469:../../Middlewares/Third_Party/FreeRTOS/Source/event_groups.c **** 
 651              		.loc 1 469 2 view .LVU193
 652              	.LBB53:
 653              	.LBI53:
 191:../../Middlewares/Third_Party/FreeRTOS/Source/portable/GCC/ARM_CM4F/portmacro.h **** {
ARM GAS  C:\Users\gigig\AppData\Local\Temp\ccsPSJdA.s 			page 31


 654              		.loc 2 191 30 view .LVU194
 655              	.LBB54:
 193:../../Middlewares/Third_Party/FreeRTOS/Source/portable/GCC/ARM_CM4F/portmacro.h **** 
 656              		.loc 2 193 1 view .LVU195
 657              		.loc 2 195 2 view .LVU196
 658              		.syntax unified
 659              	@ 195 "../../Middlewares/Third_Party/FreeRTOS/Source/portable/GCC/ARM_CM4F/portmacro.h" 1
 660 000e 4FF05003 			mov r3, #80												
 661 0012 83F31188 		msr basepri, r3											
 662 0016 BFF36F8F 		isb														
 663 001a BFF34F8F 		dsb														
 664              	
 665              	@ 0 "" 2
 666              	.LVL55:
 667              		.thumb
 668              		.syntax unified
 669              	.L44:
 670              		.loc 2 195 2 is_stmt 0 view .LVU197
 671              	.LBE54:
 672              	.LBE53:
 469:../../Middlewares/Third_Party/FreeRTOS/Source/event_groups.c **** 
 673              		.loc 1 469 2 is_stmt 1 discriminator 2 view .LVU198
 469:../../Middlewares/Third_Party/FreeRTOS/Source/event_groups.c **** 
 674              		.loc 1 469 2 discriminator 2 view .LVU199
 675 001e FEE7     		b	.L44
 676              	.L47:
 677              	.LCFI10:
 678              		.cfi_def_cfa_offset 0
 679              		.cfi_restore 4
 680              		.cfi_restore 5
 681              		.cfi_restore 6
 682              		.cfi_restore 14
 468:../../Middlewares/Third_Party/FreeRTOS/Source/event_groups.c **** 	configASSERT( ( uxBitsToClear & eventEVENT_BITS_CONTROL_BYTES ) == 0 );
 683              		.loc 1 468 2 view .LVU200
 684              	.LBB55:
 685              	.LBI55:
 191:../../Middlewares/Third_Party/FreeRTOS/Source/portable/GCC/ARM_CM4F/portmacro.h **** {
 686              		.loc 2 191 30 view .LVU201
 687              	.LBB56:
 193:../../Middlewares/Third_Party/FreeRTOS/Source/portable/GCC/ARM_CM4F/portmacro.h **** 
 688              		.loc 2 193 1 view .LVU202
 689              		.loc 2 195 2 view .LVU203
 690              		.syntax unified
 691              	@ 195 "../../Middlewares/Third_Party/FreeRTOS/Source/portable/GCC/ARM_CM4F/portmacro.h" 1
 692 0020 4FF05003 			mov r3, #80												
 693 0024 83F31188 		msr basepri, r3											
 694 0028 BFF36F8F 		isb														
 695 002c BFF34F8F 		dsb														
 696              	
 697              	@ 0 "" 2
 698              	.LVL56:
 699              		.thumb
 700              		.syntax unified
 701              	.L42:
 702              		.loc 2 195 2 is_stmt 0 view .LVU204
 703              	.LBE56:
 704              	.LBE55:
ARM GAS  C:\Users\gigig\AppData\Local\Temp\ccsPSJdA.s 			page 32


 468:../../Middlewares/Third_Party/FreeRTOS/Source/event_groups.c **** 	configASSERT( ( uxBitsToClear & eventEVENT_BITS_CONTROL_BYTES ) == 0 );
 705              		.loc 1 468 2 is_stmt 1 discriminator 1 view .LVU205
 468:../../Middlewares/Third_Party/FreeRTOS/Source/event_groups.c **** 	configASSERT( ( uxBitsToClear & eventEVENT_BITS_CONTROL_BYTES ) == 0 );
 706              		.loc 1 468 2 discriminator 1 view .LVU206
 707 0030 FEE7     		b	.L42
 708              	.L43:
 709              	.LCFI11:
 710              		.cfi_def_cfa_offset 16
 711              		.cfi_offset 4, -16
 712              		.cfi_offset 5, -12
 713              		.cfi_offset 6, -8
 714              		.cfi_offset 14, -4
 469:../../Middlewares/Third_Party/FreeRTOS/Source/event_groups.c **** 
 715              		.loc 1 469 72 discriminator 2 view .LVU207
 471:../../Middlewares/Third_Party/FreeRTOS/Source/event_groups.c **** 	{
 716              		.loc 1 471 2 discriminator 2 view .LVU208
 717 0032 FFF7FEFF 		bl	vPortEnterCritical
 718              	.LVL57:
 473:../../Middlewares/Third_Party/FreeRTOS/Source/event_groups.c **** 
 719              		.loc 1 473 60 discriminator 2 view .LVU209
 477:../../Middlewares/Third_Party/FreeRTOS/Source/event_groups.c **** 
 720              		.loc 1 477 3 discriminator 2 view .LVU210
 477:../../Middlewares/Third_Party/FreeRTOS/Source/event_groups.c **** 
 721              		.loc 1 477 12 is_stmt 0 discriminator 2 view .LVU211
 722 0036 2E68     		ldr	r6, [r5]
 723              	.LVL58:
 480:../../Middlewares/Third_Party/FreeRTOS/Source/event_groups.c **** 	}
 724              		.loc 1 480 3 is_stmt 1 discriminator 2 view .LVU212
 480:../../Middlewares/Third_Party/FreeRTOS/Source/event_groups.c **** 	}
 725              		.loc 1 480 28 is_stmt 0 discriminator 2 view .LVU213
 726 0038 26EA0404 		bic	r4, r6, r4
 727              	.LVL59:
 480:../../Middlewares/Third_Party/FreeRTOS/Source/event_groups.c **** 	}
 728              		.loc 1 480 28 discriminator 2 view .LVU214
 729 003c 2C60     		str	r4, [r5]
 482:../../Middlewares/Third_Party/FreeRTOS/Source/event_groups.c **** 
 730              		.loc 1 482 2 is_stmt 1 discriminator 2 view .LVU215
 731 003e FFF7FEFF 		bl	vPortExitCritical
 732              	.LVL60:
 484:../../Middlewares/Third_Party/FreeRTOS/Source/event_groups.c **** }
 733              		.loc 1 484 2 discriminator 2 view .LVU216
 485:../../Middlewares/Third_Party/FreeRTOS/Source/event_groups.c **** /*-----------------------------------------------------------*/
 734              		.loc 1 485 1 is_stmt 0 discriminator 2 view .LVU217
 735 0042 3046     		mov	r0, r6
 736 0044 70BD     		pop	{r4, r5, r6, pc}
 485:../../Middlewares/Third_Party/FreeRTOS/Source/event_groups.c **** /*-----------------------------------------------------------*/
 737              		.loc 1 485 1 discriminator 2 view .LVU218
 738              		.cfi_endproc
 739              	.LFE8:
 741              		.section	.text.vEventGroupClearBitsCallback,"ax",%progbits
 742              		.align	1
 743              		.global	vEventGroupClearBitsCallback
 744              		.syntax unified
 745              		.thumb
 746              		.thumb_func
 748              	vEventGroupClearBitsCallback:
 749              	.LVL61:
ARM GAS  C:\Users\gigig\AppData\Local\Temp\ccsPSJdA.s 			page 33


 750              	.LFB14:
 666:../../Middlewares/Third_Party/FreeRTOS/Source/event_groups.c **** 	( void ) xEventGroupClearBits( pvEventGroup, ( EventBits_t ) ulBitsToClear ); /*lint !e9079 Can't 
 751              		.loc 1 666 1 is_stmt 1 view -0
 752              		.cfi_startproc
 753              		@ args = 0, pretend = 0, frame = 0
 754              		@ frame_needed = 0, uses_anonymous_args = 0
 666:../../Middlewares/Third_Party/FreeRTOS/Source/event_groups.c **** 	( void ) xEventGroupClearBits( pvEventGroup, ( EventBits_t ) ulBitsToClear ); /*lint !e9079 Can't 
 755              		.loc 1 666 1 is_stmt 0 view .LVU220
 756 0000 08B5     		push	{r3, lr}
 757              	.LCFI12:
 758              		.cfi_def_cfa_offset 8
 759              		.cfi_offset 3, -8
 760              		.cfi_offset 14, -4
 667:../../Middlewares/Third_Party/FreeRTOS/Source/event_groups.c **** }
 761              		.loc 1 667 2 is_stmt 1 view .LVU221
 667:../../Middlewares/Third_Party/FreeRTOS/Source/event_groups.c **** }
 762              		.loc 1 667 11 is_stmt 0 view .LVU222
 763 0002 FFF7FEFF 		bl	xEventGroupClearBits
 764              	.LVL62:
 668:../../Middlewares/Third_Party/FreeRTOS/Source/event_groups.c **** /*-----------------------------------------------------------*/
 765              		.loc 1 668 1 view .LVU223
 766 0006 08BD     		pop	{r3, pc}
 767              		.cfi_endproc
 768              	.LFE14:
 770              		.section	.text.xEventGroupClearBitsFromISR,"ax",%progbits
 771              		.align	1
 772              		.global	xEventGroupClearBitsFromISR
 773              		.syntax unified
 774              		.thumb
 775              		.thumb_func
 777              	xEventGroupClearBitsFromISR:
 778              	.LVL63:
 779              	.LFB9:
 491:../../Middlewares/Third_Party/FreeRTOS/Source/event_groups.c **** 		BaseType_t xReturn;
 780              		.loc 1 491 2 is_stmt 1 view -0
 781              		.cfi_startproc
 782              		@ args = 0, pretend = 0, frame = 0
 783              		@ frame_needed = 0, uses_anonymous_args = 0
 491:../../Middlewares/Third_Party/FreeRTOS/Source/event_groups.c **** 		BaseType_t xReturn;
 784              		.loc 1 491 2 is_stmt 0 view .LVU225
 785 0000 08B5     		push	{r3, lr}
 786              	.LCFI13:
 787              		.cfi_def_cfa_offset 8
 788              		.cfi_offset 3, -8
 789              		.cfi_offset 14, -4
 790 0002 0A46     		mov	r2, r1
 492:../../Middlewares/Third_Party/FreeRTOS/Source/event_groups.c **** 
 791              		.loc 1 492 3 is_stmt 1 view .LVU226
 494:../../Middlewares/Third_Party/FreeRTOS/Source/event_groups.c **** 		xReturn = xTimerPendFunctionCallFromISR( vEventGroupClearBitsCallback, ( void * ) xEventGroup, ( 
 792              		.loc 1 494 69 view .LVU227
 495:../../Middlewares/Third_Party/FreeRTOS/Source/event_groups.c **** 
 793              		.loc 1 495 3 view .LVU228
 495:../../Middlewares/Third_Party/FreeRTOS/Source/event_groups.c **** 
 794              		.loc 1 495 13 is_stmt 0 view .LVU229
 795 0004 0023     		movs	r3, #0
 796 0006 0146     		mov	r1, r0
 797              	.LVL64:
ARM GAS  C:\Users\gigig\AppData\Local\Temp\ccsPSJdA.s 			page 34


 495:../../Middlewares/Third_Party/FreeRTOS/Source/event_groups.c **** 
 798              		.loc 1 495 13 view .LVU230
 799 0008 0148     		ldr	r0, .L52
 800              	.LVL65:
 495:../../Middlewares/Third_Party/FreeRTOS/Source/event_groups.c **** 
 801              		.loc 1 495 13 view .LVU231
 802 000a FFF7FEFF 		bl	xTimerPendFunctionCallFromISR
 803              	.LVL66:
 497:../../Middlewares/Third_Party/FreeRTOS/Source/event_groups.c **** 	}
 804              		.loc 1 497 3 is_stmt 1 view .LVU232
 498:../../Middlewares/Third_Party/FreeRTOS/Source/event_groups.c **** 
 805              		.loc 1 498 2 is_stmt 0 view .LVU233
 806 000e 08BD     		pop	{r3, pc}
 807              	.L53:
 808              		.align	2
 809              	.L52:
 810 0010 00000000 		.word	vEventGroupClearBitsCallback
 811              		.cfi_endproc
 812              	.LFE9:
 814              		.section	.text.xEventGroupGetBitsFromISR,"ax",%progbits
 815              		.align	1
 816              		.global	xEventGroupGetBitsFromISR
 817              		.syntax unified
 818              		.thumb
 819              		.thumb_func
 821              	xEventGroupGetBitsFromISR:
 822              	.LVL67:
 823              	.LFB10:
 504:../../Middlewares/Third_Party/FreeRTOS/Source/event_groups.c **** UBaseType_t uxSavedInterruptStatus;
 824              		.loc 1 504 1 is_stmt 1 view -0
 825              		.cfi_startproc
 826              		@ args = 0, pretend = 0, frame = 0
 827              		@ frame_needed = 0, uses_anonymous_args = 0
 828              		@ link register save eliminated.
 505:../../Middlewares/Third_Party/FreeRTOS/Source/event_groups.c **** EventGroup_t const * const pxEventBits = xEventGroup;
 829              		.loc 1 505 1 view .LVU235
 506:../../Middlewares/Third_Party/FreeRTOS/Source/event_groups.c **** EventBits_t uxReturn;
 830              		.loc 1 506 1 view .LVU236
 507:../../Middlewares/Third_Party/FreeRTOS/Source/event_groups.c **** 
 831              		.loc 1 507 1 view .LVU237
 509:../../Middlewares/Third_Party/FreeRTOS/Source/event_groups.c **** 	{
 832              		.loc 1 509 2 view .LVU238
 833              	.LBB57:
 834              	.LBI57:
 196:../../Middlewares/Third_Party/FreeRTOS/Source/portable/GCC/ARM_CM4F/portmacro.h **** 	(
 197:../../Middlewares/Third_Party/FreeRTOS/Source/portable/GCC/ARM_CM4F/portmacro.h **** 		"	mov %0, %1												\n"	\
 198:../../Middlewares/Third_Party/FreeRTOS/Source/portable/GCC/ARM_CM4F/portmacro.h **** 		"	msr basepri, %0											\n" \
 199:../../Middlewares/Third_Party/FreeRTOS/Source/portable/GCC/ARM_CM4F/portmacro.h **** 		"	isb														\n" \
 200:../../Middlewares/Third_Party/FreeRTOS/Source/portable/GCC/ARM_CM4F/portmacro.h **** 		"	dsb														\n" \
 201:../../Middlewares/Third_Party/FreeRTOS/Source/portable/GCC/ARM_CM4F/portmacro.h **** 		:"=r" (ulNewBASEPRI) : "i" ( configMAX_SYSCALL_INTERRUPT_PRIORITY ) : "memory"
 202:../../Middlewares/Third_Party/FreeRTOS/Source/portable/GCC/ARM_CM4F/portmacro.h **** 	);
 203:../../Middlewares/Third_Party/FreeRTOS/Source/portable/GCC/ARM_CM4F/portmacro.h **** }
 204:../../Middlewares/Third_Party/FreeRTOS/Source/portable/GCC/ARM_CM4F/portmacro.h **** 
 205:../../Middlewares/Third_Party/FreeRTOS/Source/portable/GCC/ARM_CM4F/portmacro.h **** /*-----------------------------------------------------------*/
 206:../../Middlewares/Third_Party/FreeRTOS/Source/portable/GCC/ARM_CM4F/portmacro.h **** 
 207:../../Middlewares/Third_Party/FreeRTOS/Source/portable/GCC/ARM_CM4F/portmacro.h **** portFORCE_INLINE static uint32_t ulPortRaiseBASEPRI( void )
 835              		.loc 2 207 34 view .LVU239
ARM GAS  C:\Users\gigig\AppData\Local\Temp\ccsPSJdA.s 			page 35


 836              	.LBB58:
 208:../../Middlewares/Third_Party/FreeRTOS/Source/portable/GCC/ARM_CM4F/portmacro.h **** {
 209:../../Middlewares/Third_Party/FreeRTOS/Source/portable/GCC/ARM_CM4F/portmacro.h **** uint32_t ulOriginalBASEPRI, ulNewBASEPRI;
 837              		.loc 2 209 1 view .LVU240
 210:../../Middlewares/Third_Party/FreeRTOS/Source/portable/GCC/ARM_CM4F/portmacro.h **** 
 211:../../Middlewares/Third_Party/FreeRTOS/Source/portable/GCC/ARM_CM4F/portmacro.h **** 	__asm volatile
 838              		.loc 2 211 2 view .LVU241
 839              		.syntax unified
 840              	@ 211 "../../Middlewares/Third_Party/FreeRTOS/Source/portable/GCC/ARM_CM4F/portmacro.h" 1
 841 0000 EFF31183 			mrs r3, basepri											
 842 0004 4FF05002 		mov r2, #80												
 843 0008 82F31188 		msr basepri, r2											
 844 000c BFF36F8F 		isb														
 845 0010 BFF34F8F 		dsb														
 846              	
 847              	@ 0 "" 2
 848              	.LVL68:
 212:../../Middlewares/Third_Party/FreeRTOS/Source/portable/GCC/ARM_CM4F/portmacro.h **** 	(
 213:../../Middlewares/Third_Party/FreeRTOS/Source/portable/GCC/ARM_CM4F/portmacro.h **** 		"	mrs %0, basepri											\n" \
 214:../../Middlewares/Third_Party/FreeRTOS/Source/portable/GCC/ARM_CM4F/portmacro.h **** 		"	mov %1, %2												\n"	\
 215:../../Middlewares/Third_Party/FreeRTOS/Source/portable/GCC/ARM_CM4F/portmacro.h **** 		"	msr basepri, %1											\n" \
 216:../../Middlewares/Third_Party/FreeRTOS/Source/portable/GCC/ARM_CM4F/portmacro.h **** 		"	isb														\n" \
 217:../../Middlewares/Third_Party/FreeRTOS/Source/portable/GCC/ARM_CM4F/portmacro.h **** 		"	dsb														\n" \
 218:../../Middlewares/Third_Party/FreeRTOS/Source/portable/GCC/ARM_CM4F/portmacro.h **** 		:"=r" (ulOriginalBASEPRI), "=r" (ulNewBASEPRI) : "i" ( configMAX_SYSCALL_INTERRUPT_PRIORITY ) : "
 219:../../Middlewares/Third_Party/FreeRTOS/Source/portable/GCC/ARM_CM4F/portmacro.h **** 	);
 220:../../Middlewares/Third_Party/FreeRTOS/Source/portable/GCC/ARM_CM4F/portmacro.h **** 
 221:../../Middlewares/Third_Party/FreeRTOS/Source/portable/GCC/ARM_CM4F/portmacro.h **** 	/* This return will not be reached but is necessary to prevent compiler
 222:../../Middlewares/Third_Party/FreeRTOS/Source/portable/GCC/ARM_CM4F/portmacro.h **** 	warnings. */
 223:../../Middlewares/Third_Party/FreeRTOS/Source/portable/GCC/ARM_CM4F/portmacro.h **** 	return ulOriginalBASEPRI;
 849              		.loc 2 223 2 view .LVU242
 850              		.loc 2 223 2 is_stmt 0 view .LVU243
 851              		.thumb
 852              		.syntax unified
 853              	.LBE58:
 854              	.LBE57:
 511:../../Middlewares/Third_Party/FreeRTOS/Source/event_groups.c **** 	}
 855              		.loc 1 511 3 is_stmt 1 view .LVU244
 511:../../Middlewares/Third_Party/FreeRTOS/Source/event_groups.c **** 	}
 856              		.loc 1 511 12 is_stmt 0 view .LVU245
 857 0014 0068     		ldr	r0, [r0]
 858              	.LVL69:
 513:../../Middlewares/Third_Party/FreeRTOS/Source/event_groups.c **** 
 859              		.loc 1 513 2 is_stmt 1 view .LVU246
 860              	.LBB59:
 861              	.LBI59:
 224:../../Middlewares/Third_Party/FreeRTOS/Source/portable/GCC/ARM_CM4F/portmacro.h **** }
 225:../../Middlewares/Third_Party/FreeRTOS/Source/portable/GCC/ARM_CM4F/portmacro.h **** /*-----------------------------------------------------------*/
 226:../../Middlewares/Third_Party/FreeRTOS/Source/portable/GCC/ARM_CM4F/portmacro.h **** 
 227:../../Middlewares/Third_Party/FreeRTOS/Source/portable/GCC/ARM_CM4F/portmacro.h **** portFORCE_INLINE static void vPortSetBASEPRI( uint32_t ulNewMaskValue )
 862              		.loc 2 227 30 view .LVU247
 863              	.LBB60:
 228:../../Middlewares/Third_Party/FreeRTOS/Source/portable/GCC/ARM_CM4F/portmacro.h **** {
 229:../../Middlewares/Third_Party/FreeRTOS/Source/portable/GCC/ARM_CM4F/portmacro.h **** 	__asm volatile
 864              		.loc 2 229 2 view .LVU248
 865              		.syntax unified
 866              	@ 229 "../../Middlewares/Third_Party/FreeRTOS/Source/portable/GCC/ARM_CM4F/portmacro.h" 1
 867 0016 83F31188 			msr basepri, r3	
ARM GAS  C:\Users\gigig\AppData\Local\Temp\ccsPSJdA.s 			page 36


 868              	@ 0 "" 2
 869              	.LVL70:
 870              		.loc 2 229 2 is_stmt 0 view .LVU249
 871              		.thumb
 872              		.syntax unified
 873              	.LBE60:
 874              	.LBE59:
 515:../../Middlewares/Third_Party/FreeRTOS/Source/event_groups.c **** } /*lint !e818 EventGroupHandle_t is a typedef used in other functions to so can't be pointer to co
 875              		.loc 1 515 2 is_stmt 1 view .LVU250
 516:../../Middlewares/Third_Party/FreeRTOS/Source/event_groups.c **** /*-----------------------------------------------------------*/
 876              		.loc 1 516 1 is_stmt 0 view .LVU251
 877 001a 7047     		bx	lr
 878              		.cfi_endproc
 879              	.LFE10:
 881              		.section	.text.xEventGroupSetBits,"ax",%progbits
 882              		.align	1
 883              		.global	xEventGroupSetBits
 884              		.syntax unified
 885              		.thumb
 886              		.thumb_func
 888              	xEventGroupSetBits:
 889              	.LVL71:
 890              	.LFB11:
 520:../../Middlewares/Third_Party/FreeRTOS/Source/event_groups.c **** ListItem_t *pxListItem, *pxNext;
 891              		.loc 1 520 1 is_stmt 1 view -0
 892              		.cfi_startproc
 893              		@ args = 0, pretend = 0, frame = 0
 894              		@ frame_needed = 0, uses_anonymous_args = 0
 520:../../Middlewares/Third_Party/FreeRTOS/Source/event_groups.c **** ListItem_t *pxListItem, *pxNext;
 895              		.loc 1 520 1 is_stmt 0 view .LVU253
 896 0000 F8B5     		push	{r3, r4, r5, r6, r7, lr}
 897              	.LCFI14:
 898              		.cfi_def_cfa_offset 24
 899              		.cfi_offset 3, -24
 900              		.cfi_offset 4, -20
 901              		.cfi_offset 5, -16
 902              		.cfi_offset 6, -12
 903              		.cfi_offset 7, -8
 904              		.cfi_offset 14, -4
 521:../../Middlewares/Third_Party/FreeRTOS/Source/event_groups.c **** ListItem_t const *pxListEnd;
 905              		.loc 1 521 1 is_stmt 1 view .LVU254
 522:../../Middlewares/Third_Party/FreeRTOS/Source/event_groups.c **** List_t const * pxList;
 906              		.loc 1 522 1 view .LVU255
 523:../../Middlewares/Third_Party/FreeRTOS/Source/event_groups.c **** EventBits_t uxBitsToClear = 0, uxBitsWaitedFor, uxControlBits;
 907              		.loc 1 523 1 view .LVU256
 524:../../Middlewares/Third_Party/FreeRTOS/Source/event_groups.c **** EventGroup_t *pxEventBits = xEventGroup;
 908              		.loc 1 524 1 view .LVU257
 909              	.LVL72:
 525:../../Middlewares/Third_Party/FreeRTOS/Source/event_groups.c **** BaseType_t xMatchFound = pdFALSE;
 910              		.loc 1 525 1 view .LVU258
 526:../../Middlewares/Third_Party/FreeRTOS/Source/event_groups.c **** 
 911              		.loc 1 526 1 view .LVU259
 530:../../Middlewares/Third_Party/FreeRTOS/Source/event_groups.c **** 	configASSERT( ( uxBitsToSet & eventEVENT_BITS_CONTROL_BYTES ) == 0 );
 912              		.loc 1 530 2 view .LVU260
 913 0002 68B1     		cbz	r0, .L67
 914 0004 0D46     		mov	r5, r1
 915 0006 0446     		mov	r4, r0
ARM GAS  C:\Users\gigig\AppData\Local\Temp\ccsPSJdA.s 			page 37


 530:../../Middlewares/Third_Party/FreeRTOS/Source/event_groups.c **** 	configASSERT( ( uxBitsToSet & eventEVENT_BITS_CONTROL_BYTES ) == 0 );
 916              		.loc 1 530 29 discriminator 2 view .LVU261
 531:../../Middlewares/Third_Party/FreeRTOS/Source/event_groups.c **** 
 917              		.loc 1 531 2 discriminator 2 view .LVU262
 918 0008 B1F1807F 		cmp	r1, #16777216
 919 000c 11D3     		bcc	.L58
 531:../../Middlewares/Third_Party/FreeRTOS/Source/event_groups.c **** 
 920              		.loc 1 531 2 view .LVU263
 921              	.LBB61:
 922              	.LBI61:
 191:../../Middlewares/Third_Party/FreeRTOS/Source/portable/GCC/ARM_CM4F/portmacro.h **** {
 923              		.loc 2 191 30 view .LVU264
 924              	.LBB62:
 193:../../Middlewares/Third_Party/FreeRTOS/Source/portable/GCC/ARM_CM4F/portmacro.h **** 
 925              		.loc 2 193 1 view .LVU265
 195:../../Middlewares/Third_Party/FreeRTOS/Source/portable/GCC/ARM_CM4F/portmacro.h **** 	(
 926              		.loc 2 195 2 view .LVU266
 927              		.syntax unified
 928              	@ 195 "../../Middlewares/Third_Party/FreeRTOS/Source/portable/GCC/ARM_CM4F/portmacro.h" 1
 929 000e 4FF05003 			mov r3, #80												
 930 0012 83F31188 		msr basepri, r3											
 931 0016 BFF36F8F 		isb														
 932 001a BFF34F8F 		dsb														
 933              	
 934              	@ 0 "" 2
 935              	.LVL73:
 936              		.thumb
 937              		.syntax unified
 938              	.L59:
 195:../../Middlewares/Third_Party/FreeRTOS/Source/portable/GCC/ARM_CM4F/portmacro.h **** 	(
 939              		.loc 2 195 2 is_stmt 0 view .LVU267
 940              	.LBE62:
 941              	.LBE61:
 531:../../Middlewares/Third_Party/FreeRTOS/Source/event_groups.c **** 
 942              		.loc 1 531 2 is_stmt 1 discriminator 2 view .LVU268
 531:../../Middlewares/Third_Party/FreeRTOS/Source/event_groups.c **** 
 943              		.loc 1 531 2 discriminator 2 view .LVU269
 944 001e FEE7     		b	.L59
 945              	.L67:
 530:../../Middlewares/Third_Party/FreeRTOS/Source/event_groups.c **** 	configASSERT( ( uxBitsToSet & eventEVENT_BITS_CONTROL_BYTES ) == 0 );
 946              		.loc 1 530 2 view .LVU270
 947              	.LBB63:
 948              	.LBI63:
 191:../../Middlewares/Third_Party/FreeRTOS/Source/portable/GCC/ARM_CM4F/portmacro.h **** {
 949              		.loc 2 191 30 view .LVU271
 950              	.LBB64:
 193:../../Middlewares/Third_Party/FreeRTOS/Source/portable/GCC/ARM_CM4F/portmacro.h **** 
 951              		.loc 2 193 1 view .LVU272
 195:../../Middlewares/Third_Party/FreeRTOS/Source/portable/GCC/ARM_CM4F/portmacro.h **** 	(
 952              		.loc 2 195 2 view .LVU273
 953              		.syntax unified
 954              	@ 195 "../../Middlewares/Third_Party/FreeRTOS/Source/portable/GCC/ARM_CM4F/portmacro.h" 1
 955 0020 4FF05003 			mov r3, #80												
 956 0024 83F31188 		msr basepri, r3											
 957 0028 BFF36F8F 		isb														
 958 002c BFF34F8F 		dsb														
 959              	
ARM GAS  C:\Users\gigig\AppData\Local\Temp\ccsPSJdA.s 			page 38


 960              	@ 0 "" 2
 961              	.LVL74:
 962              		.thumb
 963              		.syntax unified
 964              	.L57:
 195:../../Middlewares/Third_Party/FreeRTOS/Source/portable/GCC/ARM_CM4F/portmacro.h **** 	(
 965              		.loc 2 195 2 is_stmt 0 view .LVU274
 966              	.LBE64:
 967              	.LBE63:
 530:../../Middlewares/Third_Party/FreeRTOS/Source/event_groups.c **** 	configASSERT( ( uxBitsToSet & eventEVENT_BITS_CONTROL_BYTES ) == 0 );
 968              		.loc 1 530 2 is_stmt 1 discriminator 1 view .LVU275
 530:../../Middlewares/Third_Party/FreeRTOS/Source/event_groups.c **** 	configASSERT( ( uxBitsToSet & eventEVENT_BITS_CONTROL_BYTES ) == 0 );
 969              		.loc 1 530 2 discriminator 1 view .LVU276
 970 0030 FEE7     		b	.L57
 971              	.L58:
 531:../../Middlewares/Third_Party/FreeRTOS/Source/event_groups.c **** 
 972              		.loc 1 531 70 discriminator 2 view .LVU277
 533:../../Middlewares/Third_Party/FreeRTOS/Source/event_groups.c **** 	pxListEnd = listGET_END_MARKER( pxList ); /*lint !e826 !e740 !e9087 The mini list structure is use
 973              		.loc 1 533 2 discriminator 2 view .LVU278
 974              	.LVL75:
 534:../../Middlewares/Third_Party/FreeRTOS/Source/event_groups.c **** 	vTaskSuspendAll();
 975              		.loc 1 534 2 discriminator 2 view .LVU279
 534:../../Middlewares/Third_Party/FreeRTOS/Source/event_groups.c **** 	vTaskSuspendAll();
 976              		.loc 1 534 12 is_stmt 0 discriminator 2 view .LVU280
 977 0032 00F10C06 		add	r6, r0, #12
 978              	.LVL76:
 535:../../Middlewares/Third_Party/FreeRTOS/Source/event_groups.c **** 	{
 979              		.loc 1 535 2 is_stmt 1 discriminator 2 view .LVU281
 980 0036 FFF7FEFF 		bl	vTaskSuspendAll
 981              	.LVL77:
 537:../../Middlewares/Third_Party/FreeRTOS/Source/event_groups.c **** 
 982              		.loc 1 537 56 discriminator 2 view .LVU282
 539:../../Middlewares/Third_Party/FreeRTOS/Source/event_groups.c **** 
 983              		.loc 1 539 3 discriminator 2 view .LVU283
 539:../../Middlewares/Third_Party/FreeRTOS/Source/event_groups.c **** 
 984              		.loc 1 539 14 is_stmt 0 discriminator 2 view .LVU284
 985 003a 2069     		ldr	r0, [r4, #16]
 986              	.LVL78:
 542:../../Middlewares/Third_Party/FreeRTOS/Source/event_groups.c **** 
 987              		.loc 1 542 3 is_stmt 1 discriminator 2 view .LVU285
 542:../../Middlewares/Third_Party/FreeRTOS/Source/event_groups.c **** 
 988              		.loc 1 542 14 is_stmt 0 discriminator 2 view .LVU286
 989 003c 2368     		ldr	r3, [r4]
 542:../../Middlewares/Third_Party/FreeRTOS/Source/event_groups.c **** 
 990              		.loc 1 542 28 discriminator 2 view .LVU287
 991 003e 2B43     		orrs	r3, r3, r5
 992 0040 2360     		str	r3, [r4]
 545:../../Middlewares/Third_Party/FreeRTOS/Source/event_groups.c **** 		{
 993              		.loc 1 545 3 is_stmt 1 discriminator 2 view .LVU288
 524:../../Middlewares/Third_Party/FreeRTOS/Source/event_groups.c **** EventGroup_t *pxEventBits = xEventGroup;
 994              		.loc 1 524 13 is_stmt 0 discriminator 2 view .LVU289
 995 0042 0027     		movs	r7, #0
 545:../../Middlewares/Third_Party/FreeRTOS/Source/event_groups.c **** 		{
 996              		.loc 1 545 8 discriminator 2 view .LVU290
 997 0044 0AE0     		b	.L60
 998              	.LVL79:
 999              	.L61:
ARM GAS  C:\Users\gigig\AppData\Local\Temp\ccsPSJdA.s 			page 39


 567:../../Middlewares/Third_Party/FreeRTOS/Source/event_groups.c **** 			{
 1000              		.loc 1 567 9 is_stmt 1 view .LVU291
 567:../../Middlewares/Third_Party/FreeRTOS/Source/event_groups.c **** 			{
 1001              		.loc 1 567 44 is_stmt 0 view .LVU292
 1002 0046 2168     		ldr	r1, [r4]
 567:../../Middlewares/Third_Party/FreeRTOS/Source/event_groups.c **** 			{
 1003              		.loc 1 567 11 view .LVU293
 1004 0048 32EA0101 		bics	r1, r2, r1
 1005 004c 05D1     		bne	.L63
 567:../../Middlewares/Third_Party/FreeRTOS/Source/event_groups.c **** 			{
 1006              		.loc 1 567 11 view .LVU294
 1007 004e 11E0     		b	.L62
 1008              	.LVL80:
 1009              	.L64:
 586:../../Middlewares/Third_Party/FreeRTOS/Source/event_groups.c **** 				}
 1010              		.loc 1 586 30 is_stmt 1 view .LVU295
 594:../../Middlewares/Third_Party/FreeRTOS/Source/event_groups.c **** 			}
 1011              		.loc 1 594 5 view .LVU296
 594:../../Middlewares/Third_Party/FreeRTOS/Source/event_groups.c **** 			}
 1012              		.loc 1 594 63 is_stmt 0 view .LVU297
 1013 0050 2168     		ldr	r1, [r4]
 594:../../Middlewares/Third_Party/FreeRTOS/Source/event_groups.c **** 			}
 1014              		.loc 1 594 5 view .LVU298
 1015 0052 41F00071 		orr	r1, r1, #33554432
 1016 0056 FFF7FEFF 		bl	vTaskRemoveFromUnorderedEventList
 1017              	.LVL81:
 1018              	.L63:
 520:../../Middlewares/Third_Party/FreeRTOS/Source/event_groups.c **** ListItem_t *pxListItem, *pxNext;
 1019              		.loc 1 520 1 view .LVU299
 1020 005a 2846     		mov	r0, r5
 1021              	.LVL82:
 1022              	.L60:
 545:../../Middlewares/Third_Party/FreeRTOS/Source/event_groups.c **** 		{
 1023              		.loc 1 545 21 is_stmt 1 view .LVU300
 1024 005c B042     		cmp	r0, r6
 1025 005e 0ED0     		beq	.L68
 547:../../Middlewares/Third_Party/FreeRTOS/Source/event_groups.c **** 			uxBitsWaitedFor = listGET_LIST_ITEM_VALUE( pxListItem );
 1026              		.loc 1 547 4 view .LVU301
 547:../../Middlewares/Third_Party/FreeRTOS/Source/event_groups.c **** 			uxBitsWaitedFor = listGET_LIST_ITEM_VALUE( pxListItem );
 1027              		.loc 1 547 11 is_stmt 0 view .LVU302
 1028 0060 4568     		ldr	r5, [r0, #4]
 1029              	.LVL83:
 548:../../Middlewares/Third_Party/FreeRTOS/Source/event_groups.c **** 			xMatchFound = pdFALSE;
 1030              		.loc 1 548 4 is_stmt 1 view .LVU303
 548:../../Middlewares/Third_Party/FreeRTOS/Source/event_groups.c **** 			xMatchFound = pdFALSE;
 1031              		.loc 1 548 20 is_stmt 0 view .LVU304
 1032 0062 0368     		ldr	r3, [r0]
 1033              	.LVL84:
 549:../../Middlewares/Third_Party/FreeRTOS/Source/event_groups.c **** 
 1034              		.loc 1 549 4 is_stmt 1 view .LVU305
 552:../../Middlewares/Third_Party/FreeRTOS/Source/event_groups.c **** 			uxBitsWaitedFor &= ~eventEVENT_BITS_CONTROL_BYTES;
 1035              		.loc 1 552 4 view .LVU306
 553:../../Middlewares/Third_Party/FreeRTOS/Source/event_groups.c **** 
 1036              		.loc 1 553 4 view .LVU307
 553:../../Middlewares/Third_Party/FreeRTOS/Source/event_groups.c **** 
 1037              		.loc 1 553 20 is_stmt 0 view .LVU308
 1038 0064 23F07F42 		bic	r2, r3, #-16777216
ARM GAS  C:\Users\gigig\AppData\Local\Temp\ccsPSJdA.s 			page 40


 1039              	.LVL85:
 555:../../Middlewares/Third_Party/FreeRTOS/Source/event_groups.c **** 			{
 1040              		.loc 1 555 4 is_stmt 1 view .LVU309
 555:../../Middlewares/Third_Party/FreeRTOS/Source/event_groups.c **** 			{
 1041              		.loc 1 555 6 is_stmt 0 view .LVU310
 1042 0068 13F0806F 		tst	r3, #67108864
 1043 006c EBD1     		bne	.L61
 558:../../Middlewares/Third_Party/FreeRTOS/Source/event_groups.c **** 				{
 1044              		.loc 1 558 5 is_stmt 1 view .LVU311
 558:../../Middlewares/Third_Party/FreeRTOS/Source/event_groups.c **** 				{
 1045              		.loc 1 558 40 is_stmt 0 view .LVU312
 1046 006e 2168     		ldr	r1, [r4]
 558:../../Middlewares/Third_Party/FreeRTOS/Source/event_groups.c **** 				{
 1047              		.loc 1 558 7 view .LVU313
 1048 0070 1142     		tst	r1, r2
 1049 0072 F2D0     		beq	.L63
 1050              	.L62:
 1051              	.LVL86:
 580:../../Middlewares/Third_Party/FreeRTOS/Source/event_groups.c **** 				{
 1052              		.loc 1 580 5 is_stmt 1 view .LVU314
 580:../../Middlewares/Third_Party/FreeRTOS/Source/event_groups.c **** 				{
 1053              		.loc 1 580 7 is_stmt 0 view .LVU315
 1054 0074 13F0807F 		tst	r3, #16777216
 1055 0078 EAD0     		beq	.L64
 582:../../Middlewares/Third_Party/FreeRTOS/Source/event_groups.c **** 				}
 1056              		.loc 1 582 6 is_stmt 1 view .LVU316
 582:../../Middlewares/Third_Party/FreeRTOS/Source/event_groups.c **** 				}
 1057              		.loc 1 582 20 is_stmt 0 view .LVU317
 1058 007a 1743     		orrs	r7, r7, r2
 1059              	.LVL87:
 582:../../Middlewares/Third_Party/FreeRTOS/Source/event_groups.c **** 				}
 1060              		.loc 1 582 20 view .LVU318
 1061 007c E8E7     		b	.L64
 1062              	.LVL88:
 1063              	.L68:
 605:../../Middlewares/Third_Party/FreeRTOS/Source/event_groups.c **** 	}
 1064              		.loc 1 605 3 is_stmt 1 view .LVU319
 605:../../Middlewares/Third_Party/FreeRTOS/Source/event_groups.c **** 	}
 1065              		.loc 1 605 14 is_stmt 0 view .LVU320
 1066 007e 2368     		ldr	r3, [r4]
 605:../../Middlewares/Third_Party/FreeRTOS/Source/event_groups.c **** 	}
 1067              		.loc 1 605 28 view .LVU321
 1068 0080 23EA0703 		bic	r3, r3, r7
 1069 0084 2360     		str	r3, [r4]
 607:../../Middlewares/Third_Party/FreeRTOS/Source/event_groups.c **** 
 1070              		.loc 1 607 2 is_stmt 1 view .LVU322
 607:../../Middlewares/Third_Party/FreeRTOS/Source/event_groups.c **** 
 1071              		.loc 1 607 11 is_stmt 0 view .LVU323
 1072 0086 FFF7FEFF 		bl	xTaskResumeAll
 1073              	.LVL89:
 609:../../Middlewares/Third_Party/FreeRTOS/Source/event_groups.c **** }
 1074              		.loc 1 609 2 is_stmt 1 view .LVU324
 610:../../Middlewares/Third_Party/FreeRTOS/Source/event_groups.c **** /*-----------------------------------------------------------*/
 1075              		.loc 1 610 1 is_stmt 0 view .LVU325
 1076 008a 2068     		ldr	r0, [r4]
 1077 008c F8BD     		pop	{r3, r4, r5, r6, r7, pc}
 610:../../Middlewares/Third_Party/FreeRTOS/Source/event_groups.c **** /*-----------------------------------------------------------*/
ARM GAS  C:\Users\gigig\AppData\Local\Temp\ccsPSJdA.s 			page 41


 1078              		.loc 1 610 1 view .LVU326
 1079              		.cfi_endproc
 1080              	.LFE11:
 1082              		.section	.text.xEventGroupSync,"ax",%progbits
 1083              		.align	1
 1084              		.global	xEventGroupSync
 1085              		.syntax unified
 1086              		.thumb
 1087              		.thumb_func
 1089              	xEventGroupSync:
 1090              	.LVL90:
 1091              	.LFB6:
 192:../../Middlewares/Third_Party/FreeRTOS/Source/event_groups.c **** EventBits_t uxOriginalBitValue, uxReturn;
 1092              		.loc 1 192 1 is_stmt 1 view -0
 1093              		.cfi_startproc
 1094              		@ args = 0, pretend = 0, frame = 0
 1095              		@ frame_needed = 0, uses_anonymous_args = 0
 193:../../Middlewares/Third_Party/FreeRTOS/Source/event_groups.c **** EventGroup_t *pxEventBits = xEventGroup;
 1096              		.loc 1 193 1 view .LVU328
 194:../../Middlewares/Third_Party/FreeRTOS/Source/event_groups.c **** BaseType_t xAlreadyYielded;
 1097              		.loc 1 194 1 view .LVU329
 195:../../Middlewares/Third_Party/FreeRTOS/Source/event_groups.c **** BaseType_t xTimeoutOccurred = pdFALSE;
 1098              		.loc 1 195 1 view .LVU330
 196:../../Middlewares/Third_Party/FreeRTOS/Source/event_groups.c **** 
 1099              		.loc 1 196 1 view .LVU331
 198:../../Middlewares/Third_Party/FreeRTOS/Source/event_groups.c **** 	configASSERT( uxBitsToWaitFor != 0 );
 1100              		.loc 1 198 2 view .LVU332
 1101 0000 B2F1807F 		cmp	r2, #16777216
 1102 0004 08D3     		bcc	.L70
 198:../../Middlewares/Third_Party/FreeRTOS/Source/event_groups.c **** 	configASSERT( uxBitsToWaitFor != 0 );
 1103              		.loc 1 198 2 view .LVU333
 1104              	.LBB65:
 1105              	.LBI65:
 191:../../Middlewares/Third_Party/FreeRTOS/Source/portable/GCC/ARM_CM4F/portmacro.h **** {
 1106              		.loc 2 191 30 view .LVU334
 1107              	.LBB66:
 193:../../Middlewares/Third_Party/FreeRTOS/Source/portable/GCC/ARM_CM4F/portmacro.h **** 
 1108              		.loc 2 193 1 view .LVU335
 195:../../Middlewares/Third_Party/FreeRTOS/Source/portable/GCC/ARM_CM4F/portmacro.h **** 	(
 1109              		.loc 2 195 2 view .LVU336
 1110              		.syntax unified
 1111              	@ 195 "../../Middlewares/Third_Party/FreeRTOS/Source/portable/GCC/ARM_CM4F/portmacro.h" 1
 1112 0006 4FF05003 			mov r3, #80												
 1113 000a 83F31188 		msr basepri, r3											
 1114 000e BFF36F8F 		isb														
 1115 0012 BFF34F8F 		dsb														
 1116              	
 1117              	@ 0 "" 2
 1118              	.LVL91:
 1119              		.thumb
 1120              		.syntax unified
 1121              	.L71:
 195:../../Middlewares/Third_Party/FreeRTOS/Source/portable/GCC/ARM_CM4F/portmacro.h **** 	(
 1122              		.loc 2 195 2 is_stmt 0 view .LVU337
 1123              	.LBE66:
 1124              	.LBE65:
 198:../../Middlewares/Third_Party/FreeRTOS/Source/event_groups.c **** 	configASSERT( uxBitsToWaitFor != 0 );
ARM GAS  C:\Users\gigig\AppData\Local\Temp\ccsPSJdA.s 			page 42


 1125              		.loc 1 198 2 is_stmt 1 discriminator 1 view .LVU338
 198:../../Middlewares/Third_Party/FreeRTOS/Source/event_groups.c **** 	configASSERT( uxBitsToWaitFor != 0 );
 1126              		.loc 1 198 2 discriminator 1 view .LVU339
 1127 0016 FEE7     		b	.L71
 1128              	.LVL92:
 1129              	.L70:
 192:../../Middlewares/Third_Party/FreeRTOS/Source/event_groups.c **** EventBits_t uxOriginalBitValue, uxReturn;
 1130              		.loc 1 192 1 is_stmt 0 discriminator 2 view .LVU340
 1131 0018 2DE9F041 		push	{r4, r5, r6, r7, r8, lr}
 1132              	.LCFI15:
 1133              		.cfi_def_cfa_offset 24
 1134              		.cfi_offset 4, -24
 1135              		.cfi_offset 5, -20
 1136              		.cfi_offset 6, -16
 1137              		.cfi_offset 7, -12
 1138              		.cfi_offset 8, -8
 1139              		.cfi_offset 14, -4
 1140 001c 0746     		mov	r7, r0
 1141 001e 0D46     		mov	r5, r1
 1142 0020 1446     		mov	r4, r2
 1143 0022 1E46     		mov	r6, r3
 198:../../Middlewares/Third_Party/FreeRTOS/Source/event_groups.c **** 	configASSERT( uxBitsToWaitFor != 0 );
 1144              		.loc 1 198 74 is_stmt 1 discriminator 2 view .LVU341
 199:../../Middlewares/Third_Party/FreeRTOS/Source/event_groups.c **** 	#if ( ( INCLUDE_xTaskGetSchedulerState == 1 ) || ( configUSE_TIMERS == 1 ) )
 1145              		.loc 1 199 2 discriminator 2 view .LVU342
 1146 0024 42B9     		cbnz	r2, .L72
 199:../../Middlewares/Third_Party/FreeRTOS/Source/event_groups.c **** 	#if ( ( INCLUDE_xTaskGetSchedulerState == 1 ) || ( configUSE_TIMERS == 1 ) )
 1147              		.loc 1 199 2 view .LVU343
 1148              	.LBB67:
 1149              	.LBI67:
 191:../../Middlewares/Third_Party/FreeRTOS/Source/portable/GCC/ARM_CM4F/portmacro.h **** {
 1150              		.loc 2 191 30 view .LVU344
 1151              	.LBB68:
 193:../../Middlewares/Third_Party/FreeRTOS/Source/portable/GCC/ARM_CM4F/portmacro.h **** 
 1152              		.loc 2 193 1 view .LVU345
 195:../../Middlewares/Third_Party/FreeRTOS/Source/portable/GCC/ARM_CM4F/portmacro.h **** 	(
 1153              		.loc 2 195 2 view .LVU346
 1154              		.syntax unified
 1155              	@ 195 "../../Middlewares/Third_Party/FreeRTOS/Source/portable/GCC/ARM_CM4F/portmacro.h" 1
 1156 0026 4FF05003 			mov r3, #80												
 1157 002a 83F31188 		msr basepri, r3											
 1158 002e BFF36F8F 		isb														
 1159 0032 BFF34F8F 		dsb														
 1160              	
 1161              	@ 0 "" 2
 1162              	.LVL93:
 1163              		.thumb
 1164              		.syntax unified
 1165              	.L73:
 195:../../Middlewares/Third_Party/FreeRTOS/Source/portable/GCC/ARM_CM4F/portmacro.h **** 	(
 1166              		.loc 2 195 2 is_stmt 0 view .LVU347
 1167              	.LBE68:
 1168              	.LBE67:
 199:../../Middlewares/Third_Party/FreeRTOS/Source/event_groups.c **** 	#if ( ( INCLUDE_xTaskGetSchedulerState == 1 ) || ( configUSE_TIMERS == 1 ) )
 1169              		.loc 1 199 2 is_stmt 1 discriminator 2 view .LVU348
 199:../../Middlewares/Third_Party/FreeRTOS/Source/event_groups.c **** 	#if ( ( INCLUDE_xTaskGetSchedulerState == 1 ) || ( configUSE_TIMERS == 1 ) )
 1170              		.loc 1 199 2 discriminator 2 view .LVU349
ARM GAS  C:\Users\gigig\AppData\Local\Temp\ccsPSJdA.s 			page 43


 1171 0036 FEE7     		b	.L73
 1172              	.LVL94:
 1173              	.L72:
 199:../../Middlewares/Third_Party/FreeRTOS/Source/event_groups.c **** 	#if ( ( INCLUDE_xTaskGetSchedulerState == 1 ) || ( configUSE_TIMERS == 1 ) )
 1174              		.loc 1 199 38 discriminator 2 view .LVU350
 202:../../Middlewares/Third_Party/FreeRTOS/Source/event_groups.c **** 	}
 1175              		.loc 1 202 3 discriminator 2 view .LVU351
 1176 0038 FFF7FEFF 		bl	xTaskGetSchedulerState
 1177              	.LVL95:
 202:../../Middlewares/Third_Party/FreeRTOS/Source/event_groups.c **** 	}
 1178              		.loc 1 202 3 is_stmt 0 discriminator 2 view .LVU352
 1179 003c 48B9     		cbnz	r0, .L74
 1180 003e 46B1     		cbz	r6, .L74
 202:../../Middlewares/Third_Party/FreeRTOS/Source/event_groups.c **** 	}
 1181              		.loc 1 202 3 is_stmt 1 view .LVU353
 1182              	.LBB69:
 1183              	.LBI69:
 191:../../Middlewares/Third_Party/FreeRTOS/Source/portable/GCC/ARM_CM4F/portmacro.h **** {
 1184              		.loc 2 191 30 view .LVU354
 1185              	.LBB70:
 193:../../Middlewares/Third_Party/FreeRTOS/Source/portable/GCC/ARM_CM4F/portmacro.h **** 
 1186              		.loc 2 193 1 view .LVU355
 195:../../Middlewares/Third_Party/FreeRTOS/Source/portable/GCC/ARM_CM4F/portmacro.h **** 	(
 1187              		.loc 2 195 2 view .LVU356
 1188              		.syntax unified
 1189              	@ 195 "../../Middlewares/Third_Party/FreeRTOS/Source/portable/GCC/ARM_CM4F/portmacro.h" 1
 1190 0040 4FF05003 			mov r3, #80												
 1191 0044 83F31188 		msr basepri, r3											
 1192 0048 BFF36F8F 		isb														
 1193 004c BFF34F8F 		dsb														
 1194              	
 1195              	@ 0 "" 2
 1196              	.LVL96:
 1197              		.thumb
 1198              		.syntax unified
 1199              	.L75:
 195:../../Middlewares/Third_Party/FreeRTOS/Source/portable/GCC/ARM_CM4F/portmacro.h **** 	(
 1200              		.loc 2 195 2 is_stmt 0 view .LVU357
 1201              	.LBE70:
 1202              	.LBE69:
 202:../../Middlewares/Third_Party/FreeRTOS/Source/event_groups.c **** 	}
 1203              		.loc 1 202 3 is_stmt 1 discriminator 3 view .LVU358
 202:../../Middlewares/Third_Party/FreeRTOS/Source/event_groups.c **** 	}
 1204              		.loc 1 202 3 discriminator 3 view .LVU359
 1205 0050 FEE7     		b	.L75
 1206              	.L74:
 202:../../Middlewares/Third_Party/FreeRTOS/Source/event_groups.c **** 	}
 1207              		.loc 1 202 104 discriminator 8 view .LVU360
 206:../../Middlewares/Third_Party/FreeRTOS/Source/event_groups.c **** 	{
 1208              		.loc 1 206 2 discriminator 8 view .LVU361
 1209 0052 FFF7FEFF 		bl	vTaskSuspendAll
 1210              	.LVL97:
 208:../../Middlewares/Third_Party/FreeRTOS/Source/event_groups.c **** 
 1211              		.loc 1 208 3 discriminator 8 view .LVU362
 208:../../Middlewares/Third_Party/FreeRTOS/Source/event_groups.c **** 
 1212              		.loc 1 208 22 is_stmt 0 discriminator 8 view .LVU363
 1213 0056 D7F80080 		ldr	r8, [r7]
ARM GAS  C:\Users\gigig\AppData\Local\Temp\ccsPSJdA.s 			page 44


 1214              	.LVL98:
 210:../../Middlewares/Third_Party/FreeRTOS/Source/event_groups.c **** 
 1215              		.loc 1 210 3 is_stmt 1 discriminator 8 view .LVU364
 210:../../Middlewares/Third_Party/FreeRTOS/Source/event_groups.c **** 
 1216              		.loc 1 210 12 is_stmt 0 discriminator 8 view .LVU365
 1217 005a 2946     		mov	r1, r5
 1218 005c 3846     		mov	r0, r7
 1219 005e FFF7FEFF 		bl	xEventGroupSetBits
 1220              	.LVL99:
 212:../../Middlewares/Third_Party/FreeRTOS/Source/event_groups.c **** 		{
 1221              		.loc 1 212 3 is_stmt 1 discriminator 8 view .LVU366
 212:../../Middlewares/Third_Party/FreeRTOS/Source/event_groups.c **** 		{
 1222              		.loc 1 212 30 is_stmt 0 discriminator 8 view .LVU367
 1223 0062 48EA0505 		orr	r5, r8, r5
 1224              	.LVL100:
 212:../../Middlewares/Third_Party/FreeRTOS/Source/event_groups.c **** 		{
 1225              		.loc 1 212 5 discriminator 8 view .LVU368
 1226 0066 34EA0503 		bics	r3, r4, r5
 1227 006a 1AD0     		beq	.L85
 225:../../Middlewares/Third_Party/FreeRTOS/Source/event_groups.c **** 			{
 1228              		.loc 1 225 4 is_stmt 1 view .LVU369
 225:../../Middlewares/Third_Party/FreeRTOS/Source/event_groups.c **** 			{
 1229              		.loc 1 225 6 is_stmt 0 view .LVU370
 1230 006c FEB9     		cbnz	r6, .L86
 244:../../Middlewares/Third_Party/FreeRTOS/Source/event_groups.c **** 				xTimeoutOccurred = pdTRUE;
 1231              		.loc 1 244 5 is_stmt 1 view .LVU371
 244:../../Middlewares/Third_Party/FreeRTOS/Source/event_groups.c **** 				xTimeoutOccurred = pdTRUE;
 1232              		.loc 1 244 14 is_stmt 0 view .LVU372
 1233 006e 3D68     		ldr	r5, [r7]
 1234              	.LVL101:
 245:../../Middlewares/Third_Party/FreeRTOS/Source/event_groups.c **** 			}
 1235              		.loc 1 245 5 is_stmt 1 view .LVU373
 1236              	.L77:
 249:../../Middlewares/Third_Party/FreeRTOS/Source/event_groups.c **** 
 1237              		.loc 1 249 2 view .LVU374
 249:../../Middlewares/Third_Party/FreeRTOS/Source/event_groups.c **** 
 1238              		.loc 1 249 20 is_stmt 0 view .LVU375
 1239 0070 FFF7FEFF 		bl	xTaskResumeAll
 1240              	.LVL102:
 251:../../Middlewares/Third_Party/FreeRTOS/Source/event_groups.c **** 	{
 1241              		.loc 1 251 2 is_stmt 1 view .LVU376
 251:../../Middlewares/Third_Party/FreeRTOS/Source/event_groups.c **** 	{
 1242              		.loc 1 251 4 is_stmt 0 view .LVU377
 1243 0074 96B1     		cbz	r6, .L69
 253:../../Middlewares/Third_Party/FreeRTOS/Source/event_groups.c **** 		{
 1244              		.loc 1 253 3 is_stmt 1 view .LVU378
 253:../../Middlewares/Third_Party/FreeRTOS/Source/event_groups.c **** 		{
 1245              		.loc 1 253 5 is_stmt 0 view .LVU379
 1246 0076 48B9     		cbnz	r0, .L80
 255:../../Middlewares/Third_Party/FreeRTOS/Source/event_groups.c **** 		}
 1247              		.loc 1 255 4 is_stmt 1 view .LVU380
 1248 0078 4FF0E023 		mov	r3, #-536813568
 1249 007c 4FF08052 		mov	r2, #268435456
 1250 0080 C3F8042D 		str	r2, [r3, #3332]
 255:../../Middlewares/Third_Party/FreeRTOS/Source/event_groups.c **** 		}
 1251              		.loc 1 255 4 view .LVU381
 1252              		.syntax unified
ARM GAS  C:\Users\gigig\AppData\Local\Temp\ccsPSJdA.s 			page 45


 1253              	@ 255 "../../Middlewares/Third_Party/FreeRTOS/Source/event_groups.c" 1
 1254 0084 BFF34F8F 		dsb
 1255              	@ 0 "" 2
 255:../../Middlewares/Third_Party/FreeRTOS/Source/event_groups.c **** 		}
 1256              		.loc 1 255 4 view .LVU382
 1257              	@ 255 "../../Middlewares/Third_Party/FreeRTOS/Source/event_groups.c" 1
 1258 0088 BFF36F8F 		isb
 1259              	@ 0 "" 2
 255:../../Middlewares/Third_Party/FreeRTOS/Source/event_groups.c **** 		}
 1260              		.loc 1 255 26 view .LVU383
 1261              		.thumb
 1262              		.syntax unified
 1263              	.L80:
 259:../../Middlewares/Third_Party/FreeRTOS/Source/event_groups.c **** 		}
 1264              		.loc 1 259 28 view .LVU384
 266:../../Middlewares/Third_Party/FreeRTOS/Source/event_groups.c **** 
 1265              		.loc 1 266 3 view .LVU385
 266:../../Middlewares/Third_Party/FreeRTOS/Source/event_groups.c **** 
 1266              		.loc 1 266 14 is_stmt 0 view .LVU386
 1267 008c FFF7FEFF 		bl	uxTaskResetEventItemValue
 1268              	.LVL103:
 266:../../Middlewares/Third_Party/FreeRTOS/Source/event_groups.c **** 
 1269              		.loc 1 266 14 view .LVU387
 1270 0090 0546     		mov	r5, r0
 1271              	.LVL104:
 268:../../Middlewares/Third_Party/FreeRTOS/Source/event_groups.c **** 		{
 1272              		.loc 1 268 3 is_stmt 1 view .LVU388
 268:../../Middlewares/Third_Party/FreeRTOS/Source/event_groups.c **** 		{
 1273              		.loc 1 268 5 is_stmt 0 view .LVU389
 1274 0092 10F0007F 		tst	r0, #33554432
 1275 0096 12D0     		beq	.L87
 1276              	.LVL105:
 1277              	.L81:
 295:../../Middlewares/Third_Party/FreeRTOS/Source/event_groups.c **** 
 1278              		.loc 1 295 3 is_stmt 1 view .LVU390
 299:../../Middlewares/Third_Party/FreeRTOS/Source/event_groups.c **** 	}
 1279              		.loc 1 299 3 view .LVU391
 299:../../Middlewares/Third_Party/FreeRTOS/Source/event_groups.c **** 	}
 1280              		.loc 1 299 12 is_stmt 0 view .LVU392
 1281 0098 25F07F45 		bic	r5, r5, #-16777216
 1282              	.LVL106:
 302:../../Middlewares/Third_Party/FreeRTOS/Source/event_groups.c **** 
 1283              		.loc 1 302 2 is_stmt 1 view .LVU393
 305:../../Middlewares/Third_Party/FreeRTOS/Source/event_groups.c **** 
 1284              		.loc 1 305 2 view .LVU394
 307:../../Middlewares/Third_Party/FreeRTOS/Source/event_groups.c **** }
 1285              		.loc 1 307 2 view .LVU395
 1286              	.L69:
 308:../../Middlewares/Third_Party/FreeRTOS/Source/event_groups.c **** /*-----------------------------------------------------------*/
 1287              		.loc 1 308 1 is_stmt 0 view .LVU396
 1288 009c 2846     		mov	r0, r5
 1289 009e BDE8F081 		pop	{r4, r5, r6, r7, r8, pc}
 1290              	.LVL107:
 1291              	.L85:
 215:../../Middlewares/Third_Party/FreeRTOS/Source/event_groups.c **** 
 1292              		.loc 1 215 4 is_stmt 1 view .LVU397
 219:../../Middlewares/Third_Party/FreeRTOS/Source/event_groups.c **** 
ARM GAS  C:\Users\gigig\AppData\Local\Temp\ccsPSJdA.s 			page 46


 1293              		.loc 1 219 4 view .LVU398
 219:../../Middlewares/Third_Party/FreeRTOS/Source/event_groups.c **** 
 1294              		.loc 1 219 15 is_stmt 0 view .LVU399
 1295 00a2 3B68     		ldr	r3, [r7]
 219:../../Middlewares/Third_Party/FreeRTOS/Source/event_groups.c **** 
 1296              		.loc 1 219 29 view .LVU400
 1297 00a4 23EA0403 		bic	r3, r3, r4
 1298 00a8 3B60     		str	r3, [r7]
 221:../../Middlewares/Third_Party/FreeRTOS/Source/event_groups.c **** 		}
 1299              		.loc 1 221 4 is_stmt 1 view .LVU401
 1300              	.LVL108:
 221:../../Middlewares/Third_Party/FreeRTOS/Source/event_groups.c **** 		}
 1301              		.loc 1 221 17 is_stmt 0 view .LVU402
 1302 00aa 0026     		movs	r6, #0
 1303 00ac E0E7     		b	.L77
 1304              	.LVL109:
 1305              	.L86:
 227:../../Middlewares/Third_Party/FreeRTOS/Source/event_groups.c **** 
 1306              		.loc 1 227 77 is_stmt 1 view .LVU403
 232:../../Middlewares/Third_Party/FreeRTOS/Source/event_groups.c **** 
 1307              		.loc 1 232 5 view .LVU404
 1308 00ae 3246     		mov	r2, r6
 1309 00b0 44F0A061 		orr	r1, r4, #83886080
 1310 00b4 381D     		adds	r0, r7, #4
 1311 00b6 FFF7FEFF 		bl	vTaskPlaceOnUnorderedEventList
 1312              	.LVL110:
 238:../../Middlewares/Third_Party/FreeRTOS/Source/event_groups.c **** 			}
 1313              		.loc 1 238 5 view .LVU405
 238:../../Middlewares/Third_Party/FreeRTOS/Source/event_groups.c **** 			}
 1314              		.loc 1 238 14 is_stmt 0 view .LVU406
 1315 00ba 0025     		movs	r5, #0
 1316 00bc D8E7     		b	.L77
 1317              	.LVL111:
 1318              	.L87:
 271:../../Middlewares/Third_Party/FreeRTOS/Source/event_groups.c **** 			{
 1319              		.loc 1 271 4 is_stmt 1 view .LVU407
 1320 00be FFF7FEFF 		bl	vPortEnterCritical
 1321              	.LVL112:
 273:../../Middlewares/Third_Party/FreeRTOS/Source/event_groups.c **** 
 1322              		.loc 1 273 5 view .LVU408
 273:../../Middlewares/Third_Party/FreeRTOS/Source/event_groups.c **** 
 1323              		.loc 1 273 14 is_stmt 0 view .LVU409
 1324 00c2 3D68     		ldr	r5, [r7]
 1325              	.LVL113:
 279:../../Middlewares/Third_Party/FreeRTOS/Source/event_groups.c **** 				{
 1326              		.loc 1 279 5 is_stmt 1 view .LVU410
 279:../../Middlewares/Third_Party/FreeRTOS/Source/event_groups.c **** 				{
 1327              		.loc 1 279 7 is_stmt 0 view .LVU411
 1328 00c4 34EA0503 		bics	r3, r4, r5
 1329 00c8 02D0     		beq	.L88
 1330              	.LVL114:
 1331              	.L82:
 285:../../Middlewares/Third_Party/FreeRTOS/Source/event_groups.c **** 				}
 1332              		.loc 1 285 30 is_stmt 1 view .LVU412
 288:../../Middlewares/Third_Party/FreeRTOS/Source/event_groups.c **** 
 1333              		.loc 1 288 4 view .LVU413
 1334 00ca FFF7FEFF 		bl	vPortExitCritical
ARM GAS  C:\Users\gigig\AppData\Local\Temp\ccsPSJdA.s 			page 47


 1335              	.LVL115:
 290:../../Middlewares/Third_Party/FreeRTOS/Source/event_groups.c **** 		}
 1336              		.loc 1 290 4 view .LVU414
 290:../../Middlewares/Third_Party/FreeRTOS/Source/event_groups.c **** 		}
 1337              		.loc 1 290 4 is_stmt 0 view .LVU415
 1338 00ce E3E7     		b	.L81
 1339              	.LVL116:
 1340              	.L88:
 281:../../Middlewares/Third_Party/FreeRTOS/Source/event_groups.c **** 				}
 1341              		.loc 1 281 6 is_stmt 1 view .LVU416
 281:../../Middlewares/Third_Party/FreeRTOS/Source/event_groups.c **** 				}
 1342              		.loc 1 281 31 is_stmt 0 view .LVU417
 1343 00d0 25EA0404 		bic	r4, r5, r4
 1344              	.LVL117:
 281:../../Middlewares/Third_Party/FreeRTOS/Source/event_groups.c **** 				}
 1345              		.loc 1 281 31 view .LVU418
 1346 00d4 3C60     		str	r4, [r7]
 1347 00d6 F8E7     		b	.L82
 1348              		.cfi_endproc
 1349              	.LFE6:
 1351              		.section	.text.vEventGroupSetBitsCallback,"ax",%progbits
 1352              		.align	1
 1353              		.global	vEventGroupSetBitsCallback
 1354              		.syntax unified
 1355              		.thumb
 1356              		.thumb_func
 1358              	vEventGroupSetBitsCallback:
 1359              	.LVL118:
 1360              	.LFB13:
 658:../../Middlewares/Third_Party/FreeRTOS/Source/event_groups.c **** 	( void ) xEventGroupSetBits( pvEventGroup, ( EventBits_t ) ulBitsToSet ); /*lint !e9079 Can't avoi
 1361              		.loc 1 658 1 is_stmt 1 view -0
 1362              		.cfi_startproc
 1363              		@ args = 0, pretend = 0, frame = 0
 1364              		@ frame_needed = 0, uses_anonymous_args = 0
 658:../../Middlewares/Third_Party/FreeRTOS/Source/event_groups.c **** 	( void ) xEventGroupSetBits( pvEventGroup, ( EventBits_t ) ulBitsToSet ); /*lint !e9079 Can't avoi
 1365              		.loc 1 658 1 is_stmt 0 view .LVU420
 1366 0000 08B5     		push	{r3, lr}
 1367              	.LCFI16:
 1368              		.cfi_def_cfa_offset 8
 1369              		.cfi_offset 3, -8
 1370              		.cfi_offset 14, -4
 659:../../Middlewares/Third_Party/FreeRTOS/Source/event_groups.c **** }
 1371              		.loc 1 659 2 is_stmt 1 view .LVU421
 659:../../Middlewares/Third_Party/FreeRTOS/Source/event_groups.c **** }
 1372              		.loc 1 659 11 is_stmt 0 view .LVU422
 1373 0002 FFF7FEFF 		bl	xEventGroupSetBits
 1374              	.LVL119:
 660:../../Middlewares/Third_Party/FreeRTOS/Source/event_groups.c **** /*-----------------------------------------------------------*/
 1375              		.loc 1 660 1 view .LVU423
 1376 0006 08BD     		pop	{r3, pc}
 1377              		.cfi_endproc
 1378              	.LFE13:
 1380              		.section	.text.vEventGroupDelete,"ax",%progbits
 1381              		.align	1
 1382              		.global	vEventGroupDelete
 1383              		.syntax unified
 1384              		.thumb
ARM GAS  C:\Users\gigig\AppData\Local\Temp\ccsPSJdA.s 			page 48


 1385              		.thumb_func
 1387              	vEventGroupDelete:
 1388              	.LVL120:
 1389              	.LFB12:
 614:../../Middlewares/Third_Party/FreeRTOS/Source/event_groups.c **** EventGroup_t *pxEventBits = xEventGroup;
 1390              		.loc 1 614 1 is_stmt 1 view -0
 1391              		.cfi_startproc
 1392              		@ args = 0, pretend = 0, frame = 0
 1393              		@ frame_needed = 0, uses_anonymous_args = 0
 614:../../Middlewares/Third_Party/FreeRTOS/Source/event_groups.c **** EventGroup_t *pxEventBits = xEventGroup;
 1394              		.loc 1 614 1 is_stmt 0 view .LVU425
 1395 0000 10B5     		push	{r4, lr}
 1396              	.LCFI17:
 1397              		.cfi_def_cfa_offset 8
 1398              		.cfi_offset 4, -8
 1399              		.cfi_offset 14, -4
 1400 0002 0446     		mov	r4, r0
 615:../../Middlewares/Third_Party/FreeRTOS/Source/event_groups.c **** const List_t *pxTasksWaitingForBits = &( pxEventBits->xTasksWaitingForBits );
 1401              		.loc 1 615 1 is_stmt 1 view .LVU426
 1402              	.LVL121:
 616:../../Middlewares/Third_Party/FreeRTOS/Source/event_groups.c **** 
 1403              		.loc 1 616 1 view .LVU427
 618:../../Middlewares/Third_Party/FreeRTOS/Source/event_groups.c **** 	{
 1404              		.loc 1 618 2 view .LVU428
 1405 0004 FFF7FEFF 		bl	vTaskSuspendAll
 1406              	.LVL122:
 620:../../Middlewares/Third_Party/FreeRTOS/Source/event_groups.c **** 
 1407              		.loc 1 620 41 view .LVU429
 622:../../Middlewares/Third_Party/FreeRTOS/Source/event_groups.c **** 		{
 1408              		.loc 1 622 3 view .LVU430
 1409              	.L92:
 622:../../Middlewares/Third_Party/FreeRTOS/Source/event_groups.c **** 		{
 1410              		.loc 1 622 59 view .LVU431
 622:../../Middlewares/Third_Party/FreeRTOS/Source/event_groups.c **** 		{
 1411              		.loc 1 622 10 is_stmt 0 view .LVU432
 1412 0008 6368     		ldr	r3, [r4, #4]
 622:../../Middlewares/Third_Party/FreeRTOS/Source/event_groups.c **** 		{
 1413              		.loc 1 622 59 view .LVU433
 1414 000a 93B1     		cbz	r3, .L98
 626:../../Middlewares/Third_Party/FreeRTOS/Source/event_groups.c **** 			vTaskRemoveFromUnorderedEventList( pxTasksWaitingForBits->xListEnd.pxNext, eventUNBLOCKED_DUE_TO
 1415              		.loc 1 626 4 is_stmt 1 view .LVU434
 1416 000c 2069     		ldr	r0, [r4, #16]
 1417 000e 04F10C03 		add	r3, r4, #12
 1418 0012 9842     		cmp	r0, r3
 1419 0014 04D0     		beq	.L99
 626:../../Middlewares/Third_Party/FreeRTOS/Source/event_groups.c **** 			vTaskRemoveFromUnorderedEventList( pxTasksWaitingForBits->xListEnd.pxNext, eventUNBLOCKED_DUE_TO
 1420              		.loc 1 626 121 discriminator 2 view .LVU435
 627:../../Middlewares/Third_Party/FreeRTOS/Source/event_groups.c **** 		}
 1421              		.loc 1 627 4 discriminator 2 view .LVU436
 1422 0016 4FF00071 		mov	r1, #33554432
 1423 001a FFF7FEFF 		bl	vTaskRemoveFromUnorderedEventList
 1424              	.LVL123:
 1425 001e F3E7     		b	.L92
 1426              	.L99:
 626:../../Middlewares/Third_Party/FreeRTOS/Source/event_groups.c **** 			vTaskRemoveFromUnorderedEventList( pxTasksWaitingForBits->xListEnd.pxNext, eventUNBLOCKED_DUE_TO
 1427              		.loc 1 626 4 view .LVU437
 1428              	.LBB71:
ARM GAS  C:\Users\gigig\AppData\Local\Temp\ccsPSJdA.s 			page 49


 1429              	.LBI71:
 191:../../Middlewares/Third_Party/FreeRTOS/Source/portable/GCC/ARM_CM4F/portmacro.h **** {
 1430              		.loc 2 191 30 view .LVU438
 1431              	.LBB72:
 193:../../Middlewares/Third_Party/FreeRTOS/Source/portable/GCC/ARM_CM4F/portmacro.h **** 
 1432              		.loc 2 193 1 view .LVU439
 195:../../Middlewares/Third_Party/FreeRTOS/Source/portable/GCC/ARM_CM4F/portmacro.h **** 	(
 1433              		.loc 2 195 2 view .LVU440
 1434              		.syntax unified
 1435              	@ 195 "../../Middlewares/Third_Party/FreeRTOS/Source/portable/GCC/ARM_CM4F/portmacro.h" 1
 1436 0020 4FF05003 			mov r3, #80												
 1437 0024 83F31188 		msr basepri, r3											
 1438 0028 BFF36F8F 		isb														
 1439 002c BFF34F8F 		dsb														
 1440              	
 1441              	@ 0 "" 2
 1442              	.LVL124:
 1443              		.thumb
 1444              		.syntax unified
 1445              	.L94:
 195:../../Middlewares/Third_Party/FreeRTOS/Source/portable/GCC/ARM_CM4F/portmacro.h **** 	(
 1446              		.loc 2 195 2 is_stmt 0 view .LVU441
 1447              	.LBE72:
 1448              	.LBE71:
 626:../../Middlewares/Third_Party/FreeRTOS/Source/event_groups.c **** 			vTaskRemoveFromUnorderedEventList( pxTasksWaitingForBits->xListEnd.pxNext, eventUNBLOCKED_DUE_TO
 1449              		.loc 1 626 4 is_stmt 1 discriminator 1 view .LVU442
 626:../../Middlewares/Third_Party/FreeRTOS/Source/event_groups.c **** 			vTaskRemoveFromUnorderedEventList( pxTasksWaitingForBits->xListEnd.pxNext, eventUNBLOCKED_DUE_TO
 1450              		.loc 1 626 4 discriminator 1 view .LVU443
 1451 0030 FEE7     		b	.L94
 1452              	.L98:
 640:../../Middlewares/Third_Party/FreeRTOS/Source/event_groups.c **** 			{
 1453              		.loc 1 640 4 view .LVU444
 640:../../Middlewares/Third_Party/FreeRTOS/Source/event_groups.c **** 			{
 1454              		.loc 1 640 19 is_stmt 0 view .LVU445
 1455 0032 237F     		ldrb	r3, [r4, #28]	@ zero_extendqisi2
 640:../../Middlewares/Third_Party/FreeRTOS/Source/event_groups.c **** 			{
 1456              		.loc 1 640 6 view .LVU446
 1457 0034 13B1     		cbz	r3, .L100
 1458              	.L96:
 646:../../Middlewares/Third_Party/FreeRTOS/Source/event_groups.c **** 			}
 1459              		.loc 1 646 29 is_stmt 1 view .LVU447
 651:../../Middlewares/Third_Party/FreeRTOS/Source/event_groups.c **** }
 1460              		.loc 1 651 2 view .LVU448
 651:../../Middlewares/Third_Party/FreeRTOS/Source/event_groups.c **** }
 1461              		.loc 1 651 11 is_stmt 0 view .LVU449
 1462 0036 FFF7FEFF 		bl	xTaskResumeAll
 1463              	.LVL125:
 652:../../Middlewares/Third_Party/FreeRTOS/Source/event_groups.c **** /*-----------------------------------------------------------*/
 1464              		.loc 1 652 1 view .LVU450
 1465 003a 10BD     		pop	{r4, pc}
 1466              	.LVL126:
 1467              	.L100:
 642:../../Middlewares/Third_Party/FreeRTOS/Source/event_groups.c **** 			}
 1468              		.loc 1 642 5 is_stmt 1 view .LVU451
 1469 003c 2046     		mov	r0, r4
 1470 003e FFF7FEFF 		bl	vPortFree
 1471              	.LVL127:
ARM GAS  C:\Users\gigig\AppData\Local\Temp\ccsPSJdA.s 			page 50


 1472 0042 F8E7     		b	.L96
 1473              		.cfi_endproc
 1474              	.LFE12:
 1476              		.section	.text.xEventGroupSetBitsFromISR,"ax",%progbits
 1477              		.align	1
 1478              		.global	xEventGroupSetBitsFromISR
 1479              		.syntax unified
 1480              		.thumb
 1481              		.thumb_func
 1483              	xEventGroupSetBitsFromISR:
 1484              	.LVL128:
 1485              	.LFB16:
 704:../../Middlewares/Third_Party/FreeRTOS/Source/event_groups.c **** /*-----------------------------------------------------------*/
 705:../../Middlewares/Third_Party/FreeRTOS/Source/event_groups.c **** 
 706:../../Middlewares/Third_Party/FreeRTOS/Source/event_groups.c **** #if ( ( configUSE_TRACE_FACILITY == 1 ) && ( INCLUDE_xTimerPendFunctionCall == 1 ) && ( configUSE_T
 707:../../Middlewares/Third_Party/FreeRTOS/Source/event_groups.c **** 
 708:../../Middlewares/Third_Party/FreeRTOS/Source/event_groups.c **** 	BaseType_t xEventGroupSetBitsFromISR( EventGroupHandle_t xEventGroup, const EventBits_t uxBitsToSe
 709:../../Middlewares/Third_Party/FreeRTOS/Source/event_groups.c **** 	{
 1486              		.loc 1 709 2 view -0
 1487              		.cfi_startproc
 1488              		@ args = 0, pretend = 0, frame = 0
 1489              		@ frame_needed = 0, uses_anonymous_args = 0
 1490              		.loc 1 709 2 is_stmt 0 view .LVU453
 1491 0000 08B5     		push	{r3, lr}
 1492              	.LCFI18:
 1493              		.cfi_def_cfa_offset 8
 1494              		.cfi_offset 3, -8
 1495              		.cfi_offset 14, -4
 1496 0002 1346     		mov	r3, r2
 710:../../Middlewares/Third_Party/FreeRTOS/Source/event_groups.c **** 	BaseType_t xReturn;
 1497              		.loc 1 710 2 is_stmt 1 view .LVU454
 711:../../Middlewares/Third_Party/FreeRTOS/Source/event_groups.c **** 
 712:../../Middlewares/Third_Party/FreeRTOS/Source/event_groups.c **** 		traceEVENT_GROUP_SET_BITS_FROM_ISR( xEventGroup, uxBitsToSet );
 1498              		.loc 1 712 65 view .LVU455
 713:../../Middlewares/Third_Party/FreeRTOS/Source/event_groups.c **** 		xReturn = xTimerPendFunctionCallFromISR( vEventGroupSetBitsCallback, ( void * ) xEventGroup, ( ui
 1499              		.loc 1 713 3 view .LVU456
 1500              		.loc 1 713 13 is_stmt 0 view .LVU457
 1501 0004 0A46     		mov	r2, r1
 1502              	.LVL129:
 1503              		.loc 1 713 13 view .LVU458
 1504 0006 0146     		mov	r1, r0
 1505              	.LVL130:
 1506              		.loc 1 713 13 view .LVU459
 1507 0008 0148     		ldr	r0, .L103
 1508              	.LVL131:
 1509              		.loc 1 713 13 view .LVU460
 1510 000a FFF7FEFF 		bl	xTimerPendFunctionCallFromISR
 1511              	.LVL132:
 714:../../Middlewares/Third_Party/FreeRTOS/Source/event_groups.c **** 
 715:../../Middlewares/Third_Party/FreeRTOS/Source/event_groups.c **** 		return xReturn;
 1512              		.loc 1 715 3 is_stmt 1 view .LVU461
 716:../../Middlewares/Third_Party/FreeRTOS/Source/event_groups.c **** 	}
 1513              		.loc 1 716 2 is_stmt 0 view .LVU462
 1514 000e 08BD     		pop	{r3, pc}
 1515              	.L104:
 1516              		.align	2
 1517              	.L103:
ARM GAS  C:\Users\gigig\AppData\Local\Temp\ccsPSJdA.s 			page 51


 1518 0010 00000000 		.word	vEventGroupSetBitsCallback
 1519              		.cfi_endproc
 1520              	.LFE16:
 1522              		.section	.text.uxEventGroupGetNumber,"ax",%progbits
 1523              		.align	1
 1524              		.global	uxEventGroupGetNumber
 1525              		.syntax unified
 1526              		.thumb
 1527              		.thumb_func
 1529              	uxEventGroupGetNumber:
 1530              	.LVL133:
 1531              	.LFB17:
 717:../../Middlewares/Third_Party/FreeRTOS/Source/event_groups.c **** 
 718:../../Middlewares/Third_Party/FreeRTOS/Source/event_groups.c **** #endif
 719:../../Middlewares/Third_Party/FreeRTOS/Source/event_groups.c **** /*-----------------------------------------------------------*/
 720:../../Middlewares/Third_Party/FreeRTOS/Source/event_groups.c **** 
 721:../../Middlewares/Third_Party/FreeRTOS/Source/event_groups.c **** #if (configUSE_TRACE_FACILITY == 1)
 722:../../Middlewares/Third_Party/FreeRTOS/Source/event_groups.c **** 
 723:../../Middlewares/Third_Party/FreeRTOS/Source/event_groups.c **** 	UBaseType_t uxEventGroupGetNumber( void* xEventGroup )
 724:../../Middlewares/Third_Party/FreeRTOS/Source/event_groups.c **** 	{
 1532              		.loc 1 724 2 is_stmt 1 view -0
 1533              		.cfi_startproc
 1534              		@ args = 0, pretend = 0, frame = 0
 1535              		@ frame_needed = 0, uses_anonymous_args = 0
 1536              		@ link register save eliminated.
 725:../../Middlewares/Third_Party/FreeRTOS/Source/event_groups.c **** 	UBaseType_t xReturn;
 1537              		.loc 1 725 2 view .LVU464
 726:../../Middlewares/Third_Party/FreeRTOS/Source/event_groups.c **** 	EventGroup_t const *pxEventBits = ( EventGroup_t * ) xEventGroup; /*lint !e9087 !e9079 EventGroupH
 1538              		.loc 1 726 2 view .LVU465
 727:../../Middlewares/Third_Party/FreeRTOS/Source/event_groups.c **** 
 728:../../Middlewares/Third_Party/FreeRTOS/Source/event_groups.c **** 		if( xEventGroup == NULL )
 1539              		.loc 1 728 3 view .LVU466
 1540              		.loc 1 728 5 is_stmt 0 view .LVU467
 1541 0000 08B1     		cbz	r0, .L107
 729:../../Middlewares/Third_Party/FreeRTOS/Source/event_groups.c **** 		{
 730:../../Middlewares/Third_Party/FreeRTOS/Source/event_groups.c **** 			xReturn = 0;
 731:../../Middlewares/Third_Party/FreeRTOS/Source/event_groups.c **** 		}
 732:../../Middlewares/Third_Party/FreeRTOS/Source/event_groups.c **** 		else
 733:../../Middlewares/Third_Party/FreeRTOS/Source/event_groups.c **** 		{
 734:../../Middlewares/Third_Party/FreeRTOS/Source/event_groups.c **** 			xReturn = pxEventBits->uxEventGroupNumber;
 1542              		.loc 1 734 4 is_stmt 1 view .LVU468
 1543              		.loc 1 734 12 is_stmt 0 view .LVU469
 1544 0002 8069     		ldr	r0, [r0, #24]
 1545              	.LVL134:
 1546              		.loc 1 734 12 view .LVU470
 1547 0004 7047     		bx	lr
 1548              	.LVL135:
 1549              	.L107:
 730:../../Middlewares/Third_Party/FreeRTOS/Source/event_groups.c **** 		}
 1550              		.loc 1 730 12 view .LVU471
 1551 0006 0020     		movs	r0, #0
 1552              	.LVL136:
 735:../../Middlewares/Third_Party/FreeRTOS/Source/event_groups.c **** 		}
 736:../../Middlewares/Third_Party/FreeRTOS/Source/event_groups.c **** 
 737:../../Middlewares/Third_Party/FreeRTOS/Source/event_groups.c **** 		return xReturn;
 1553              		.loc 1 737 3 is_stmt 1 view .LVU472
 738:../../Middlewares/Third_Party/FreeRTOS/Source/event_groups.c **** 	}
ARM GAS  C:\Users\gigig\AppData\Local\Temp\ccsPSJdA.s 			page 52


 1554              		.loc 1 738 2 is_stmt 0 view .LVU473
 1555 0008 7047     		bx	lr
 1556              		.cfi_endproc
 1557              	.LFE17:
 1559              		.section	.text.vEventGroupSetNumber,"ax",%progbits
 1560              		.align	1
 1561              		.global	vEventGroupSetNumber
 1562              		.syntax unified
 1563              		.thumb
 1564              		.thumb_func
 1566              	vEventGroupSetNumber:
 1567              	.LVL137:
 1568              	.LFB18:
 739:../../Middlewares/Third_Party/FreeRTOS/Source/event_groups.c **** 
 740:../../Middlewares/Third_Party/FreeRTOS/Source/event_groups.c **** #endif /* configUSE_TRACE_FACILITY */
 741:../../Middlewares/Third_Party/FreeRTOS/Source/event_groups.c **** /*-----------------------------------------------------------*/
 742:../../Middlewares/Third_Party/FreeRTOS/Source/event_groups.c **** 
 743:../../Middlewares/Third_Party/FreeRTOS/Source/event_groups.c **** #if ( configUSE_TRACE_FACILITY == 1 )
 744:../../Middlewares/Third_Party/FreeRTOS/Source/event_groups.c **** 
 745:../../Middlewares/Third_Party/FreeRTOS/Source/event_groups.c **** 	void vEventGroupSetNumber( void * xEventGroup, UBaseType_t uxEventGroupNumber )
 746:../../Middlewares/Third_Party/FreeRTOS/Source/event_groups.c **** 	{
 1569              		.loc 1 746 2 is_stmt 1 view -0
 1570              		.cfi_startproc
 1571              		@ args = 0, pretend = 0, frame = 0
 1572              		@ frame_needed = 0, uses_anonymous_args = 0
 1573              		@ link register save eliminated.
 747:../../Middlewares/Third_Party/FreeRTOS/Source/event_groups.c **** 		( ( EventGroup_t * ) xEventGroup )->uxEventGroupNumber = uxEventGroupNumber; /*lint !e9087 !e9079
 1574              		.loc 1 747 3 view .LVU475
 1575              		.loc 1 747 58 is_stmt 0 view .LVU476
 1576 0000 8161     		str	r1, [r0, #24]
 748:../../Middlewares/Third_Party/FreeRTOS/Source/event_groups.c **** 	}
 1577              		.loc 1 748 2 view .LVU477
 1578 0002 7047     		bx	lr
 1579              		.cfi_endproc
 1580              	.LFE18:
 1582              		.text
 1583              	.Letext0:
 1584              		.file 3 "c:\\program files (x86)\\arm gnu toolchain arm-none-eabi\\12.2 rel1\\lib\\gcc\\arm-none-e
 1585              		.file 4 "c:\\program files (x86)\\arm gnu toolchain arm-none-eabi\\12.2 rel1\\arm-none-eabi\\inclu
 1586              		.file 5 "c:\\program files (x86)\\arm gnu toolchain arm-none-eabi\\12.2 rel1\\arm-none-eabi\\inclu
 1587              		.file 6 "../../Middlewares/Third_Party/FreeRTOS/Source/include/FreeRTOS.h"
 1588              		.file 7 "../../Middlewares/Third_Party/FreeRTOS/Source/include/list.h"
 1589              		.file 8 "../../Middlewares/Third_Party/FreeRTOS/Source/include/timers.h"
 1590              		.file 9 "../../Middlewares/Third_Party/FreeRTOS/Source/include/event_groups.h"
 1591              		.file 10 "../../Middlewares/Third_Party/FreeRTOS/Source/include/portable.h"
 1592              		.file 11 "../../Middlewares/Third_Party/FreeRTOS/Source/include/task.h"
ARM GAS  C:\Users\gigig\AppData\Local\Temp\ccsPSJdA.s 			page 53


DEFINED SYMBOLS
                            *ABS*:00000000 event_groups.c
C:\Users\gigig\AppData\Local\Temp\ccsPSJdA.s:20     .text.prvTestWaitCondition:00000000 $t
C:\Users\gigig\AppData\Local\Temp\ccsPSJdA.s:25     .text.prvTestWaitCondition:00000000 prvTestWaitCondition
C:\Users\gigig\AppData\Local\Temp\ccsPSJdA.s:79     .text.xEventGroupCreateStatic:00000000 $t
C:\Users\gigig\AppData\Local\Temp\ccsPSJdA.s:85     .text.xEventGroupCreateStatic:00000000 xEventGroupCreateStatic
C:\Users\gigig\AppData\Local\Temp\ccsPSJdA.s:211    .text.xEventGroupCreate:00000000 $t
C:\Users\gigig\AppData\Local\Temp\ccsPSJdA.s:217    .text.xEventGroupCreate:00000000 xEventGroupCreate
C:\Users\gigig\AppData\Local\Temp\ccsPSJdA.s:263    .text.xEventGroupWaitBits:00000000 $t
C:\Users\gigig\AppData\Local\Temp\ccsPSJdA.s:269    .text.xEventGroupWaitBits:00000000 xEventGroupWaitBits
C:\Users\gigig\AppData\Local\Temp\ccsPSJdA.s:620    .text.xEventGroupClearBits:00000000 $t
C:\Users\gigig\AppData\Local\Temp\ccsPSJdA.s:626    .text.xEventGroupClearBits:00000000 xEventGroupClearBits
C:\Users\gigig\AppData\Local\Temp\ccsPSJdA.s:742    .text.vEventGroupClearBitsCallback:00000000 $t
C:\Users\gigig\AppData\Local\Temp\ccsPSJdA.s:748    .text.vEventGroupClearBitsCallback:00000000 vEventGroupClearBitsCallback
C:\Users\gigig\AppData\Local\Temp\ccsPSJdA.s:771    .text.xEventGroupClearBitsFromISR:00000000 $t
C:\Users\gigig\AppData\Local\Temp\ccsPSJdA.s:777    .text.xEventGroupClearBitsFromISR:00000000 xEventGroupClearBitsFromISR
C:\Users\gigig\AppData\Local\Temp\ccsPSJdA.s:810    .text.xEventGroupClearBitsFromISR:00000010 $d
C:\Users\gigig\AppData\Local\Temp\ccsPSJdA.s:815    .text.xEventGroupGetBitsFromISR:00000000 $t
C:\Users\gigig\AppData\Local\Temp\ccsPSJdA.s:821    .text.xEventGroupGetBitsFromISR:00000000 xEventGroupGetBitsFromISR
C:\Users\gigig\AppData\Local\Temp\ccsPSJdA.s:882    .text.xEventGroupSetBits:00000000 $t
C:\Users\gigig\AppData\Local\Temp\ccsPSJdA.s:888    .text.xEventGroupSetBits:00000000 xEventGroupSetBits
C:\Users\gigig\AppData\Local\Temp\ccsPSJdA.s:1083   .text.xEventGroupSync:00000000 $t
C:\Users\gigig\AppData\Local\Temp\ccsPSJdA.s:1089   .text.xEventGroupSync:00000000 xEventGroupSync
C:\Users\gigig\AppData\Local\Temp\ccsPSJdA.s:1352   .text.vEventGroupSetBitsCallback:00000000 $t
C:\Users\gigig\AppData\Local\Temp\ccsPSJdA.s:1358   .text.vEventGroupSetBitsCallback:00000000 vEventGroupSetBitsCallback
C:\Users\gigig\AppData\Local\Temp\ccsPSJdA.s:1381   .text.vEventGroupDelete:00000000 $t
C:\Users\gigig\AppData\Local\Temp\ccsPSJdA.s:1387   .text.vEventGroupDelete:00000000 vEventGroupDelete
C:\Users\gigig\AppData\Local\Temp\ccsPSJdA.s:1477   .text.xEventGroupSetBitsFromISR:00000000 $t
C:\Users\gigig\AppData\Local\Temp\ccsPSJdA.s:1483   .text.xEventGroupSetBitsFromISR:00000000 xEventGroupSetBitsFromISR
C:\Users\gigig\AppData\Local\Temp\ccsPSJdA.s:1518   .text.xEventGroupSetBitsFromISR:00000010 $d
C:\Users\gigig\AppData\Local\Temp\ccsPSJdA.s:1523   .text.uxEventGroupGetNumber:00000000 $t
C:\Users\gigig\AppData\Local\Temp\ccsPSJdA.s:1529   .text.uxEventGroupGetNumber:00000000 uxEventGroupGetNumber
C:\Users\gigig\AppData\Local\Temp\ccsPSJdA.s:1560   .text.vEventGroupSetNumber:00000000 $t
C:\Users\gigig\AppData\Local\Temp\ccsPSJdA.s:1566   .text.vEventGroupSetNumber:00000000 vEventGroupSetNumber

UNDEFINED SYMBOLS
vListInitialise
pvPortMalloc
xTaskGetSchedulerState
vTaskSuspendAll
xTaskResumeAll
uxTaskResetEventItemValue
vTaskPlaceOnUnorderedEventList
vPortEnterCritical
vPortExitCritical
xTimerPendFunctionCallFromISR
vTaskRemoveFromUnorderedEventList
vPortFree
