ARM GAS  C:\Users\gigig\AppData\Local\Temp\cc3finZl.s 			page 1


   1              		.cpu cortex-m7
   2              		.arch armv7e-m
   3              		.fpu fpv5-d16
   4              		.eabi_attribute 28, 1
   5              		.eabi_attribute 20, 1
   6              		.eabi_attribute 21, 1
   7              		.eabi_attribute 23, 3
   8              		.eabi_attribute 24, 1
   9              		.eabi_attribute 25, 1
  10              		.eabi_attribute 26, 1
  11              		.eabi_attribute 30, 1
  12              		.eabi_attribute 34, 1
  13              		.eabi_attribute 18, 4
  14              		.file	"main.c"
  15              		.text
  16              	.Ltext0:
  17              		.cfi_sections	.debug_frame
  18              		.section	.text.MX_GPIO_Init,"ax",%progbits
  19              		.align	1
  20              		.syntax unified
  21              		.thumb
  22              		.thumb_func
  24              	MX_GPIO_Init:
  25              	.LFB153:
  26              		.file 1 "../../CM7/Core/Src/main.c"
   1:../../CM7/Core/Src/main.c **** /* USER CODE BEGIN Header */
   2:../../CM7/Core/Src/main.c **** /**
   3:../../CM7/Core/Src/main.c ****   ******************************************************************************
   4:../../CM7/Core/Src/main.c ****   * @file           : main.c
   5:../../CM7/Core/Src/main.c ****   * @brief          : Main program body
   6:../../CM7/Core/Src/main.c ****   ******************************************************************************
   7:../../CM7/Core/Src/main.c ****   * @attention
   8:../../CM7/Core/Src/main.c ****   *
   9:../../CM7/Core/Src/main.c ****   * Copyright (c) 2024 STMicroelectronics.
  10:../../CM7/Core/Src/main.c ****   * All rights reserved.
  11:../../CM7/Core/Src/main.c ****   *
  12:../../CM7/Core/Src/main.c ****   * This software is licensed under terms that can be found in the LICENSE file
  13:../../CM7/Core/Src/main.c ****   * in the root directory of this software component.
  14:../../CM7/Core/Src/main.c ****   * If no LICENSE file comes with this software, it is provided AS-IS.
  15:../../CM7/Core/Src/main.c ****   *
  16:../../CM7/Core/Src/main.c ****   ******************************************************************************
  17:../../CM7/Core/Src/main.c ****   */
  18:../../CM7/Core/Src/main.c **** /* USER CODE END Header */
  19:../../CM7/Core/Src/main.c **** /* Includes ------------------------------------------------------------------*/
  20:../../CM7/Core/Src/main.c **** #include "main.h"
  21:../../CM7/Core/Src/main.c **** #include "cmsis_os.h"
  22:../../CM7/Core/Src/main.c **** 
  23:../../CM7/Core/Src/main.c **** /* Private includes ----------------------------------------------------------*/
  24:../../CM7/Core/Src/main.c **** /* USER CODE BEGIN Includes */
  25:../../CM7/Core/Src/main.c **** 
  26:../../CM7/Core/Src/main.c **** /* USER CODE END Includes */
  27:../../CM7/Core/Src/main.c **** 
  28:../../CM7/Core/Src/main.c **** /* Private typedef -----------------------------------------------------------*/
  29:../../CM7/Core/Src/main.c **** /* USER CODE BEGIN PTD */
  30:../../CM7/Core/Src/main.c **** 
  31:../../CM7/Core/Src/main.c **** /* USER CODE END PTD */
  32:../../CM7/Core/Src/main.c **** 
ARM GAS  C:\Users\gigig\AppData\Local\Temp\cc3finZl.s 			page 2


  33:../../CM7/Core/Src/main.c **** /* Private define ------------------------------------------------------------*/
  34:../../CM7/Core/Src/main.c **** /* USER CODE BEGIN PD */
  35:../../CM7/Core/Src/main.c **** 
  36:../../CM7/Core/Src/main.c **** #ifndef HSEM_ID_0
  37:../../CM7/Core/Src/main.c **** #define HSEM_ID_0 (0U) /* HW semaphore 0*/
  38:../../CM7/Core/Src/main.c **** #endif
  39:../../CM7/Core/Src/main.c **** 
  40:../../CM7/Core/Src/main.c **** /* USER CODE END PD */
  41:../../CM7/Core/Src/main.c **** 
  42:../../CM7/Core/Src/main.c **** /* Private macro -------------------------------------------------------------*/
  43:../../CM7/Core/Src/main.c **** /* USER CODE BEGIN PM */
  44:../../CM7/Core/Src/main.c **** 
  45:../../CM7/Core/Src/main.c **** /* USER CODE END PM */
  46:../../CM7/Core/Src/main.c **** 
  47:../../CM7/Core/Src/main.c **** /* Private variables ---------------------------------------------------------*/
  48:../../CM7/Core/Src/main.c **** 
  49:../../CM7/Core/Src/main.c **** RTC_HandleTypeDef hrtc;
  50:../../CM7/Core/Src/main.c **** 
  51:../../CM7/Core/Src/main.c **** UART_HandleTypeDef huart3;
  52:../../CM7/Core/Src/main.c **** 
  53:../../CM7/Core/Src/main.c **** PCD_HandleTypeDef hpcd_USB_OTG_FS;
  54:../../CM7/Core/Src/main.c **** 
  55:../../CM7/Core/Src/main.c **** /* Definitions for defaultTask */
  56:../../CM7/Core/Src/main.c **** osThreadId_t defaultTaskHandle;
  57:../../CM7/Core/Src/main.c **** const osThreadAttr_t defaultTask_attributes = {
  58:../../CM7/Core/Src/main.c ****   .name = "defaultTask",
  59:../../CM7/Core/Src/main.c ****   .stack_size = 128 * 4,
  60:../../CM7/Core/Src/main.c ****   .priority = (osPriority_t) osPriorityNormal,
  61:../../CM7/Core/Src/main.c **** };
  62:../../CM7/Core/Src/main.c **** /* USER CODE BEGIN PV */
  63:../../CM7/Core/Src/main.c **** 
  64:../../CM7/Core/Src/main.c **** /* USER CODE END PV */
  65:../../CM7/Core/Src/main.c **** 
  66:../../CM7/Core/Src/main.c **** /* Private function prototypes -----------------------------------------------*/
  67:../../CM7/Core/Src/main.c **** void SystemClock_Config(void);
  68:../../CM7/Core/Src/main.c **** static void MX_GPIO_Init(void);
  69:../../CM7/Core/Src/main.c **** static void MX_USART3_UART_Init(void);
  70:../../CM7/Core/Src/main.c **** static void MX_USB_OTG_FS_PCD_Init(void);
  71:../../CM7/Core/Src/main.c **** static void MX_RTC_Init(void);
  72:../../CM7/Core/Src/main.c **** void StartDefaultTask(void *argument);
  73:../../CM7/Core/Src/main.c **** 
  74:../../CM7/Core/Src/main.c **** /* USER CODE BEGIN PFP */
  75:../../CM7/Core/Src/main.c **** 
  76:../../CM7/Core/Src/main.c **** /* USER CODE END PFP */
  77:../../CM7/Core/Src/main.c **** 
  78:../../CM7/Core/Src/main.c **** /* Private user code ---------------------------------------------------------*/
  79:../../CM7/Core/Src/main.c **** /* USER CODE BEGIN 0 */
  80:../../CM7/Core/Src/main.c **** 
  81:../../CM7/Core/Src/main.c **** /* USER CODE END 0 */
  82:../../CM7/Core/Src/main.c **** 
  83:../../CM7/Core/Src/main.c **** /**
  84:../../CM7/Core/Src/main.c ****   * @brief  The application entry point.
  85:../../CM7/Core/Src/main.c ****   * @retval int
  86:../../CM7/Core/Src/main.c ****   */
  87:../../CM7/Core/Src/main.c **** int main(void)
  88:../../CM7/Core/Src/main.c **** {
  89:../../CM7/Core/Src/main.c ****   /* USER CODE BEGIN 1 */
ARM GAS  C:\Users\gigig\AppData\Local\Temp\cc3finZl.s 			page 3


  90:../../CM7/Core/Src/main.c **** 
  91:../../CM7/Core/Src/main.c ****   /* USER CODE END 1 */
  92:../../CM7/Core/Src/main.c **** /* USER CODE BEGIN Boot_Mode_Sequence_0 */
  93:../../CM7/Core/Src/main.c ****   int32_t timeout;
  94:../../CM7/Core/Src/main.c **** /* USER CODE END Boot_Mode_Sequence_0 */
  95:../../CM7/Core/Src/main.c **** 
  96:../../CM7/Core/Src/main.c **** /* USER CODE BEGIN Boot_Mode_Sequence_1 */
  97:../../CM7/Core/Src/main.c ****   /* Wait until CPU2 boots and enters in stop mode or timeout*/
  98:../../CM7/Core/Src/main.c ****   timeout = 0xFFFF;
  99:../../CM7/Core/Src/main.c ****   while((__HAL_RCC_GET_FLAG(RCC_FLAG_D2CKRDY) != RESET) && (timeout-- > 0));
 100:../../CM7/Core/Src/main.c ****   if ( timeout < 0 )
 101:../../CM7/Core/Src/main.c ****   {
 102:../../CM7/Core/Src/main.c ****   Error_Handler();
 103:../../CM7/Core/Src/main.c ****   }
 104:../../CM7/Core/Src/main.c **** /* USER CODE END Boot_Mode_Sequence_1 */
 105:../../CM7/Core/Src/main.c ****   /* MCU Configuration--------------------------------------------------------*/
 106:../../CM7/Core/Src/main.c **** 
 107:../../CM7/Core/Src/main.c ****   /* Reset of all peripherals, Initializes the Flash interface and the Systick. */
 108:../../CM7/Core/Src/main.c ****   HAL_Init();
 109:../../CM7/Core/Src/main.c **** 
 110:../../CM7/Core/Src/main.c ****   /* USER CODE BEGIN Init */
 111:../../CM7/Core/Src/main.c **** 
 112:../../CM7/Core/Src/main.c ****   /* USER CODE END Init */
 113:../../CM7/Core/Src/main.c **** 
 114:../../CM7/Core/Src/main.c ****   /* Configure the system clock */
 115:../../CM7/Core/Src/main.c ****   SystemClock_Config();
 116:../../CM7/Core/Src/main.c **** /* USER CODE BEGIN Boot_Mode_Sequence_2 */
 117:../../CM7/Core/Src/main.c **** /* When system initialization is finished, Cortex-M7 will release Cortex-M4 by means of
 118:../../CM7/Core/Src/main.c **** HSEM notification */
 119:../../CM7/Core/Src/main.c **** /*HW semaphore Clock enable*/
 120:../../CM7/Core/Src/main.c **** __HAL_RCC_HSEM_CLK_ENABLE();
 121:../../CM7/Core/Src/main.c **** /*Take HSEM */
 122:../../CM7/Core/Src/main.c **** HAL_HSEM_FastTake(HSEM_ID_0);
 123:../../CM7/Core/Src/main.c **** /*Release HSEM in order to notify the CPU2(CM4)*/
 124:../../CM7/Core/Src/main.c **** HAL_HSEM_Release(HSEM_ID_0,0);
 125:../../CM7/Core/Src/main.c **** /* wait until CPU2 wakes up from stop mode */
 126:../../CM7/Core/Src/main.c **** timeout = 0xFFFF;
 127:../../CM7/Core/Src/main.c **** while((__HAL_RCC_GET_FLAG(RCC_FLAG_D2CKRDY) == RESET) && (timeout-- > 0));
 128:../../CM7/Core/Src/main.c **** if ( timeout < 0 )
 129:../../CM7/Core/Src/main.c **** {
 130:../../CM7/Core/Src/main.c **** Error_Handler();
 131:../../CM7/Core/Src/main.c **** }
 132:../../CM7/Core/Src/main.c **** /* USER CODE END Boot_Mode_Sequence_2 */
 133:../../CM7/Core/Src/main.c **** 
 134:../../CM7/Core/Src/main.c ****   /* USER CODE BEGIN SysInit */
 135:../../CM7/Core/Src/main.c **** 
 136:../../CM7/Core/Src/main.c ****   /* USER CODE END SysInit */
 137:../../CM7/Core/Src/main.c **** 
 138:../../CM7/Core/Src/main.c ****   /* Initialize all configured peripherals */
 139:../../CM7/Core/Src/main.c ****   MX_GPIO_Init();
 140:../../CM7/Core/Src/main.c ****   MX_USART3_UART_Init();
 141:../../CM7/Core/Src/main.c ****   MX_USB_OTG_FS_PCD_Init();
 142:../../CM7/Core/Src/main.c ****   MX_RTC_Init();
 143:../../CM7/Core/Src/main.c ****   /* USER CODE BEGIN 2 */
 144:../../CM7/Core/Src/main.c **** 
 145:../../CM7/Core/Src/main.c ****   /* USER CODE END 2 */
 146:../../CM7/Core/Src/main.c **** 
ARM GAS  C:\Users\gigig\AppData\Local\Temp\cc3finZl.s 			page 4


 147:../../CM7/Core/Src/main.c ****   /* Init scheduler */
 148:../../CM7/Core/Src/main.c ****   osKernelInitialize();
 149:../../CM7/Core/Src/main.c **** 
 150:../../CM7/Core/Src/main.c ****   /* USER CODE BEGIN RTOS_MUTEX */
 151:../../CM7/Core/Src/main.c ****   /* add mutexes, ... */
 152:../../CM7/Core/Src/main.c ****   /* USER CODE END RTOS_MUTEX */
 153:../../CM7/Core/Src/main.c **** 
 154:../../CM7/Core/Src/main.c ****   /* USER CODE BEGIN RTOS_SEMAPHORES */
 155:../../CM7/Core/Src/main.c ****   /* add semaphores, ... */
 156:../../CM7/Core/Src/main.c ****   /* USER CODE END RTOS_SEMAPHORES */
 157:../../CM7/Core/Src/main.c **** 
 158:../../CM7/Core/Src/main.c ****   /* USER CODE BEGIN RTOS_TIMERS */
 159:../../CM7/Core/Src/main.c ****   /* start timers, add new ones, ... */
 160:../../CM7/Core/Src/main.c ****   /* USER CODE END RTOS_TIMERS */
 161:../../CM7/Core/Src/main.c **** 
 162:../../CM7/Core/Src/main.c ****   /* USER CODE BEGIN RTOS_QUEUES */
 163:../../CM7/Core/Src/main.c ****   /* add queues, ... */
 164:../../CM7/Core/Src/main.c ****   /* USER CODE END RTOS_QUEUES */
 165:../../CM7/Core/Src/main.c **** 
 166:../../CM7/Core/Src/main.c ****   /* Create the thread(s) */
 167:../../CM7/Core/Src/main.c ****   /* creation of defaultTask */
 168:../../CM7/Core/Src/main.c ****   defaultTaskHandle = osThreadNew(StartDefaultTask, NULL, &defaultTask_attributes);
 169:../../CM7/Core/Src/main.c **** 
 170:../../CM7/Core/Src/main.c ****   /* USER CODE BEGIN RTOS_THREADS */
 171:../../CM7/Core/Src/main.c ****   /* add threads, ... */
 172:../../CM7/Core/Src/main.c ****   /* USER CODE END RTOS_THREADS */
 173:../../CM7/Core/Src/main.c **** 
 174:../../CM7/Core/Src/main.c ****   /* USER CODE BEGIN RTOS_EVENTS */
 175:../../CM7/Core/Src/main.c ****   /* add events, ... */
 176:../../CM7/Core/Src/main.c ****   /* USER CODE END RTOS_EVENTS */
 177:../../CM7/Core/Src/main.c **** 
 178:../../CM7/Core/Src/main.c ****   /* Start scheduler */
 179:../../CM7/Core/Src/main.c ****   osKernelStart();
 180:../../CM7/Core/Src/main.c **** 
 181:../../CM7/Core/Src/main.c ****   /* We should never get here as control is now taken by the scheduler */
 182:../../CM7/Core/Src/main.c ****   /* Infinite loop */
 183:../../CM7/Core/Src/main.c ****   /* USER CODE BEGIN WHILE */
 184:../../CM7/Core/Src/main.c ****   while (1)
 185:../../CM7/Core/Src/main.c ****   {
 186:../../CM7/Core/Src/main.c ****     /* USER CODE END WHILE */
 187:../../CM7/Core/Src/main.c **** 
 188:../../CM7/Core/Src/main.c ****     /* USER CODE BEGIN 3 */
 189:../../CM7/Core/Src/main.c ****   }
 190:../../CM7/Core/Src/main.c ****   /* USER CODE END 3 */
 191:../../CM7/Core/Src/main.c **** }
 192:../../CM7/Core/Src/main.c **** 
 193:../../CM7/Core/Src/main.c **** /**
 194:../../CM7/Core/Src/main.c ****   * @brief System Clock Configuration
 195:../../CM7/Core/Src/main.c ****   * @retval None
 196:../../CM7/Core/Src/main.c ****   */
 197:../../CM7/Core/Src/main.c **** void SystemClock_Config(void)
 198:../../CM7/Core/Src/main.c **** {
 199:../../CM7/Core/Src/main.c ****   RCC_OscInitTypeDef RCC_OscInitStruct = {0};
 200:../../CM7/Core/Src/main.c ****   RCC_ClkInitTypeDef RCC_ClkInitStruct = {0};
 201:../../CM7/Core/Src/main.c **** 
 202:../../CM7/Core/Src/main.c ****   /** Supply configuration update enable
 203:../../CM7/Core/Src/main.c ****   */
ARM GAS  C:\Users\gigig\AppData\Local\Temp\cc3finZl.s 			page 5


 204:../../CM7/Core/Src/main.c ****   HAL_PWREx_ConfigSupply(PWR_DIRECT_SMPS_SUPPLY);
 205:../../CM7/Core/Src/main.c **** 
 206:../../CM7/Core/Src/main.c ****   /** Configure the main internal regulator output voltage
 207:../../CM7/Core/Src/main.c ****   */
 208:../../CM7/Core/Src/main.c ****   __HAL_PWR_VOLTAGESCALING_CONFIG(PWR_REGULATOR_VOLTAGE_SCALE2);
 209:../../CM7/Core/Src/main.c **** 
 210:../../CM7/Core/Src/main.c ****   while(!__HAL_PWR_GET_FLAG(PWR_FLAG_VOSRDY)) {}
 211:../../CM7/Core/Src/main.c **** 
 212:../../CM7/Core/Src/main.c ****   /** Initializes the RCC Oscillators according to the specified parameters
 213:../../CM7/Core/Src/main.c ****   * in the RCC_OscInitTypeDef structure.
 214:../../CM7/Core/Src/main.c ****   */
 215:../../CM7/Core/Src/main.c ****   RCC_OscInitStruct.OscillatorType = RCC_OSCILLATORTYPE_HSI|RCC_OSCILLATORTYPE_LSI
 216:../../CM7/Core/Src/main.c ****                               |RCC_OSCILLATORTYPE_HSE;
 217:../../CM7/Core/Src/main.c ****   RCC_OscInitStruct.HSEState = RCC_HSE_BYPASS;
 218:../../CM7/Core/Src/main.c ****   RCC_OscInitStruct.HSIState = RCC_HSI_DIV1;
 219:../../CM7/Core/Src/main.c ****   RCC_OscInitStruct.HSICalibrationValue = RCC_HSICALIBRATION_DEFAULT;
 220:../../CM7/Core/Src/main.c ****   RCC_OscInitStruct.LSIState = RCC_LSI_ON;
 221:../../CM7/Core/Src/main.c ****   RCC_OscInitStruct.PLL.PLLState = RCC_PLL_ON;
 222:../../CM7/Core/Src/main.c ****   RCC_OscInitStruct.PLL.PLLSource = RCC_PLLSOURCE_HSE;
 223:../../CM7/Core/Src/main.c ****   RCC_OscInitStruct.PLL.PLLM = 1;
 224:../../CM7/Core/Src/main.c ****   RCC_OscInitStruct.PLL.PLLN = 24;
 225:../../CM7/Core/Src/main.c ****   RCC_OscInitStruct.PLL.PLLP = 2;
 226:../../CM7/Core/Src/main.c ****   RCC_OscInitStruct.PLL.PLLQ = 4;
 227:../../CM7/Core/Src/main.c ****   RCC_OscInitStruct.PLL.PLLR = 2;
 228:../../CM7/Core/Src/main.c ****   RCC_OscInitStruct.PLL.PLLRGE = RCC_PLL1VCIRANGE_3;
 229:../../CM7/Core/Src/main.c ****   RCC_OscInitStruct.PLL.PLLVCOSEL = RCC_PLL1VCOWIDE;
 230:../../CM7/Core/Src/main.c ****   RCC_OscInitStruct.PLL.PLLFRACN = 0;
 231:../../CM7/Core/Src/main.c ****   if (HAL_RCC_OscConfig(&RCC_OscInitStruct) != HAL_OK)
 232:../../CM7/Core/Src/main.c ****   {
 233:../../CM7/Core/Src/main.c ****     Error_Handler();
 234:../../CM7/Core/Src/main.c ****   }
 235:../../CM7/Core/Src/main.c **** 
 236:../../CM7/Core/Src/main.c ****   /** Initializes the CPU, AHB and APB buses clocks
 237:../../CM7/Core/Src/main.c ****   */
 238:../../CM7/Core/Src/main.c ****   RCC_ClkInitStruct.ClockType = RCC_CLOCKTYPE_HCLK|RCC_CLOCKTYPE_SYSCLK
 239:../../CM7/Core/Src/main.c ****                               |RCC_CLOCKTYPE_PCLK1|RCC_CLOCKTYPE_PCLK2
 240:../../CM7/Core/Src/main.c ****                               |RCC_CLOCKTYPE_D3PCLK1|RCC_CLOCKTYPE_D1PCLK1;
 241:../../CM7/Core/Src/main.c ****   RCC_ClkInitStruct.SYSCLKSource = RCC_SYSCLKSOURCE_HSI;
 242:../../CM7/Core/Src/main.c ****   RCC_ClkInitStruct.SYSCLKDivider = RCC_SYSCLK_DIV1;
 243:../../CM7/Core/Src/main.c ****   RCC_ClkInitStruct.AHBCLKDivider = RCC_HCLK_DIV1;
 244:../../CM7/Core/Src/main.c ****   RCC_ClkInitStruct.APB3CLKDivider = RCC_APB3_DIV1;
 245:../../CM7/Core/Src/main.c ****   RCC_ClkInitStruct.APB1CLKDivider = RCC_APB1_DIV1;
 246:../../CM7/Core/Src/main.c ****   RCC_ClkInitStruct.APB2CLKDivider = RCC_APB2_DIV1;
 247:../../CM7/Core/Src/main.c ****   RCC_ClkInitStruct.APB4CLKDivider = RCC_APB4_DIV1;
 248:../../CM7/Core/Src/main.c **** 
 249:../../CM7/Core/Src/main.c ****   if (HAL_RCC_ClockConfig(&RCC_ClkInitStruct, FLASH_LATENCY_1) != HAL_OK)
 250:../../CM7/Core/Src/main.c ****   {
 251:../../CM7/Core/Src/main.c ****     Error_Handler();
 252:../../CM7/Core/Src/main.c ****   }
 253:../../CM7/Core/Src/main.c **** }
 254:../../CM7/Core/Src/main.c **** 
 255:../../CM7/Core/Src/main.c **** /**
 256:../../CM7/Core/Src/main.c ****   * @brief RTC Initialization Function
 257:../../CM7/Core/Src/main.c ****   * @param None
 258:../../CM7/Core/Src/main.c ****   * @retval None
 259:../../CM7/Core/Src/main.c ****   */
 260:../../CM7/Core/Src/main.c **** static void MX_RTC_Init(void)
ARM GAS  C:\Users\gigig\AppData\Local\Temp\cc3finZl.s 			page 6


 261:../../CM7/Core/Src/main.c **** {
 262:../../CM7/Core/Src/main.c **** 
 263:../../CM7/Core/Src/main.c ****   /* USER CODE BEGIN RTC_Init 0 */
 264:../../CM7/Core/Src/main.c **** 
 265:../../CM7/Core/Src/main.c ****   /* USER CODE END RTC_Init 0 */
 266:../../CM7/Core/Src/main.c **** 
 267:../../CM7/Core/Src/main.c ****   RTC_TimeTypeDef sTime = {0};
 268:../../CM7/Core/Src/main.c ****   RTC_DateTypeDef sDate = {0};
 269:../../CM7/Core/Src/main.c **** 
 270:../../CM7/Core/Src/main.c ****   /* USER CODE BEGIN RTC_Init 1 */
 271:../../CM7/Core/Src/main.c **** 
 272:../../CM7/Core/Src/main.c ****   /* USER CODE END RTC_Init 1 */
 273:../../CM7/Core/Src/main.c **** 
 274:../../CM7/Core/Src/main.c ****   /** Initialize RTC Only
 275:../../CM7/Core/Src/main.c ****   */
 276:../../CM7/Core/Src/main.c ****   hrtc.Instance = RTC;
 277:../../CM7/Core/Src/main.c ****   hrtc.Init.HourFormat = RTC_HOURFORMAT_24;
 278:../../CM7/Core/Src/main.c ****   hrtc.Init.AsynchPrediv = 127;
 279:../../CM7/Core/Src/main.c ****   hrtc.Init.SynchPrediv = 255;
 280:../../CM7/Core/Src/main.c ****   hrtc.Init.OutPut = RTC_OUTPUT_DISABLE;
 281:../../CM7/Core/Src/main.c ****   hrtc.Init.OutPutPolarity = RTC_OUTPUT_POLARITY_HIGH;
 282:../../CM7/Core/Src/main.c ****   hrtc.Init.OutPutType = RTC_OUTPUT_TYPE_OPENDRAIN;
 283:../../CM7/Core/Src/main.c ****   hrtc.Init.OutPutRemap = RTC_OUTPUT_REMAP_NONE;
 284:../../CM7/Core/Src/main.c ****   if (HAL_RTC_Init(&hrtc) != HAL_OK)
 285:../../CM7/Core/Src/main.c ****   {
 286:../../CM7/Core/Src/main.c ****     Error_Handler();
 287:../../CM7/Core/Src/main.c ****   }
 288:../../CM7/Core/Src/main.c **** 
 289:../../CM7/Core/Src/main.c ****   /* USER CODE BEGIN Check_RTC_BKUP */
 290:../../CM7/Core/Src/main.c **** 
 291:../../CM7/Core/Src/main.c ****   /* USER CODE END Check_RTC_BKUP */
 292:../../CM7/Core/Src/main.c **** 
 293:../../CM7/Core/Src/main.c ****   /** Initialize RTC and set the Time and Date
 294:../../CM7/Core/Src/main.c ****   */
 295:../../CM7/Core/Src/main.c ****   sTime.Hours = 0x0;
 296:../../CM7/Core/Src/main.c ****   sTime.Minutes = 0x0;
 297:../../CM7/Core/Src/main.c ****   sTime.Seconds = 0x0;
 298:../../CM7/Core/Src/main.c ****   sTime.DayLightSaving = RTC_DAYLIGHTSAVING_NONE;
 299:../../CM7/Core/Src/main.c ****   sTime.StoreOperation = RTC_STOREOPERATION_RESET;
 300:../../CM7/Core/Src/main.c ****   if (HAL_RTC_SetTime(&hrtc, &sTime, RTC_FORMAT_BCD) != HAL_OK)
 301:../../CM7/Core/Src/main.c ****   {
 302:../../CM7/Core/Src/main.c ****     Error_Handler();
 303:../../CM7/Core/Src/main.c ****   }
 304:../../CM7/Core/Src/main.c ****   sDate.WeekDay = RTC_WEEKDAY_MONDAY;
 305:../../CM7/Core/Src/main.c ****   sDate.Month = RTC_MONTH_MARCH;
 306:../../CM7/Core/Src/main.c ****   sDate.Date = 0x13;
 307:../../CM7/Core/Src/main.c ****   sDate.Year = 0x24;
 308:../../CM7/Core/Src/main.c **** 
 309:../../CM7/Core/Src/main.c ****   if (HAL_RTC_SetDate(&hrtc, &sDate, RTC_FORMAT_BCD) != HAL_OK)
 310:../../CM7/Core/Src/main.c ****   {
 311:../../CM7/Core/Src/main.c ****     Error_Handler();
 312:../../CM7/Core/Src/main.c ****   }
 313:../../CM7/Core/Src/main.c ****   /* USER CODE BEGIN RTC_Init 2 */
 314:../../CM7/Core/Src/main.c **** 
 315:../../CM7/Core/Src/main.c ****   /* USER CODE END RTC_Init 2 */
 316:../../CM7/Core/Src/main.c **** 
 317:../../CM7/Core/Src/main.c **** }
ARM GAS  C:\Users\gigig\AppData\Local\Temp\cc3finZl.s 			page 7


 318:../../CM7/Core/Src/main.c **** 
 319:../../CM7/Core/Src/main.c **** /**
 320:../../CM7/Core/Src/main.c ****   * @brief USART3 Initialization Function
 321:../../CM7/Core/Src/main.c ****   * @param None
 322:../../CM7/Core/Src/main.c ****   * @retval None
 323:../../CM7/Core/Src/main.c ****   */
 324:../../CM7/Core/Src/main.c **** static void MX_USART3_UART_Init(void)
 325:../../CM7/Core/Src/main.c **** {
 326:../../CM7/Core/Src/main.c **** 
 327:../../CM7/Core/Src/main.c ****   /* USER CODE BEGIN USART3_Init 0 */
 328:../../CM7/Core/Src/main.c **** 
 329:../../CM7/Core/Src/main.c ****   /* USER CODE END USART3_Init 0 */
 330:../../CM7/Core/Src/main.c **** 
 331:../../CM7/Core/Src/main.c ****   /* USER CODE BEGIN USART3_Init 1 */
 332:../../CM7/Core/Src/main.c **** 
 333:../../CM7/Core/Src/main.c ****   /* USER CODE END USART3_Init 1 */
 334:../../CM7/Core/Src/main.c ****   huart3.Instance = USART3;
 335:../../CM7/Core/Src/main.c ****   huart3.Init.BaudRate = 115200;
 336:../../CM7/Core/Src/main.c ****   huart3.Init.WordLength = UART_WORDLENGTH_8B;
 337:../../CM7/Core/Src/main.c ****   huart3.Init.StopBits = UART_STOPBITS_1;
 338:../../CM7/Core/Src/main.c ****   huart3.Init.Parity = UART_PARITY_NONE;
 339:../../CM7/Core/Src/main.c ****   huart3.Init.Mode = UART_MODE_TX_RX;
 340:../../CM7/Core/Src/main.c ****   huart3.Init.HwFlowCtl = UART_HWCONTROL_NONE;
 341:../../CM7/Core/Src/main.c ****   huart3.Init.OverSampling = UART_OVERSAMPLING_16;
 342:../../CM7/Core/Src/main.c ****   huart3.Init.OneBitSampling = UART_ONE_BIT_SAMPLE_DISABLE;
 343:../../CM7/Core/Src/main.c ****   huart3.Init.ClockPrescaler = UART_PRESCALER_DIV1;
 344:../../CM7/Core/Src/main.c ****   huart3.AdvancedInit.AdvFeatureInit = UART_ADVFEATURE_NO_INIT;
 345:../../CM7/Core/Src/main.c ****   if (HAL_UART_Init(&huart3) != HAL_OK)
 346:../../CM7/Core/Src/main.c ****   {
 347:../../CM7/Core/Src/main.c ****     Error_Handler();
 348:../../CM7/Core/Src/main.c ****   }
 349:../../CM7/Core/Src/main.c ****   if (HAL_UARTEx_SetTxFifoThreshold(&huart3, UART_TXFIFO_THRESHOLD_1_8) != HAL_OK)
 350:../../CM7/Core/Src/main.c ****   {
 351:../../CM7/Core/Src/main.c ****     Error_Handler();
 352:../../CM7/Core/Src/main.c ****   }
 353:../../CM7/Core/Src/main.c ****   if (HAL_UARTEx_SetRxFifoThreshold(&huart3, UART_RXFIFO_THRESHOLD_1_8) != HAL_OK)
 354:../../CM7/Core/Src/main.c ****   {
 355:../../CM7/Core/Src/main.c ****     Error_Handler();
 356:../../CM7/Core/Src/main.c ****   }
 357:../../CM7/Core/Src/main.c ****   if (HAL_UARTEx_DisableFifoMode(&huart3) != HAL_OK)
 358:../../CM7/Core/Src/main.c ****   {
 359:../../CM7/Core/Src/main.c ****     Error_Handler();
 360:../../CM7/Core/Src/main.c ****   }
 361:../../CM7/Core/Src/main.c ****   /* USER CODE BEGIN USART3_Init 2 */
 362:../../CM7/Core/Src/main.c **** 
 363:../../CM7/Core/Src/main.c ****   /* USER CODE END USART3_Init 2 */
 364:../../CM7/Core/Src/main.c **** 
 365:../../CM7/Core/Src/main.c **** }
 366:../../CM7/Core/Src/main.c **** 
 367:../../CM7/Core/Src/main.c **** /**
 368:../../CM7/Core/Src/main.c ****   * @brief USB_OTG_FS Initialization Function
 369:../../CM7/Core/Src/main.c ****   * @param None
 370:../../CM7/Core/Src/main.c ****   * @retval None
 371:../../CM7/Core/Src/main.c ****   */
 372:../../CM7/Core/Src/main.c **** static void MX_USB_OTG_FS_PCD_Init(void)
 373:../../CM7/Core/Src/main.c **** {
 374:../../CM7/Core/Src/main.c **** 
ARM GAS  C:\Users\gigig\AppData\Local\Temp\cc3finZl.s 			page 8


 375:../../CM7/Core/Src/main.c ****   /* USER CODE BEGIN USB_OTG_FS_Init 0 */
 376:../../CM7/Core/Src/main.c **** 
 377:../../CM7/Core/Src/main.c ****   /* USER CODE END USB_OTG_FS_Init 0 */
 378:../../CM7/Core/Src/main.c **** 
 379:../../CM7/Core/Src/main.c ****   /* USER CODE BEGIN USB_OTG_FS_Init 1 */
 380:../../CM7/Core/Src/main.c **** 
 381:../../CM7/Core/Src/main.c ****   /* USER CODE END USB_OTG_FS_Init 1 */
 382:../../CM7/Core/Src/main.c ****   hpcd_USB_OTG_FS.Instance = USB_OTG_FS;
 383:../../CM7/Core/Src/main.c ****   hpcd_USB_OTG_FS.Init.dev_endpoints = 9;
 384:../../CM7/Core/Src/main.c ****   hpcd_USB_OTG_FS.Init.speed = PCD_SPEED_FULL;
 385:../../CM7/Core/Src/main.c ****   hpcd_USB_OTG_FS.Init.dma_enable = DISABLE;
 386:../../CM7/Core/Src/main.c ****   hpcd_USB_OTG_FS.Init.phy_itface = PCD_PHY_EMBEDDED;
 387:../../CM7/Core/Src/main.c ****   hpcd_USB_OTG_FS.Init.Sof_enable = DISABLE;
 388:../../CM7/Core/Src/main.c ****   hpcd_USB_OTG_FS.Init.low_power_enable = DISABLE;
 389:../../CM7/Core/Src/main.c ****   hpcd_USB_OTG_FS.Init.lpm_enable = DISABLE;
 390:../../CM7/Core/Src/main.c ****   hpcd_USB_OTG_FS.Init.battery_charging_enable = ENABLE;
 391:../../CM7/Core/Src/main.c ****   hpcd_USB_OTG_FS.Init.vbus_sensing_enable = ENABLE;
 392:../../CM7/Core/Src/main.c ****   hpcd_USB_OTG_FS.Init.use_dedicated_ep1 = DISABLE;
 393:../../CM7/Core/Src/main.c ****   if (HAL_PCD_Init(&hpcd_USB_OTG_FS) != HAL_OK)
 394:../../CM7/Core/Src/main.c ****   {
 395:../../CM7/Core/Src/main.c ****     Error_Handler();
 396:../../CM7/Core/Src/main.c ****   }
 397:../../CM7/Core/Src/main.c ****   /* USER CODE BEGIN USB_OTG_FS_Init 2 */
 398:../../CM7/Core/Src/main.c **** 
 399:../../CM7/Core/Src/main.c ****   /* USER CODE END USB_OTG_FS_Init 2 */
 400:../../CM7/Core/Src/main.c **** 
 401:../../CM7/Core/Src/main.c **** }
 402:../../CM7/Core/Src/main.c **** 
 403:../../CM7/Core/Src/main.c **** /**
 404:../../CM7/Core/Src/main.c ****   * @brief GPIO Initialization Function
 405:../../CM7/Core/Src/main.c ****   * @param None
 406:../../CM7/Core/Src/main.c ****   * @retval None
 407:../../CM7/Core/Src/main.c ****   */
 408:../../CM7/Core/Src/main.c **** static void MX_GPIO_Init(void)
 409:../../CM7/Core/Src/main.c **** {
  27              		.loc 1 409 1 view -0
  28              		.cfi_startproc
  29              		@ args = 0, pretend = 0, frame = 40
  30              		@ frame_needed = 0, uses_anonymous_args = 0
  31 0000 30B5     		push	{r4, r5, lr}
  32              	.LCFI0:
  33              		.cfi_def_cfa_offset 12
  34              		.cfi_offset 4, -12
  35              		.cfi_offset 5, -8
  36              		.cfi_offset 14, -4
  37 0002 8BB0     		sub	sp, sp, #44
  38              	.LCFI1:
  39              		.cfi_def_cfa_offset 56
 410:../../CM7/Core/Src/main.c ****   GPIO_InitTypeDef GPIO_InitStruct = {0};
  40              		.loc 1 410 3 view .LVU1
  41              		.loc 1 410 20 is_stmt 0 view .LVU2
  42 0004 0024     		movs	r4, #0
  43 0006 0594     		str	r4, [sp, #20]
  44 0008 0694     		str	r4, [sp, #24]
  45 000a 0794     		str	r4, [sp, #28]
  46 000c 0894     		str	r4, [sp, #32]
  47 000e 0994     		str	r4, [sp, #36]
ARM GAS  C:\Users\gigig\AppData\Local\Temp\cc3finZl.s 			page 9


 411:../../CM7/Core/Src/main.c **** /* USER CODE BEGIN MX_GPIO_Init_1 */
 412:../../CM7/Core/Src/main.c **** /* USER CODE END MX_GPIO_Init_1 */
 413:../../CM7/Core/Src/main.c **** 
 414:../../CM7/Core/Src/main.c ****   /* GPIO Ports Clock Enable */
 415:../../CM7/Core/Src/main.c ****   __HAL_RCC_GPIOC_CLK_ENABLE();
  48              		.loc 1 415 3 is_stmt 1 view .LVU3
  49              	.LBB4:
  50              		.loc 1 415 3 view .LVU4
  51              		.loc 1 415 3 view .LVU5
  52 0010 264B     		ldr	r3, .L3
  53 0012 D3F8E020 		ldr	r2, [r3, #224]
  54 0016 42F00402 		orr	r2, r2, #4
  55 001a C3F8E020 		str	r2, [r3, #224]
  56              		.loc 1 415 3 view .LVU6
  57 001e D3F8E020 		ldr	r2, [r3, #224]
  58 0022 02F00402 		and	r2, r2, #4
  59 0026 0092     		str	r2, [sp]
  60              		.loc 1 415 3 view .LVU7
  61 0028 009A     		ldr	r2, [sp]
  62              	.LBE4:
  63              		.loc 1 415 3 view .LVU8
 416:../../CM7/Core/Src/main.c ****   __HAL_RCC_GPIOH_CLK_ENABLE();
  64              		.loc 1 416 3 view .LVU9
  65              	.LBB5:
  66              		.loc 1 416 3 view .LVU10
  67              		.loc 1 416 3 view .LVU11
  68 002a D3F8E020 		ldr	r2, [r3, #224]
  69 002e 42F08002 		orr	r2, r2, #128
  70 0032 C3F8E020 		str	r2, [r3, #224]
  71              		.loc 1 416 3 view .LVU12
  72 0036 D3F8E020 		ldr	r2, [r3, #224]
  73 003a 02F08002 		and	r2, r2, #128
  74 003e 0192     		str	r2, [sp, #4]
  75              		.loc 1 416 3 view .LVU13
  76 0040 019A     		ldr	r2, [sp, #4]
  77              	.LBE5:
  78              		.loc 1 416 3 view .LVU14
 417:../../CM7/Core/Src/main.c ****   __HAL_RCC_GPIOB_CLK_ENABLE();
  79              		.loc 1 417 3 view .LVU15
  80              	.LBB6:
  81              		.loc 1 417 3 view .LVU16
  82              		.loc 1 417 3 view .LVU17
  83 0042 D3F8E020 		ldr	r2, [r3, #224]
  84 0046 42F00202 		orr	r2, r2, #2
  85 004a C3F8E020 		str	r2, [r3, #224]
  86              		.loc 1 417 3 view .LVU18
  87 004e D3F8E020 		ldr	r2, [r3, #224]
  88 0052 02F00202 		and	r2, r2, #2
  89 0056 0292     		str	r2, [sp, #8]
  90              		.loc 1 417 3 view .LVU19
  91 0058 029A     		ldr	r2, [sp, #8]
  92              	.LBE6:
  93              		.loc 1 417 3 view .LVU20
 418:../../CM7/Core/Src/main.c ****   __HAL_RCC_GPIOD_CLK_ENABLE();
  94              		.loc 1 418 3 view .LVU21
  95              	.LBB7:
  96              		.loc 1 418 3 view .LVU22
ARM GAS  C:\Users\gigig\AppData\Local\Temp\cc3finZl.s 			page 10


  97              		.loc 1 418 3 view .LVU23
  98 005a D3F8E020 		ldr	r2, [r3, #224]
  99 005e 42F00802 		orr	r2, r2, #8
 100 0062 C3F8E020 		str	r2, [r3, #224]
 101              		.loc 1 418 3 view .LVU24
 102 0066 D3F8E020 		ldr	r2, [r3, #224]
 103 006a 02F00802 		and	r2, r2, #8
 104 006e 0392     		str	r2, [sp, #12]
 105              		.loc 1 418 3 view .LVU25
 106 0070 039A     		ldr	r2, [sp, #12]
 107              	.LBE7:
 108              		.loc 1 418 3 view .LVU26
 419:../../CM7/Core/Src/main.c ****   __HAL_RCC_GPIOA_CLK_ENABLE();
 109              		.loc 1 419 3 view .LVU27
 110              	.LBB8:
 111              		.loc 1 419 3 view .LVU28
 112              		.loc 1 419 3 view .LVU29
 113 0072 D3F8E020 		ldr	r2, [r3, #224]
 114 0076 42F00102 		orr	r2, r2, #1
 115 007a C3F8E020 		str	r2, [r3, #224]
 116              		.loc 1 419 3 view .LVU30
 117 007e D3F8E030 		ldr	r3, [r3, #224]
 118 0082 03F00103 		and	r3, r3, #1
 119 0086 0493     		str	r3, [sp, #16]
 120              		.loc 1 419 3 view .LVU31
 121 0088 049B     		ldr	r3, [sp, #16]
 122              	.LBE8:
 123              		.loc 1 419 3 view .LVU32
 420:../../CM7/Core/Src/main.c **** 
 421:../../CM7/Core/Src/main.c ****   /*Configure GPIO pin Output Level */
 422:../../CM7/Core/Src/main.c ****   HAL_GPIO_WritePin(LD1_GPIO_Port, LD1_Pin, GPIO_PIN_RESET);
 124              		.loc 1 422 3 view .LVU33
 125 008a 094D     		ldr	r5, .L3+4
 126 008c 2246     		mov	r2, r4
 127 008e 0121     		movs	r1, #1
 128 0090 2846     		mov	r0, r5
 129 0092 FFF7FEFF 		bl	HAL_GPIO_WritePin
 130              	.LVL0:
 423:../../CM7/Core/Src/main.c **** 
 424:../../CM7/Core/Src/main.c ****   /*Configure GPIO pin : LD1_Pin */
 425:../../CM7/Core/Src/main.c ****   GPIO_InitStruct.Pin = LD1_Pin;
 131              		.loc 1 425 3 view .LVU34
 132              		.loc 1 425 23 is_stmt 0 view .LVU35
 133 0096 0123     		movs	r3, #1
 134 0098 0593     		str	r3, [sp, #20]
 426:../../CM7/Core/Src/main.c ****   GPIO_InitStruct.Mode = GPIO_MODE_OUTPUT_PP;
 135              		.loc 1 426 3 is_stmt 1 view .LVU36
 136              		.loc 1 426 24 is_stmt 0 view .LVU37
 137 009a 0693     		str	r3, [sp, #24]
 427:../../CM7/Core/Src/main.c ****   GPIO_InitStruct.Pull = GPIO_NOPULL;
 138              		.loc 1 427 3 is_stmt 1 view .LVU38
 139              		.loc 1 427 24 is_stmt 0 view .LVU39
 140 009c 0794     		str	r4, [sp, #28]
 428:../../CM7/Core/Src/main.c ****   GPIO_InitStruct.Speed = GPIO_SPEED_FREQ_LOW;
 141              		.loc 1 428 3 is_stmt 1 view .LVU40
 142              		.loc 1 428 25 is_stmt 0 view .LVU41
 143 009e 0894     		str	r4, [sp, #32]
ARM GAS  C:\Users\gigig\AppData\Local\Temp\cc3finZl.s 			page 11


 429:../../CM7/Core/Src/main.c ****   HAL_GPIO_Init(LD1_GPIO_Port, &GPIO_InitStruct);
 144              		.loc 1 429 3 is_stmt 1 view .LVU42
 145 00a0 05A9     		add	r1, sp, #20
 146 00a2 2846     		mov	r0, r5
 147 00a4 FFF7FEFF 		bl	HAL_GPIO_Init
 148              	.LVL1:
 430:../../CM7/Core/Src/main.c **** 
 431:../../CM7/Core/Src/main.c **** /* USER CODE BEGIN MX_GPIO_Init_2 */
 432:../../CM7/Core/Src/main.c **** /* USER CODE END MX_GPIO_Init_2 */
 433:../../CM7/Core/Src/main.c **** }
 149              		.loc 1 433 1 is_stmt 0 view .LVU43
 150 00a8 0BB0     		add	sp, sp, #44
 151              	.LCFI2:
 152              		.cfi_def_cfa_offset 12
 153              		@ sp needed
 154 00aa 30BD     		pop	{r4, r5, pc}
 155              	.L4:
 156              		.align	2
 157              	.L3:
 158 00ac 00440258 		.word	1476543488
 159 00b0 00040258 		.word	1476527104
 160              		.cfi_endproc
 161              	.LFE153:
 163              		.section	.text.StartDefaultTask,"ax",%progbits
 164              		.align	1
 165              		.global	StartDefaultTask
 166              		.syntax unified
 167              		.thumb
 168              		.thumb_func
 170              	StartDefaultTask:
 171              	.LFB154:
 434:../../CM7/Core/Src/main.c **** 
 435:../../CM7/Core/Src/main.c **** /* USER CODE BEGIN 4 */
 436:../../CM7/Core/Src/main.c **** 
 437:../../CM7/Core/Src/main.c **** /* USER CODE END 4 */
 438:../../CM7/Core/Src/main.c **** 
 439:../../CM7/Core/Src/main.c **** /* USER CODE BEGIN Header_StartDefaultTask */
 440:../../CM7/Core/Src/main.c **** /**
 441:../../CM7/Core/Src/main.c ****   * @brief  Function implementing the defaultTask thread.
 442:../../CM7/Core/Src/main.c ****   * @param  argument: Not used
 443:../../CM7/Core/Src/main.c ****   * @retval None
 444:../../CM7/Core/Src/main.c ****   */
 445:../../CM7/Core/Src/main.c **** /* USER CODE END Header_StartDefaultTask */
 446:../../CM7/Core/Src/main.c **** void StartDefaultTask(void *argument)
 447:../../CM7/Core/Src/main.c **** {
 172              		.loc 1 447 1 is_stmt 1 view -0
 173              		.cfi_startproc
 174              		@ Volatile: function does not return.
 175              		@ args = 0, pretend = 0, frame = 0
 176              		@ frame_needed = 0, uses_anonymous_args = 0
 177              	.LVL2:
 178              		.loc 1 447 1 is_stmt 0 view .LVU45
 179 0000 08B5     		push	{r3, lr}
 180              	.LCFI3:
 181              		.cfi_def_cfa_offset 8
 182              		.cfi_offset 3, -8
 183              		.cfi_offset 14, -4
ARM GAS  C:\Users\gigig\AppData\Local\Temp\cc3finZl.s 			page 12


 184              	.LVL3:
 185              	.L6:
 448:../../CM7/Core/Src/main.c ****   /* USER CODE BEGIN 5 */
 449:../../CM7/Core/Src/main.c ****   /* Infinite loop */
 450:../../CM7/Core/Src/main.c ****   for(;;)
 186              		.loc 1 450 3 is_stmt 1 discriminator 1 view .LVU46
 451:../../CM7/Core/Src/main.c ****   {
 452:../../CM7/Core/Src/main.c ****     HAL_GPIO_TogglePin(LD1_GPIO_Port, LD1_Pin);
 187              		.loc 1 452 5 discriminator 1 view .LVU47
 188 0002 0121     		movs	r1, #1
 189 0004 0348     		ldr	r0, .L8
 190 0006 FFF7FEFF 		bl	HAL_GPIO_TogglePin
 191              	.LVL4:
 453:../../CM7/Core/Src/main.c ****     osDelay(1);
 192              		.loc 1 453 5 discriminator 1 view .LVU48
 193 000a 0120     		movs	r0, #1
 194 000c FFF7FEFF 		bl	osDelay
 195              	.LVL5:
 450:../../CM7/Core/Src/main.c ****   {
 196              		.loc 1 450 8 discriminator 1 view .LVU49
 197 0010 F7E7     		b	.L6
 198              	.L9:
 199 0012 00BF     		.align	2
 200              	.L8:
 201 0014 00040258 		.word	1476527104
 202              		.cfi_endproc
 203              	.LFE154:
 205              		.section	.text.HAL_TIM_PeriodElapsedCallback,"ax",%progbits
 206              		.align	1
 207              		.global	HAL_TIM_PeriodElapsedCallback
 208              		.syntax unified
 209              		.thumb
 210              		.thumb_func
 212              	HAL_TIM_PeriodElapsedCallback:
 213              	.LVL6:
 214              	.LFB155:
 454:../../CM7/Core/Src/main.c ****   }
 455:../../CM7/Core/Src/main.c ****   /* USER CODE END 5 */
 456:../../CM7/Core/Src/main.c **** }
 457:../../CM7/Core/Src/main.c **** 
 458:../../CM7/Core/Src/main.c **** /**
 459:../../CM7/Core/Src/main.c ****   * @brief  Period elapsed callback in non blocking mode
 460:../../CM7/Core/Src/main.c ****   * @note   This function is called  when TIM1 interrupt took place, inside
 461:../../CM7/Core/Src/main.c ****   * HAL_TIM_IRQHandler(). It makes a direct call to HAL_IncTick() to increment
 462:../../CM7/Core/Src/main.c ****   * a global variable "uwTick" used as application time base.
 463:../../CM7/Core/Src/main.c ****   * @param  htim : TIM handle
 464:../../CM7/Core/Src/main.c ****   * @retval None
 465:../../CM7/Core/Src/main.c ****   */
 466:../../CM7/Core/Src/main.c **** void HAL_TIM_PeriodElapsedCallback(TIM_HandleTypeDef *htim)
 467:../../CM7/Core/Src/main.c **** {
 215              		.loc 1 467 1 view -0
 216              		.cfi_startproc
 217              		@ args = 0, pretend = 0, frame = 0
 218              		@ frame_needed = 0, uses_anonymous_args = 0
 219              		.loc 1 467 1 is_stmt 0 view .LVU51
 220 0000 08B5     		push	{r3, lr}
 221              	.LCFI4:
ARM GAS  C:\Users\gigig\AppData\Local\Temp\cc3finZl.s 			page 13


 222              		.cfi_def_cfa_offset 8
 223              		.cfi_offset 3, -8
 224              		.cfi_offset 14, -4
 468:../../CM7/Core/Src/main.c ****   /* USER CODE BEGIN Callback 0 */
 469:../../CM7/Core/Src/main.c **** 
 470:../../CM7/Core/Src/main.c ****   /* USER CODE END Callback 0 */
 471:../../CM7/Core/Src/main.c ****   if (htim->Instance == TIM1) {
 225              		.loc 1 471 3 is_stmt 1 view .LVU52
 226              		.loc 1 471 11 is_stmt 0 view .LVU53
 227 0002 0268     		ldr	r2, [r0]
 228              		.loc 1 471 6 view .LVU54
 229 0004 034B     		ldr	r3, .L14
 230 0006 9A42     		cmp	r2, r3
 231 0008 00D0     		beq	.L13
 232              	.LVL7:
 233              	.L10:
 472:../../CM7/Core/Src/main.c ****     HAL_IncTick();
 473:../../CM7/Core/Src/main.c ****   }
 474:../../CM7/Core/Src/main.c ****   /* USER CODE BEGIN Callback 1 */
 475:../../CM7/Core/Src/main.c **** 
 476:../../CM7/Core/Src/main.c ****   /* USER CODE END Callback 1 */
 477:../../CM7/Core/Src/main.c **** }
 234              		.loc 1 477 1 view .LVU55
 235 000a 08BD     		pop	{r3, pc}
 236              	.LVL8:
 237              	.L13:
 472:../../CM7/Core/Src/main.c ****     HAL_IncTick();
 238              		.loc 1 472 5 is_stmt 1 view .LVU56
 239 000c FFF7FEFF 		bl	HAL_IncTick
 240              	.LVL9:
 241              		.loc 1 477 1 is_stmt 0 view .LVU57
 242 0010 FBE7     		b	.L10
 243              	.L15:
 244 0012 00BF     		.align	2
 245              	.L14:
 246 0014 00000140 		.word	1073807360
 247              		.cfi_endproc
 248              	.LFE155:
 250              		.section	.text.Error_Handler,"ax",%progbits
 251              		.align	1
 252              		.global	Error_Handler
 253              		.syntax unified
 254              		.thumb
 255              		.thumb_func
 257              	Error_Handler:
 258              	.LFB156:
 478:../../CM7/Core/Src/main.c **** 
 479:../../CM7/Core/Src/main.c **** /**
 480:../../CM7/Core/Src/main.c ****   * @brief  This function is executed in case of error occurrence.
 481:../../CM7/Core/Src/main.c ****   * @retval None
 482:../../CM7/Core/Src/main.c ****   */
 483:../../CM7/Core/Src/main.c **** void Error_Handler(void)
 484:../../CM7/Core/Src/main.c **** {
 259              		.loc 1 484 1 is_stmt 1 view -0
 260              		.cfi_startproc
 261              		@ Volatile: function does not return.
 262              		@ args = 0, pretend = 0, frame = 0
ARM GAS  C:\Users\gigig\AppData\Local\Temp\cc3finZl.s 			page 14


 263              		@ frame_needed = 0, uses_anonymous_args = 0
 264              		@ link register save eliminated.
 485:../../CM7/Core/Src/main.c ****   /* USER CODE BEGIN Error_Handler_Debug */
 486:../../CM7/Core/Src/main.c ****   /* User can add his own implementation to report the HAL error return state */
 487:../../CM7/Core/Src/main.c ****   __disable_irq();
 265              		.loc 1 487 3 view .LVU59
 266              	.LBB9:
 267              	.LBI9:
 268              		.file 2 "../../Drivers/CMSIS/Include/cmsis_gcc.h"
   1:../../Drivers/CMSIS/Include/cmsis_gcc.h **** /**************************************************************************//**
   2:../../Drivers/CMSIS/Include/cmsis_gcc.h ****  * @file     cmsis_gcc.h
   3:../../Drivers/CMSIS/Include/cmsis_gcc.h ****  * @brief    CMSIS compiler GCC header file
   4:../../Drivers/CMSIS/Include/cmsis_gcc.h ****  * @version  V5.2.0
   5:../../Drivers/CMSIS/Include/cmsis_gcc.h ****  * @date     08. May 2019
   6:../../Drivers/CMSIS/Include/cmsis_gcc.h ****  ******************************************************************************/
   7:../../Drivers/CMSIS/Include/cmsis_gcc.h **** /*
   8:../../Drivers/CMSIS/Include/cmsis_gcc.h ****  * Copyright (c) 2009-2019 Arm Limited. All rights reserved.
   9:../../Drivers/CMSIS/Include/cmsis_gcc.h ****  *
  10:../../Drivers/CMSIS/Include/cmsis_gcc.h ****  * SPDX-License-Identifier: Apache-2.0
  11:../../Drivers/CMSIS/Include/cmsis_gcc.h ****  *
  12:../../Drivers/CMSIS/Include/cmsis_gcc.h ****  * Licensed under the Apache License, Version 2.0 (the License); you may
  13:../../Drivers/CMSIS/Include/cmsis_gcc.h ****  * not use this file except in compliance with the License.
  14:../../Drivers/CMSIS/Include/cmsis_gcc.h ****  * You may obtain a copy of the License at
  15:../../Drivers/CMSIS/Include/cmsis_gcc.h ****  *
  16:../../Drivers/CMSIS/Include/cmsis_gcc.h ****  * www.apache.org/licenses/LICENSE-2.0
  17:../../Drivers/CMSIS/Include/cmsis_gcc.h ****  *
  18:../../Drivers/CMSIS/Include/cmsis_gcc.h ****  * Unless required by applicable law or agreed to in writing, software
  19:../../Drivers/CMSIS/Include/cmsis_gcc.h ****  * distributed under the License is distributed on an AS IS BASIS, WITHOUT
  20:../../Drivers/CMSIS/Include/cmsis_gcc.h ****  * WARRANTIES OR CONDITIONS OF ANY KIND, either express or implied.
  21:../../Drivers/CMSIS/Include/cmsis_gcc.h ****  * See the License for the specific language governing permissions and
  22:../../Drivers/CMSIS/Include/cmsis_gcc.h ****  * limitations under the License.
  23:../../Drivers/CMSIS/Include/cmsis_gcc.h ****  */
  24:../../Drivers/CMSIS/Include/cmsis_gcc.h **** 
  25:../../Drivers/CMSIS/Include/cmsis_gcc.h **** #ifndef __CMSIS_GCC_H
  26:../../Drivers/CMSIS/Include/cmsis_gcc.h **** #define __CMSIS_GCC_H
  27:../../Drivers/CMSIS/Include/cmsis_gcc.h **** 
  28:../../Drivers/CMSIS/Include/cmsis_gcc.h **** /* ignore some GCC warnings */
  29:../../Drivers/CMSIS/Include/cmsis_gcc.h **** #pragma GCC diagnostic push
  30:../../Drivers/CMSIS/Include/cmsis_gcc.h **** #pragma GCC diagnostic ignored "-Wsign-conversion"
  31:../../Drivers/CMSIS/Include/cmsis_gcc.h **** #pragma GCC diagnostic ignored "-Wconversion"
  32:../../Drivers/CMSIS/Include/cmsis_gcc.h **** #pragma GCC diagnostic ignored "-Wunused-parameter"
  33:../../Drivers/CMSIS/Include/cmsis_gcc.h **** 
  34:../../Drivers/CMSIS/Include/cmsis_gcc.h **** /* Fallback for __has_builtin */
  35:../../Drivers/CMSIS/Include/cmsis_gcc.h **** #ifndef __has_builtin
  36:../../Drivers/CMSIS/Include/cmsis_gcc.h ****   #define __has_builtin(x) (0)
  37:../../Drivers/CMSIS/Include/cmsis_gcc.h **** #endif
  38:../../Drivers/CMSIS/Include/cmsis_gcc.h **** 
  39:../../Drivers/CMSIS/Include/cmsis_gcc.h **** /* CMSIS compiler specific defines */
  40:../../Drivers/CMSIS/Include/cmsis_gcc.h **** #ifndef   __ASM
  41:../../Drivers/CMSIS/Include/cmsis_gcc.h ****   #define __ASM                                  __asm
  42:../../Drivers/CMSIS/Include/cmsis_gcc.h **** #endif
  43:../../Drivers/CMSIS/Include/cmsis_gcc.h **** #ifndef   __INLINE
  44:../../Drivers/CMSIS/Include/cmsis_gcc.h ****   #define __INLINE                               inline
  45:../../Drivers/CMSIS/Include/cmsis_gcc.h **** #endif
  46:../../Drivers/CMSIS/Include/cmsis_gcc.h **** #ifndef   __STATIC_INLINE
  47:../../Drivers/CMSIS/Include/cmsis_gcc.h ****   #define __STATIC_INLINE                        static inline
  48:../../Drivers/CMSIS/Include/cmsis_gcc.h **** #endif
ARM GAS  C:\Users\gigig\AppData\Local\Temp\cc3finZl.s 			page 15


  49:../../Drivers/CMSIS/Include/cmsis_gcc.h **** #ifndef   __STATIC_FORCEINLINE                 
  50:../../Drivers/CMSIS/Include/cmsis_gcc.h ****   #define __STATIC_FORCEINLINE                   __attribute__((always_inline)) static inline
  51:../../Drivers/CMSIS/Include/cmsis_gcc.h **** #endif                                           
  52:../../Drivers/CMSIS/Include/cmsis_gcc.h **** #ifndef   __NO_RETURN
  53:../../Drivers/CMSIS/Include/cmsis_gcc.h ****   #define __NO_RETURN                            __attribute__((__noreturn__))
  54:../../Drivers/CMSIS/Include/cmsis_gcc.h **** #endif
  55:../../Drivers/CMSIS/Include/cmsis_gcc.h **** #ifndef   __USED
  56:../../Drivers/CMSIS/Include/cmsis_gcc.h ****   #define __USED                                 __attribute__((used))
  57:../../Drivers/CMSIS/Include/cmsis_gcc.h **** #endif
  58:../../Drivers/CMSIS/Include/cmsis_gcc.h **** #ifndef   __WEAK
  59:../../Drivers/CMSIS/Include/cmsis_gcc.h ****   #define __WEAK                                 __attribute__((weak))
  60:../../Drivers/CMSIS/Include/cmsis_gcc.h **** #endif
  61:../../Drivers/CMSIS/Include/cmsis_gcc.h **** #ifndef   __PACKED
  62:../../Drivers/CMSIS/Include/cmsis_gcc.h ****   #define __PACKED                               __attribute__((packed, aligned(1)))
  63:../../Drivers/CMSIS/Include/cmsis_gcc.h **** #endif
  64:../../Drivers/CMSIS/Include/cmsis_gcc.h **** #ifndef   __PACKED_STRUCT
  65:../../Drivers/CMSIS/Include/cmsis_gcc.h ****   #define __PACKED_STRUCT                        struct __attribute__((packed, aligned(1)))
  66:../../Drivers/CMSIS/Include/cmsis_gcc.h **** #endif
  67:../../Drivers/CMSIS/Include/cmsis_gcc.h **** #ifndef   __PACKED_UNION
  68:../../Drivers/CMSIS/Include/cmsis_gcc.h ****   #define __PACKED_UNION                         union __attribute__((packed, aligned(1)))
  69:../../Drivers/CMSIS/Include/cmsis_gcc.h **** #endif
  70:../../Drivers/CMSIS/Include/cmsis_gcc.h **** #ifndef   __UNALIGNED_UINT32        /* deprecated */
  71:../../Drivers/CMSIS/Include/cmsis_gcc.h ****   #pragma GCC diagnostic push
  72:../../Drivers/CMSIS/Include/cmsis_gcc.h ****   #pragma GCC diagnostic ignored "-Wpacked"
  73:../../Drivers/CMSIS/Include/cmsis_gcc.h ****   #pragma GCC diagnostic ignored "-Wattributes"
  74:../../Drivers/CMSIS/Include/cmsis_gcc.h ****   struct __attribute__((packed)) T_UINT32 { uint32_t v; };
  75:../../Drivers/CMSIS/Include/cmsis_gcc.h ****   #pragma GCC diagnostic pop
  76:../../Drivers/CMSIS/Include/cmsis_gcc.h ****   #define __UNALIGNED_UINT32(x)                  (((struct T_UINT32 *)(x))->v)
  77:../../Drivers/CMSIS/Include/cmsis_gcc.h **** #endif
  78:../../Drivers/CMSIS/Include/cmsis_gcc.h **** #ifndef   __UNALIGNED_UINT16_WRITE
  79:../../Drivers/CMSIS/Include/cmsis_gcc.h ****   #pragma GCC diagnostic push
  80:../../Drivers/CMSIS/Include/cmsis_gcc.h ****   #pragma GCC diagnostic ignored "-Wpacked"
  81:../../Drivers/CMSIS/Include/cmsis_gcc.h ****   #pragma GCC diagnostic ignored "-Wattributes"
  82:../../Drivers/CMSIS/Include/cmsis_gcc.h ****   __PACKED_STRUCT T_UINT16_WRITE { uint16_t v; };
  83:../../Drivers/CMSIS/Include/cmsis_gcc.h ****   #pragma GCC diagnostic pop
  84:../../Drivers/CMSIS/Include/cmsis_gcc.h ****   #define __UNALIGNED_UINT16_WRITE(addr, val)    (void)((((struct T_UINT16_WRITE *)(void *)(addr))-
  85:../../Drivers/CMSIS/Include/cmsis_gcc.h **** #endif
  86:../../Drivers/CMSIS/Include/cmsis_gcc.h **** #ifndef   __UNALIGNED_UINT16_READ
  87:../../Drivers/CMSIS/Include/cmsis_gcc.h ****   #pragma GCC diagnostic push
  88:../../Drivers/CMSIS/Include/cmsis_gcc.h ****   #pragma GCC diagnostic ignored "-Wpacked"
  89:../../Drivers/CMSIS/Include/cmsis_gcc.h ****   #pragma GCC diagnostic ignored "-Wattributes"
  90:../../Drivers/CMSIS/Include/cmsis_gcc.h ****   __PACKED_STRUCT T_UINT16_READ { uint16_t v; };
  91:../../Drivers/CMSIS/Include/cmsis_gcc.h ****   #pragma GCC diagnostic pop
  92:../../Drivers/CMSIS/Include/cmsis_gcc.h ****   #define __UNALIGNED_UINT16_READ(addr)          (((const struct T_UINT16_READ *)(const void *)(add
  93:../../Drivers/CMSIS/Include/cmsis_gcc.h **** #endif
  94:../../Drivers/CMSIS/Include/cmsis_gcc.h **** #ifndef   __UNALIGNED_UINT32_WRITE
  95:../../Drivers/CMSIS/Include/cmsis_gcc.h ****   #pragma GCC diagnostic push
  96:../../Drivers/CMSIS/Include/cmsis_gcc.h ****   #pragma GCC diagnostic ignored "-Wpacked"
  97:../../Drivers/CMSIS/Include/cmsis_gcc.h ****   #pragma GCC diagnostic ignored "-Wattributes"
  98:../../Drivers/CMSIS/Include/cmsis_gcc.h ****   __PACKED_STRUCT T_UINT32_WRITE { uint32_t v; };
  99:../../Drivers/CMSIS/Include/cmsis_gcc.h ****   #pragma GCC diagnostic pop
 100:../../Drivers/CMSIS/Include/cmsis_gcc.h ****   #define __UNALIGNED_UINT32_WRITE(addr, val)    (void)((((struct T_UINT32_WRITE *)(void *)(addr))-
 101:../../Drivers/CMSIS/Include/cmsis_gcc.h **** #endif
 102:../../Drivers/CMSIS/Include/cmsis_gcc.h **** #ifndef   __UNALIGNED_UINT32_READ
 103:../../Drivers/CMSIS/Include/cmsis_gcc.h ****   #pragma GCC diagnostic push
 104:../../Drivers/CMSIS/Include/cmsis_gcc.h ****   #pragma GCC diagnostic ignored "-Wpacked"
 105:../../Drivers/CMSIS/Include/cmsis_gcc.h ****   #pragma GCC diagnostic ignored "-Wattributes"
ARM GAS  C:\Users\gigig\AppData\Local\Temp\cc3finZl.s 			page 16


 106:../../Drivers/CMSIS/Include/cmsis_gcc.h ****   __PACKED_STRUCT T_UINT32_READ { uint32_t v; };
 107:../../Drivers/CMSIS/Include/cmsis_gcc.h ****   #pragma GCC diagnostic pop
 108:../../Drivers/CMSIS/Include/cmsis_gcc.h ****   #define __UNALIGNED_UINT32_READ(addr)          (((const struct T_UINT32_READ *)(const void *)(add
 109:../../Drivers/CMSIS/Include/cmsis_gcc.h **** #endif
 110:../../Drivers/CMSIS/Include/cmsis_gcc.h **** #ifndef   __ALIGNED
 111:../../Drivers/CMSIS/Include/cmsis_gcc.h ****   #define __ALIGNED(x)                           __attribute__((aligned(x)))
 112:../../Drivers/CMSIS/Include/cmsis_gcc.h **** #endif
 113:../../Drivers/CMSIS/Include/cmsis_gcc.h **** #ifndef   __RESTRICT
 114:../../Drivers/CMSIS/Include/cmsis_gcc.h ****   #define __RESTRICT                             __restrict
 115:../../Drivers/CMSIS/Include/cmsis_gcc.h **** #endif
 116:../../Drivers/CMSIS/Include/cmsis_gcc.h **** #ifndef   __COMPILER_BARRIER
 117:../../Drivers/CMSIS/Include/cmsis_gcc.h ****   #define __COMPILER_BARRIER()                   __ASM volatile("":::"memory")
 118:../../Drivers/CMSIS/Include/cmsis_gcc.h **** #endif
 119:../../Drivers/CMSIS/Include/cmsis_gcc.h **** 
 120:../../Drivers/CMSIS/Include/cmsis_gcc.h **** /* #########################  Startup and Lowlevel Init  ######################## */
 121:../../Drivers/CMSIS/Include/cmsis_gcc.h **** 
 122:../../Drivers/CMSIS/Include/cmsis_gcc.h **** #ifndef __PROGRAM_START
 123:../../Drivers/CMSIS/Include/cmsis_gcc.h **** 
 124:../../Drivers/CMSIS/Include/cmsis_gcc.h **** /**
 125:../../Drivers/CMSIS/Include/cmsis_gcc.h ****   \brief   Initializes data and bss sections
 126:../../Drivers/CMSIS/Include/cmsis_gcc.h ****   \details This default implementations initialized all data and additional bss
 127:../../Drivers/CMSIS/Include/cmsis_gcc.h ****            sections relying on .copy.table and .zero.table specified properly
 128:../../Drivers/CMSIS/Include/cmsis_gcc.h ****            in the used linker script.
 129:../../Drivers/CMSIS/Include/cmsis_gcc.h ****   
 130:../../Drivers/CMSIS/Include/cmsis_gcc.h ****  */
 131:../../Drivers/CMSIS/Include/cmsis_gcc.h **** __STATIC_FORCEINLINE __NO_RETURN void __cmsis_start(void)
 132:../../Drivers/CMSIS/Include/cmsis_gcc.h **** {
 133:../../Drivers/CMSIS/Include/cmsis_gcc.h ****   extern void _start(void) __NO_RETURN;
 134:../../Drivers/CMSIS/Include/cmsis_gcc.h ****   
 135:../../Drivers/CMSIS/Include/cmsis_gcc.h ****   typedef struct {
 136:../../Drivers/CMSIS/Include/cmsis_gcc.h ****     uint32_t const* src;
 137:../../Drivers/CMSIS/Include/cmsis_gcc.h ****     uint32_t* dest;
 138:../../Drivers/CMSIS/Include/cmsis_gcc.h ****     uint32_t  wlen;
 139:../../Drivers/CMSIS/Include/cmsis_gcc.h ****   } __copy_table_t;
 140:../../Drivers/CMSIS/Include/cmsis_gcc.h ****   
 141:../../Drivers/CMSIS/Include/cmsis_gcc.h ****   typedef struct {
 142:../../Drivers/CMSIS/Include/cmsis_gcc.h ****     uint32_t* dest;
 143:../../Drivers/CMSIS/Include/cmsis_gcc.h ****     uint32_t  wlen;
 144:../../Drivers/CMSIS/Include/cmsis_gcc.h ****   } __zero_table_t;
 145:../../Drivers/CMSIS/Include/cmsis_gcc.h ****   
 146:../../Drivers/CMSIS/Include/cmsis_gcc.h ****   extern const __copy_table_t __copy_table_start__;
 147:../../Drivers/CMSIS/Include/cmsis_gcc.h ****   extern const __copy_table_t __copy_table_end__;
 148:../../Drivers/CMSIS/Include/cmsis_gcc.h ****   extern const __zero_table_t __zero_table_start__;
 149:../../Drivers/CMSIS/Include/cmsis_gcc.h ****   extern const __zero_table_t __zero_table_end__;
 150:../../Drivers/CMSIS/Include/cmsis_gcc.h **** 
 151:../../Drivers/CMSIS/Include/cmsis_gcc.h ****   for (__copy_table_t const* pTable = &__copy_table_start__; pTable < &__copy_table_end__; ++pTable
 152:../../Drivers/CMSIS/Include/cmsis_gcc.h ****     for(uint32_t i=0u; i<pTable->wlen; ++i) {
 153:../../Drivers/CMSIS/Include/cmsis_gcc.h ****       pTable->dest[i] = pTable->src[i];
 154:../../Drivers/CMSIS/Include/cmsis_gcc.h ****     }
 155:../../Drivers/CMSIS/Include/cmsis_gcc.h ****   }
 156:../../Drivers/CMSIS/Include/cmsis_gcc.h ****  
 157:../../Drivers/CMSIS/Include/cmsis_gcc.h ****   for (__zero_table_t const* pTable = &__zero_table_start__; pTable < &__zero_table_end__; ++pTable
 158:../../Drivers/CMSIS/Include/cmsis_gcc.h ****     for(uint32_t i=0u; i<pTable->wlen; ++i) {
 159:../../Drivers/CMSIS/Include/cmsis_gcc.h ****       pTable->dest[i] = 0u;
 160:../../Drivers/CMSIS/Include/cmsis_gcc.h ****     }
 161:../../Drivers/CMSIS/Include/cmsis_gcc.h ****   }
 162:../../Drivers/CMSIS/Include/cmsis_gcc.h ****  
ARM GAS  C:\Users\gigig\AppData\Local\Temp\cc3finZl.s 			page 17


 163:../../Drivers/CMSIS/Include/cmsis_gcc.h ****   _start();
 164:../../Drivers/CMSIS/Include/cmsis_gcc.h **** }
 165:../../Drivers/CMSIS/Include/cmsis_gcc.h ****   
 166:../../Drivers/CMSIS/Include/cmsis_gcc.h **** #define __PROGRAM_START           __cmsis_start
 167:../../Drivers/CMSIS/Include/cmsis_gcc.h **** #endif
 168:../../Drivers/CMSIS/Include/cmsis_gcc.h **** 
 169:../../Drivers/CMSIS/Include/cmsis_gcc.h **** #ifndef __INITIAL_SP
 170:../../Drivers/CMSIS/Include/cmsis_gcc.h **** #define __INITIAL_SP              __StackTop
 171:../../Drivers/CMSIS/Include/cmsis_gcc.h **** #endif
 172:../../Drivers/CMSIS/Include/cmsis_gcc.h **** 
 173:../../Drivers/CMSIS/Include/cmsis_gcc.h **** #ifndef __STACK_LIMIT
 174:../../Drivers/CMSIS/Include/cmsis_gcc.h **** #define __STACK_LIMIT             __StackLimit
 175:../../Drivers/CMSIS/Include/cmsis_gcc.h **** #endif
 176:../../Drivers/CMSIS/Include/cmsis_gcc.h **** 
 177:../../Drivers/CMSIS/Include/cmsis_gcc.h **** #ifndef __VECTOR_TABLE
 178:../../Drivers/CMSIS/Include/cmsis_gcc.h **** #define __VECTOR_TABLE            __Vectors
 179:../../Drivers/CMSIS/Include/cmsis_gcc.h **** #endif
 180:../../Drivers/CMSIS/Include/cmsis_gcc.h **** 
 181:../../Drivers/CMSIS/Include/cmsis_gcc.h **** #ifndef __VECTOR_TABLE_ATTRIBUTE
 182:../../Drivers/CMSIS/Include/cmsis_gcc.h **** #define __VECTOR_TABLE_ATTRIBUTE  __attribute((used, section(".vectors")))
 183:../../Drivers/CMSIS/Include/cmsis_gcc.h **** #endif
 184:../../Drivers/CMSIS/Include/cmsis_gcc.h **** 
 185:../../Drivers/CMSIS/Include/cmsis_gcc.h **** /* ###########################  Core Function Access  ########################### */
 186:../../Drivers/CMSIS/Include/cmsis_gcc.h **** /** \ingroup  CMSIS_Core_FunctionInterface
 187:../../Drivers/CMSIS/Include/cmsis_gcc.h ****     \defgroup CMSIS_Core_RegAccFunctions CMSIS Core Register Access Functions
 188:../../Drivers/CMSIS/Include/cmsis_gcc.h ****   @{
 189:../../Drivers/CMSIS/Include/cmsis_gcc.h ****  */
 190:../../Drivers/CMSIS/Include/cmsis_gcc.h **** 
 191:../../Drivers/CMSIS/Include/cmsis_gcc.h **** /**
 192:../../Drivers/CMSIS/Include/cmsis_gcc.h ****   \brief   Enable IRQ Interrupts
 193:../../Drivers/CMSIS/Include/cmsis_gcc.h ****   \details Enables IRQ interrupts by clearing the I-bit in the CPSR.
 194:../../Drivers/CMSIS/Include/cmsis_gcc.h ****            Can only be executed in Privileged modes.
 195:../../Drivers/CMSIS/Include/cmsis_gcc.h ****  */
 196:../../Drivers/CMSIS/Include/cmsis_gcc.h **** __STATIC_FORCEINLINE void __enable_irq(void)
 197:../../Drivers/CMSIS/Include/cmsis_gcc.h **** {
 198:../../Drivers/CMSIS/Include/cmsis_gcc.h ****   __ASM volatile ("cpsie i" : : : "memory");
 199:../../Drivers/CMSIS/Include/cmsis_gcc.h **** }
 200:../../Drivers/CMSIS/Include/cmsis_gcc.h **** 
 201:../../Drivers/CMSIS/Include/cmsis_gcc.h **** 
 202:../../Drivers/CMSIS/Include/cmsis_gcc.h **** /**
 203:../../Drivers/CMSIS/Include/cmsis_gcc.h ****   \brief   Disable IRQ Interrupts
 204:../../Drivers/CMSIS/Include/cmsis_gcc.h ****   \details Disables IRQ interrupts by setting the I-bit in the CPSR.
 205:../../Drivers/CMSIS/Include/cmsis_gcc.h ****            Can only be executed in Privileged modes.
 206:../../Drivers/CMSIS/Include/cmsis_gcc.h ****  */
 207:../../Drivers/CMSIS/Include/cmsis_gcc.h **** __STATIC_FORCEINLINE void __disable_irq(void)
 269              		.loc 2 207 27 view .LVU60
 270              	.LBB10:
 208:../../Drivers/CMSIS/Include/cmsis_gcc.h **** {
 209:../../Drivers/CMSIS/Include/cmsis_gcc.h ****   __ASM volatile ("cpsid i" : : : "memory");
 271              		.loc 2 209 3 view .LVU61
 272              		.syntax unified
 273              	@ 209 "../../Drivers/CMSIS/Include/cmsis_gcc.h" 1
 274 0000 72B6     		cpsid i
 275              	@ 0 "" 2
 276              		.thumb
 277              		.syntax unified
 278              	.L17:
ARM GAS  C:\Users\gigig\AppData\Local\Temp\cc3finZl.s 			page 18


 279              	.LBE10:
 280              	.LBE9:
 488:../../CM7/Core/Src/main.c ****   while (1)
 281              		.loc 1 488 3 discriminator 1 view .LVU62
 489:../../CM7/Core/Src/main.c ****   {
 490:../../CM7/Core/Src/main.c ****   }
 282              		.loc 1 490 3 discriminator 1 view .LVU63
 488:../../CM7/Core/Src/main.c ****   while (1)
 283              		.loc 1 488 9 discriminator 1 view .LVU64
 284 0002 FEE7     		b	.L17
 285              		.cfi_endproc
 286              	.LFE156:
 288              		.section	.text.MX_USART3_UART_Init,"ax",%progbits
 289              		.align	1
 290              		.syntax unified
 291              		.thumb
 292              		.thumb_func
 294              	MX_USART3_UART_Init:
 295              	.LFB151:
 325:../../CM7/Core/Src/main.c **** 
 296              		.loc 1 325 1 view -0
 297              		.cfi_startproc
 298              		@ args = 0, pretend = 0, frame = 0
 299              		@ frame_needed = 0, uses_anonymous_args = 0
 300 0000 08B5     		push	{r3, lr}
 301              	.LCFI5:
 302              		.cfi_def_cfa_offset 8
 303              		.cfi_offset 3, -8
 304              		.cfi_offset 14, -4
 334:../../CM7/Core/Src/main.c ****   huart3.Init.BaudRate = 115200;
 305              		.loc 1 334 3 view .LVU66
 334:../../CM7/Core/Src/main.c ****   huart3.Init.BaudRate = 115200;
 306              		.loc 1 334 19 is_stmt 0 view .LVU67
 307 0002 1548     		ldr	r0, .L28
 308 0004 154B     		ldr	r3, .L28+4
 309 0006 0360     		str	r3, [r0]
 335:../../CM7/Core/Src/main.c ****   huart3.Init.WordLength = UART_WORDLENGTH_8B;
 310              		.loc 1 335 3 is_stmt 1 view .LVU68
 335:../../CM7/Core/Src/main.c ****   huart3.Init.WordLength = UART_WORDLENGTH_8B;
 311              		.loc 1 335 24 is_stmt 0 view .LVU69
 312 0008 4FF4E133 		mov	r3, #115200
 313 000c 4360     		str	r3, [r0, #4]
 336:../../CM7/Core/Src/main.c ****   huart3.Init.StopBits = UART_STOPBITS_1;
 314              		.loc 1 336 3 is_stmt 1 view .LVU70
 336:../../CM7/Core/Src/main.c ****   huart3.Init.StopBits = UART_STOPBITS_1;
 315              		.loc 1 336 26 is_stmt 0 view .LVU71
 316 000e 0023     		movs	r3, #0
 317 0010 8360     		str	r3, [r0, #8]
 337:../../CM7/Core/Src/main.c ****   huart3.Init.Parity = UART_PARITY_NONE;
 318              		.loc 1 337 3 is_stmt 1 view .LVU72
 337:../../CM7/Core/Src/main.c ****   huart3.Init.Parity = UART_PARITY_NONE;
 319              		.loc 1 337 24 is_stmt 0 view .LVU73
 320 0012 C360     		str	r3, [r0, #12]
 338:../../CM7/Core/Src/main.c ****   huart3.Init.Mode = UART_MODE_TX_RX;
 321              		.loc 1 338 3 is_stmt 1 view .LVU74
 338:../../CM7/Core/Src/main.c ****   huart3.Init.Mode = UART_MODE_TX_RX;
 322              		.loc 1 338 22 is_stmt 0 view .LVU75
ARM GAS  C:\Users\gigig\AppData\Local\Temp\cc3finZl.s 			page 19


 323 0014 0361     		str	r3, [r0, #16]
 339:../../CM7/Core/Src/main.c ****   huart3.Init.HwFlowCtl = UART_HWCONTROL_NONE;
 324              		.loc 1 339 3 is_stmt 1 view .LVU76
 339:../../CM7/Core/Src/main.c ****   huart3.Init.HwFlowCtl = UART_HWCONTROL_NONE;
 325              		.loc 1 339 20 is_stmt 0 view .LVU77
 326 0016 0C22     		movs	r2, #12
 327 0018 4261     		str	r2, [r0, #20]
 340:../../CM7/Core/Src/main.c ****   huart3.Init.OverSampling = UART_OVERSAMPLING_16;
 328              		.loc 1 340 3 is_stmt 1 view .LVU78
 340:../../CM7/Core/Src/main.c ****   huart3.Init.OverSampling = UART_OVERSAMPLING_16;
 329              		.loc 1 340 25 is_stmt 0 view .LVU79
 330 001a 8361     		str	r3, [r0, #24]
 341:../../CM7/Core/Src/main.c ****   huart3.Init.OneBitSampling = UART_ONE_BIT_SAMPLE_DISABLE;
 331              		.loc 1 341 3 is_stmt 1 view .LVU80
 341:../../CM7/Core/Src/main.c ****   huart3.Init.OneBitSampling = UART_ONE_BIT_SAMPLE_DISABLE;
 332              		.loc 1 341 28 is_stmt 0 view .LVU81
 333 001c C361     		str	r3, [r0, #28]
 342:../../CM7/Core/Src/main.c ****   huart3.Init.ClockPrescaler = UART_PRESCALER_DIV1;
 334              		.loc 1 342 3 is_stmt 1 view .LVU82
 342:../../CM7/Core/Src/main.c ****   huart3.Init.ClockPrescaler = UART_PRESCALER_DIV1;
 335              		.loc 1 342 30 is_stmt 0 view .LVU83
 336 001e 0362     		str	r3, [r0, #32]
 343:../../CM7/Core/Src/main.c ****   huart3.AdvancedInit.AdvFeatureInit = UART_ADVFEATURE_NO_INIT;
 337              		.loc 1 343 3 is_stmt 1 view .LVU84
 343:../../CM7/Core/Src/main.c ****   huart3.AdvancedInit.AdvFeatureInit = UART_ADVFEATURE_NO_INIT;
 338              		.loc 1 343 30 is_stmt 0 view .LVU85
 339 0020 4362     		str	r3, [r0, #36]
 344:../../CM7/Core/Src/main.c ****   if (HAL_UART_Init(&huart3) != HAL_OK)
 340              		.loc 1 344 3 is_stmt 1 view .LVU86
 344:../../CM7/Core/Src/main.c ****   if (HAL_UART_Init(&huart3) != HAL_OK)
 341              		.loc 1 344 38 is_stmt 0 view .LVU87
 342 0022 8362     		str	r3, [r0, #40]
 345:../../CM7/Core/Src/main.c ****   {
 343              		.loc 1 345 3 is_stmt 1 view .LVU88
 345:../../CM7/Core/Src/main.c ****   {
 344              		.loc 1 345 7 is_stmt 0 view .LVU89
 345 0024 FFF7FEFF 		bl	HAL_UART_Init
 346              	.LVL10:
 345:../../CM7/Core/Src/main.c ****   {
 347              		.loc 1 345 6 view .LVU90
 348 0028 70B9     		cbnz	r0, .L24
 349:../../CM7/Core/Src/main.c ****   {
 349              		.loc 1 349 3 is_stmt 1 view .LVU91
 349:../../CM7/Core/Src/main.c ****   {
 350              		.loc 1 349 7 is_stmt 0 view .LVU92
 351 002a 0021     		movs	r1, #0
 352 002c 0A48     		ldr	r0, .L28
 353 002e FFF7FEFF 		bl	HAL_UARTEx_SetTxFifoThreshold
 354              	.LVL11:
 349:../../CM7/Core/Src/main.c ****   {
 355              		.loc 1 349 6 view .LVU93
 356 0032 58B9     		cbnz	r0, .L25
 353:../../CM7/Core/Src/main.c ****   {
 357              		.loc 1 353 3 is_stmt 1 view .LVU94
 353:../../CM7/Core/Src/main.c ****   {
 358              		.loc 1 353 7 is_stmt 0 view .LVU95
 359 0034 0021     		movs	r1, #0
ARM GAS  C:\Users\gigig\AppData\Local\Temp\cc3finZl.s 			page 20


 360 0036 0848     		ldr	r0, .L28
 361 0038 FFF7FEFF 		bl	HAL_UARTEx_SetRxFifoThreshold
 362              	.LVL12:
 353:../../CM7/Core/Src/main.c ****   {
 363              		.loc 1 353 6 view .LVU96
 364 003c 40B9     		cbnz	r0, .L26
 357:../../CM7/Core/Src/main.c ****   {
 365              		.loc 1 357 3 is_stmt 1 view .LVU97
 357:../../CM7/Core/Src/main.c ****   {
 366              		.loc 1 357 7 is_stmt 0 view .LVU98
 367 003e 0648     		ldr	r0, .L28
 368 0040 FFF7FEFF 		bl	HAL_UARTEx_DisableFifoMode
 369              	.LVL13:
 357:../../CM7/Core/Src/main.c ****   {
 370              		.loc 1 357 6 view .LVU99
 371 0044 30B9     		cbnz	r0, .L27
 365:../../CM7/Core/Src/main.c **** 
 372              		.loc 1 365 1 view .LVU100
 373 0046 08BD     		pop	{r3, pc}
 374              	.L24:
 347:../../CM7/Core/Src/main.c ****   }
 375              		.loc 1 347 5 is_stmt 1 view .LVU101
 376 0048 FFF7FEFF 		bl	Error_Handler
 377              	.LVL14:
 378              	.L25:
 351:../../CM7/Core/Src/main.c ****   }
 379              		.loc 1 351 5 view .LVU102
 380 004c FFF7FEFF 		bl	Error_Handler
 381              	.LVL15:
 382              	.L26:
 355:../../CM7/Core/Src/main.c ****   }
 383              		.loc 1 355 5 view .LVU103
 384 0050 FFF7FEFF 		bl	Error_Handler
 385              	.LVL16:
 386              	.L27:
 359:../../CM7/Core/Src/main.c ****   }
 387              		.loc 1 359 5 view .LVU104
 388 0054 FFF7FEFF 		bl	Error_Handler
 389              	.LVL17:
 390              	.L29:
 391              		.align	2
 392              	.L28:
 393 0058 00000000 		.word	.LANCHOR0
 394 005c 00480040 		.word	1073760256
 395              		.cfi_endproc
 396              	.LFE151:
 398              		.section	.text.MX_USB_OTG_FS_PCD_Init,"ax",%progbits
 399              		.align	1
 400              		.syntax unified
 401              		.thumb
 402              		.thumb_func
 404              	MX_USB_OTG_FS_PCD_Init:
 405              	.LFB152:
 373:../../CM7/Core/Src/main.c **** 
 406              		.loc 1 373 1 view -0
 407              		.cfi_startproc
 408              		@ args = 0, pretend = 0, frame = 0
ARM GAS  C:\Users\gigig\AppData\Local\Temp\cc3finZl.s 			page 21


 409              		@ frame_needed = 0, uses_anonymous_args = 0
 410 0000 08B5     		push	{r3, lr}
 411              	.LCFI6:
 412              		.cfi_def_cfa_offset 8
 413              		.cfi_offset 3, -8
 414              		.cfi_offset 14, -4
 382:../../CM7/Core/Src/main.c ****   hpcd_USB_OTG_FS.Init.dev_endpoints = 9;
 415              		.loc 1 382 3 view .LVU106
 382:../../CM7/Core/Src/main.c ****   hpcd_USB_OTG_FS.Init.dev_endpoints = 9;
 416              		.loc 1 382 28 is_stmt 0 view .LVU107
 417 0002 0B48     		ldr	r0, .L34
 418 0004 0B4B     		ldr	r3, .L34+4
 419 0006 0360     		str	r3, [r0]
 383:../../CM7/Core/Src/main.c ****   hpcd_USB_OTG_FS.Init.speed = PCD_SPEED_FULL;
 420              		.loc 1 383 3 is_stmt 1 view .LVU108
 383:../../CM7/Core/Src/main.c ****   hpcd_USB_OTG_FS.Init.speed = PCD_SPEED_FULL;
 421              		.loc 1 383 38 is_stmt 0 view .LVU109
 422 0008 0923     		movs	r3, #9
 423 000a 4360     		str	r3, [r0, #4]
 384:../../CM7/Core/Src/main.c ****   hpcd_USB_OTG_FS.Init.dma_enable = DISABLE;
 424              		.loc 1 384 3 is_stmt 1 view .LVU110
 384:../../CM7/Core/Src/main.c ****   hpcd_USB_OTG_FS.Init.dma_enable = DISABLE;
 425              		.loc 1 384 30 is_stmt 0 view .LVU111
 426 000c 0222     		movs	r2, #2
 427 000e 0261     		str	r2, [r0, #16]
 385:../../CM7/Core/Src/main.c ****   hpcd_USB_OTG_FS.Init.phy_itface = PCD_PHY_EMBEDDED;
 428              		.loc 1 385 3 is_stmt 1 view .LVU112
 385:../../CM7/Core/Src/main.c ****   hpcd_USB_OTG_FS.Init.phy_itface = PCD_PHY_EMBEDDED;
 429              		.loc 1 385 35 is_stmt 0 view .LVU113
 430 0010 0023     		movs	r3, #0
 431 0012 C360     		str	r3, [r0, #12]
 386:../../CM7/Core/Src/main.c ****   hpcd_USB_OTG_FS.Init.Sof_enable = DISABLE;
 432              		.loc 1 386 3 is_stmt 1 view .LVU114
 386:../../CM7/Core/Src/main.c ****   hpcd_USB_OTG_FS.Init.Sof_enable = DISABLE;
 433              		.loc 1 386 35 is_stmt 0 view .LVU115
 434 0014 8261     		str	r2, [r0, #24]
 387:../../CM7/Core/Src/main.c ****   hpcd_USB_OTG_FS.Init.low_power_enable = DISABLE;
 435              		.loc 1 387 3 is_stmt 1 view .LVU116
 387:../../CM7/Core/Src/main.c ****   hpcd_USB_OTG_FS.Init.low_power_enable = DISABLE;
 436              		.loc 1 387 35 is_stmt 0 view .LVU117
 437 0016 C361     		str	r3, [r0, #28]
 388:../../CM7/Core/Src/main.c ****   hpcd_USB_OTG_FS.Init.lpm_enable = DISABLE;
 438              		.loc 1 388 3 is_stmt 1 view .LVU118
 388:../../CM7/Core/Src/main.c ****   hpcd_USB_OTG_FS.Init.lpm_enable = DISABLE;
 439              		.loc 1 388 41 is_stmt 0 view .LVU119
 440 0018 0362     		str	r3, [r0, #32]
 389:../../CM7/Core/Src/main.c ****   hpcd_USB_OTG_FS.Init.battery_charging_enable = ENABLE;
 441              		.loc 1 389 3 is_stmt 1 view .LVU120
 389:../../CM7/Core/Src/main.c ****   hpcd_USB_OTG_FS.Init.battery_charging_enable = ENABLE;
 442              		.loc 1 389 35 is_stmt 0 view .LVU121
 443 001a 4362     		str	r3, [r0, #36]
 390:../../CM7/Core/Src/main.c ****   hpcd_USB_OTG_FS.Init.vbus_sensing_enable = ENABLE;
 444              		.loc 1 390 3 is_stmt 1 view .LVU122
 390:../../CM7/Core/Src/main.c ****   hpcd_USB_OTG_FS.Init.vbus_sensing_enable = ENABLE;
 445              		.loc 1 390 48 is_stmt 0 view .LVU123
 446 001c 0122     		movs	r2, #1
 447 001e 8262     		str	r2, [r0, #40]
ARM GAS  C:\Users\gigig\AppData\Local\Temp\cc3finZl.s 			page 22


 391:../../CM7/Core/Src/main.c ****   hpcd_USB_OTG_FS.Init.use_dedicated_ep1 = DISABLE;
 448              		.loc 1 391 3 is_stmt 1 view .LVU124
 391:../../CM7/Core/Src/main.c ****   hpcd_USB_OTG_FS.Init.use_dedicated_ep1 = DISABLE;
 449              		.loc 1 391 44 is_stmt 0 view .LVU125
 450 0020 C262     		str	r2, [r0, #44]
 392:../../CM7/Core/Src/main.c ****   if (HAL_PCD_Init(&hpcd_USB_OTG_FS) != HAL_OK)
 451              		.loc 1 392 3 is_stmt 1 view .LVU126
 392:../../CM7/Core/Src/main.c ****   if (HAL_PCD_Init(&hpcd_USB_OTG_FS) != HAL_OK)
 452              		.loc 1 392 42 is_stmt 0 view .LVU127
 453 0022 0363     		str	r3, [r0, #48]
 393:../../CM7/Core/Src/main.c ****   {
 454              		.loc 1 393 3 is_stmt 1 view .LVU128
 393:../../CM7/Core/Src/main.c ****   {
 455              		.loc 1 393 7 is_stmt 0 view .LVU129
 456 0024 FFF7FEFF 		bl	HAL_PCD_Init
 457              	.LVL18:
 393:../../CM7/Core/Src/main.c ****   {
 458              		.loc 1 393 6 view .LVU130
 459 0028 00B9     		cbnz	r0, .L33
 401:../../CM7/Core/Src/main.c **** 
 460              		.loc 1 401 1 view .LVU131
 461 002a 08BD     		pop	{r3, pc}
 462              	.L33:
 395:../../CM7/Core/Src/main.c ****   }
 463              		.loc 1 395 5 is_stmt 1 view .LVU132
 464 002c FFF7FEFF 		bl	Error_Handler
 465              	.LVL19:
 466              	.L35:
 467              		.align	2
 468              	.L34:
 469 0030 00000000 		.word	.LANCHOR1
 470 0034 00000840 		.word	1074266112
 471              		.cfi_endproc
 472              	.LFE152:
 474              		.section	.text.MX_RTC_Init,"ax",%progbits
 475              		.align	1
 476              		.syntax unified
 477              		.thumb
 478              		.thumb_func
 480              	MX_RTC_Init:
 481              	.LFB150:
 261:../../CM7/Core/Src/main.c **** 
 482              		.loc 1 261 1 view -0
 483              		.cfi_startproc
 484              		@ args = 0, pretend = 0, frame = 24
 485              		@ frame_needed = 0, uses_anonymous_args = 0
 486 0000 00B5     		push	{lr}
 487              	.LCFI7:
 488              		.cfi_def_cfa_offset 4
 489              		.cfi_offset 14, -4
 490 0002 87B0     		sub	sp, sp, #28
 491              	.LCFI8:
 492              		.cfi_def_cfa_offset 32
 267:../../CM7/Core/Src/main.c ****   RTC_DateTypeDef sDate = {0};
 493              		.loc 1 267 3 view .LVU134
 267:../../CM7/Core/Src/main.c ****   RTC_DateTypeDef sDate = {0};
 494              		.loc 1 267 19 is_stmt 0 view .LVU135
ARM GAS  C:\Users\gigig\AppData\Local\Temp\cc3finZl.s 			page 23


 495 0004 0023     		movs	r3, #0
 496 0006 0193     		str	r3, [sp, #4]
 497 0008 0293     		str	r3, [sp, #8]
 498 000a 0393     		str	r3, [sp, #12]
 499 000c 0493     		str	r3, [sp, #16]
 500 000e 0593     		str	r3, [sp, #20]
 268:../../CM7/Core/Src/main.c **** 
 501              		.loc 1 268 3 is_stmt 1 view .LVU136
 268:../../CM7/Core/Src/main.c **** 
 502              		.loc 1 268 19 is_stmt 0 view .LVU137
 503 0010 0093     		str	r3, [sp]
 276:../../CM7/Core/Src/main.c ****   hrtc.Init.HourFormat = RTC_HOURFORMAT_24;
 504              		.loc 1 276 3 is_stmt 1 view .LVU138
 276:../../CM7/Core/Src/main.c ****   hrtc.Init.HourFormat = RTC_HOURFORMAT_24;
 505              		.loc 1 276 17 is_stmt 0 view .LVU139
 506 0012 1C48     		ldr	r0, .L44
 507 0014 1C4A     		ldr	r2, .L44+4
 508 0016 0260     		str	r2, [r0]
 277:../../CM7/Core/Src/main.c ****   hrtc.Init.AsynchPrediv = 127;
 509              		.loc 1 277 3 is_stmt 1 view .LVU140
 277:../../CM7/Core/Src/main.c ****   hrtc.Init.AsynchPrediv = 127;
 510              		.loc 1 277 24 is_stmt 0 view .LVU141
 511 0018 4360     		str	r3, [r0, #4]
 278:../../CM7/Core/Src/main.c ****   hrtc.Init.SynchPrediv = 255;
 512              		.loc 1 278 3 is_stmt 1 view .LVU142
 278:../../CM7/Core/Src/main.c ****   hrtc.Init.SynchPrediv = 255;
 513              		.loc 1 278 26 is_stmt 0 view .LVU143
 514 001a 7F22     		movs	r2, #127
 515 001c 8260     		str	r2, [r0, #8]
 279:../../CM7/Core/Src/main.c ****   hrtc.Init.OutPut = RTC_OUTPUT_DISABLE;
 516              		.loc 1 279 3 is_stmt 1 view .LVU144
 279:../../CM7/Core/Src/main.c ****   hrtc.Init.OutPut = RTC_OUTPUT_DISABLE;
 517              		.loc 1 279 25 is_stmt 0 view .LVU145
 518 001e FF22     		movs	r2, #255
 519 0020 C260     		str	r2, [r0, #12]
 280:../../CM7/Core/Src/main.c ****   hrtc.Init.OutPutPolarity = RTC_OUTPUT_POLARITY_HIGH;
 520              		.loc 1 280 3 is_stmt 1 view .LVU146
 280:../../CM7/Core/Src/main.c ****   hrtc.Init.OutPutPolarity = RTC_OUTPUT_POLARITY_HIGH;
 521              		.loc 1 280 20 is_stmt 0 view .LVU147
 522 0022 0361     		str	r3, [r0, #16]
 281:../../CM7/Core/Src/main.c ****   hrtc.Init.OutPutType = RTC_OUTPUT_TYPE_OPENDRAIN;
 523              		.loc 1 281 3 is_stmt 1 view .LVU148
 281:../../CM7/Core/Src/main.c ****   hrtc.Init.OutPutType = RTC_OUTPUT_TYPE_OPENDRAIN;
 524              		.loc 1 281 28 is_stmt 0 view .LVU149
 525 0024 8361     		str	r3, [r0, #24]
 282:../../CM7/Core/Src/main.c ****   hrtc.Init.OutPutRemap = RTC_OUTPUT_REMAP_NONE;
 526              		.loc 1 282 3 is_stmt 1 view .LVU150
 282:../../CM7/Core/Src/main.c ****   hrtc.Init.OutPutRemap = RTC_OUTPUT_REMAP_NONE;
 527              		.loc 1 282 24 is_stmt 0 view .LVU151
 528 0026 C361     		str	r3, [r0, #28]
 283:../../CM7/Core/Src/main.c ****   if (HAL_RTC_Init(&hrtc) != HAL_OK)
 529              		.loc 1 283 3 is_stmt 1 view .LVU152
 283:../../CM7/Core/Src/main.c ****   if (HAL_RTC_Init(&hrtc) != HAL_OK)
 530              		.loc 1 283 25 is_stmt 0 view .LVU153
 531 0028 4361     		str	r3, [r0, #20]
 284:../../CM7/Core/Src/main.c ****   {
 532              		.loc 1 284 3 is_stmt 1 view .LVU154
ARM GAS  C:\Users\gigig\AppData\Local\Temp\cc3finZl.s 			page 24


 284:../../CM7/Core/Src/main.c ****   {
 533              		.loc 1 284 7 is_stmt 0 view .LVU155
 534 002a FFF7FEFF 		bl	HAL_RTC_Init
 535              	.LVL20:
 284:../../CM7/Core/Src/main.c ****   {
 536              		.loc 1 284 6 view .LVU156
 537 002e 10BB     		cbnz	r0, .L41
 295:../../CM7/Core/Src/main.c ****   sTime.Minutes = 0x0;
 538              		.loc 1 295 3 is_stmt 1 view .LVU157
 295:../../CM7/Core/Src/main.c ****   sTime.Minutes = 0x0;
 539              		.loc 1 295 15 is_stmt 0 view .LVU158
 540 0030 0023     		movs	r3, #0
 541 0032 8DF80430 		strb	r3, [sp, #4]
 296:../../CM7/Core/Src/main.c ****   sTime.Seconds = 0x0;
 542              		.loc 1 296 3 is_stmt 1 view .LVU159
 296:../../CM7/Core/Src/main.c ****   sTime.Seconds = 0x0;
 543              		.loc 1 296 17 is_stmt 0 view .LVU160
 544 0036 8DF80530 		strb	r3, [sp, #5]
 297:../../CM7/Core/Src/main.c ****   sTime.DayLightSaving = RTC_DAYLIGHTSAVING_NONE;
 545              		.loc 1 297 3 is_stmt 1 view .LVU161
 297:../../CM7/Core/Src/main.c ****   sTime.DayLightSaving = RTC_DAYLIGHTSAVING_NONE;
 546              		.loc 1 297 17 is_stmt 0 view .LVU162
 547 003a 8DF80630 		strb	r3, [sp, #6]
 298:../../CM7/Core/Src/main.c ****   sTime.StoreOperation = RTC_STOREOPERATION_RESET;
 548              		.loc 1 298 3 is_stmt 1 view .LVU163
 298:../../CM7/Core/Src/main.c ****   sTime.StoreOperation = RTC_STOREOPERATION_RESET;
 549              		.loc 1 298 24 is_stmt 0 view .LVU164
 550 003e 0493     		str	r3, [sp, #16]
 299:../../CM7/Core/Src/main.c ****   if (HAL_RTC_SetTime(&hrtc, &sTime, RTC_FORMAT_BCD) != HAL_OK)
 551              		.loc 1 299 3 is_stmt 1 view .LVU165
 299:../../CM7/Core/Src/main.c ****   if (HAL_RTC_SetTime(&hrtc, &sTime, RTC_FORMAT_BCD) != HAL_OK)
 552              		.loc 1 299 24 is_stmt 0 view .LVU166
 553 0040 0593     		str	r3, [sp, #20]
 300:../../CM7/Core/Src/main.c ****   {
 554              		.loc 1 300 3 is_stmt 1 view .LVU167
 300:../../CM7/Core/Src/main.c ****   {
 555              		.loc 1 300 7 is_stmt 0 view .LVU168
 556 0042 0122     		movs	r2, #1
 557 0044 01A9     		add	r1, sp, #4
 558 0046 0F48     		ldr	r0, .L44
 559 0048 FFF7FEFF 		bl	HAL_RTC_SetTime
 560              	.LVL21:
 300:../../CM7/Core/Src/main.c ****   {
 561              		.loc 1 300 6 view .LVU169
 562 004c A8B9     		cbnz	r0, .L42
 304:../../CM7/Core/Src/main.c ****   sDate.Month = RTC_MONTH_MARCH;
 563              		.loc 1 304 3 is_stmt 1 view .LVU170
 304:../../CM7/Core/Src/main.c ****   sDate.Month = RTC_MONTH_MARCH;
 564              		.loc 1 304 17 is_stmt 0 view .LVU171
 565 004e 0122     		movs	r2, #1
 566 0050 8DF80020 		strb	r2, [sp]
 305:../../CM7/Core/Src/main.c ****   sDate.Date = 0x13;
 567              		.loc 1 305 3 is_stmt 1 view .LVU172
 305:../../CM7/Core/Src/main.c ****   sDate.Date = 0x13;
 568              		.loc 1 305 15 is_stmt 0 view .LVU173
 569 0054 0323     		movs	r3, #3
 570 0056 8DF80130 		strb	r3, [sp, #1]
ARM GAS  C:\Users\gigig\AppData\Local\Temp\cc3finZl.s 			page 25


 306:../../CM7/Core/Src/main.c ****   sDate.Year = 0x24;
 571              		.loc 1 306 3 is_stmt 1 view .LVU174
 306:../../CM7/Core/Src/main.c ****   sDate.Year = 0x24;
 572              		.loc 1 306 14 is_stmt 0 view .LVU175
 573 005a 1323     		movs	r3, #19
 574 005c 8DF80230 		strb	r3, [sp, #2]
 307:../../CM7/Core/Src/main.c **** 
 575              		.loc 1 307 3 is_stmt 1 view .LVU176
 307:../../CM7/Core/Src/main.c **** 
 576              		.loc 1 307 14 is_stmt 0 view .LVU177
 577 0060 2423     		movs	r3, #36
 578 0062 8DF80330 		strb	r3, [sp, #3]
 309:../../CM7/Core/Src/main.c ****   {
 579              		.loc 1 309 3 is_stmt 1 view .LVU178
 309:../../CM7/Core/Src/main.c ****   {
 580              		.loc 1 309 7 is_stmt 0 view .LVU179
 581 0066 6946     		mov	r1, sp
 582 0068 0648     		ldr	r0, .L44
 583 006a FFF7FEFF 		bl	HAL_RTC_SetDate
 584              	.LVL22:
 309:../../CM7/Core/Src/main.c ****   {
 585              		.loc 1 309 6 view .LVU180
 586 006e 30B9     		cbnz	r0, .L43
 317:../../CM7/Core/Src/main.c **** 
 587              		.loc 1 317 1 view .LVU181
 588 0070 07B0     		add	sp, sp, #28
 589              	.LCFI9:
 590              		.cfi_remember_state
 591              		.cfi_def_cfa_offset 4
 592              		@ sp needed
 593 0072 5DF804FB 		ldr	pc, [sp], #4
 594              	.L41:
 595              	.LCFI10:
 596              		.cfi_restore_state
 286:../../CM7/Core/Src/main.c ****   }
 597              		.loc 1 286 5 is_stmt 1 view .LVU182
 598 0076 FFF7FEFF 		bl	Error_Handler
 599              	.LVL23:
 600              	.L42:
 302:../../CM7/Core/Src/main.c ****   }
 601              		.loc 1 302 5 view .LVU183
 602 007a FFF7FEFF 		bl	Error_Handler
 603              	.LVL24:
 604              	.L43:
 311:../../CM7/Core/Src/main.c ****   }
 605              		.loc 1 311 5 view .LVU184
 606 007e FFF7FEFF 		bl	Error_Handler
 607              	.LVL25:
 608              	.L45:
 609 0082 00BF     		.align	2
 610              	.L44:
 611 0084 00000000 		.word	.LANCHOR2
 612 0088 00400058 		.word	1476411392
 613              		.cfi_endproc
 614              	.LFE150:
 616              		.section	.text.SystemClock_Config,"ax",%progbits
 617              		.align	1
ARM GAS  C:\Users\gigig\AppData\Local\Temp\cc3finZl.s 			page 26


 618              		.global	SystemClock_Config
 619              		.syntax unified
 620              		.thumb
 621              		.thumb_func
 623              	SystemClock_Config:
 624              	.LFB149:
 198:../../CM7/Core/Src/main.c ****   RCC_OscInitTypeDef RCC_OscInitStruct = {0};
 625              		.loc 1 198 1 view -0
 626              		.cfi_startproc
 627              		@ args = 0, pretend = 0, frame = 112
 628              		@ frame_needed = 0, uses_anonymous_args = 0
 629 0000 00B5     		push	{lr}
 630              	.LCFI11:
 631              		.cfi_def_cfa_offset 4
 632              		.cfi_offset 14, -4
 633 0002 9DB0     		sub	sp, sp, #116
 634              	.LCFI12:
 635              		.cfi_def_cfa_offset 120
 199:../../CM7/Core/Src/main.c ****   RCC_ClkInitTypeDef RCC_ClkInitStruct = {0};
 636              		.loc 1 199 3 view .LVU186
 199:../../CM7/Core/Src/main.c ****   RCC_ClkInitTypeDef RCC_ClkInitStruct = {0};
 637              		.loc 1 199 22 is_stmt 0 view .LVU187
 638 0004 4C22     		movs	r2, #76
 639 0006 0021     		movs	r1, #0
 640 0008 09A8     		add	r0, sp, #36
 641 000a FFF7FEFF 		bl	memset
 642              	.LVL26:
 200:../../CM7/Core/Src/main.c **** 
 643              		.loc 1 200 3 is_stmt 1 view .LVU188
 200:../../CM7/Core/Src/main.c **** 
 644              		.loc 1 200 22 is_stmt 0 view .LVU189
 645 000e 2022     		movs	r2, #32
 646 0010 0021     		movs	r1, #0
 647 0012 01A8     		add	r0, sp, #4
 648 0014 FFF7FEFF 		bl	memset
 649              	.LVL27:
 204:../../CM7/Core/Src/main.c **** 
 650              		.loc 1 204 3 is_stmt 1 view .LVU190
 651 0018 0420     		movs	r0, #4
 652 001a FFF7FEFF 		bl	HAL_PWREx_ConfigSupply
 653              	.LVL28:
 208:../../CM7/Core/Src/main.c **** 
 654              		.loc 1 208 3 view .LVU191
 655              	.LBB11:
 208:../../CM7/Core/Src/main.c **** 
 656              		.loc 1 208 3 view .LVU192
 657 001e 0023     		movs	r3, #0
 658 0020 0093     		str	r3, [sp]
 208:../../CM7/Core/Src/main.c **** 
 659              		.loc 1 208 3 view .LVU193
 208:../../CM7/Core/Src/main.c **** 
 660              		.loc 1 208 3 view .LVU194
 661 0022 264B     		ldr	r3, .L53
 662 0024 DA6A     		ldr	r2, [r3, #44]
 663 0026 22F00102 		bic	r2, r2, #1
 664 002a DA62     		str	r2, [r3, #44]
 208:../../CM7/Core/Src/main.c **** 
ARM GAS  C:\Users\gigig\AppData\Local\Temp\cc3finZl.s 			page 27


 665              		.loc 1 208 3 view .LVU195
 666 002c DB6A     		ldr	r3, [r3, #44]
 667 002e 03F00103 		and	r3, r3, #1
 668 0032 0093     		str	r3, [sp]
 208:../../CM7/Core/Src/main.c **** 
 669              		.loc 1 208 3 view .LVU196
 670 0034 224A     		ldr	r2, .L53+4
 671 0036 9369     		ldr	r3, [r2, #24]
 672 0038 23F44043 		bic	r3, r3, #49152
 673 003c 43F40043 		orr	r3, r3, #32768
 674 0040 9361     		str	r3, [r2, #24]
 208:../../CM7/Core/Src/main.c **** 
 675              		.loc 1 208 3 view .LVU197
 676 0042 9369     		ldr	r3, [r2, #24]
 677 0044 03F44043 		and	r3, r3, #49152
 678 0048 0093     		str	r3, [sp]
 208:../../CM7/Core/Src/main.c **** 
 679              		.loc 1 208 3 view .LVU198
 680 004a 009B     		ldr	r3, [sp]
 681              	.LBE11:
 208:../../CM7/Core/Src/main.c **** 
 682              		.loc 1 208 3 view .LVU199
 210:../../CM7/Core/Src/main.c **** 
 683              		.loc 1 210 3 view .LVU200
 684              	.L47:
 210:../../CM7/Core/Src/main.c **** 
 685              		.loc 1 210 48 discriminator 1 view .LVU201
 210:../../CM7/Core/Src/main.c **** 
 686              		.loc 1 210 8 discriminator 1 view .LVU202
 210:../../CM7/Core/Src/main.c **** 
 687              		.loc 1 210 10 is_stmt 0 discriminator 1 view .LVU203
 688 004c 1C4B     		ldr	r3, .L53+4
 689 004e 9B69     		ldr	r3, [r3, #24]
 210:../../CM7/Core/Src/main.c **** 
 690              		.loc 1 210 8 discriminator 1 view .LVU204
 691 0050 13F4005F 		tst	r3, #8192
 692 0054 FAD0     		beq	.L47
 215:../../CM7/Core/Src/main.c ****                               |RCC_OSCILLATORTYPE_HSE;
 693              		.loc 1 215 3 is_stmt 1 view .LVU205
 215:../../CM7/Core/Src/main.c ****                               |RCC_OSCILLATORTYPE_HSE;
 694              		.loc 1 215 36 is_stmt 0 view .LVU206
 695 0056 0B23     		movs	r3, #11
 696 0058 0993     		str	r3, [sp, #36]
 217:../../CM7/Core/Src/main.c ****   RCC_OscInitStruct.HSIState = RCC_HSI_DIV1;
 697              		.loc 1 217 3 is_stmt 1 view .LVU207
 217:../../CM7/Core/Src/main.c ****   RCC_OscInitStruct.HSIState = RCC_HSI_DIV1;
 698              		.loc 1 217 30 is_stmt 0 view .LVU208
 699 005a 4FF4A023 		mov	r3, #327680
 700 005e 0A93     		str	r3, [sp, #40]
 218:../../CM7/Core/Src/main.c ****   RCC_OscInitStruct.HSICalibrationValue = RCC_HSICALIBRATION_DEFAULT;
 701              		.loc 1 218 3 is_stmt 1 view .LVU209
 218:../../CM7/Core/Src/main.c ****   RCC_OscInitStruct.HSICalibrationValue = RCC_HSICALIBRATION_DEFAULT;
 702              		.loc 1 218 30 is_stmt 0 view .LVU210
 703 0060 0122     		movs	r2, #1
 704 0062 0C92     		str	r2, [sp, #48]
 219:../../CM7/Core/Src/main.c ****   RCC_OscInitStruct.LSIState = RCC_LSI_ON;
 705              		.loc 1 219 3 is_stmt 1 view .LVU211
ARM GAS  C:\Users\gigig\AppData\Local\Temp\cc3finZl.s 			page 28


 219:../../CM7/Core/Src/main.c ****   RCC_OscInitStruct.LSIState = RCC_LSI_ON;
 706              		.loc 1 219 41 is_stmt 0 view .LVU212
 707 0064 4023     		movs	r3, #64
 708 0066 0D93     		str	r3, [sp, #52]
 220:../../CM7/Core/Src/main.c ****   RCC_OscInitStruct.PLL.PLLState = RCC_PLL_ON;
 709              		.loc 1 220 3 is_stmt 1 view .LVU213
 220:../../CM7/Core/Src/main.c ****   RCC_OscInitStruct.PLL.PLLState = RCC_PLL_ON;
 710              		.loc 1 220 30 is_stmt 0 view .LVU214
 711 0068 0E92     		str	r2, [sp, #56]
 221:../../CM7/Core/Src/main.c ****   RCC_OscInitStruct.PLL.PLLSource = RCC_PLLSOURCE_HSE;
 712              		.loc 1 221 3 is_stmt 1 view .LVU215
 221:../../CM7/Core/Src/main.c ****   RCC_OscInitStruct.PLL.PLLSource = RCC_PLLSOURCE_HSE;
 713              		.loc 1 221 34 is_stmt 0 view .LVU216
 714 006a 0223     		movs	r3, #2
 715 006c 1293     		str	r3, [sp, #72]
 222:../../CM7/Core/Src/main.c ****   RCC_OscInitStruct.PLL.PLLM = 1;
 716              		.loc 1 222 3 is_stmt 1 view .LVU217
 222:../../CM7/Core/Src/main.c ****   RCC_OscInitStruct.PLL.PLLM = 1;
 717              		.loc 1 222 35 is_stmt 0 view .LVU218
 718 006e 1393     		str	r3, [sp, #76]
 223:../../CM7/Core/Src/main.c ****   RCC_OscInitStruct.PLL.PLLN = 24;
 719              		.loc 1 223 3 is_stmt 1 view .LVU219
 223:../../CM7/Core/Src/main.c ****   RCC_OscInitStruct.PLL.PLLN = 24;
 720              		.loc 1 223 30 is_stmt 0 view .LVU220
 721 0070 1492     		str	r2, [sp, #80]
 224:../../CM7/Core/Src/main.c ****   RCC_OscInitStruct.PLL.PLLP = 2;
 722              		.loc 1 224 3 is_stmt 1 view .LVU221
 224:../../CM7/Core/Src/main.c ****   RCC_OscInitStruct.PLL.PLLP = 2;
 723              		.loc 1 224 30 is_stmt 0 view .LVU222
 724 0072 1822     		movs	r2, #24
 725 0074 1592     		str	r2, [sp, #84]
 225:../../CM7/Core/Src/main.c ****   RCC_OscInitStruct.PLL.PLLQ = 4;
 726              		.loc 1 225 3 is_stmt 1 view .LVU223
 225:../../CM7/Core/Src/main.c ****   RCC_OscInitStruct.PLL.PLLQ = 4;
 727              		.loc 1 225 30 is_stmt 0 view .LVU224
 728 0076 1693     		str	r3, [sp, #88]
 226:../../CM7/Core/Src/main.c ****   RCC_OscInitStruct.PLL.PLLR = 2;
 729              		.loc 1 226 3 is_stmt 1 view .LVU225
 226:../../CM7/Core/Src/main.c ****   RCC_OscInitStruct.PLL.PLLR = 2;
 730              		.loc 1 226 30 is_stmt 0 view .LVU226
 731 0078 0422     		movs	r2, #4
 732 007a 1792     		str	r2, [sp, #92]
 227:../../CM7/Core/Src/main.c ****   RCC_OscInitStruct.PLL.PLLRGE = RCC_PLL1VCIRANGE_3;
 733              		.loc 1 227 3 is_stmt 1 view .LVU227
 227:../../CM7/Core/Src/main.c ****   RCC_OscInitStruct.PLL.PLLRGE = RCC_PLL1VCIRANGE_3;
 734              		.loc 1 227 30 is_stmt 0 view .LVU228
 735 007c 1893     		str	r3, [sp, #96]
 228:../../CM7/Core/Src/main.c ****   RCC_OscInitStruct.PLL.PLLVCOSEL = RCC_PLL1VCOWIDE;
 736              		.loc 1 228 3 is_stmt 1 view .LVU229
 228:../../CM7/Core/Src/main.c ****   RCC_OscInitStruct.PLL.PLLVCOSEL = RCC_PLL1VCOWIDE;
 737              		.loc 1 228 32 is_stmt 0 view .LVU230
 738 007e 0C23     		movs	r3, #12
 739 0080 1993     		str	r3, [sp, #100]
 229:../../CM7/Core/Src/main.c ****   RCC_OscInitStruct.PLL.PLLFRACN = 0;
 740              		.loc 1 229 3 is_stmt 1 view .LVU231
 229:../../CM7/Core/Src/main.c ****   RCC_OscInitStruct.PLL.PLLFRACN = 0;
 741              		.loc 1 229 35 is_stmt 0 view .LVU232
ARM GAS  C:\Users\gigig\AppData\Local\Temp\cc3finZl.s 			page 29


 742 0082 0023     		movs	r3, #0
 743 0084 1A93     		str	r3, [sp, #104]
 230:../../CM7/Core/Src/main.c ****   if (HAL_RCC_OscConfig(&RCC_OscInitStruct) != HAL_OK)
 744              		.loc 1 230 3 is_stmt 1 view .LVU233
 230:../../CM7/Core/Src/main.c ****   if (HAL_RCC_OscConfig(&RCC_OscInitStruct) != HAL_OK)
 745              		.loc 1 230 34 is_stmt 0 view .LVU234
 746 0086 1B93     		str	r3, [sp, #108]
 231:../../CM7/Core/Src/main.c ****   {
 747              		.loc 1 231 3 is_stmt 1 view .LVU235
 231:../../CM7/Core/Src/main.c ****   {
 748              		.loc 1 231 7 is_stmt 0 view .LVU236
 749 0088 09A8     		add	r0, sp, #36
 750 008a FFF7FEFF 		bl	HAL_RCC_OscConfig
 751              	.LVL29:
 231:../../CM7/Core/Src/main.c ****   {
 752              		.loc 1 231 6 view .LVU237
 753 008e 88B9     		cbnz	r0, .L51
 238:../../CM7/Core/Src/main.c ****                               |RCC_CLOCKTYPE_PCLK1|RCC_CLOCKTYPE_PCLK2
 754              		.loc 1 238 3 is_stmt 1 view .LVU238
 238:../../CM7/Core/Src/main.c ****                               |RCC_CLOCKTYPE_PCLK1|RCC_CLOCKTYPE_PCLK2
 755              		.loc 1 238 31 is_stmt 0 view .LVU239
 756 0090 3F23     		movs	r3, #63
 757 0092 0193     		str	r3, [sp, #4]
 241:../../CM7/Core/Src/main.c ****   RCC_ClkInitStruct.SYSCLKDivider = RCC_SYSCLK_DIV1;
 758              		.loc 1 241 3 is_stmt 1 view .LVU240
 241:../../CM7/Core/Src/main.c ****   RCC_ClkInitStruct.SYSCLKDivider = RCC_SYSCLK_DIV1;
 759              		.loc 1 241 34 is_stmt 0 view .LVU241
 760 0094 0023     		movs	r3, #0
 761 0096 0293     		str	r3, [sp, #8]
 242:../../CM7/Core/Src/main.c ****   RCC_ClkInitStruct.AHBCLKDivider = RCC_HCLK_DIV1;
 762              		.loc 1 242 3 is_stmt 1 view .LVU242
 242:../../CM7/Core/Src/main.c ****   RCC_ClkInitStruct.AHBCLKDivider = RCC_HCLK_DIV1;
 763              		.loc 1 242 35 is_stmt 0 view .LVU243
 764 0098 0393     		str	r3, [sp, #12]
 243:../../CM7/Core/Src/main.c ****   RCC_ClkInitStruct.APB3CLKDivider = RCC_APB3_DIV1;
 765              		.loc 1 243 3 is_stmt 1 view .LVU244
 243:../../CM7/Core/Src/main.c ****   RCC_ClkInitStruct.APB3CLKDivider = RCC_APB3_DIV1;
 766              		.loc 1 243 35 is_stmt 0 view .LVU245
 767 009a 0493     		str	r3, [sp, #16]
 244:../../CM7/Core/Src/main.c ****   RCC_ClkInitStruct.APB1CLKDivider = RCC_APB1_DIV1;
 768              		.loc 1 244 3 is_stmt 1 view .LVU246
 244:../../CM7/Core/Src/main.c ****   RCC_ClkInitStruct.APB1CLKDivider = RCC_APB1_DIV1;
 769              		.loc 1 244 36 is_stmt 0 view .LVU247
 770 009c 0593     		str	r3, [sp, #20]
 245:../../CM7/Core/Src/main.c ****   RCC_ClkInitStruct.APB2CLKDivider = RCC_APB2_DIV1;
 771              		.loc 1 245 3 is_stmt 1 view .LVU248
 245:../../CM7/Core/Src/main.c ****   RCC_ClkInitStruct.APB2CLKDivider = RCC_APB2_DIV1;
 772              		.loc 1 245 36 is_stmt 0 view .LVU249
 773 009e 0693     		str	r3, [sp, #24]
 246:../../CM7/Core/Src/main.c ****   RCC_ClkInitStruct.APB4CLKDivider = RCC_APB4_DIV1;
 774              		.loc 1 246 3 is_stmt 1 view .LVU250
 246:../../CM7/Core/Src/main.c ****   RCC_ClkInitStruct.APB4CLKDivider = RCC_APB4_DIV1;
 775              		.loc 1 246 36 is_stmt 0 view .LVU251
 776 00a0 0793     		str	r3, [sp, #28]
 247:../../CM7/Core/Src/main.c **** 
 777              		.loc 1 247 3 is_stmt 1 view .LVU252
 247:../../CM7/Core/Src/main.c **** 
ARM GAS  C:\Users\gigig\AppData\Local\Temp\cc3finZl.s 			page 30


 778              		.loc 1 247 36 is_stmt 0 view .LVU253
 779 00a2 0893     		str	r3, [sp, #32]
 249:../../CM7/Core/Src/main.c ****   {
 780              		.loc 1 249 3 is_stmt 1 view .LVU254
 249:../../CM7/Core/Src/main.c ****   {
 781              		.loc 1 249 7 is_stmt 0 view .LVU255
 782 00a4 0121     		movs	r1, #1
 783 00a6 01A8     		add	r0, sp, #4
 784 00a8 FFF7FEFF 		bl	HAL_RCC_ClockConfig
 785              	.LVL30:
 249:../../CM7/Core/Src/main.c ****   {
 786              		.loc 1 249 6 view .LVU256
 787 00ac 20B9     		cbnz	r0, .L52
 253:../../CM7/Core/Src/main.c **** 
 788              		.loc 1 253 1 view .LVU257
 789 00ae 1DB0     		add	sp, sp, #116
 790              	.LCFI13:
 791              		.cfi_remember_state
 792              		.cfi_def_cfa_offset 4
 793              		@ sp needed
 794 00b0 5DF804FB 		ldr	pc, [sp], #4
 795              	.L51:
 796              	.LCFI14:
 797              		.cfi_restore_state
 233:../../CM7/Core/Src/main.c ****   }
 798              		.loc 1 233 5 is_stmt 1 view .LVU258
 799 00b4 FFF7FEFF 		bl	Error_Handler
 800              	.LVL31:
 801              	.L52:
 251:../../CM7/Core/Src/main.c ****   }
 802              		.loc 1 251 5 view .LVU259
 803 00b8 FFF7FEFF 		bl	Error_Handler
 804              	.LVL32:
 805              	.L54:
 806              		.align	2
 807              	.L53:
 808 00bc 00040058 		.word	1476396032
 809 00c0 00480258 		.word	1476544512
 810              		.cfi_endproc
 811              	.LFE149:
 813              		.section	.text.main,"ax",%progbits
 814              		.align	1
 815              		.global	main
 816              		.syntax unified
 817              		.thumb
 818              		.thumb_func
 820              	main:
 821              	.LFB148:
  88:../../CM7/Core/Src/main.c ****   /* USER CODE BEGIN 1 */
 822              		.loc 1 88 1 view -0
 823              		.cfi_startproc
 824              		@ args = 0, pretend = 0, frame = 8
 825              		@ frame_needed = 0, uses_anonymous_args = 0
 826 0000 00B5     		push	{lr}
 827              	.LCFI15:
 828              		.cfi_def_cfa_offset 4
 829              		.cfi_offset 14, -4
ARM GAS  C:\Users\gigig\AppData\Local\Temp\cc3finZl.s 			page 31


 830 0002 83B0     		sub	sp, sp, #12
 831              	.LCFI16:
 832              		.cfi_def_cfa_offset 16
  93:../../CM7/Core/Src/main.c **** /* USER CODE END Boot_Mode_Sequence_0 */
 833              		.loc 1 93 3 view .LVU261
  98:../../CM7/Core/Src/main.c ****   while((__HAL_RCC_GET_FLAG(RCC_FLAG_D2CKRDY) != RESET) && (timeout-- > 0));
 834              		.loc 1 98 3 view .LVU262
 835              	.LVL33:
  99:../../CM7/Core/Src/main.c ****   if ( timeout < 0 )
 836              		.loc 1 99 3 view .LVU263
  98:../../CM7/Core/Src/main.c ****   while((__HAL_RCC_GET_FLAG(RCC_FLAG_D2CKRDY) != RESET) && (timeout-- > 0));
 837              		.loc 1 98 11 is_stmt 0 view .LVU264
 838 0004 4FF6FF73 		movw	r3, #65535
  99:../../CM7/Core/Src/main.c ****   if ( timeout < 0 )
 839              		.loc 1 99 8 view .LVU265
 840 0008 00E0     		b	.L57
 841              	.LVL34:
 842              	.L63:
  99:../../CM7/Core/Src/main.c ****   if ( timeout < 0 )
 843              		.loc 1 99 68 view .LVU266
 844 000a 1346     		mov	r3, r2
 845              	.LVL35:
 846              	.L57:
  99:../../CM7/Core/Src/main.c ****   if ( timeout < 0 )
 847              		.loc 1 99 76 is_stmt 1 discriminator 2 view .LVU267
  99:../../CM7/Core/Src/main.c ****   if ( timeout < 0 )
 848              		.loc 1 99 8 discriminator 2 view .LVU268
  99:../../CM7/Core/Src/main.c ****   if ( timeout < 0 )
 849              		.loc 1 99 10 is_stmt 0 discriminator 2 view .LVU269
 850 000c 244A     		ldr	r2, .L68
 851 000e 1268     		ldr	r2, [r2]
  99:../../CM7/Core/Src/main.c ****   if ( timeout < 0 )
 852              		.loc 1 99 8 discriminator 2 view .LVU270
 853 0010 12F4004F 		tst	r2, #32768
 854 0014 03D0     		beq	.L56
  99:../../CM7/Core/Src/main.c ****   if ( timeout < 0 )
 855              		.loc 1 99 68 discriminator 1 view .LVU271
 856 0016 5A1E     		subs	r2, r3, #1
 857              	.LVL36:
  99:../../CM7/Core/Src/main.c ****   if ( timeout < 0 )
 858              		.loc 1 99 57 discriminator 1 view .LVU272
 859 0018 002B     		cmp	r3, #0
 860 001a F6DC     		bgt	.L63
  99:../../CM7/Core/Src/main.c ****   if ( timeout < 0 )
 861              		.loc 1 99 68 view .LVU273
 862 001c 1346     		mov	r3, r2
 863              	.LVL37:
 864              	.L56:
 100:../../CM7/Core/Src/main.c ****   {
 865              		.loc 1 100 3 is_stmt 1 view .LVU274
 100:../../CM7/Core/Src/main.c ****   {
 866              		.loc 1 100 6 is_stmt 0 view .LVU275
 867 001e 002B     		cmp	r3, #0
 868 0020 1ADB     		blt	.L66
 108:../../CM7/Core/Src/main.c **** 
 869              		.loc 1 108 3 is_stmt 1 view .LVU276
 870 0022 FFF7FEFF 		bl	HAL_Init
ARM GAS  C:\Users\gigig\AppData\Local\Temp\cc3finZl.s 			page 32


 871              	.LVL38:
 115:../../CM7/Core/Src/main.c **** /* USER CODE BEGIN Boot_Mode_Sequence_2 */
 872              		.loc 1 115 3 view .LVU277
 873 0026 FFF7FEFF 		bl	SystemClock_Config
 874              	.LVL39:
 120:../../CM7/Core/Src/main.c **** /*Take HSEM */
 875              		.loc 1 120 1 view .LVU278
 876              	.LBB12:
 120:../../CM7/Core/Src/main.c **** /*Take HSEM */
 877              		.loc 1 120 1 view .LVU279
 120:../../CM7/Core/Src/main.c **** /*Take HSEM */
 878              		.loc 1 120 1 view .LVU280
 879 002a 1D4B     		ldr	r3, .L68
 880 002c D3F8E020 		ldr	r2, [r3, #224]
 881 0030 42F00072 		orr	r2, r2, #33554432
 882 0034 C3F8E020 		str	r2, [r3, #224]
 120:../../CM7/Core/Src/main.c **** /*Take HSEM */
 883              		.loc 1 120 1 view .LVU281
 884 0038 D3F8E030 		ldr	r3, [r3, #224]
 885 003c 03F00073 		and	r3, r3, #33554432
 886 0040 0193     		str	r3, [sp, #4]
 120:../../CM7/Core/Src/main.c **** /*Take HSEM */
 887              		.loc 1 120 1 view .LVU282
 888 0042 019B     		ldr	r3, [sp, #4]
 889              	.LBE12:
 120:../../CM7/Core/Src/main.c **** /*Take HSEM */
 890              		.loc 1 120 1 view .LVU283
 122:../../CM7/Core/Src/main.c **** /*Release HSEM in order to notify the CPU2(CM4)*/
 891              		.loc 1 122 1 view .LVU284
 892 0044 0020     		movs	r0, #0
 893 0046 FFF7FEFF 		bl	HAL_HSEM_FastTake
 894              	.LVL40:
 124:../../CM7/Core/Src/main.c **** /* wait until CPU2 wakes up from stop mode */
 895              		.loc 1 124 1 view .LVU285
 896 004a 0021     		movs	r1, #0
 897 004c 0846     		mov	r0, r1
 898 004e FFF7FEFF 		bl	HAL_HSEM_Release
 899              	.LVL41:
 126:../../CM7/Core/Src/main.c **** while((__HAL_RCC_GET_FLAG(RCC_FLAG_D2CKRDY) == RESET) && (timeout-- > 0));
 900              		.loc 1 126 1 view .LVU286
 127:../../CM7/Core/Src/main.c **** if ( timeout < 0 )
 901              		.loc 1 127 1 view .LVU287
 126:../../CM7/Core/Src/main.c **** while((__HAL_RCC_GET_FLAG(RCC_FLAG_D2CKRDY) == RESET) && (timeout-- > 0));
 902              		.loc 1 126 9 is_stmt 0 view .LVU288
 903 0052 4FF6FF73 		movw	r3, #65535
 127:../../CM7/Core/Src/main.c **** if ( timeout < 0 )
 904              		.loc 1 127 6 view .LVU289
 905 0056 02E0     		b	.L60
 906              	.LVL42:
 907              	.L66:
 102:../../CM7/Core/Src/main.c ****   }
 908              		.loc 1 102 3 is_stmt 1 view .LVU290
 909 0058 FFF7FEFF 		bl	Error_Handler
 910              	.LVL43:
 911              	.L64:
 127:../../CM7/Core/Src/main.c **** if ( timeout < 0 )
 912              		.loc 1 127 66 is_stmt 0 view .LVU291
ARM GAS  C:\Users\gigig\AppData\Local\Temp\cc3finZl.s 			page 33


 913 005c 1346     		mov	r3, r2
 914              	.LVL44:
 915              	.L60:
 127:../../CM7/Core/Src/main.c **** if ( timeout < 0 )
 916              		.loc 1 127 74 is_stmt 1 discriminator 2 view .LVU292
 127:../../CM7/Core/Src/main.c **** if ( timeout < 0 )
 917              		.loc 1 127 6 discriminator 2 view .LVU293
 127:../../CM7/Core/Src/main.c **** if ( timeout < 0 )
 918              		.loc 1 127 8 is_stmt 0 discriminator 2 view .LVU294
 919 005e 104A     		ldr	r2, .L68
 920 0060 1268     		ldr	r2, [r2]
 127:../../CM7/Core/Src/main.c **** if ( timeout < 0 )
 921              		.loc 1 127 6 discriminator 2 view .LVU295
 922 0062 12F4004F 		tst	r2, #32768
 923 0066 03D1     		bne	.L59
 127:../../CM7/Core/Src/main.c **** if ( timeout < 0 )
 924              		.loc 1 127 66 discriminator 1 view .LVU296
 925 0068 5A1E     		subs	r2, r3, #1
 926              	.LVL45:
 127:../../CM7/Core/Src/main.c **** if ( timeout < 0 )
 927              		.loc 1 127 55 discriminator 1 view .LVU297
 928 006a 002B     		cmp	r3, #0
 929 006c F6DC     		bgt	.L64
 127:../../CM7/Core/Src/main.c **** if ( timeout < 0 )
 930              		.loc 1 127 66 view .LVU298
 931 006e 1346     		mov	r3, r2
 932              	.LVL46:
 933              	.L59:
 128:../../CM7/Core/Src/main.c **** {
 934              		.loc 1 128 1 is_stmt 1 view .LVU299
 128:../../CM7/Core/Src/main.c **** {
 935              		.loc 1 128 4 is_stmt 0 view .LVU300
 936 0070 002B     		cmp	r3, #0
 937 0072 13DB     		blt	.L67
 139:../../CM7/Core/Src/main.c ****   MX_USART3_UART_Init();
 938              		.loc 1 139 3 is_stmt 1 view .LVU301
 939 0074 FFF7FEFF 		bl	MX_GPIO_Init
 940              	.LVL47:
 140:../../CM7/Core/Src/main.c ****   MX_USB_OTG_FS_PCD_Init();
 941              		.loc 1 140 3 view .LVU302
 942 0078 FFF7FEFF 		bl	MX_USART3_UART_Init
 943              	.LVL48:
 141:../../CM7/Core/Src/main.c ****   MX_RTC_Init();
 944              		.loc 1 141 3 view .LVU303
 945 007c FFF7FEFF 		bl	MX_USB_OTG_FS_PCD_Init
 946              	.LVL49:
 142:../../CM7/Core/Src/main.c ****   /* USER CODE BEGIN 2 */
 947              		.loc 1 142 3 view .LVU304
 948 0080 FFF7FEFF 		bl	MX_RTC_Init
 949              	.LVL50:
 148:../../CM7/Core/Src/main.c **** 
 950              		.loc 1 148 3 view .LVU305
 951 0084 FFF7FEFF 		bl	osKernelInitialize
 952              	.LVL51:
 168:../../CM7/Core/Src/main.c **** 
 953              		.loc 1 168 3 view .LVU306
 168:../../CM7/Core/Src/main.c **** 
ARM GAS  C:\Users\gigig\AppData\Local\Temp\cc3finZl.s 			page 34


 954              		.loc 1 168 23 is_stmt 0 view .LVU307
 955 0088 064A     		ldr	r2, .L68+4
 956 008a 0021     		movs	r1, #0
 957 008c 0648     		ldr	r0, .L68+8
 958 008e FFF7FEFF 		bl	osThreadNew
 959              	.LVL52:
 168:../../CM7/Core/Src/main.c **** 
 960              		.loc 1 168 21 view .LVU308
 961 0092 064B     		ldr	r3, .L68+12
 962 0094 1860     		str	r0, [r3]
 179:../../CM7/Core/Src/main.c **** 
 963              		.loc 1 179 3 is_stmt 1 view .LVU309
 964 0096 FFF7FEFF 		bl	osKernelStart
 965              	.LVL53:
 966              	.L62:
 184:../../CM7/Core/Src/main.c ****   {
 967              		.loc 1 184 3 discriminator 1 view .LVU310
 189:../../CM7/Core/Src/main.c ****   /* USER CODE END 3 */
 968              		.loc 1 189 3 discriminator 1 view .LVU311
 184:../../CM7/Core/Src/main.c ****   {
 969              		.loc 1 184 9 discriminator 1 view .LVU312
 970 009a FEE7     		b	.L62
 971              	.LVL54:
 972              	.L67:
 130:../../CM7/Core/Src/main.c **** }
 973              		.loc 1 130 1 view .LVU313
 974 009c FFF7FEFF 		bl	Error_Handler
 975              	.LVL55:
 976              	.L69:
 130:../../CM7/Core/Src/main.c **** }
 977              		.loc 1 130 1 is_stmt 0 view .LVU314
 978              		.align	2
 979              	.L68:
 980 00a0 00440258 		.word	1476543488
 981 00a4 00000000 		.word	.LANCHOR3
 982 00a8 00000000 		.word	StartDefaultTask
 983 00ac 00000000 		.word	.LANCHOR4
 984              		.cfi_endproc
 985              	.LFE148:
 987              		.global	defaultTask_attributes
 988              		.section	.rodata.str1.4,"aMS",%progbits,1
 989              		.align	2
 990              	.LC0:
 991 0000 64656661 		.ascii	"defaultTask\000"
 991      756C7454 
 991      61736B00 
 992              		.global	defaultTaskHandle
 993              		.global	hpcd_USB_OTG_FS
 994              		.global	huart3
 995              		.global	hrtc
 996              		.section	.bss.defaultTaskHandle,"aw",%nobits
 997              		.align	2
 998              		.set	.LANCHOR4,. + 0
 1001              	defaultTaskHandle:
 1002 0000 00000000 		.space	4
 1003              		.section	.bss.hpcd_USB_OTG_FS,"aw",%nobits
 1004              		.align	2
ARM GAS  C:\Users\gigig\AppData\Local\Temp\cc3finZl.s 			page 35


 1005              		.set	.LANCHOR1,. + 0
 1008              	hpcd_USB_OTG_FS:
 1009 0000 00000000 		.space	1292
 1009      00000000 
 1009      00000000 
 1009      00000000 
 1009      00000000 
 1010              		.section	.bss.hrtc,"aw",%nobits
 1011              		.align	2
 1012              		.set	.LANCHOR2,. + 0
 1015              	hrtc:
 1016 0000 00000000 		.space	36
 1016      00000000 
 1016      00000000 
 1016      00000000 
 1016      00000000 
 1017              		.section	.bss.huart3,"aw",%nobits
 1018              		.align	2
 1019              		.set	.LANCHOR0,. + 0
 1022              	huart3:
 1023 0000 00000000 		.space	148
 1023      00000000 
 1023      00000000 
 1023      00000000 
 1023      00000000 
 1024              		.section	.rodata.defaultTask_attributes,"a"
 1025              		.align	2
 1026              		.set	.LANCHOR3,. + 0
 1029              	defaultTask_attributes:
 1030 0000 00000000 		.word	.LC0
 1031 0004 00000000 		.space	16
 1031      00000000 
 1031      00000000 
 1031      00000000 
 1032 0014 00020000 		.word	512
 1033 0018 18000000 		.word	24
 1034 001c 00000000 		.space	8
 1034      00000000 
 1035              		.text
 1036              	.Letext0:
 1037              		.file 3 "c:\\program files (x86)\\gnu arm embedded toolchain\\10 2021.10\\arm-none-eabi\\include\\
 1038              		.file 4 "c:\\program files (x86)\\gnu arm embedded toolchain\\10 2021.10\\arm-none-eabi\\include\\
 1039              		.file 5 "../../Drivers/CMSIS/Device/ST/STM32H7xx/Include/stm32h755xx.h"
 1040              		.file 6 "../../Drivers/CMSIS/Device/ST/STM32H7xx/Include/stm32h7xx.h"
 1041              		.file 7 "../../Drivers/STM32H7xx_HAL_Driver/Inc/stm32h7xx_hal_def.h"
 1042              		.file 8 "../../Drivers/STM32H7xx_HAL_Driver/Inc/stm32h7xx_hal_rcc.h"
 1043              		.file 9 "../../Drivers/STM32H7xx_HAL_Driver/Inc/stm32h7xx_hal_gpio.h"
 1044              		.file 10 "../../Drivers/STM32H7xx_HAL_Driver/Inc/stm32h7xx_hal_dma.h"
 1045              		.file 11 "../../Drivers/STM32H7xx_HAL_Driver/Inc/stm32h7xx_hal_rtc.h"
 1046              		.file 12 "../../Drivers/STM32H7xx_HAL_Driver/Inc/stm32h7xx_hal_tim.h"
 1047              		.file 13 "../../Drivers/STM32H7xx_HAL_Driver/Inc/stm32h7xx_hal_uart.h"
 1048              		.file 14 "../../Drivers/STM32H7xx_HAL_Driver/Inc/stm32h7xx_ll_usb.h"
 1049              		.file 15 "../../Drivers/STM32H7xx_HAL_Driver/Inc/stm32h7xx_hal_pcd.h"
 1050              		.file 16 "../../Middlewares/Third_Party/FreeRTOS/Source/CMSIS_RTOS_V2/cmsis_os2.h"
 1051              		.file 17 "../../Drivers/STM32H7xx_HAL_Driver/Inc/stm32h7xx_hal.h"
 1052              		.file 18 "../../Drivers/STM32H7xx_HAL_Driver/Inc/stm32h7xx_hal_uart_ex.h"
 1053              		.file 19 "../../Drivers/STM32H7xx_HAL_Driver/Inc/stm32h7xx_hal_pwr_ex.h"
ARM GAS  C:\Users\gigig\AppData\Local\Temp\cc3finZl.s 			page 36


 1054              		.file 20 "../../Drivers/STM32H7xx_HAL_Driver/Inc/stm32h7xx_hal_hsem.h"
 1055              		.file 21 "<built-in>"
ARM GAS  C:\Users\gigig\AppData\Local\Temp\cc3finZl.s 			page 37


DEFINED SYMBOLS
                            *ABS*:00000000 main.c
C:\Users\gigig\AppData\Local\Temp\cc3finZl.s:19     .text.MX_GPIO_Init:00000000 $t
C:\Users\gigig\AppData\Local\Temp\cc3finZl.s:24     .text.MX_GPIO_Init:00000000 MX_GPIO_Init
C:\Users\gigig\AppData\Local\Temp\cc3finZl.s:158    .text.MX_GPIO_Init:000000ac $d
C:\Users\gigig\AppData\Local\Temp\cc3finZl.s:164    .text.StartDefaultTask:00000000 $t
C:\Users\gigig\AppData\Local\Temp\cc3finZl.s:170    .text.StartDefaultTask:00000000 StartDefaultTask
C:\Users\gigig\AppData\Local\Temp\cc3finZl.s:201    .text.StartDefaultTask:00000014 $d
C:\Users\gigig\AppData\Local\Temp\cc3finZl.s:206    .text.HAL_TIM_PeriodElapsedCallback:00000000 $t
C:\Users\gigig\AppData\Local\Temp\cc3finZl.s:212    .text.HAL_TIM_PeriodElapsedCallback:00000000 HAL_TIM_PeriodElapsedCallback
C:\Users\gigig\AppData\Local\Temp\cc3finZl.s:246    .text.HAL_TIM_PeriodElapsedCallback:00000014 $d
C:\Users\gigig\AppData\Local\Temp\cc3finZl.s:251    .text.Error_Handler:00000000 $t
C:\Users\gigig\AppData\Local\Temp\cc3finZl.s:257    .text.Error_Handler:00000000 Error_Handler
C:\Users\gigig\AppData\Local\Temp\cc3finZl.s:289    .text.MX_USART3_UART_Init:00000000 $t
C:\Users\gigig\AppData\Local\Temp\cc3finZl.s:294    .text.MX_USART3_UART_Init:00000000 MX_USART3_UART_Init
C:\Users\gigig\AppData\Local\Temp\cc3finZl.s:393    .text.MX_USART3_UART_Init:00000058 $d
C:\Users\gigig\AppData\Local\Temp\cc3finZl.s:399    .text.MX_USB_OTG_FS_PCD_Init:00000000 $t
C:\Users\gigig\AppData\Local\Temp\cc3finZl.s:404    .text.MX_USB_OTG_FS_PCD_Init:00000000 MX_USB_OTG_FS_PCD_Init
C:\Users\gigig\AppData\Local\Temp\cc3finZl.s:469    .text.MX_USB_OTG_FS_PCD_Init:00000030 $d
C:\Users\gigig\AppData\Local\Temp\cc3finZl.s:475    .text.MX_RTC_Init:00000000 $t
C:\Users\gigig\AppData\Local\Temp\cc3finZl.s:480    .text.MX_RTC_Init:00000000 MX_RTC_Init
C:\Users\gigig\AppData\Local\Temp\cc3finZl.s:611    .text.MX_RTC_Init:00000084 $d
C:\Users\gigig\AppData\Local\Temp\cc3finZl.s:617    .text.SystemClock_Config:00000000 $t
C:\Users\gigig\AppData\Local\Temp\cc3finZl.s:623    .text.SystemClock_Config:00000000 SystemClock_Config
C:\Users\gigig\AppData\Local\Temp\cc3finZl.s:808    .text.SystemClock_Config:000000bc $d
C:\Users\gigig\AppData\Local\Temp\cc3finZl.s:814    .text.main:00000000 $t
C:\Users\gigig\AppData\Local\Temp\cc3finZl.s:820    .text.main:00000000 main
C:\Users\gigig\AppData\Local\Temp\cc3finZl.s:980    .text.main:000000a0 $d
C:\Users\gigig\AppData\Local\Temp\cc3finZl.s:1029   .rodata.defaultTask_attributes:00000000 defaultTask_attributes
C:\Users\gigig\AppData\Local\Temp\cc3finZl.s:989    .rodata.str1.4:00000000 $d
C:\Users\gigig\AppData\Local\Temp\cc3finZl.s:1001   .bss.defaultTaskHandle:00000000 defaultTaskHandle
C:\Users\gigig\AppData\Local\Temp\cc3finZl.s:1008   .bss.hpcd_USB_OTG_FS:00000000 hpcd_USB_OTG_FS
C:\Users\gigig\AppData\Local\Temp\cc3finZl.s:1022   .bss.huart3:00000000 huart3
C:\Users\gigig\AppData\Local\Temp\cc3finZl.s:1015   .bss.hrtc:00000000 hrtc
C:\Users\gigig\AppData\Local\Temp\cc3finZl.s:997    .bss.defaultTaskHandle:00000000 $d
C:\Users\gigig\AppData\Local\Temp\cc3finZl.s:1004   .bss.hpcd_USB_OTG_FS:00000000 $d
C:\Users\gigig\AppData\Local\Temp\cc3finZl.s:1011   .bss.hrtc:00000000 $d
C:\Users\gigig\AppData\Local\Temp\cc3finZl.s:1018   .bss.huart3:00000000 $d
C:\Users\gigig\AppData\Local\Temp\cc3finZl.s:1025   .rodata.defaultTask_attributes:00000000 $d

UNDEFINED SYMBOLS
HAL_GPIO_WritePin
HAL_GPIO_Init
HAL_GPIO_TogglePin
osDelay
HAL_IncTick
HAL_UART_Init
HAL_UARTEx_SetTxFifoThreshold
HAL_UARTEx_SetRxFifoThreshold
HAL_UARTEx_DisableFifoMode
HAL_PCD_Init
HAL_RTC_Init
HAL_RTC_SetTime
HAL_RTC_SetDate
memset
HAL_PWREx_ConfigSupply
HAL_RCC_OscConfig
ARM GAS  C:\Users\gigig\AppData\Local\Temp\cc3finZl.s 			page 38


HAL_RCC_ClockConfig
HAL_Init
HAL_HSEM_FastTake
HAL_HSEM_Release
osKernelInitialize
osThreadNew
osKernelStart
