ARM GAS  C:\Users\gigig\AppData\Local\Temp\ccBJNrpK.s 			page 1


   1              		.cpu cortex-m7
   2              		.arch armv7e-m
   3              		.fpu fpv5-d16
   4              		.eabi_attribute 28, 1
   5              		.eabi_attribute 20, 1
   6              		.eabi_attribute 21, 1
   7              		.eabi_attribute 23, 3
   8              		.eabi_attribute 24, 1
   9              		.eabi_attribute 25, 1
  10              		.eabi_attribute 26, 1
  11              		.eabi_attribute 30, 1
  12              		.eabi_attribute 34, 1
  13              		.eabi_attribute 18, 4
  14              		.file	"stm32h7xx_ll_usb.c"
  15              		.text
  16              	.Ltext0:
  17              		.cfi_sections	.debug_frame
  18              		.section	.text.USB_CoreReset,"ax",%progbits
  19              		.align	1
  20              		.syntax unified
  21              		.thumb
  22              		.thumb_func
  24              	USB_CoreReset:
  25              	.LVL0:
  26              	.LFB178:
  27              		.file 1 "../../Drivers/STM32H7xx_HAL_Driver/Src/stm32h7xx_ll_usb.c"
   1:../../Drivers/STM32H7xx_HAL_Driver/Src/stm32h7xx_ll_usb.c **** /**
   2:../../Drivers/STM32H7xx_HAL_Driver/Src/stm32h7xx_ll_usb.c ****   ******************************************************************************
   3:../../Drivers/STM32H7xx_HAL_Driver/Src/stm32h7xx_ll_usb.c ****   * @file    stm32h7xx_ll_usb.c
   4:../../Drivers/STM32H7xx_HAL_Driver/Src/stm32h7xx_ll_usb.c ****   * @author  MCD Application Team
   5:../../Drivers/STM32H7xx_HAL_Driver/Src/stm32h7xx_ll_usb.c ****   * @brief   USB Low Layer HAL module driver.
   6:../../Drivers/STM32H7xx_HAL_Driver/Src/stm32h7xx_ll_usb.c ****   *
   7:../../Drivers/STM32H7xx_HAL_Driver/Src/stm32h7xx_ll_usb.c ****   *          This file provides firmware functions to manage the following
   8:../../Drivers/STM32H7xx_HAL_Driver/Src/stm32h7xx_ll_usb.c ****   *          functionalities of the USB Peripheral Controller:
   9:../../Drivers/STM32H7xx_HAL_Driver/Src/stm32h7xx_ll_usb.c ****   *           + Initialization/de-initialization functions
  10:../../Drivers/STM32H7xx_HAL_Driver/Src/stm32h7xx_ll_usb.c ****   *           + I/O operation functions
  11:../../Drivers/STM32H7xx_HAL_Driver/Src/stm32h7xx_ll_usb.c ****   *           + Peripheral Control functions
  12:../../Drivers/STM32H7xx_HAL_Driver/Src/stm32h7xx_ll_usb.c ****   *           + Peripheral State functions
  13:../../Drivers/STM32H7xx_HAL_Driver/Src/stm32h7xx_ll_usb.c ****   *
  14:../../Drivers/STM32H7xx_HAL_Driver/Src/stm32h7xx_ll_usb.c ****   ******************************************************************************
  15:../../Drivers/STM32H7xx_HAL_Driver/Src/stm32h7xx_ll_usb.c ****   * @attention
  16:../../Drivers/STM32H7xx_HAL_Driver/Src/stm32h7xx_ll_usb.c ****   *
  17:../../Drivers/STM32H7xx_HAL_Driver/Src/stm32h7xx_ll_usb.c ****   * Copyright (c) 2017 STMicroelectronics.
  18:../../Drivers/STM32H7xx_HAL_Driver/Src/stm32h7xx_ll_usb.c ****   * All rights reserved.
  19:../../Drivers/STM32H7xx_HAL_Driver/Src/stm32h7xx_ll_usb.c ****   *
  20:../../Drivers/STM32H7xx_HAL_Driver/Src/stm32h7xx_ll_usb.c ****   * This software is licensed under terms that can be found in the LICENSE file
  21:../../Drivers/STM32H7xx_HAL_Driver/Src/stm32h7xx_ll_usb.c ****   * in the root directory of this software component.
  22:../../Drivers/STM32H7xx_HAL_Driver/Src/stm32h7xx_ll_usb.c ****   * If no LICENSE file comes with this software, it is provided AS-IS.
  23:../../Drivers/STM32H7xx_HAL_Driver/Src/stm32h7xx_ll_usb.c ****   *
  24:../../Drivers/STM32H7xx_HAL_Driver/Src/stm32h7xx_ll_usb.c ****   ******************************************************************************
  25:../../Drivers/STM32H7xx_HAL_Driver/Src/stm32h7xx_ll_usb.c ****   @verbatim
  26:../../Drivers/STM32H7xx_HAL_Driver/Src/stm32h7xx_ll_usb.c ****   ==============================================================================
  27:../../Drivers/STM32H7xx_HAL_Driver/Src/stm32h7xx_ll_usb.c ****                     ##### How to use this driver #####
  28:../../Drivers/STM32H7xx_HAL_Driver/Src/stm32h7xx_ll_usb.c ****   ==============================================================================
  29:../../Drivers/STM32H7xx_HAL_Driver/Src/stm32h7xx_ll_usb.c ****     [..]
  30:../../Drivers/STM32H7xx_HAL_Driver/Src/stm32h7xx_ll_usb.c ****       (#) Fill parameters of Init structure in USB_CfgTypeDef structure.
  31:../../Drivers/STM32H7xx_HAL_Driver/Src/stm32h7xx_ll_usb.c **** 
ARM GAS  C:\Users\gigig\AppData\Local\Temp\ccBJNrpK.s 			page 2


  32:../../Drivers/STM32H7xx_HAL_Driver/Src/stm32h7xx_ll_usb.c ****       (#) Call USB_CoreInit() API to initialize the USB Core peripheral.
  33:../../Drivers/STM32H7xx_HAL_Driver/Src/stm32h7xx_ll_usb.c **** 
  34:../../Drivers/STM32H7xx_HAL_Driver/Src/stm32h7xx_ll_usb.c ****       (#) The upper HAL HCD/PCD driver will call the right routines for its internal processes.
  35:../../Drivers/STM32H7xx_HAL_Driver/Src/stm32h7xx_ll_usb.c **** 
  36:../../Drivers/STM32H7xx_HAL_Driver/Src/stm32h7xx_ll_usb.c ****   @endverbatim
  37:../../Drivers/STM32H7xx_HAL_Driver/Src/stm32h7xx_ll_usb.c **** 
  38:../../Drivers/STM32H7xx_HAL_Driver/Src/stm32h7xx_ll_usb.c ****   ******************************************************************************
  39:../../Drivers/STM32H7xx_HAL_Driver/Src/stm32h7xx_ll_usb.c ****   */
  40:../../Drivers/STM32H7xx_HAL_Driver/Src/stm32h7xx_ll_usb.c **** 
  41:../../Drivers/STM32H7xx_HAL_Driver/Src/stm32h7xx_ll_usb.c **** /* Includes ------------------------------------------------------------------*/
  42:../../Drivers/STM32H7xx_HAL_Driver/Src/stm32h7xx_ll_usb.c **** #include "stm32h7xx_hal.h"
  43:../../Drivers/STM32H7xx_HAL_Driver/Src/stm32h7xx_ll_usb.c **** 
  44:../../Drivers/STM32H7xx_HAL_Driver/Src/stm32h7xx_ll_usb.c **** /** @addtogroup STM32H7xx_LL_USB_DRIVER
  45:../../Drivers/STM32H7xx_HAL_Driver/Src/stm32h7xx_ll_usb.c ****   * @{
  46:../../Drivers/STM32H7xx_HAL_Driver/Src/stm32h7xx_ll_usb.c ****   */
  47:../../Drivers/STM32H7xx_HAL_Driver/Src/stm32h7xx_ll_usb.c **** 
  48:../../Drivers/STM32H7xx_HAL_Driver/Src/stm32h7xx_ll_usb.c **** #if defined (HAL_PCD_MODULE_ENABLED) || defined (HAL_HCD_MODULE_ENABLED)
  49:../../Drivers/STM32H7xx_HAL_Driver/Src/stm32h7xx_ll_usb.c **** #if defined (USB_OTG_FS) || defined (USB_OTG_HS)
  50:../../Drivers/STM32H7xx_HAL_Driver/Src/stm32h7xx_ll_usb.c **** /* Private typedef -----------------------------------------------------------*/
  51:../../Drivers/STM32H7xx_HAL_Driver/Src/stm32h7xx_ll_usb.c **** /* Private define ------------------------------------------------------------*/
  52:../../Drivers/STM32H7xx_HAL_Driver/Src/stm32h7xx_ll_usb.c **** /* Private macro -------------------------------------------------------------*/
  53:../../Drivers/STM32H7xx_HAL_Driver/Src/stm32h7xx_ll_usb.c **** /* Private variables ---------------------------------------------------------*/
  54:../../Drivers/STM32H7xx_HAL_Driver/Src/stm32h7xx_ll_usb.c **** /* Private function prototypes -----------------------------------------------*/
  55:../../Drivers/STM32H7xx_HAL_Driver/Src/stm32h7xx_ll_usb.c **** /* Private functions ---------------------------------------------------------*/
  56:../../Drivers/STM32H7xx_HAL_Driver/Src/stm32h7xx_ll_usb.c **** #if defined (USB_OTG_FS) || defined (USB_OTG_HS)
  57:../../Drivers/STM32H7xx_HAL_Driver/Src/stm32h7xx_ll_usb.c **** static HAL_StatusTypeDef USB_CoreReset(USB_OTG_GlobalTypeDef *USBx);
  58:../../Drivers/STM32H7xx_HAL_Driver/Src/stm32h7xx_ll_usb.c **** 
  59:../../Drivers/STM32H7xx_HAL_Driver/Src/stm32h7xx_ll_usb.c **** /* Exported functions --------------------------------------------------------*/
  60:../../Drivers/STM32H7xx_HAL_Driver/Src/stm32h7xx_ll_usb.c **** /** @defgroup USB_LL_Exported_Functions USB Low Layer Exported Functions
  61:../../Drivers/STM32H7xx_HAL_Driver/Src/stm32h7xx_ll_usb.c ****   * @{
  62:../../Drivers/STM32H7xx_HAL_Driver/Src/stm32h7xx_ll_usb.c ****   */
  63:../../Drivers/STM32H7xx_HAL_Driver/Src/stm32h7xx_ll_usb.c **** 
  64:../../Drivers/STM32H7xx_HAL_Driver/Src/stm32h7xx_ll_usb.c **** /** @defgroup USB_LL_Exported_Functions_Group1 Initialization/de-initialization functions
  65:../../Drivers/STM32H7xx_HAL_Driver/Src/stm32h7xx_ll_usb.c ****   *  @brief    Initialization and Configuration functions
  66:../../Drivers/STM32H7xx_HAL_Driver/Src/stm32h7xx_ll_usb.c ****   *
  67:../../Drivers/STM32H7xx_HAL_Driver/Src/stm32h7xx_ll_usb.c **** @verbatim
  68:../../Drivers/STM32H7xx_HAL_Driver/Src/stm32h7xx_ll_usb.c ****  ===============================================================================
  69:../../Drivers/STM32H7xx_HAL_Driver/Src/stm32h7xx_ll_usb.c ****                       ##### Initialization/de-initialization functions #####
  70:../../Drivers/STM32H7xx_HAL_Driver/Src/stm32h7xx_ll_usb.c ****  ===============================================================================
  71:../../Drivers/STM32H7xx_HAL_Driver/Src/stm32h7xx_ll_usb.c **** 
  72:../../Drivers/STM32H7xx_HAL_Driver/Src/stm32h7xx_ll_usb.c **** @endverbatim
  73:../../Drivers/STM32H7xx_HAL_Driver/Src/stm32h7xx_ll_usb.c ****   * @{
  74:../../Drivers/STM32H7xx_HAL_Driver/Src/stm32h7xx_ll_usb.c ****   */
  75:../../Drivers/STM32H7xx_HAL_Driver/Src/stm32h7xx_ll_usb.c **** 
  76:../../Drivers/STM32H7xx_HAL_Driver/Src/stm32h7xx_ll_usb.c **** /**
  77:../../Drivers/STM32H7xx_HAL_Driver/Src/stm32h7xx_ll_usb.c ****   * @brief  Initializes the USB Core
  78:../../Drivers/STM32H7xx_HAL_Driver/Src/stm32h7xx_ll_usb.c ****   * @param  USBx USB Instance
  79:../../Drivers/STM32H7xx_HAL_Driver/Src/stm32h7xx_ll_usb.c ****   * @param  cfg pointer to a USB_OTG_CfgTypeDef structure that contains
  80:../../Drivers/STM32H7xx_HAL_Driver/Src/stm32h7xx_ll_usb.c ****   *         the configuration information for the specified USBx peripheral.
  81:../../Drivers/STM32H7xx_HAL_Driver/Src/stm32h7xx_ll_usb.c ****   * @retval HAL status
  82:../../Drivers/STM32H7xx_HAL_Driver/Src/stm32h7xx_ll_usb.c ****   */
  83:../../Drivers/STM32H7xx_HAL_Driver/Src/stm32h7xx_ll_usb.c **** HAL_StatusTypeDef USB_CoreInit(USB_OTG_GlobalTypeDef *USBx, USB_OTG_CfgTypeDef cfg)
  84:../../Drivers/STM32H7xx_HAL_Driver/Src/stm32h7xx_ll_usb.c **** {
  85:../../Drivers/STM32H7xx_HAL_Driver/Src/stm32h7xx_ll_usb.c ****   HAL_StatusTypeDef ret;
  86:../../Drivers/STM32H7xx_HAL_Driver/Src/stm32h7xx_ll_usb.c ****   if (cfg.phy_itface == USB_OTG_ULPI_PHY)
  87:../../Drivers/STM32H7xx_HAL_Driver/Src/stm32h7xx_ll_usb.c ****   {
  88:../../Drivers/STM32H7xx_HAL_Driver/Src/stm32h7xx_ll_usb.c ****     USBx->GCCFG &= ~(USB_OTG_GCCFG_PWRDWN);
ARM GAS  C:\Users\gigig\AppData\Local\Temp\ccBJNrpK.s 			page 3


  89:../../Drivers/STM32H7xx_HAL_Driver/Src/stm32h7xx_ll_usb.c **** 
  90:../../Drivers/STM32H7xx_HAL_Driver/Src/stm32h7xx_ll_usb.c ****     /* Init The ULPI Interface */
  91:../../Drivers/STM32H7xx_HAL_Driver/Src/stm32h7xx_ll_usb.c ****     USBx->GUSBCFG &= ~(USB_OTG_GUSBCFG_TSDPS | USB_OTG_GUSBCFG_ULPIFSLS | USB_OTG_GUSBCFG_PHYSEL);
  92:../../Drivers/STM32H7xx_HAL_Driver/Src/stm32h7xx_ll_usb.c **** 
  93:../../Drivers/STM32H7xx_HAL_Driver/Src/stm32h7xx_ll_usb.c ****     /* Select vbus source */
  94:../../Drivers/STM32H7xx_HAL_Driver/Src/stm32h7xx_ll_usb.c ****     USBx->GUSBCFG &= ~(USB_OTG_GUSBCFG_ULPIEVBUSD | USB_OTG_GUSBCFG_ULPIEVBUSI);
  95:../../Drivers/STM32H7xx_HAL_Driver/Src/stm32h7xx_ll_usb.c ****     if (cfg.use_external_vbus == 1U)
  96:../../Drivers/STM32H7xx_HAL_Driver/Src/stm32h7xx_ll_usb.c ****     {
  97:../../Drivers/STM32H7xx_HAL_Driver/Src/stm32h7xx_ll_usb.c ****       USBx->GUSBCFG |= USB_OTG_GUSBCFG_ULPIEVBUSD;
  98:../../Drivers/STM32H7xx_HAL_Driver/Src/stm32h7xx_ll_usb.c ****     }
  99:../../Drivers/STM32H7xx_HAL_Driver/Src/stm32h7xx_ll_usb.c **** 
 100:../../Drivers/STM32H7xx_HAL_Driver/Src/stm32h7xx_ll_usb.c ****     /* Reset after a PHY select */
 101:../../Drivers/STM32H7xx_HAL_Driver/Src/stm32h7xx_ll_usb.c ****     ret = USB_CoreReset(USBx);
 102:../../Drivers/STM32H7xx_HAL_Driver/Src/stm32h7xx_ll_usb.c ****   }
 103:../../Drivers/STM32H7xx_HAL_Driver/Src/stm32h7xx_ll_usb.c ****   else /* FS interface (embedded Phy) */
 104:../../Drivers/STM32H7xx_HAL_Driver/Src/stm32h7xx_ll_usb.c ****   {
 105:../../Drivers/STM32H7xx_HAL_Driver/Src/stm32h7xx_ll_usb.c ****     /* Select FS Embedded PHY */
 106:../../Drivers/STM32H7xx_HAL_Driver/Src/stm32h7xx_ll_usb.c ****     USBx->GUSBCFG |= USB_OTG_GUSBCFG_PHYSEL;
 107:../../Drivers/STM32H7xx_HAL_Driver/Src/stm32h7xx_ll_usb.c **** 
 108:../../Drivers/STM32H7xx_HAL_Driver/Src/stm32h7xx_ll_usb.c ****     /* Reset after a PHY select */
 109:../../Drivers/STM32H7xx_HAL_Driver/Src/stm32h7xx_ll_usb.c ****     ret = USB_CoreReset(USBx);
 110:../../Drivers/STM32H7xx_HAL_Driver/Src/stm32h7xx_ll_usb.c **** 
 111:../../Drivers/STM32H7xx_HAL_Driver/Src/stm32h7xx_ll_usb.c ****     if (cfg.battery_charging_enable == 0U)
 112:../../Drivers/STM32H7xx_HAL_Driver/Src/stm32h7xx_ll_usb.c ****     {
 113:../../Drivers/STM32H7xx_HAL_Driver/Src/stm32h7xx_ll_usb.c ****       /* Activate the USB Transceiver */
 114:../../Drivers/STM32H7xx_HAL_Driver/Src/stm32h7xx_ll_usb.c ****       USBx->GCCFG |= USB_OTG_GCCFG_PWRDWN;
 115:../../Drivers/STM32H7xx_HAL_Driver/Src/stm32h7xx_ll_usb.c ****     }
 116:../../Drivers/STM32H7xx_HAL_Driver/Src/stm32h7xx_ll_usb.c ****     else
 117:../../Drivers/STM32H7xx_HAL_Driver/Src/stm32h7xx_ll_usb.c ****     {
 118:../../Drivers/STM32H7xx_HAL_Driver/Src/stm32h7xx_ll_usb.c ****       /* Deactivate the USB Transceiver */
 119:../../Drivers/STM32H7xx_HAL_Driver/Src/stm32h7xx_ll_usb.c ****       USBx->GCCFG &= ~(USB_OTG_GCCFG_PWRDWN);
 120:../../Drivers/STM32H7xx_HAL_Driver/Src/stm32h7xx_ll_usb.c ****     }
 121:../../Drivers/STM32H7xx_HAL_Driver/Src/stm32h7xx_ll_usb.c ****   }
 122:../../Drivers/STM32H7xx_HAL_Driver/Src/stm32h7xx_ll_usb.c **** 
 123:../../Drivers/STM32H7xx_HAL_Driver/Src/stm32h7xx_ll_usb.c ****   if (cfg.dma_enable == 1U)
 124:../../Drivers/STM32H7xx_HAL_Driver/Src/stm32h7xx_ll_usb.c ****   {
 125:../../Drivers/STM32H7xx_HAL_Driver/Src/stm32h7xx_ll_usb.c ****     /* make sure to reserve 18 fifo Locations for DMA buffers */
 126:../../Drivers/STM32H7xx_HAL_Driver/Src/stm32h7xx_ll_usb.c ****     USBx->GDFIFOCFG &= ~(0xFFFFU << 16);
 127:../../Drivers/STM32H7xx_HAL_Driver/Src/stm32h7xx_ll_usb.c ****     USBx->GDFIFOCFG |= 0x3EEU << 16;
 128:../../Drivers/STM32H7xx_HAL_Driver/Src/stm32h7xx_ll_usb.c **** 
 129:../../Drivers/STM32H7xx_HAL_Driver/Src/stm32h7xx_ll_usb.c ****     USBx->GAHBCFG |= USB_OTG_GAHBCFG_HBSTLEN_2;
 130:../../Drivers/STM32H7xx_HAL_Driver/Src/stm32h7xx_ll_usb.c ****     USBx->GAHBCFG |= USB_OTG_GAHBCFG_DMAEN;
 131:../../Drivers/STM32H7xx_HAL_Driver/Src/stm32h7xx_ll_usb.c ****   }
 132:../../Drivers/STM32H7xx_HAL_Driver/Src/stm32h7xx_ll_usb.c **** 
 133:../../Drivers/STM32H7xx_HAL_Driver/Src/stm32h7xx_ll_usb.c ****   return ret;
 134:../../Drivers/STM32H7xx_HAL_Driver/Src/stm32h7xx_ll_usb.c **** }
 135:../../Drivers/STM32H7xx_HAL_Driver/Src/stm32h7xx_ll_usb.c **** 
 136:../../Drivers/STM32H7xx_HAL_Driver/Src/stm32h7xx_ll_usb.c **** 
 137:../../Drivers/STM32H7xx_HAL_Driver/Src/stm32h7xx_ll_usb.c **** /**
 138:../../Drivers/STM32H7xx_HAL_Driver/Src/stm32h7xx_ll_usb.c ****   * @brief  Set the USB turnaround time
 139:../../Drivers/STM32H7xx_HAL_Driver/Src/stm32h7xx_ll_usb.c ****   * @param  USBx USB Instance
 140:../../Drivers/STM32H7xx_HAL_Driver/Src/stm32h7xx_ll_usb.c ****   * @param  hclk: AHB clock frequency
 141:../../Drivers/STM32H7xx_HAL_Driver/Src/stm32h7xx_ll_usb.c ****   * @retval USB turnaround time In PHY Clocks number
 142:../../Drivers/STM32H7xx_HAL_Driver/Src/stm32h7xx_ll_usb.c ****   */
 143:../../Drivers/STM32H7xx_HAL_Driver/Src/stm32h7xx_ll_usb.c **** HAL_StatusTypeDef USB_SetTurnaroundTime(USB_OTG_GlobalTypeDef *USBx,
 144:../../Drivers/STM32H7xx_HAL_Driver/Src/stm32h7xx_ll_usb.c ****                                         uint32_t hclk, uint8_t speed)
 145:../../Drivers/STM32H7xx_HAL_Driver/Src/stm32h7xx_ll_usb.c **** {
ARM GAS  C:\Users\gigig\AppData\Local\Temp\ccBJNrpK.s 			page 4


 146:../../Drivers/STM32H7xx_HAL_Driver/Src/stm32h7xx_ll_usb.c ****   uint32_t UsbTrd;
 147:../../Drivers/STM32H7xx_HAL_Driver/Src/stm32h7xx_ll_usb.c **** 
 148:../../Drivers/STM32H7xx_HAL_Driver/Src/stm32h7xx_ll_usb.c ****   /* The USBTRD is configured according to the tables below, depending on AHB frequency
 149:../../Drivers/STM32H7xx_HAL_Driver/Src/stm32h7xx_ll_usb.c ****   used by application. In the low AHB frequency range it is used to stretch enough the USB response
 150:../../Drivers/STM32H7xx_HAL_Driver/Src/stm32h7xx_ll_usb.c ****   time to IN tokens, the USB turnaround time, so to compensate for the longer AHB read access
 151:../../Drivers/STM32H7xx_HAL_Driver/Src/stm32h7xx_ll_usb.c ****   latency to the Data FIFO */
 152:../../Drivers/STM32H7xx_HAL_Driver/Src/stm32h7xx_ll_usb.c ****   if (speed == USBD_FS_SPEED)
 153:../../Drivers/STM32H7xx_HAL_Driver/Src/stm32h7xx_ll_usb.c ****   {
 154:../../Drivers/STM32H7xx_HAL_Driver/Src/stm32h7xx_ll_usb.c ****     if ((hclk >= 14200000U) && (hclk < 15000000U))
 155:../../Drivers/STM32H7xx_HAL_Driver/Src/stm32h7xx_ll_usb.c ****     {
 156:../../Drivers/STM32H7xx_HAL_Driver/Src/stm32h7xx_ll_usb.c ****       /* hclk Clock Range between 14.2-15 MHz */
 157:../../Drivers/STM32H7xx_HAL_Driver/Src/stm32h7xx_ll_usb.c ****       UsbTrd = 0xFU;
 158:../../Drivers/STM32H7xx_HAL_Driver/Src/stm32h7xx_ll_usb.c ****     }
 159:../../Drivers/STM32H7xx_HAL_Driver/Src/stm32h7xx_ll_usb.c ****     else if ((hclk >= 15000000U) && (hclk < 16000000U))
 160:../../Drivers/STM32H7xx_HAL_Driver/Src/stm32h7xx_ll_usb.c ****     {
 161:../../Drivers/STM32H7xx_HAL_Driver/Src/stm32h7xx_ll_usb.c ****       /* hclk Clock Range between 15-16 MHz */
 162:../../Drivers/STM32H7xx_HAL_Driver/Src/stm32h7xx_ll_usb.c ****       UsbTrd = 0xEU;
 163:../../Drivers/STM32H7xx_HAL_Driver/Src/stm32h7xx_ll_usb.c ****     }
 164:../../Drivers/STM32H7xx_HAL_Driver/Src/stm32h7xx_ll_usb.c ****     else if ((hclk >= 16000000U) && (hclk < 17200000U))
 165:../../Drivers/STM32H7xx_HAL_Driver/Src/stm32h7xx_ll_usb.c ****     {
 166:../../Drivers/STM32H7xx_HAL_Driver/Src/stm32h7xx_ll_usb.c ****       /* hclk Clock Range between 16-17.2 MHz */
 167:../../Drivers/STM32H7xx_HAL_Driver/Src/stm32h7xx_ll_usb.c ****       UsbTrd = 0xDU;
 168:../../Drivers/STM32H7xx_HAL_Driver/Src/stm32h7xx_ll_usb.c ****     }
 169:../../Drivers/STM32H7xx_HAL_Driver/Src/stm32h7xx_ll_usb.c ****     else if ((hclk >= 17200000U) && (hclk < 18500000U))
 170:../../Drivers/STM32H7xx_HAL_Driver/Src/stm32h7xx_ll_usb.c ****     {
 171:../../Drivers/STM32H7xx_HAL_Driver/Src/stm32h7xx_ll_usb.c ****       /* hclk Clock Range between 17.2-18.5 MHz */
 172:../../Drivers/STM32H7xx_HAL_Driver/Src/stm32h7xx_ll_usb.c ****       UsbTrd = 0xCU;
 173:../../Drivers/STM32H7xx_HAL_Driver/Src/stm32h7xx_ll_usb.c ****     }
 174:../../Drivers/STM32H7xx_HAL_Driver/Src/stm32h7xx_ll_usb.c ****     else if ((hclk >= 18500000U) && (hclk < 20000000U))
 175:../../Drivers/STM32H7xx_HAL_Driver/Src/stm32h7xx_ll_usb.c ****     {
 176:../../Drivers/STM32H7xx_HAL_Driver/Src/stm32h7xx_ll_usb.c ****       /* hclk Clock Range between 18.5-20 MHz */
 177:../../Drivers/STM32H7xx_HAL_Driver/Src/stm32h7xx_ll_usb.c ****       UsbTrd = 0xBU;
 178:../../Drivers/STM32H7xx_HAL_Driver/Src/stm32h7xx_ll_usb.c ****     }
 179:../../Drivers/STM32H7xx_HAL_Driver/Src/stm32h7xx_ll_usb.c ****     else if ((hclk >= 20000000U) && (hclk < 21800000U))
 180:../../Drivers/STM32H7xx_HAL_Driver/Src/stm32h7xx_ll_usb.c ****     {
 181:../../Drivers/STM32H7xx_HAL_Driver/Src/stm32h7xx_ll_usb.c ****       /* hclk Clock Range between 20-21.8 MHz */
 182:../../Drivers/STM32H7xx_HAL_Driver/Src/stm32h7xx_ll_usb.c ****       UsbTrd = 0xAU;
 183:../../Drivers/STM32H7xx_HAL_Driver/Src/stm32h7xx_ll_usb.c ****     }
 184:../../Drivers/STM32H7xx_HAL_Driver/Src/stm32h7xx_ll_usb.c ****     else if ((hclk >= 21800000U) && (hclk < 24000000U))
 185:../../Drivers/STM32H7xx_HAL_Driver/Src/stm32h7xx_ll_usb.c ****     {
 186:../../Drivers/STM32H7xx_HAL_Driver/Src/stm32h7xx_ll_usb.c ****       /* hclk Clock Range between 21.8-24 MHz */
 187:../../Drivers/STM32H7xx_HAL_Driver/Src/stm32h7xx_ll_usb.c ****       UsbTrd = 0x9U;
 188:../../Drivers/STM32H7xx_HAL_Driver/Src/stm32h7xx_ll_usb.c ****     }
 189:../../Drivers/STM32H7xx_HAL_Driver/Src/stm32h7xx_ll_usb.c ****     else if ((hclk >= 24000000U) && (hclk < 27700000U))
 190:../../Drivers/STM32H7xx_HAL_Driver/Src/stm32h7xx_ll_usb.c ****     {
 191:../../Drivers/STM32H7xx_HAL_Driver/Src/stm32h7xx_ll_usb.c ****       /* hclk Clock Range between 24-27.7 MHz */
 192:../../Drivers/STM32H7xx_HAL_Driver/Src/stm32h7xx_ll_usb.c ****       UsbTrd = 0x8U;
 193:../../Drivers/STM32H7xx_HAL_Driver/Src/stm32h7xx_ll_usb.c ****     }
 194:../../Drivers/STM32H7xx_HAL_Driver/Src/stm32h7xx_ll_usb.c ****     else if ((hclk >= 27700000U) && (hclk < 32000000U))
 195:../../Drivers/STM32H7xx_HAL_Driver/Src/stm32h7xx_ll_usb.c ****     {
 196:../../Drivers/STM32H7xx_HAL_Driver/Src/stm32h7xx_ll_usb.c ****       /* hclk Clock Range between 27.7-32 MHz */
 197:../../Drivers/STM32H7xx_HAL_Driver/Src/stm32h7xx_ll_usb.c ****       UsbTrd = 0x7U;
 198:../../Drivers/STM32H7xx_HAL_Driver/Src/stm32h7xx_ll_usb.c ****     }
 199:../../Drivers/STM32H7xx_HAL_Driver/Src/stm32h7xx_ll_usb.c ****     else /* if(hclk >= 32000000) */
 200:../../Drivers/STM32H7xx_HAL_Driver/Src/stm32h7xx_ll_usb.c ****     {
 201:../../Drivers/STM32H7xx_HAL_Driver/Src/stm32h7xx_ll_usb.c ****       /* hclk Clock Range between 32-200 MHz */
 202:../../Drivers/STM32H7xx_HAL_Driver/Src/stm32h7xx_ll_usb.c ****       UsbTrd = 0x6U;
ARM GAS  C:\Users\gigig\AppData\Local\Temp\ccBJNrpK.s 			page 5


 203:../../Drivers/STM32H7xx_HAL_Driver/Src/stm32h7xx_ll_usb.c ****     }
 204:../../Drivers/STM32H7xx_HAL_Driver/Src/stm32h7xx_ll_usb.c ****   }
 205:../../Drivers/STM32H7xx_HAL_Driver/Src/stm32h7xx_ll_usb.c ****   else if (speed == USBD_HS_SPEED)
 206:../../Drivers/STM32H7xx_HAL_Driver/Src/stm32h7xx_ll_usb.c ****   {
 207:../../Drivers/STM32H7xx_HAL_Driver/Src/stm32h7xx_ll_usb.c ****     UsbTrd = USBD_HS_TRDT_VALUE;
 208:../../Drivers/STM32H7xx_HAL_Driver/Src/stm32h7xx_ll_usb.c ****   }
 209:../../Drivers/STM32H7xx_HAL_Driver/Src/stm32h7xx_ll_usb.c ****   else
 210:../../Drivers/STM32H7xx_HAL_Driver/Src/stm32h7xx_ll_usb.c ****   {
 211:../../Drivers/STM32H7xx_HAL_Driver/Src/stm32h7xx_ll_usb.c ****     UsbTrd = USBD_DEFAULT_TRDT_VALUE;
 212:../../Drivers/STM32H7xx_HAL_Driver/Src/stm32h7xx_ll_usb.c ****   }
 213:../../Drivers/STM32H7xx_HAL_Driver/Src/stm32h7xx_ll_usb.c **** 
 214:../../Drivers/STM32H7xx_HAL_Driver/Src/stm32h7xx_ll_usb.c ****   USBx->GUSBCFG &= ~USB_OTG_GUSBCFG_TRDT;
 215:../../Drivers/STM32H7xx_HAL_Driver/Src/stm32h7xx_ll_usb.c ****   USBx->GUSBCFG |= (uint32_t)((UsbTrd << 10) & USB_OTG_GUSBCFG_TRDT);
 216:../../Drivers/STM32H7xx_HAL_Driver/Src/stm32h7xx_ll_usb.c **** 
 217:../../Drivers/STM32H7xx_HAL_Driver/Src/stm32h7xx_ll_usb.c ****   return HAL_OK;
 218:../../Drivers/STM32H7xx_HAL_Driver/Src/stm32h7xx_ll_usb.c **** }
 219:../../Drivers/STM32H7xx_HAL_Driver/Src/stm32h7xx_ll_usb.c **** 
 220:../../Drivers/STM32H7xx_HAL_Driver/Src/stm32h7xx_ll_usb.c **** /**
 221:../../Drivers/STM32H7xx_HAL_Driver/Src/stm32h7xx_ll_usb.c ****   * @brief  USB_EnableGlobalInt
 222:../../Drivers/STM32H7xx_HAL_Driver/Src/stm32h7xx_ll_usb.c ****   *         Enables the controller's Global Int in the AHB Config reg
 223:../../Drivers/STM32H7xx_HAL_Driver/Src/stm32h7xx_ll_usb.c ****   * @param  USBx  Selected device
 224:../../Drivers/STM32H7xx_HAL_Driver/Src/stm32h7xx_ll_usb.c ****   * @retval HAL status
 225:../../Drivers/STM32H7xx_HAL_Driver/Src/stm32h7xx_ll_usb.c ****   */
 226:../../Drivers/STM32H7xx_HAL_Driver/Src/stm32h7xx_ll_usb.c **** HAL_StatusTypeDef USB_EnableGlobalInt(USB_OTG_GlobalTypeDef *USBx)
 227:../../Drivers/STM32H7xx_HAL_Driver/Src/stm32h7xx_ll_usb.c **** {
 228:../../Drivers/STM32H7xx_HAL_Driver/Src/stm32h7xx_ll_usb.c ****   USBx->GAHBCFG |= USB_OTG_GAHBCFG_GINT;
 229:../../Drivers/STM32H7xx_HAL_Driver/Src/stm32h7xx_ll_usb.c ****   return HAL_OK;
 230:../../Drivers/STM32H7xx_HAL_Driver/Src/stm32h7xx_ll_usb.c **** }
 231:../../Drivers/STM32H7xx_HAL_Driver/Src/stm32h7xx_ll_usb.c **** 
 232:../../Drivers/STM32H7xx_HAL_Driver/Src/stm32h7xx_ll_usb.c **** /**
 233:../../Drivers/STM32H7xx_HAL_Driver/Src/stm32h7xx_ll_usb.c ****   * @brief  USB_DisableGlobalInt
 234:../../Drivers/STM32H7xx_HAL_Driver/Src/stm32h7xx_ll_usb.c ****   *         Disable the controller's Global Int in the AHB Config reg
 235:../../Drivers/STM32H7xx_HAL_Driver/Src/stm32h7xx_ll_usb.c ****   * @param  USBx  Selected device
 236:../../Drivers/STM32H7xx_HAL_Driver/Src/stm32h7xx_ll_usb.c ****   * @retval HAL status
 237:../../Drivers/STM32H7xx_HAL_Driver/Src/stm32h7xx_ll_usb.c ****   */
 238:../../Drivers/STM32H7xx_HAL_Driver/Src/stm32h7xx_ll_usb.c **** HAL_StatusTypeDef USB_DisableGlobalInt(USB_OTG_GlobalTypeDef *USBx)
 239:../../Drivers/STM32H7xx_HAL_Driver/Src/stm32h7xx_ll_usb.c **** {
 240:../../Drivers/STM32H7xx_HAL_Driver/Src/stm32h7xx_ll_usb.c ****   USBx->GAHBCFG &= ~USB_OTG_GAHBCFG_GINT;
 241:../../Drivers/STM32H7xx_HAL_Driver/Src/stm32h7xx_ll_usb.c ****   return HAL_OK;
 242:../../Drivers/STM32H7xx_HAL_Driver/Src/stm32h7xx_ll_usb.c **** }
 243:../../Drivers/STM32H7xx_HAL_Driver/Src/stm32h7xx_ll_usb.c **** 
 244:../../Drivers/STM32H7xx_HAL_Driver/Src/stm32h7xx_ll_usb.c **** /**
 245:../../Drivers/STM32H7xx_HAL_Driver/Src/stm32h7xx_ll_usb.c ****   * @brief  USB_SetCurrentMode Set functional mode
 246:../../Drivers/STM32H7xx_HAL_Driver/Src/stm32h7xx_ll_usb.c ****   * @param  USBx  Selected device
 247:../../Drivers/STM32H7xx_HAL_Driver/Src/stm32h7xx_ll_usb.c ****   * @param  mode  current core mode
 248:../../Drivers/STM32H7xx_HAL_Driver/Src/stm32h7xx_ll_usb.c ****   *          This parameter can be one of these values:
 249:../../Drivers/STM32H7xx_HAL_Driver/Src/stm32h7xx_ll_usb.c ****   *            @arg USB_DEVICE_MODE Peripheral mode
 250:../../Drivers/STM32H7xx_HAL_Driver/Src/stm32h7xx_ll_usb.c ****   *            @arg USB_HOST_MODE Host mode
 251:../../Drivers/STM32H7xx_HAL_Driver/Src/stm32h7xx_ll_usb.c ****   * @retval HAL status
 252:../../Drivers/STM32H7xx_HAL_Driver/Src/stm32h7xx_ll_usb.c ****   */
 253:../../Drivers/STM32H7xx_HAL_Driver/Src/stm32h7xx_ll_usb.c **** HAL_StatusTypeDef USB_SetCurrentMode(USB_OTG_GlobalTypeDef *USBx, USB_OTG_ModeTypeDef mode)
 254:../../Drivers/STM32H7xx_HAL_Driver/Src/stm32h7xx_ll_usb.c **** {
 255:../../Drivers/STM32H7xx_HAL_Driver/Src/stm32h7xx_ll_usb.c ****   uint32_t ms = 0U;
 256:../../Drivers/STM32H7xx_HAL_Driver/Src/stm32h7xx_ll_usb.c **** 
 257:../../Drivers/STM32H7xx_HAL_Driver/Src/stm32h7xx_ll_usb.c ****   USBx->GUSBCFG &= ~(USB_OTG_GUSBCFG_FHMOD | USB_OTG_GUSBCFG_FDMOD);
 258:../../Drivers/STM32H7xx_HAL_Driver/Src/stm32h7xx_ll_usb.c **** 
 259:../../Drivers/STM32H7xx_HAL_Driver/Src/stm32h7xx_ll_usb.c ****   if (mode == USB_HOST_MODE)
ARM GAS  C:\Users\gigig\AppData\Local\Temp\ccBJNrpK.s 			page 6


 260:../../Drivers/STM32H7xx_HAL_Driver/Src/stm32h7xx_ll_usb.c ****   {
 261:../../Drivers/STM32H7xx_HAL_Driver/Src/stm32h7xx_ll_usb.c ****     USBx->GUSBCFG |= USB_OTG_GUSBCFG_FHMOD;
 262:../../Drivers/STM32H7xx_HAL_Driver/Src/stm32h7xx_ll_usb.c **** 
 263:../../Drivers/STM32H7xx_HAL_Driver/Src/stm32h7xx_ll_usb.c ****     do
 264:../../Drivers/STM32H7xx_HAL_Driver/Src/stm32h7xx_ll_usb.c ****     {
 265:../../Drivers/STM32H7xx_HAL_Driver/Src/stm32h7xx_ll_usb.c ****       HAL_Delay(1U);
 266:../../Drivers/STM32H7xx_HAL_Driver/Src/stm32h7xx_ll_usb.c ****       ms++;
 267:../../Drivers/STM32H7xx_HAL_Driver/Src/stm32h7xx_ll_usb.c ****     } while ((USB_GetMode(USBx) != (uint32_t)USB_HOST_MODE) && (ms < 50U));
 268:../../Drivers/STM32H7xx_HAL_Driver/Src/stm32h7xx_ll_usb.c ****   }
 269:../../Drivers/STM32H7xx_HAL_Driver/Src/stm32h7xx_ll_usb.c ****   else if (mode == USB_DEVICE_MODE)
 270:../../Drivers/STM32H7xx_HAL_Driver/Src/stm32h7xx_ll_usb.c ****   {
 271:../../Drivers/STM32H7xx_HAL_Driver/Src/stm32h7xx_ll_usb.c ****     USBx->GUSBCFG |= USB_OTG_GUSBCFG_FDMOD;
 272:../../Drivers/STM32H7xx_HAL_Driver/Src/stm32h7xx_ll_usb.c **** 
 273:../../Drivers/STM32H7xx_HAL_Driver/Src/stm32h7xx_ll_usb.c ****     do
 274:../../Drivers/STM32H7xx_HAL_Driver/Src/stm32h7xx_ll_usb.c ****     {
 275:../../Drivers/STM32H7xx_HAL_Driver/Src/stm32h7xx_ll_usb.c ****       HAL_Delay(1U);
 276:../../Drivers/STM32H7xx_HAL_Driver/Src/stm32h7xx_ll_usb.c ****       ms++;
 277:../../Drivers/STM32H7xx_HAL_Driver/Src/stm32h7xx_ll_usb.c ****     } while ((USB_GetMode(USBx) != (uint32_t)USB_DEVICE_MODE) && (ms < 50U));
 278:../../Drivers/STM32H7xx_HAL_Driver/Src/stm32h7xx_ll_usb.c ****   }
 279:../../Drivers/STM32H7xx_HAL_Driver/Src/stm32h7xx_ll_usb.c ****   else
 280:../../Drivers/STM32H7xx_HAL_Driver/Src/stm32h7xx_ll_usb.c ****   {
 281:../../Drivers/STM32H7xx_HAL_Driver/Src/stm32h7xx_ll_usb.c ****     return HAL_ERROR;
 282:../../Drivers/STM32H7xx_HAL_Driver/Src/stm32h7xx_ll_usb.c ****   }
 283:../../Drivers/STM32H7xx_HAL_Driver/Src/stm32h7xx_ll_usb.c **** 
 284:../../Drivers/STM32H7xx_HAL_Driver/Src/stm32h7xx_ll_usb.c ****   if (ms == 50U)
 285:../../Drivers/STM32H7xx_HAL_Driver/Src/stm32h7xx_ll_usb.c ****   {
 286:../../Drivers/STM32H7xx_HAL_Driver/Src/stm32h7xx_ll_usb.c ****     return HAL_ERROR;
 287:../../Drivers/STM32H7xx_HAL_Driver/Src/stm32h7xx_ll_usb.c ****   }
 288:../../Drivers/STM32H7xx_HAL_Driver/Src/stm32h7xx_ll_usb.c **** 
 289:../../Drivers/STM32H7xx_HAL_Driver/Src/stm32h7xx_ll_usb.c ****   return HAL_OK;
 290:../../Drivers/STM32H7xx_HAL_Driver/Src/stm32h7xx_ll_usb.c **** }
 291:../../Drivers/STM32H7xx_HAL_Driver/Src/stm32h7xx_ll_usb.c **** 
 292:../../Drivers/STM32H7xx_HAL_Driver/Src/stm32h7xx_ll_usb.c **** /**
 293:../../Drivers/STM32H7xx_HAL_Driver/Src/stm32h7xx_ll_usb.c ****   * @brief  USB_DevInit Initializes the USB_OTG controller registers
 294:../../Drivers/STM32H7xx_HAL_Driver/Src/stm32h7xx_ll_usb.c ****   *         for device mode
 295:../../Drivers/STM32H7xx_HAL_Driver/Src/stm32h7xx_ll_usb.c ****   * @param  USBx  Selected device
 296:../../Drivers/STM32H7xx_HAL_Driver/Src/stm32h7xx_ll_usb.c ****   * @param  cfg   pointer to a USB_OTG_CfgTypeDef structure that contains
 297:../../Drivers/STM32H7xx_HAL_Driver/Src/stm32h7xx_ll_usb.c ****   *         the configuration information for the specified USBx peripheral.
 298:../../Drivers/STM32H7xx_HAL_Driver/Src/stm32h7xx_ll_usb.c ****   * @retval HAL status
 299:../../Drivers/STM32H7xx_HAL_Driver/Src/stm32h7xx_ll_usb.c ****   */
 300:../../Drivers/STM32H7xx_HAL_Driver/Src/stm32h7xx_ll_usb.c **** HAL_StatusTypeDef USB_DevInit(USB_OTG_GlobalTypeDef *USBx, USB_OTG_CfgTypeDef cfg)
 301:../../Drivers/STM32H7xx_HAL_Driver/Src/stm32h7xx_ll_usb.c **** {
 302:../../Drivers/STM32H7xx_HAL_Driver/Src/stm32h7xx_ll_usb.c ****   HAL_StatusTypeDef ret = HAL_OK;
 303:../../Drivers/STM32H7xx_HAL_Driver/Src/stm32h7xx_ll_usb.c ****   uint32_t USBx_BASE = (uint32_t)USBx;
 304:../../Drivers/STM32H7xx_HAL_Driver/Src/stm32h7xx_ll_usb.c ****   uint32_t i;
 305:../../Drivers/STM32H7xx_HAL_Driver/Src/stm32h7xx_ll_usb.c **** 
 306:../../Drivers/STM32H7xx_HAL_Driver/Src/stm32h7xx_ll_usb.c ****   for (i = 0U; i < 15U; i++)
 307:../../Drivers/STM32H7xx_HAL_Driver/Src/stm32h7xx_ll_usb.c ****   {
 308:../../Drivers/STM32H7xx_HAL_Driver/Src/stm32h7xx_ll_usb.c ****     USBx->DIEPTXF[i] = 0U;
 309:../../Drivers/STM32H7xx_HAL_Driver/Src/stm32h7xx_ll_usb.c ****   }
 310:../../Drivers/STM32H7xx_HAL_Driver/Src/stm32h7xx_ll_usb.c **** 
 311:../../Drivers/STM32H7xx_HAL_Driver/Src/stm32h7xx_ll_usb.c ****   /* VBUS Sensing setup */
 312:../../Drivers/STM32H7xx_HAL_Driver/Src/stm32h7xx_ll_usb.c ****   if (cfg.vbus_sensing_enable == 0U)
 313:../../Drivers/STM32H7xx_HAL_Driver/Src/stm32h7xx_ll_usb.c ****   {
 314:../../Drivers/STM32H7xx_HAL_Driver/Src/stm32h7xx_ll_usb.c ****     USBx_DEVICE->DCTL |= USB_OTG_DCTL_SDIS;
 315:../../Drivers/STM32H7xx_HAL_Driver/Src/stm32h7xx_ll_usb.c **** 
 316:../../Drivers/STM32H7xx_HAL_Driver/Src/stm32h7xx_ll_usb.c ****     /* Deactivate VBUS Sensing B */
ARM GAS  C:\Users\gigig\AppData\Local\Temp\ccBJNrpK.s 			page 7


 317:../../Drivers/STM32H7xx_HAL_Driver/Src/stm32h7xx_ll_usb.c ****     USBx->GCCFG &= ~USB_OTG_GCCFG_VBDEN;
 318:../../Drivers/STM32H7xx_HAL_Driver/Src/stm32h7xx_ll_usb.c **** 
 319:../../Drivers/STM32H7xx_HAL_Driver/Src/stm32h7xx_ll_usb.c ****     /* B-peripheral session valid override enable */
 320:../../Drivers/STM32H7xx_HAL_Driver/Src/stm32h7xx_ll_usb.c ****     USBx->GOTGCTL |= USB_OTG_GOTGCTL_BVALOEN;
 321:../../Drivers/STM32H7xx_HAL_Driver/Src/stm32h7xx_ll_usb.c ****     USBx->GOTGCTL |= USB_OTG_GOTGCTL_BVALOVAL;
 322:../../Drivers/STM32H7xx_HAL_Driver/Src/stm32h7xx_ll_usb.c ****   }
 323:../../Drivers/STM32H7xx_HAL_Driver/Src/stm32h7xx_ll_usb.c ****   else
 324:../../Drivers/STM32H7xx_HAL_Driver/Src/stm32h7xx_ll_usb.c ****   {
 325:../../Drivers/STM32H7xx_HAL_Driver/Src/stm32h7xx_ll_usb.c ****     /* Enable HW VBUS sensing */
 326:../../Drivers/STM32H7xx_HAL_Driver/Src/stm32h7xx_ll_usb.c ****     USBx->GCCFG |= USB_OTG_GCCFG_VBDEN;
 327:../../Drivers/STM32H7xx_HAL_Driver/Src/stm32h7xx_ll_usb.c ****   }
 328:../../Drivers/STM32H7xx_HAL_Driver/Src/stm32h7xx_ll_usb.c **** 
 329:../../Drivers/STM32H7xx_HAL_Driver/Src/stm32h7xx_ll_usb.c ****   /* Restart the Phy Clock */
 330:../../Drivers/STM32H7xx_HAL_Driver/Src/stm32h7xx_ll_usb.c ****   USBx_PCGCCTL = 0U;
 331:../../Drivers/STM32H7xx_HAL_Driver/Src/stm32h7xx_ll_usb.c **** 
 332:../../Drivers/STM32H7xx_HAL_Driver/Src/stm32h7xx_ll_usb.c ****   /* Device mode configuration */
 333:../../Drivers/STM32H7xx_HAL_Driver/Src/stm32h7xx_ll_usb.c ****   USBx_DEVICE->DCFG |= DCFG_FRAME_INTERVAL_80;
 334:../../Drivers/STM32H7xx_HAL_Driver/Src/stm32h7xx_ll_usb.c **** 
 335:../../Drivers/STM32H7xx_HAL_Driver/Src/stm32h7xx_ll_usb.c ****   if (cfg.phy_itface == USB_OTG_ULPI_PHY)
 336:../../Drivers/STM32H7xx_HAL_Driver/Src/stm32h7xx_ll_usb.c ****   {
 337:../../Drivers/STM32H7xx_HAL_Driver/Src/stm32h7xx_ll_usb.c ****     if (cfg.speed == USBD_HS_SPEED)
 338:../../Drivers/STM32H7xx_HAL_Driver/Src/stm32h7xx_ll_usb.c ****     {
 339:../../Drivers/STM32H7xx_HAL_Driver/Src/stm32h7xx_ll_usb.c ****       /* Set Core speed to High speed mode */
 340:../../Drivers/STM32H7xx_HAL_Driver/Src/stm32h7xx_ll_usb.c ****       (void)USB_SetDevSpeed(USBx, USB_OTG_SPEED_HIGH);
 341:../../Drivers/STM32H7xx_HAL_Driver/Src/stm32h7xx_ll_usb.c ****     }
 342:../../Drivers/STM32H7xx_HAL_Driver/Src/stm32h7xx_ll_usb.c ****     else
 343:../../Drivers/STM32H7xx_HAL_Driver/Src/stm32h7xx_ll_usb.c ****     {
 344:../../Drivers/STM32H7xx_HAL_Driver/Src/stm32h7xx_ll_usb.c ****       /* Set Core speed to Full speed mode */
 345:../../Drivers/STM32H7xx_HAL_Driver/Src/stm32h7xx_ll_usb.c ****       (void)USB_SetDevSpeed(USBx, USB_OTG_SPEED_HIGH_IN_FULL);
 346:../../Drivers/STM32H7xx_HAL_Driver/Src/stm32h7xx_ll_usb.c ****     }
 347:../../Drivers/STM32H7xx_HAL_Driver/Src/stm32h7xx_ll_usb.c ****   }
 348:../../Drivers/STM32H7xx_HAL_Driver/Src/stm32h7xx_ll_usb.c ****   else
 349:../../Drivers/STM32H7xx_HAL_Driver/Src/stm32h7xx_ll_usb.c ****   {
 350:../../Drivers/STM32H7xx_HAL_Driver/Src/stm32h7xx_ll_usb.c ****     /* Set Core speed to Full speed mode */
 351:../../Drivers/STM32H7xx_HAL_Driver/Src/stm32h7xx_ll_usb.c ****     (void)USB_SetDevSpeed(USBx, USB_OTG_SPEED_FULL);
 352:../../Drivers/STM32H7xx_HAL_Driver/Src/stm32h7xx_ll_usb.c ****   }
 353:../../Drivers/STM32H7xx_HAL_Driver/Src/stm32h7xx_ll_usb.c **** 
 354:../../Drivers/STM32H7xx_HAL_Driver/Src/stm32h7xx_ll_usb.c ****   /* Flush the FIFOs */
 355:../../Drivers/STM32H7xx_HAL_Driver/Src/stm32h7xx_ll_usb.c ****   if (USB_FlushTxFifo(USBx, 0x10U) != HAL_OK) /* all Tx FIFOs */
 356:../../Drivers/STM32H7xx_HAL_Driver/Src/stm32h7xx_ll_usb.c ****   {
 357:../../Drivers/STM32H7xx_HAL_Driver/Src/stm32h7xx_ll_usb.c ****     ret = HAL_ERROR;
 358:../../Drivers/STM32H7xx_HAL_Driver/Src/stm32h7xx_ll_usb.c ****   }
 359:../../Drivers/STM32H7xx_HAL_Driver/Src/stm32h7xx_ll_usb.c **** 
 360:../../Drivers/STM32H7xx_HAL_Driver/Src/stm32h7xx_ll_usb.c ****   if (USB_FlushRxFifo(USBx) != HAL_OK)
 361:../../Drivers/STM32H7xx_HAL_Driver/Src/stm32h7xx_ll_usb.c ****   {
 362:../../Drivers/STM32H7xx_HAL_Driver/Src/stm32h7xx_ll_usb.c ****     ret = HAL_ERROR;
 363:../../Drivers/STM32H7xx_HAL_Driver/Src/stm32h7xx_ll_usb.c ****   }
 364:../../Drivers/STM32H7xx_HAL_Driver/Src/stm32h7xx_ll_usb.c **** 
 365:../../Drivers/STM32H7xx_HAL_Driver/Src/stm32h7xx_ll_usb.c ****   /* Clear all pending Device Interrupts */
 366:../../Drivers/STM32H7xx_HAL_Driver/Src/stm32h7xx_ll_usb.c ****   USBx_DEVICE->DIEPMSK = 0U;
 367:../../Drivers/STM32H7xx_HAL_Driver/Src/stm32h7xx_ll_usb.c ****   USBx_DEVICE->DOEPMSK = 0U;
 368:../../Drivers/STM32H7xx_HAL_Driver/Src/stm32h7xx_ll_usb.c ****   USBx_DEVICE->DAINTMSK = 0U;
 369:../../Drivers/STM32H7xx_HAL_Driver/Src/stm32h7xx_ll_usb.c **** 
 370:../../Drivers/STM32H7xx_HAL_Driver/Src/stm32h7xx_ll_usb.c ****   for (i = 0U; i < cfg.dev_endpoints; i++)
 371:../../Drivers/STM32H7xx_HAL_Driver/Src/stm32h7xx_ll_usb.c ****   {
 372:../../Drivers/STM32H7xx_HAL_Driver/Src/stm32h7xx_ll_usb.c ****     if ((USBx_INEP(i)->DIEPCTL & USB_OTG_DIEPCTL_EPENA) == USB_OTG_DIEPCTL_EPENA)
 373:../../Drivers/STM32H7xx_HAL_Driver/Src/stm32h7xx_ll_usb.c ****     {
ARM GAS  C:\Users\gigig\AppData\Local\Temp\ccBJNrpK.s 			page 8


 374:../../Drivers/STM32H7xx_HAL_Driver/Src/stm32h7xx_ll_usb.c ****       if (i == 0U)
 375:../../Drivers/STM32H7xx_HAL_Driver/Src/stm32h7xx_ll_usb.c ****       {
 376:../../Drivers/STM32H7xx_HAL_Driver/Src/stm32h7xx_ll_usb.c ****         USBx_INEP(i)->DIEPCTL = USB_OTG_DIEPCTL_SNAK;
 377:../../Drivers/STM32H7xx_HAL_Driver/Src/stm32h7xx_ll_usb.c ****       }
 378:../../Drivers/STM32H7xx_HAL_Driver/Src/stm32h7xx_ll_usb.c ****       else
 379:../../Drivers/STM32H7xx_HAL_Driver/Src/stm32h7xx_ll_usb.c ****       {
 380:../../Drivers/STM32H7xx_HAL_Driver/Src/stm32h7xx_ll_usb.c ****         USBx_INEP(i)->DIEPCTL = USB_OTG_DIEPCTL_EPDIS | USB_OTG_DIEPCTL_SNAK;
 381:../../Drivers/STM32H7xx_HAL_Driver/Src/stm32h7xx_ll_usb.c ****       }
 382:../../Drivers/STM32H7xx_HAL_Driver/Src/stm32h7xx_ll_usb.c ****     }
 383:../../Drivers/STM32H7xx_HAL_Driver/Src/stm32h7xx_ll_usb.c ****     else
 384:../../Drivers/STM32H7xx_HAL_Driver/Src/stm32h7xx_ll_usb.c ****     {
 385:../../Drivers/STM32H7xx_HAL_Driver/Src/stm32h7xx_ll_usb.c ****       USBx_INEP(i)->DIEPCTL = 0U;
 386:../../Drivers/STM32H7xx_HAL_Driver/Src/stm32h7xx_ll_usb.c ****     }
 387:../../Drivers/STM32H7xx_HAL_Driver/Src/stm32h7xx_ll_usb.c **** 
 388:../../Drivers/STM32H7xx_HAL_Driver/Src/stm32h7xx_ll_usb.c ****     USBx_INEP(i)->DIEPTSIZ = 0U;
 389:../../Drivers/STM32H7xx_HAL_Driver/Src/stm32h7xx_ll_usb.c ****     USBx_INEP(i)->DIEPINT  = 0xFB7FU;
 390:../../Drivers/STM32H7xx_HAL_Driver/Src/stm32h7xx_ll_usb.c ****   }
 391:../../Drivers/STM32H7xx_HAL_Driver/Src/stm32h7xx_ll_usb.c **** 
 392:../../Drivers/STM32H7xx_HAL_Driver/Src/stm32h7xx_ll_usb.c ****   for (i = 0U; i < cfg.dev_endpoints; i++)
 393:../../Drivers/STM32H7xx_HAL_Driver/Src/stm32h7xx_ll_usb.c ****   {
 394:../../Drivers/STM32H7xx_HAL_Driver/Src/stm32h7xx_ll_usb.c ****     if ((USBx_OUTEP(i)->DOEPCTL & USB_OTG_DOEPCTL_EPENA) == USB_OTG_DOEPCTL_EPENA)
 395:../../Drivers/STM32H7xx_HAL_Driver/Src/stm32h7xx_ll_usb.c ****     {
 396:../../Drivers/STM32H7xx_HAL_Driver/Src/stm32h7xx_ll_usb.c ****       if (i == 0U)
 397:../../Drivers/STM32H7xx_HAL_Driver/Src/stm32h7xx_ll_usb.c ****       {
 398:../../Drivers/STM32H7xx_HAL_Driver/Src/stm32h7xx_ll_usb.c ****         USBx_OUTEP(i)->DOEPCTL = USB_OTG_DOEPCTL_SNAK;
 399:../../Drivers/STM32H7xx_HAL_Driver/Src/stm32h7xx_ll_usb.c ****       }
 400:../../Drivers/STM32H7xx_HAL_Driver/Src/stm32h7xx_ll_usb.c ****       else
 401:../../Drivers/STM32H7xx_HAL_Driver/Src/stm32h7xx_ll_usb.c ****       {
 402:../../Drivers/STM32H7xx_HAL_Driver/Src/stm32h7xx_ll_usb.c ****         USBx_OUTEP(i)->DOEPCTL = USB_OTG_DOEPCTL_EPDIS | USB_OTG_DOEPCTL_SNAK;
 403:../../Drivers/STM32H7xx_HAL_Driver/Src/stm32h7xx_ll_usb.c ****       }
 404:../../Drivers/STM32H7xx_HAL_Driver/Src/stm32h7xx_ll_usb.c ****     }
 405:../../Drivers/STM32H7xx_HAL_Driver/Src/stm32h7xx_ll_usb.c ****     else
 406:../../Drivers/STM32H7xx_HAL_Driver/Src/stm32h7xx_ll_usb.c ****     {
 407:../../Drivers/STM32H7xx_HAL_Driver/Src/stm32h7xx_ll_usb.c ****       USBx_OUTEP(i)->DOEPCTL = 0U;
 408:../../Drivers/STM32H7xx_HAL_Driver/Src/stm32h7xx_ll_usb.c ****     }
 409:../../Drivers/STM32H7xx_HAL_Driver/Src/stm32h7xx_ll_usb.c **** 
 410:../../Drivers/STM32H7xx_HAL_Driver/Src/stm32h7xx_ll_usb.c ****     USBx_OUTEP(i)->DOEPTSIZ = 0U;
 411:../../Drivers/STM32H7xx_HAL_Driver/Src/stm32h7xx_ll_usb.c ****     USBx_OUTEP(i)->DOEPINT  = 0xFB7FU;
 412:../../Drivers/STM32H7xx_HAL_Driver/Src/stm32h7xx_ll_usb.c ****   }
 413:../../Drivers/STM32H7xx_HAL_Driver/Src/stm32h7xx_ll_usb.c **** 
 414:../../Drivers/STM32H7xx_HAL_Driver/Src/stm32h7xx_ll_usb.c ****   USBx_DEVICE->DIEPMSK &= ~(USB_OTG_DIEPMSK_TXFURM);
 415:../../Drivers/STM32H7xx_HAL_Driver/Src/stm32h7xx_ll_usb.c **** 
 416:../../Drivers/STM32H7xx_HAL_Driver/Src/stm32h7xx_ll_usb.c ****   /* Disable all interrupts. */
 417:../../Drivers/STM32H7xx_HAL_Driver/Src/stm32h7xx_ll_usb.c ****   USBx->GINTMSK = 0U;
 418:../../Drivers/STM32H7xx_HAL_Driver/Src/stm32h7xx_ll_usb.c **** 
 419:../../Drivers/STM32H7xx_HAL_Driver/Src/stm32h7xx_ll_usb.c ****   /* Clear any pending interrupts */
 420:../../Drivers/STM32H7xx_HAL_Driver/Src/stm32h7xx_ll_usb.c ****   USBx->GINTSTS = 0xBFFFFFFFU;
 421:../../Drivers/STM32H7xx_HAL_Driver/Src/stm32h7xx_ll_usb.c **** 
 422:../../Drivers/STM32H7xx_HAL_Driver/Src/stm32h7xx_ll_usb.c ****   /* Enable the common interrupts */
 423:../../Drivers/STM32H7xx_HAL_Driver/Src/stm32h7xx_ll_usb.c ****   if (cfg.dma_enable == 0U)
 424:../../Drivers/STM32H7xx_HAL_Driver/Src/stm32h7xx_ll_usb.c ****   {
 425:../../Drivers/STM32H7xx_HAL_Driver/Src/stm32h7xx_ll_usb.c ****     USBx->GINTMSK |= USB_OTG_GINTMSK_RXFLVLM;
 426:../../Drivers/STM32H7xx_HAL_Driver/Src/stm32h7xx_ll_usb.c ****   }
 427:../../Drivers/STM32H7xx_HAL_Driver/Src/stm32h7xx_ll_usb.c **** 
 428:../../Drivers/STM32H7xx_HAL_Driver/Src/stm32h7xx_ll_usb.c ****   /* Enable interrupts matching to the Device mode ONLY */
 429:../../Drivers/STM32H7xx_HAL_Driver/Src/stm32h7xx_ll_usb.c ****   USBx->GINTMSK |= USB_OTG_GINTMSK_USBSUSPM | USB_OTG_GINTMSK_USBRST |
 430:../../Drivers/STM32H7xx_HAL_Driver/Src/stm32h7xx_ll_usb.c ****                    USB_OTG_GINTMSK_ENUMDNEM | USB_OTG_GINTMSK_IEPINT |
ARM GAS  C:\Users\gigig\AppData\Local\Temp\ccBJNrpK.s 			page 9


 431:../../Drivers/STM32H7xx_HAL_Driver/Src/stm32h7xx_ll_usb.c ****                    USB_OTG_GINTMSK_OEPINT   | USB_OTG_GINTMSK_IISOIXFRM |
 432:../../Drivers/STM32H7xx_HAL_Driver/Src/stm32h7xx_ll_usb.c ****                    USB_OTG_GINTMSK_PXFRM_IISOOXFRM | USB_OTG_GINTMSK_WUIM;
 433:../../Drivers/STM32H7xx_HAL_Driver/Src/stm32h7xx_ll_usb.c **** 
 434:../../Drivers/STM32H7xx_HAL_Driver/Src/stm32h7xx_ll_usb.c ****   if (cfg.Sof_enable != 0U)
 435:../../Drivers/STM32H7xx_HAL_Driver/Src/stm32h7xx_ll_usb.c ****   {
 436:../../Drivers/STM32H7xx_HAL_Driver/Src/stm32h7xx_ll_usb.c ****     USBx->GINTMSK |= USB_OTG_GINTMSK_SOFM;
 437:../../Drivers/STM32H7xx_HAL_Driver/Src/stm32h7xx_ll_usb.c ****   }
 438:../../Drivers/STM32H7xx_HAL_Driver/Src/stm32h7xx_ll_usb.c **** 
 439:../../Drivers/STM32H7xx_HAL_Driver/Src/stm32h7xx_ll_usb.c ****   if (cfg.vbus_sensing_enable == 1U)
 440:../../Drivers/STM32H7xx_HAL_Driver/Src/stm32h7xx_ll_usb.c ****   {
 441:../../Drivers/STM32H7xx_HAL_Driver/Src/stm32h7xx_ll_usb.c ****     USBx->GINTMSK |= (USB_OTG_GINTMSK_SRQIM | USB_OTG_GINTMSK_OTGINT);
 442:../../Drivers/STM32H7xx_HAL_Driver/Src/stm32h7xx_ll_usb.c ****   }
 443:../../Drivers/STM32H7xx_HAL_Driver/Src/stm32h7xx_ll_usb.c **** 
 444:../../Drivers/STM32H7xx_HAL_Driver/Src/stm32h7xx_ll_usb.c ****   return ret;
 445:../../Drivers/STM32H7xx_HAL_Driver/Src/stm32h7xx_ll_usb.c **** }
 446:../../Drivers/STM32H7xx_HAL_Driver/Src/stm32h7xx_ll_usb.c **** 
 447:../../Drivers/STM32H7xx_HAL_Driver/Src/stm32h7xx_ll_usb.c **** /**
 448:../../Drivers/STM32H7xx_HAL_Driver/Src/stm32h7xx_ll_usb.c ****   * @brief  USB_FlushTxFifo Flush a Tx FIFO
 449:../../Drivers/STM32H7xx_HAL_Driver/Src/stm32h7xx_ll_usb.c ****   * @param  USBx  Selected device
 450:../../Drivers/STM32H7xx_HAL_Driver/Src/stm32h7xx_ll_usb.c ****   * @param  num  FIFO number
 451:../../Drivers/STM32H7xx_HAL_Driver/Src/stm32h7xx_ll_usb.c ****   *         This parameter can be a value from 1 to 15
 452:../../Drivers/STM32H7xx_HAL_Driver/Src/stm32h7xx_ll_usb.c ****             15 means Flush all Tx FIFOs
 453:../../Drivers/STM32H7xx_HAL_Driver/Src/stm32h7xx_ll_usb.c ****   * @retval HAL status
 454:../../Drivers/STM32H7xx_HAL_Driver/Src/stm32h7xx_ll_usb.c ****   */
 455:../../Drivers/STM32H7xx_HAL_Driver/Src/stm32h7xx_ll_usb.c **** HAL_StatusTypeDef USB_FlushTxFifo(USB_OTG_GlobalTypeDef *USBx, uint32_t num)
 456:../../Drivers/STM32H7xx_HAL_Driver/Src/stm32h7xx_ll_usb.c **** {
 457:../../Drivers/STM32H7xx_HAL_Driver/Src/stm32h7xx_ll_usb.c ****   __IO uint32_t count = 0U;
 458:../../Drivers/STM32H7xx_HAL_Driver/Src/stm32h7xx_ll_usb.c **** 
 459:../../Drivers/STM32H7xx_HAL_Driver/Src/stm32h7xx_ll_usb.c ****   /* Wait for AHB master IDLE state. */
 460:../../Drivers/STM32H7xx_HAL_Driver/Src/stm32h7xx_ll_usb.c ****   do
 461:../../Drivers/STM32H7xx_HAL_Driver/Src/stm32h7xx_ll_usb.c ****   {
 462:../../Drivers/STM32H7xx_HAL_Driver/Src/stm32h7xx_ll_usb.c ****     count++;
 463:../../Drivers/STM32H7xx_HAL_Driver/Src/stm32h7xx_ll_usb.c **** 
 464:../../Drivers/STM32H7xx_HAL_Driver/Src/stm32h7xx_ll_usb.c ****     if (count > 200000U)
 465:../../Drivers/STM32H7xx_HAL_Driver/Src/stm32h7xx_ll_usb.c ****     {
 466:../../Drivers/STM32H7xx_HAL_Driver/Src/stm32h7xx_ll_usb.c ****       return HAL_TIMEOUT;
 467:../../Drivers/STM32H7xx_HAL_Driver/Src/stm32h7xx_ll_usb.c ****     }
 468:../../Drivers/STM32H7xx_HAL_Driver/Src/stm32h7xx_ll_usb.c ****   } while ((USBx->GRSTCTL & USB_OTG_GRSTCTL_AHBIDL) == 0U);
 469:../../Drivers/STM32H7xx_HAL_Driver/Src/stm32h7xx_ll_usb.c **** 
 470:../../Drivers/STM32H7xx_HAL_Driver/Src/stm32h7xx_ll_usb.c ****   /* Flush TX Fifo */
 471:../../Drivers/STM32H7xx_HAL_Driver/Src/stm32h7xx_ll_usb.c ****   count = 0U;
 472:../../Drivers/STM32H7xx_HAL_Driver/Src/stm32h7xx_ll_usb.c ****   USBx->GRSTCTL = (USB_OTG_GRSTCTL_TXFFLSH | (num << 6));
 473:../../Drivers/STM32H7xx_HAL_Driver/Src/stm32h7xx_ll_usb.c **** 
 474:../../Drivers/STM32H7xx_HAL_Driver/Src/stm32h7xx_ll_usb.c ****   do
 475:../../Drivers/STM32H7xx_HAL_Driver/Src/stm32h7xx_ll_usb.c ****   {
 476:../../Drivers/STM32H7xx_HAL_Driver/Src/stm32h7xx_ll_usb.c ****     count++;
 477:../../Drivers/STM32H7xx_HAL_Driver/Src/stm32h7xx_ll_usb.c **** 
 478:../../Drivers/STM32H7xx_HAL_Driver/Src/stm32h7xx_ll_usb.c ****     if (count > 200000U)
 479:../../Drivers/STM32H7xx_HAL_Driver/Src/stm32h7xx_ll_usb.c ****     {
 480:../../Drivers/STM32H7xx_HAL_Driver/Src/stm32h7xx_ll_usb.c ****       return HAL_TIMEOUT;
 481:../../Drivers/STM32H7xx_HAL_Driver/Src/stm32h7xx_ll_usb.c ****     }
 482:../../Drivers/STM32H7xx_HAL_Driver/Src/stm32h7xx_ll_usb.c ****   } while ((USBx->GRSTCTL & USB_OTG_GRSTCTL_TXFFLSH) == USB_OTG_GRSTCTL_TXFFLSH);
 483:../../Drivers/STM32H7xx_HAL_Driver/Src/stm32h7xx_ll_usb.c **** 
 484:../../Drivers/STM32H7xx_HAL_Driver/Src/stm32h7xx_ll_usb.c ****   return HAL_OK;
 485:../../Drivers/STM32H7xx_HAL_Driver/Src/stm32h7xx_ll_usb.c **** }
 486:../../Drivers/STM32H7xx_HAL_Driver/Src/stm32h7xx_ll_usb.c **** 
 487:../../Drivers/STM32H7xx_HAL_Driver/Src/stm32h7xx_ll_usb.c **** /**
ARM GAS  C:\Users\gigig\AppData\Local\Temp\ccBJNrpK.s 			page 10


 488:../../Drivers/STM32H7xx_HAL_Driver/Src/stm32h7xx_ll_usb.c ****   * @brief  USB_FlushRxFifo  Flush Rx FIFO
 489:../../Drivers/STM32H7xx_HAL_Driver/Src/stm32h7xx_ll_usb.c ****   * @param  USBx  Selected device
 490:../../Drivers/STM32H7xx_HAL_Driver/Src/stm32h7xx_ll_usb.c ****   * @retval HAL status
 491:../../Drivers/STM32H7xx_HAL_Driver/Src/stm32h7xx_ll_usb.c ****   */
 492:../../Drivers/STM32H7xx_HAL_Driver/Src/stm32h7xx_ll_usb.c **** HAL_StatusTypeDef USB_FlushRxFifo(USB_OTG_GlobalTypeDef *USBx)
 493:../../Drivers/STM32H7xx_HAL_Driver/Src/stm32h7xx_ll_usb.c **** {
 494:../../Drivers/STM32H7xx_HAL_Driver/Src/stm32h7xx_ll_usb.c ****   __IO uint32_t count = 0U;
 495:../../Drivers/STM32H7xx_HAL_Driver/Src/stm32h7xx_ll_usb.c **** 
 496:../../Drivers/STM32H7xx_HAL_Driver/Src/stm32h7xx_ll_usb.c ****   /* Wait for AHB master IDLE state. */
 497:../../Drivers/STM32H7xx_HAL_Driver/Src/stm32h7xx_ll_usb.c ****   do
 498:../../Drivers/STM32H7xx_HAL_Driver/Src/stm32h7xx_ll_usb.c ****   {
 499:../../Drivers/STM32H7xx_HAL_Driver/Src/stm32h7xx_ll_usb.c ****     count++;
 500:../../Drivers/STM32H7xx_HAL_Driver/Src/stm32h7xx_ll_usb.c **** 
 501:../../Drivers/STM32H7xx_HAL_Driver/Src/stm32h7xx_ll_usb.c ****     if (count > 200000U)
 502:../../Drivers/STM32H7xx_HAL_Driver/Src/stm32h7xx_ll_usb.c ****     {
 503:../../Drivers/STM32H7xx_HAL_Driver/Src/stm32h7xx_ll_usb.c ****       return HAL_TIMEOUT;
 504:../../Drivers/STM32H7xx_HAL_Driver/Src/stm32h7xx_ll_usb.c ****     }
 505:../../Drivers/STM32H7xx_HAL_Driver/Src/stm32h7xx_ll_usb.c ****   } while ((USBx->GRSTCTL & USB_OTG_GRSTCTL_AHBIDL) == 0U);
 506:../../Drivers/STM32H7xx_HAL_Driver/Src/stm32h7xx_ll_usb.c **** 
 507:../../Drivers/STM32H7xx_HAL_Driver/Src/stm32h7xx_ll_usb.c ****   /* Flush RX Fifo */
 508:../../Drivers/STM32H7xx_HAL_Driver/Src/stm32h7xx_ll_usb.c ****   count = 0U;
 509:../../Drivers/STM32H7xx_HAL_Driver/Src/stm32h7xx_ll_usb.c ****   USBx->GRSTCTL = USB_OTG_GRSTCTL_RXFFLSH;
 510:../../Drivers/STM32H7xx_HAL_Driver/Src/stm32h7xx_ll_usb.c **** 
 511:../../Drivers/STM32H7xx_HAL_Driver/Src/stm32h7xx_ll_usb.c ****   do
 512:../../Drivers/STM32H7xx_HAL_Driver/Src/stm32h7xx_ll_usb.c ****   {
 513:../../Drivers/STM32H7xx_HAL_Driver/Src/stm32h7xx_ll_usb.c ****     count++;
 514:../../Drivers/STM32H7xx_HAL_Driver/Src/stm32h7xx_ll_usb.c **** 
 515:../../Drivers/STM32H7xx_HAL_Driver/Src/stm32h7xx_ll_usb.c ****     if (count > 200000U)
 516:../../Drivers/STM32H7xx_HAL_Driver/Src/stm32h7xx_ll_usb.c ****     {
 517:../../Drivers/STM32H7xx_HAL_Driver/Src/stm32h7xx_ll_usb.c ****       return HAL_TIMEOUT;
 518:../../Drivers/STM32H7xx_HAL_Driver/Src/stm32h7xx_ll_usb.c ****     }
 519:../../Drivers/STM32H7xx_HAL_Driver/Src/stm32h7xx_ll_usb.c ****   } while ((USBx->GRSTCTL & USB_OTG_GRSTCTL_RXFFLSH) == USB_OTG_GRSTCTL_RXFFLSH);
 520:../../Drivers/STM32H7xx_HAL_Driver/Src/stm32h7xx_ll_usb.c **** 
 521:../../Drivers/STM32H7xx_HAL_Driver/Src/stm32h7xx_ll_usb.c ****   return HAL_OK;
 522:../../Drivers/STM32H7xx_HAL_Driver/Src/stm32h7xx_ll_usb.c **** }
 523:../../Drivers/STM32H7xx_HAL_Driver/Src/stm32h7xx_ll_usb.c **** 
 524:../../Drivers/STM32H7xx_HAL_Driver/Src/stm32h7xx_ll_usb.c **** /**
 525:../../Drivers/STM32H7xx_HAL_Driver/Src/stm32h7xx_ll_usb.c ****   * @brief  USB_SetDevSpeed  Initializes the DevSpd field of DCFG register
 526:../../Drivers/STM32H7xx_HAL_Driver/Src/stm32h7xx_ll_usb.c ****   *         depending the PHY type and the enumeration speed of the device.
 527:../../Drivers/STM32H7xx_HAL_Driver/Src/stm32h7xx_ll_usb.c ****   * @param  USBx  Selected device
 528:../../Drivers/STM32H7xx_HAL_Driver/Src/stm32h7xx_ll_usb.c ****   * @param  speed  device speed
 529:../../Drivers/STM32H7xx_HAL_Driver/Src/stm32h7xx_ll_usb.c ****   *          This parameter can be one of these values:
 530:../../Drivers/STM32H7xx_HAL_Driver/Src/stm32h7xx_ll_usb.c ****   *            @arg USB_OTG_SPEED_HIGH: High speed mode
 531:../../Drivers/STM32H7xx_HAL_Driver/Src/stm32h7xx_ll_usb.c ****   *            @arg USB_OTG_SPEED_HIGH_IN_FULL: High speed core in Full Speed mode
 532:../../Drivers/STM32H7xx_HAL_Driver/Src/stm32h7xx_ll_usb.c ****   *            @arg USB_OTG_SPEED_FULL: Full speed mode
 533:../../Drivers/STM32H7xx_HAL_Driver/Src/stm32h7xx_ll_usb.c ****   * @retval  Hal status
 534:../../Drivers/STM32H7xx_HAL_Driver/Src/stm32h7xx_ll_usb.c ****   */
 535:../../Drivers/STM32H7xx_HAL_Driver/Src/stm32h7xx_ll_usb.c **** HAL_StatusTypeDef USB_SetDevSpeed(USB_OTG_GlobalTypeDef *USBx, uint8_t speed)
 536:../../Drivers/STM32H7xx_HAL_Driver/Src/stm32h7xx_ll_usb.c **** {
 537:../../Drivers/STM32H7xx_HAL_Driver/Src/stm32h7xx_ll_usb.c ****   uint32_t USBx_BASE = (uint32_t)USBx;
 538:../../Drivers/STM32H7xx_HAL_Driver/Src/stm32h7xx_ll_usb.c **** 
 539:../../Drivers/STM32H7xx_HAL_Driver/Src/stm32h7xx_ll_usb.c ****   USBx_DEVICE->DCFG |= speed;
 540:../../Drivers/STM32H7xx_HAL_Driver/Src/stm32h7xx_ll_usb.c ****   return HAL_OK;
 541:../../Drivers/STM32H7xx_HAL_Driver/Src/stm32h7xx_ll_usb.c **** }
 542:../../Drivers/STM32H7xx_HAL_Driver/Src/stm32h7xx_ll_usb.c **** 
 543:../../Drivers/STM32H7xx_HAL_Driver/Src/stm32h7xx_ll_usb.c **** /**
 544:../../Drivers/STM32H7xx_HAL_Driver/Src/stm32h7xx_ll_usb.c ****   * @brief  USB_GetDevSpeed  Return the Dev Speed
ARM GAS  C:\Users\gigig\AppData\Local\Temp\ccBJNrpK.s 			page 11


 545:../../Drivers/STM32H7xx_HAL_Driver/Src/stm32h7xx_ll_usb.c ****   * @param  USBx  Selected device
 546:../../Drivers/STM32H7xx_HAL_Driver/Src/stm32h7xx_ll_usb.c ****   * @retval speed  device speed
 547:../../Drivers/STM32H7xx_HAL_Driver/Src/stm32h7xx_ll_usb.c ****   *          This parameter can be one of these values:
 548:../../Drivers/STM32H7xx_HAL_Driver/Src/stm32h7xx_ll_usb.c ****   *            @arg USBD_HS_SPEED: High speed mode
 549:../../Drivers/STM32H7xx_HAL_Driver/Src/stm32h7xx_ll_usb.c ****   *            @arg USBD_FS_SPEED: Full speed mode
 550:../../Drivers/STM32H7xx_HAL_Driver/Src/stm32h7xx_ll_usb.c ****   */
 551:../../Drivers/STM32H7xx_HAL_Driver/Src/stm32h7xx_ll_usb.c **** uint8_t USB_GetDevSpeed(USB_OTG_GlobalTypeDef *USBx)
 552:../../Drivers/STM32H7xx_HAL_Driver/Src/stm32h7xx_ll_usb.c **** {
 553:../../Drivers/STM32H7xx_HAL_Driver/Src/stm32h7xx_ll_usb.c ****   uint32_t USBx_BASE = (uint32_t)USBx;
 554:../../Drivers/STM32H7xx_HAL_Driver/Src/stm32h7xx_ll_usb.c ****   uint8_t speed;
 555:../../Drivers/STM32H7xx_HAL_Driver/Src/stm32h7xx_ll_usb.c ****   uint32_t DevEnumSpeed = USBx_DEVICE->DSTS & USB_OTG_DSTS_ENUMSPD;
 556:../../Drivers/STM32H7xx_HAL_Driver/Src/stm32h7xx_ll_usb.c **** 
 557:../../Drivers/STM32H7xx_HAL_Driver/Src/stm32h7xx_ll_usb.c ****   if (DevEnumSpeed == DSTS_ENUMSPD_HS_PHY_30MHZ_OR_60MHZ)
 558:../../Drivers/STM32H7xx_HAL_Driver/Src/stm32h7xx_ll_usb.c ****   {
 559:../../Drivers/STM32H7xx_HAL_Driver/Src/stm32h7xx_ll_usb.c ****     speed = USBD_HS_SPEED;
 560:../../Drivers/STM32H7xx_HAL_Driver/Src/stm32h7xx_ll_usb.c ****   }
 561:../../Drivers/STM32H7xx_HAL_Driver/Src/stm32h7xx_ll_usb.c ****   else if ((DevEnumSpeed == DSTS_ENUMSPD_FS_PHY_30MHZ_OR_60MHZ) ||
 562:../../Drivers/STM32H7xx_HAL_Driver/Src/stm32h7xx_ll_usb.c ****            (DevEnumSpeed == DSTS_ENUMSPD_FS_PHY_48MHZ))
 563:../../Drivers/STM32H7xx_HAL_Driver/Src/stm32h7xx_ll_usb.c ****   {
 564:../../Drivers/STM32H7xx_HAL_Driver/Src/stm32h7xx_ll_usb.c ****     speed = USBD_FS_SPEED;
 565:../../Drivers/STM32H7xx_HAL_Driver/Src/stm32h7xx_ll_usb.c ****   }
 566:../../Drivers/STM32H7xx_HAL_Driver/Src/stm32h7xx_ll_usb.c ****   else
 567:../../Drivers/STM32H7xx_HAL_Driver/Src/stm32h7xx_ll_usb.c ****   {
 568:../../Drivers/STM32H7xx_HAL_Driver/Src/stm32h7xx_ll_usb.c ****     speed = 0xFU;
 569:../../Drivers/STM32H7xx_HAL_Driver/Src/stm32h7xx_ll_usb.c ****   }
 570:../../Drivers/STM32H7xx_HAL_Driver/Src/stm32h7xx_ll_usb.c **** 
 571:../../Drivers/STM32H7xx_HAL_Driver/Src/stm32h7xx_ll_usb.c ****   return speed;
 572:../../Drivers/STM32H7xx_HAL_Driver/Src/stm32h7xx_ll_usb.c **** }
 573:../../Drivers/STM32H7xx_HAL_Driver/Src/stm32h7xx_ll_usb.c **** 
 574:../../Drivers/STM32H7xx_HAL_Driver/Src/stm32h7xx_ll_usb.c **** /**
 575:../../Drivers/STM32H7xx_HAL_Driver/Src/stm32h7xx_ll_usb.c ****   * @brief  Activate and configure an endpoint
 576:../../Drivers/STM32H7xx_HAL_Driver/Src/stm32h7xx_ll_usb.c ****   * @param  USBx  Selected device
 577:../../Drivers/STM32H7xx_HAL_Driver/Src/stm32h7xx_ll_usb.c ****   * @param  ep pointer to endpoint structure
 578:../../Drivers/STM32H7xx_HAL_Driver/Src/stm32h7xx_ll_usb.c ****   * @retval HAL status
 579:../../Drivers/STM32H7xx_HAL_Driver/Src/stm32h7xx_ll_usb.c ****   */
 580:../../Drivers/STM32H7xx_HAL_Driver/Src/stm32h7xx_ll_usb.c **** HAL_StatusTypeDef USB_ActivateEndpoint(USB_OTG_GlobalTypeDef *USBx, USB_OTG_EPTypeDef *ep)
 581:../../Drivers/STM32H7xx_HAL_Driver/Src/stm32h7xx_ll_usb.c **** {
 582:../../Drivers/STM32H7xx_HAL_Driver/Src/stm32h7xx_ll_usb.c ****   uint32_t USBx_BASE = (uint32_t)USBx;
 583:../../Drivers/STM32H7xx_HAL_Driver/Src/stm32h7xx_ll_usb.c ****   uint32_t epnum = (uint32_t)ep->num;
 584:../../Drivers/STM32H7xx_HAL_Driver/Src/stm32h7xx_ll_usb.c **** 
 585:../../Drivers/STM32H7xx_HAL_Driver/Src/stm32h7xx_ll_usb.c ****   if (ep->is_in == 1U)
 586:../../Drivers/STM32H7xx_HAL_Driver/Src/stm32h7xx_ll_usb.c ****   {
 587:../../Drivers/STM32H7xx_HAL_Driver/Src/stm32h7xx_ll_usb.c ****     USBx_DEVICE->DAINTMSK |= USB_OTG_DAINTMSK_IEPM & (uint32_t)(1UL << (ep->num & EP_ADDR_MSK));
 588:../../Drivers/STM32H7xx_HAL_Driver/Src/stm32h7xx_ll_usb.c **** 
 589:../../Drivers/STM32H7xx_HAL_Driver/Src/stm32h7xx_ll_usb.c ****     if ((USBx_INEP(epnum)->DIEPCTL & USB_OTG_DIEPCTL_USBAEP) == 0U)
 590:../../Drivers/STM32H7xx_HAL_Driver/Src/stm32h7xx_ll_usb.c ****     {
 591:../../Drivers/STM32H7xx_HAL_Driver/Src/stm32h7xx_ll_usb.c ****       USBx_INEP(epnum)->DIEPCTL |= (ep->maxpacket & USB_OTG_DIEPCTL_MPSIZ) |
 592:../../Drivers/STM32H7xx_HAL_Driver/Src/stm32h7xx_ll_usb.c ****                                    ((uint32_t)ep->type << 18) | (epnum << 22) |
 593:../../Drivers/STM32H7xx_HAL_Driver/Src/stm32h7xx_ll_usb.c ****                                    USB_OTG_DIEPCTL_SD0PID_SEVNFRM |
 594:../../Drivers/STM32H7xx_HAL_Driver/Src/stm32h7xx_ll_usb.c ****                                    USB_OTG_DIEPCTL_USBAEP;
 595:../../Drivers/STM32H7xx_HAL_Driver/Src/stm32h7xx_ll_usb.c ****     }
 596:../../Drivers/STM32H7xx_HAL_Driver/Src/stm32h7xx_ll_usb.c ****   }
 597:../../Drivers/STM32H7xx_HAL_Driver/Src/stm32h7xx_ll_usb.c ****   else
 598:../../Drivers/STM32H7xx_HAL_Driver/Src/stm32h7xx_ll_usb.c ****   {
 599:../../Drivers/STM32H7xx_HAL_Driver/Src/stm32h7xx_ll_usb.c ****     USBx_DEVICE->DAINTMSK |= USB_OTG_DAINTMSK_OEPM & ((uint32_t)(1UL << (ep->num & EP_ADDR_MSK)) <<
 600:../../Drivers/STM32H7xx_HAL_Driver/Src/stm32h7xx_ll_usb.c **** 
 601:../../Drivers/STM32H7xx_HAL_Driver/Src/stm32h7xx_ll_usb.c ****     if (((USBx_OUTEP(epnum)->DOEPCTL) & USB_OTG_DOEPCTL_USBAEP) == 0U)
ARM GAS  C:\Users\gigig\AppData\Local\Temp\ccBJNrpK.s 			page 12


 602:../../Drivers/STM32H7xx_HAL_Driver/Src/stm32h7xx_ll_usb.c ****     {
 603:../../Drivers/STM32H7xx_HAL_Driver/Src/stm32h7xx_ll_usb.c ****       USBx_OUTEP(epnum)->DOEPCTL |= (ep->maxpacket & USB_OTG_DOEPCTL_MPSIZ) |
 604:../../Drivers/STM32H7xx_HAL_Driver/Src/stm32h7xx_ll_usb.c ****                                     ((uint32_t)ep->type << 18) |
 605:../../Drivers/STM32H7xx_HAL_Driver/Src/stm32h7xx_ll_usb.c ****                                     USB_OTG_DIEPCTL_SD0PID_SEVNFRM |
 606:../../Drivers/STM32H7xx_HAL_Driver/Src/stm32h7xx_ll_usb.c ****                                     USB_OTG_DOEPCTL_USBAEP;
 607:../../Drivers/STM32H7xx_HAL_Driver/Src/stm32h7xx_ll_usb.c ****     }
 608:../../Drivers/STM32H7xx_HAL_Driver/Src/stm32h7xx_ll_usb.c ****   }
 609:../../Drivers/STM32H7xx_HAL_Driver/Src/stm32h7xx_ll_usb.c ****   return HAL_OK;
 610:../../Drivers/STM32H7xx_HAL_Driver/Src/stm32h7xx_ll_usb.c **** }
 611:../../Drivers/STM32H7xx_HAL_Driver/Src/stm32h7xx_ll_usb.c **** 
 612:../../Drivers/STM32H7xx_HAL_Driver/Src/stm32h7xx_ll_usb.c **** /**
 613:../../Drivers/STM32H7xx_HAL_Driver/Src/stm32h7xx_ll_usb.c ****   * @brief  Activate and configure a dedicated endpoint
 614:../../Drivers/STM32H7xx_HAL_Driver/Src/stm32h7xx_ll_usb.c ****   * @param  USBx  Selected device
 615:../../Drivers/STM32H7xx_HAL_Driver/Src/stm32h7xx_ll_usb.c ****   * @param  ep pointer to endpoint structure
 616:../../Drivers/STM32H7xx_HAL_Driver/Src/stm32h7xx_ll_usb.c ****   * @retval HAL status
 617:../../Drivers/STM32H7xx_HAL_Driver/Src/stm32h7xx_ll_usb.c ****   */
 618:../../Drivers/STM32H7xx_HAL_Driver/Src/stm32h7xx_ll_usb.c **** HAL_StatusTypeDef USB_ActivateDedicatedEndpoint(USB_OTG_GlobalTypeDef *USBx, USB_OTG_EPTypeDef *ep)
 619:../../Drivers/STM32H7xx_HAL_Driver/Src/stm32h7xx_ll_usb.c **** {
 620:../../Drivers/STM32H7xx_HAL_Driver/Src/stm32h7xx_ll_usb.c ****   uint32_t USBx_BASE = (uint32_t)USBx;
 621:../../Drivers/STM32H7xx_HAL_Driver/Src/stm32h7xx_ll_usb.c ****   uint32_t epnum = (uint32_t)ep->num;
 622:../../Drivers/STM32H7xx_HAL_Driver/Src/stm32h7xx_ll_usb.c **** 
 623:../../Drivers/STM32H7xx_HAL_Driver/Src/stm32h7xx_ll_usb.c ****   /* Read DEPCTLn register */
 624:../../Drivers/STM32H7xx_HAL_Driver/Src/stm32h7xx_ll_usb.c ****   if (ep->is_in == 1U)
 625:../../Drivers/STM32H7xx_HAL_Driver/Src/stm32h7xx_ll_usb.c ****   {
 626:../../Drivers/STM32H7xx_HAL_Driver/Src/stm32h7xx_ll_usb.c ****     if (((USBx_INEP(epnum)->DIEPCTL) & USB_OTG_DIEPCTL_USBAEP) == 0U)
 627:../../Drivers/STM32H7xx_HAL_Driver/Src/stm32h7xx_ll_usb.c ****     {
 628:../../Drivers/STM32H7xx_HAL_Driver/Src/stm32h7xx_ll_usb.c ****       USBx_INEP(epnum)->DIEPCTL |= (ep->maxpacket & USB_OTG_DIEPCTL_MPSIZ) |
 629:../../Drivers/STM32H7xx_HAL_Driver/Src/stm32h7xx_ll_usb.c ****                                    ((uint32_t)ep->type << 18) | (epnum << 22) |
 630:../../Drivers/STM32H7xx_HAL_Driver/Src/stm32h7xx_ll_usb.c ****                                    USB_OTG_DIEPCTL_SD0PID_SEVNFRM |
 631:../../Drivers/STM32H7xx_HAL_Driver/Src/stm32h7xx_ll_usb.c ****                                    USB_OTG_DIEPCTL_USBAEP;
 632:../../Drivers/STM32H7xx_HAL_Driver/Src/stm32h7xx_ll_usb.c ****     }
 633:../../Drivers/STM32H7xx_HAL_Driver/Src/stm32h7xx_ll_usb.c **** 
 634:../../Drivers/STM32H7xx_HAL_Driver/Src/stm32h7xx_ll_usb.c ****     USBx_DEVICE->DEACHMSK |= USB_OTG_DAINTMSK_IEPM & (uint32_t)(1UL << (ep->num & EP_ADDR_MSK));
 635:../../Drivers/STM32H7xx_HAL_Driver/Src/stm32h7xx_ll_usb.c ****   }
 636:../../Drivers/STM32H7xx_HAL_Driver/Src/stm32h7xx_ll_usb.c ****   else
 637:../../Drivers/STM32H7xx_HAL_Driver/Src/stm32h7xx_ll_usb.c ****   {
 638:../../Drivers/STM32H7xx_HAL_Driver/Src/stm32h7xx_ll_usb.c ****     if (((USBx_OUTEP(epnum)->DOEPCTL) & USB_OTG_DOEPCTL_USBAEP) == 0U)
 639:../../Drivers/STM32H7xx_HAL_Driver/Src/stm32h7xx_ll_usb.c ****     {
 640:../../Drivers/STM32H7xx_HAL_Driver/Src/stm32h7xx_ll_usb.c ****       USBx_OUTEP(epnum)->DOEPCTL |= (ep->maxpacket & USB_OTG_DOEPCTL_MPSIZ) |
 641:../../Drivers/STM32H7xx_HAL_Driver/Src/stm32h7xx_ll_usb.c ****                                     ((uint32_t)ep->type << 18) | (epnum << 22) |
 642:../../Drivers/STM32H7xx_HAL_Driver/Src/stm32h7xx_ll_usb.c ****                                     USB_OTG_DOEPCTL_USBAEP;
 643:../../Drivers/STM32H7xx_HAL_Driver/Src/stm32h7xx_ll_usb.c ****     }
 644:../../Drivers/STM32H7xx_HAL_Driver/Src/stm32h7xx_ll_usb.c **** 
 645:../../Drivers/STM32H7xx_HAL_Driver/Src/stm32h7xx_ll_usb.c ****     USBx_DEVICE->DEACHMSK |= USB_OTG_DAINTMSK_OEPM & ((uint32_t)(1UL << (ep->num & EP_ADDR_MSK)) <<
 646:../../Drivers/STM32H7xx_HAL_Driver/Src/stm32h7xx_ll_usb.c ****   }
 647:../../Drivers/STM32H7xx_HAL_Driver/Src/stm32h7xx_ll_usb.c **** 
 648:../../Drivers/STM32H7xx_HAL_Driver/Src/stm32h7xx_ll_usb.c ****   return HAL_OK;
 649:../../Drivers/STM32H7xx_HAL_Driver/Src/stm32h7xx_ll_usb.c **** }
 650:../../Drivers/STM32H7xx_HAL_Driver/Src/stm32h7xx_ll_usb.c **** 
 651:../../Drivers/STM32H7xx_HAL_Driver/Src/stm32h7xx_ll_usb.c **** /**
 652:../../Drivers/STM32H7xx_HAL_Driver/Src/stm32h7xx_ll_usb.c ****   * @brief  De-activate and de-initialize an endpoint
 653:../../Drivers/STM32H7xx_HAL_Driver/Src/stm32h7xx_ll_usb.c ****   * @param  USBx  Selected device
 654:../../Drivers/STM32H7xx_HAL_Driver/Src/stm32h7xx_ll_usb.c ****   * @param  ep pointer to endpoint structure
 655:../../Drivers/STM32H7xx_HAL_Driver/Src/stm32h7xx_ll_usb.c ****   * @retval HAL status
 656:../../Drivers/STM32H7xx_HAL_Driver/Src/stm32h7xx_ll_usb.c ****   */
 657:../../Drivers/STM32H7xx_HAL_Driver/Src/stm32h7xx_ll_usb.c **** HAL_StatusTypeDef USB_DeactivateEndpoint(USB_OTG_GlobalTypeDef *USBx, USB_OTG_EPTypeDef *ep)
 658:../../Drivers/STM32H7xx_HAL_Driver/Src/stm32h7xx_ll_usb.c **** {
ARM GAS  C:\Users\gigig\AppData\Local\Temp\ccBJNrpK.s 			page 13


 659:../../Drivers/STM32H7xx_HAL_Driver/Src/stm32h7xx_ll_usb.c ****   uint32_t USBx_BASE = (uint32_t)USBx;
 660:../../Drivers/STM32H7xx_HAL_Driver/Src/stm32h7xx_ll_usb.c ****   uint32_t epnum = (uint32_t)ep->num;
 661:../../Drivers/STM32H7xx_HAL_Driver/Src/stm32h7xx_ll_usb.c **** 
 662:../../Drivers/STM32H7xx_HAL_Driver/Src/stm32h7xx_ll_usb.c ****   /* Read DEPCTLn register */
 663:../../Drivers/STM32H7xx_HAL_Driver/Src/stm32h7xx_ll_usb.c ****   if (ep->is_in == 1U)
 664:../../Drivers/STM32H7xx_HAL_Driver/Src/stm32h7xx_ll_usb.c ****   {
 665:../../Drivers/STM32H7xx_HAL_Driver/Src/stm32h7xx_ll_usb.c ****     if ((USBx_INEP(epnum)->DIEPCTL & USB_OTG_DIEPCTL_EPENA) == USB_OTG_DIEPCTL_EPENA)
 666:../../Drivers/STM32H7xx_HAL_Driver/Src/stm32h7xx_ll_usb.c ****     {
 667:../../Drivers/STM32H7xx_HAL_Driver/Src/stm32h7xx_ll_usb.c ****       USBx_INEP(epnum)->DIEPCTL |= USB_OTG_DIEPCTL_SNAK;
 668:../../Drivers/STM32H7xx_HAL_Driver/Src/stm32h7xx_ll_usb.c ****       USBx_INEP(epnum)->DIEPCTL |= USB_OTG_DIEPCTL_EPDIS;
 669:../../Drivers/STM32H7xx_HAL_Driver/Src/stm32h7xx_ll_usb.c ****     }
 670:../../Drivers/STM32H7xx_HAL_Driver/Src/stm32h7xx_ll_usb.c **** 
 671:../../Drivers/STM32H7xx_HAL_Driver/Src/stm32h7xx_ll_usb.c ****     USBx_DEVICE->DEACHMSK &= ~(USB_OTG_DAINTMSK_IEPM & (uint32_t)(1UL << (ep->num & EP_ADDR_MSK)));
 672:../../Drivers/STM32H7xx_HAL_Driver/Src/stm32h7xx_ll_usb.c ****     USBx_DEVICE->DAINTMSK &= ~(USB_OTG_DAINTMSK_IEPM & (uint32_t)(1UL << (ep->num & EP_ADDR_MSK)));
 673:../../Drivers/STM32H7xx_HAL_Driver/Src/stm32h7xx_ll_usb.c ****     USBx_INEP(epnum)->DIEPCTL &= ~(USB_OTG_DIEPCTL_USBAEP |
 674:../../Drivers/STM32H7xx_HAL_Driver/Src/stm32h7xx_ll_usb.c ****                                    USB_OTG_DIEPCTL_MPSIZ |
 675:../../Drivers/STM32H7xx_HAL_Driver/Src/stm32h7xx_ll_usb.c ****                                    USB_OTG_DIEPCTL_TXFNUM |
 676:../../Drivers/STM32H7xx_HAL_Driver/Src/stm32h7xx_ll_usb.c ****                                    USB_OTG_DIEPCTL_SD0PID_SEVNFRM |
 677:../../Drivers/STM32H7xx_HAL_Driver/Src/stm32h7xx_ll_usb.c ****                                    USB_OTG_DIEPCTL_EPTYP);
 678:../../Drivers/STM32H7xx_HAL_Driver/Src/stm32h7xx_ll_usb.c ****   }
 679:../../Drivers/STM32H7xx_HAL_Driver/Src/stm32h7xx_ll_usb.c ****   else
 680:../../Drivers/STM32H7xx_HAL_Driver/Src/stm32h7xx_ll_usb.c ****   {
 681:../../Drivers/STM32H7xx_HAL_Driver/Src/stm32h7xx_ll_usb.c ****     if ((USBx_OUTEP(epnum)->DOEPCTL & USB_OTG_DOEPCTL_EPENA) == USB_OTG_DOEPCTL_EPENA)
 682:../../Drivers/STM32H7xx_HAL_Driver/Src/stm32h7xx_ll_usb.c ****     {
 683:../../Drivers/STM32H7xx_HAL_Driver/Src/stm32h7xx_ll_usb.c ****       USBx_OUTEP(epnum)->DOEPCTL |= USB_OTG_DOEPCTL_SNAK;
 684:../../Drivers/STM32H7xx_HAL_Driver/Src/stm32h7xx_ll_usb.c ****       USBx_OUTEP(epnum)->DOEPCTL |= USB_OTG_DOEPCTL_EPDIS;
 685:../../Drivers/STM32H7xx_HAL_Driver/Src/stm32h7xx_ll_usb.c ****     }
 686:../../Drivers/STM32H7xx_HAL_Driver/Src/stm32h7xx_ll_usb.c **** 
 687:../../Drivers/STM32H7xx_HAL_Driver/Src/stm32h7xx_ll_usb.c ****     USBx_DEVICE->DEACHMSK &= ~(USB_OTG_DAINTMSK_OEPM & ((uint32_t)(1UL << (ep->num & EP_ADDR_MSK)) 
 688:../../Drivers/STM32H7xx_HAL_Driver/Src/stm32h7xx_ll_usb.c ****     USBx_DEVICE->DAINTMSK &= ~(USB_OTG_DAINTMSK_OEPM & ((uint32_t)(1UL << (ep->num & EP_ADDR_MSK)) 
 689:../../Drivers/STM32H7xx_HAL_Driver/Src/stm32h7xx_ll_usb.c ****     USBx_OUTEP(epnum)->DOEPCTL &= ~(USB_OTG_DOEPCTL_USBAEP |
 690:../../Drivers/STM32H7xx_HAL_Driver/Src/stm32h7xx_ll_usb.c ****                                     USB_OTG_DOEPCTL_MPSIZ |
 691:../../Drivers/STM32H7xx_HAL_Driver/Src/stm32h7xx_ll_usb.c ****                                     USB_OTG_DOEPCTL_SD0PID_SEVNFRM |
 692:../../Drivers/STM32H7xx_HAL_Driver/Src/stm32h7xx_ll_usb.c ****                                     USB_OTG_DOEPCTL_EPTYP);
 693:../../Drivers/STM32H7xx_HAL_Driver/Src/stm32h7xx_ll_usb.c ****   }
 694:../../Drivers/STM32H7xx_HAL_Driver/Src/stm32h7xx_ll_usb.c **** 
 695:../../Drivers/STM32H7xx_HAL_Driver/Src/stm32h7xx_ll_usb.c ****   return HAL_OK;
 696:../../Drivers/STM32H7xx_HAL_Driver/Src/stm32h7xx_ll_usb.c **** }
 697:../../Drivers/STM32H7xx_HAL_Driver/Src/stm32h7xx_ll_usb.c **** 
 698:../../Drivers/STM32H7xx_HAL_Driver/Src/stm32h7xx_ll_usb.c **** /**
 699:../../Drivers/STM32H7xx_HAL_Driver/Src/stm32h7xx_ll_usb.c ****   * @brief  De-activate and de-initialize a dedicated endpoint
 700:../../Drivers/STM32H7xx_HAL_Driver/Src/stm32h7xx_ll_usb.c ****   * @param  USBx  Selected device
 701:../../Drivers/STM32H7xx_HAL_Driver/Src/stm32h7xx_ll_usb.c ****   * @param  ep pointer to endpoint structure
 702:../../Drivers/STM32H7xx_HAL_Driver/Src/stm32h7xx_ll_usb.c ****   * @retval HAL status
 703:../../Drivers/STM32H7xx_HAL_Driver/Src/stm32h7xx_ll_usb.c ****   */
 704:../../Drivers/STM32H7xx_HAL_Driver/Src/stm32h7xx_ll_usb.c **** HAL_StatusTypeDef USB_DeactivateDedicatedEndpoint(USB_OTG_GlobalTypeDef *USBx, USB_OTG_EPTypeDef *e
 705:../../Drivers/STM32H7xx_HAL_Driver/Src/stm32h7xx_ll_usb.c **** {
 706:../../Drivers/STM32H7xx_HAL_Driver/Src/stm32h7xx_ll_usb.c ****   uint32_t USBx_BASE = (uint32_t)USBx;
 707:../../Drivers/STM32H7xx_HAL_Driver/Src/stm32h7xx_ll_usb.c ****   uint32_t epnum = (uint32_t)ep->num;
 708:../../Drivers/STM32H7xx_HAL_Driver/Src/stm32h7xx_ll_usb.c **** 
 709:../../Drivers/STM32H7xx_HAL_Driver/Src/stm32h7xx_ll_usb.c ****   /* Read DEPCTLn register */
 710:../../Drivers/STM32H7xx_HAL_Driver/Src/stm32h7xx_ll_usb.c ****   if (ep->is_in == 1U)
 711:../../Drivers/STM32H7xx_HAL_Driver/Src/stm32h7xx_ll_usb.c ****   {
 712:../../Drivers/STM32H7xx_HAL_Driver/Src/stm32h7xx_ll_usb.c ****     if ((USBx_INEP(epnum)->DIEPCTL & USB_OTG_DIEPCTL_EPENA) == USB_OTG_DIEPCTL_EPENA)
 713:../../Drivers/STM32H7xx_HAL_Driver/Src/stm32h7xx_ll_usb.c ****     {
 714:../../Drivers/STM32H7xx_HAL_Driver/Src/stm32h7xx_ll_usb.c ****       USBx_INEP(epnum)->DIEPCTL  |= USB_OTG_DIEPCTL_SNAK;
 715:../../Drivers/STM32H7xx_HAL_Driver/Src/stm32h7xx_ll_usb.c ****       USBx_INEP(epnum)->DIEPCTL  |= USB_OTG_DIEPCTL_EPDIS;
ARM GAS  C:\Users\gigig\AppData\Local\Temp\ccBJNrpK.s 			page 14


 716:../../Drivers/STM32H7xx_HAL_Driver/Src/stm32h7xx_ll_usb.c ****     }
 717:../../Drivers/STM32H7xx_HAL_Driver/Src/stm32h7xx_ll_usb.c **** 
 718:../../Drivers/STM32H7xx_HAL_Driver/Src/stm32h7xx_ll_usb.c ****     USBx_INEP(epnum)->DIEPCTL &= ~ USB_OTG_DIEPCTL_USBAEP;
 719:../../Drivers/STM32H7xx_HAL_Driver/Src/stm32h7xx_ll_usb.c ****     USBx_DEVICE->DAINTMSK &= ~(USB_OTG_DAINTMSK_IEPM & (uint32_t)(1UL << (ep->num & EP_ADDR_MSK)));
 720:../../Drivers/STM32H7xx_HAL_Driver/Src/stm32h7xx_ll_usb.c ****   }
 721:../../Drivers/STM32H7xx_HAL_Driver/Src/stm32h7xx_ll_usb.c ****   else
 722:../../Drivers/STM32H7xx_HAL_Driver/Src/stm32h7xx_ll_usb.c ****   {
 723:../../Drivers/STM32H7xx_HAL_Driver/Src/stm32h7xx_ll_usb.c ****     if ((USBx_OUTEP(epnum)->DOEPCTL & USB_OTG_DOEPCTL_EPENA) == USB_OTG_DOEPCTL_EPENA)
 724:../../Drivers/STM32H7xx_HAL_Driver/Src/stm32h7xx_ll_usb.c ****     {
 725:../../Drivers/STM32H7xx_HAL_Driver/Src/stm32h7xx_ll_usb.c ****       USBx_OUTEP(epnum)->DOEPCTL  |= USB_OTG_DOEPCTL_SNAK;
 726:../../Drivers/STM32H7xx_HAL_Driver/Src/stm32h7xx_ll_usb.c ****       USBx_OUTEP(epnum)->DOEPCTL  |= USB_OTG_DOEPCTL_EPDIS;
 727:../../Drivers/STM32H7xx_HAL_Driver/Src/stm32h7xx_ll_usb.c ****     }
 728:../../Drivers/STM32H7xx_HAL_Driver/Src/stm32h7xx_ll_usb.c **** 
 729:../../Drivers/STM32H7xx_HAL_Driver/Src/stm32h7xx_ll_usb.c ****     USBx_OUTEP(epnum)->DOEPCTL &= ~USB_OTG_DOEPCTL_USBAEP;
 730:../../Drivers/STM32H7xx_HAL_Driver/Src/stm32h7xx_ll_usb.c ****     USBx_DEVICE->DAINTMSK &= ~(USB_OTG_DAINTMSK_OEPM & ((uint32_t)(1UL << (ep->num & EP_ADDR_MSK)) 
 731:../../Drivers/STM32H7xx_HAL_Driver/Src/stm32h7xx_ll_usb.c ****   }
 732:../../Drivers/STM32H7xx_HAL_Driver/Src/stm32h7xx_ll_usb.c **** 
 733:../../Drivers/STM32H7xx_HAL_Driver/Src/stm32h7xx_ll_usb.c ****   return HAL_OK;
 734:../../Drivers/STM32H7xx_HAL_Driver/Src/stm32h7xx_ll_usb.c **** }
 735:../../Drivers/STM32H7xx_HAL_Driver/Src/stm32h7xx_ll_usb.c **** 
 736:../../Drivers/STM32H7xx_HAL_Driver/Src/stm32h7xx_ll_usb.c **** /**
 737:../../Drivers/STM32H7xx_HAL_Driver/Src/stm32h7xx_ll_usb.c ****   * @brief  USB_EPStartXfer : setup and starts a transfer over an EP
 738:../../Drivers/STM32H7xx_HAL_Driver/Src/stm32h7xx_ll_usb.c ****   * @param  USBx  Selected device
 739:../../Drivers/STM32H7xx_HAL_Driver/Src/stm32h7xx_ll_usb.c ****   * @param  ep pointer to endpoint structure
 740:../../Drivers/STM32H7xx_HAL_Driver/Src/stm32h7xx_ll_usb.c ****   * @param  dma USB dma enabled or disabled
 741:../../Drivers/STM32H7xx_HAL_Driver/Src/stm32h7xx_ll_usb.c ****   *          This parameter can be one of these values:
 742:../../Drivers/STM32H7xx_HAL_Driver/Src/stm32h7xx_ll_usb.c ****   *           0 : DMA feature not used
 743:../../Drivers/STM32H7xx_HAL_Driver/Src/stm32h7xx_ll_usb.c ****   *           1 : DMA feature used
 744:../../Drivers/STM32H7xx_HAL_Driver/Src/stm32h7xx_ll_usb.c ****   * @retval HAL status
 745:../../Drivers/STM32H7xx_HAL_Driver/Src/stm32h7xx_ll_usb.c ****   */
 746:../../Drivers/STM32H7xx_HAL_Driver/Src/stm32h7xx_ll_usb.c **** HAL_StatusTypeDef USB_EPStartXfer(USB_OTG_GlobalTypeDef *USBx, USB_OTG_EPTypeDef *ep, uint8_t dma)
 747:../../Drivers/STM32H7xx_HAL_Driver/Src/stm32h7xx_ll_usb.c **** {
 748:../../Drivers/STM32H7xx_HAL_Driver/Src/stm32h7xx_ll_usb.c ****   uint32_t USBx_BASE = (uint32_t)USBx;
 749:../../Drivers/STM32H7xx_HAL_Driver/Src/stm32h7xx_ll_usb.c ****   uint32_t epnum = (uint32_t)ep->num;
 750:../../Drivers/STM32H7xx_HAL_Driver/Src/stm32h7xx_ll_usb.c ****   uint16_t pktcnt;
 751:../../Drivers/STM32H7xx_HAL_Driver/Src/stm32h7xx_ll_usb.c **** 
 752:../../Drivers/STM32H7xx_HAL_Driver/Src/stm32h7xx_ll_usb.c ****   /* IN endpoint */
 753:../../Drivers/STM32H7xx_HAL_Driver/Src/stm32h7xx_ll_usb.c ****   if (ep->is_in == 1U)
 754:../../Drivers/STM32H7xx_HAL_Driver/Src/stm32h7xx_ll_usb.c ****   {
 755:../../Drivers/STM32H7xx_HAL_Driver/Src/stm32h7xx_ll_usb.c ****     /* Zero Length Packet? */
 756:../../Drivers/STM32H7xx_HAL_Driver/Src/stm32h7xx_ll_usb.c ****     if (ep->xfer_len == 0U)
 757:../../Drivers/STM32H7xx_HAL_Driver/Src/stm32h7xx_ll_usb.c ****     {
 758:../../Drivers/STM32H7xx_HAL_Driver/Src/stm32h7xx_ll_usb.c ****       USBx_INEP(epnum)->DIEPTSIZ &= ~(USB_OTG_DIEPTSIZ_PKTCNT);
 759:../../Drivers/STM32H7xx_HAL_Driver/Src/stm32h7xx_ll_usb.c ****       USBx_INEP(epnum)->DIEPTSIZ |= (USB_OTG_DIEPTSIZ_PKTCNT & (1U << 19));
 760:../../Drivers/STM32H7xx_HAL_Driver/Src/stm32h7xx_ll_usb.c ****       USBx_INEP(epnum)->DIEPTSIZ &= ~(USB_OTG_DIEPTSIZ_XFRSIZ);
 761:../../Drivers/STM32H7xx_HAL_Driver/Src/stm32h7xx_ll_usb.c ****     }
 762:../../Drivers/STM32H7xx_HAL_Driver/Src/stm32h7xx_ll_usb.c ****     else
 763:../../Drivers/STM32H7xx_HAL_Driver/Src/stm32h7xx_ll_usb.c ****     {
 764:../../Drivers/STM32H7xx_HAL_Driver/Src/stm32h7xx_ll_usb.c ****       /* Program the transfer size and packet count
 765:../../Drivers/STM32H7xx_HAL_Driver/Src/stm32h7xx_ll_usb.c ****       * as follows: xfersize = N * maxpacket +
 766:../../Drivers/STM32H7xx_HAL_Driver/Src/stm32h7xx_ll_usb.c ****       * short_packet pktcnt = N + (short_packet
 767:../../Drivers/STM32H7xx_HAL_Driver/Src/stm32h7xx_ll_usb.c ****       * exist ? 1 : 0)
 768:../../Drivers/STM32H7xx_HAL_Driver/Src/stm32h7xx_ll_usb.c ****       */
 769:../../Drivers/STM32H7xx_HAL_Driver/Src/stm32h7xx_ll_usb.c ****       USBx_INEP(epnum)->DIEPTSIZ &= ~(USB_OTG_DIEPTSIZ_XFRSIZ);
 770:../../Drivers/STM32H7xx_HAL_Driver/Src/stm32h7xx_ll_usb.c ****       USBx_INEP(epnum)->DIEPTSIZ &= ~(USB_OTG_DIEPTSIZ_PKTCNT);
 771:../../Drivers/STM32H7xx_HAL_Driver/Src/stm32h7xx_ll_usb.c **** 
 772:../../Drivers/STM32H7xx_HAL_Driver/Src/stm32h7xx_ll_usb.c ****       if (epnum == 0U)
ARM GAS  C:\Users\gigig\AppData\Local\Temp\ccBJNrpK.s 			page 15


 773:../../Drivers/STM32H7xx_HAL_Driver/Src/stm32h7xx_ll_usb.c ****       {
 774:../../Drivers/STM32H7xx_HAL_Driver/Src/stm32h7xx_ll_usb.c ****         if (ep->xfer_len > ep->maxpacket)
 775:../../Drivers/STM32H7xx_HAL_Driver/Src/stm32h7xx_ll_usb.c ****         {
 776:../../Drivers/STM32H7xx_HAL_Driver/Src/stm32h7xx_ll_usb.c ****           ep->xfer_len = ep->maxpacket;
 777:../../Drivers/STM32H7xx_HAL_Driver/Src/stm32h7xx_ll_usb.c ****         }
 778:../../Drivers/STM32H7xx_HAL_Driver/Src/stm32h7xx_ll_usb.c **** 
 779:../../Drivers/STM32H7xx_HAL_Driver/Src/stm32h7xx_ll_usb.c ****         USBx_INEP(epnum)->DIEPTSIZ |= (USB_OTG_DIEPTSIZ_PKTCNT & (1U << 19));
 780:../../Drivers/STM32H7xx_HAL_Driver/Src/stm32h7xx_ll_usb.c ****       }
 781:../../Drivers/STM32H7xx_HAL_Driver/Src/stm32h7xx_ll_usb.c ****       else
 782:../../Drivers/STM32H7xx_HAL_Driver/Src/stm32h7xx_ll_usb.c ****       {
 783:../../Drivers/STM32H7xx_HAL_Driver/Src/stm32h7xx_ll_usb.c ****         USBx_INEP(epnum)->DIEPTSIZ |= (USB_OTG_DIEPTSIZ_PKTCNT &
 784:../../Drivers/STM32H7xx_HAL_Driver/Src/stm32h7xx_ll_usb.c ****                                        (((ep->xfer_len + ep->maxpacket - 1U) / ep->maxpacket) << 19
 785:../../Drivers/STM32H7xx_HAL_Driver/Src/stm32h7xx_ll_usb.c ****       }
 786:../../Drivers/STM32H7xx_HAL_Driver/Src/stm32h7xx_ll_usb.c **** 
 787:../../Drivers/STM32H7xx_HAL_Driver/Src/stm32h7xx_ll_usb.c ****       USBx_INEP(epnum)->DIEPTSIZ |= (USB_OTG_DIEPTSIZ_XFRSIZ & ep->xfer_len);
 788:../../Drivers/STM32H7xx_HAL_Driver/Src/stm32h7xx_ll_usb.c **** 
 789:../../Drivers/STM32H7xx_HAL_Driver/Src/stm32h7xx_ll_usb.c ****       if (ep->type == EP_TYPE_ISOC)
 790:../../Drivers/STM32H7xx_HAL_Driver/Src/stm32h7xx_ll_usb.c ****       {
 791:../../Drivers/STM32H7xx_HAL_Driver/Src/stm32h7xx_ll_usb.c ****         USBx_INEP(epnum)->DIEPTSIZ &= ~(USB_OTG_DIEPTSIZ_MULCNT);
 792:../../Drivers/STM32H7xx_HAL_Driver/Src/stm32h7xx_ll_usb.c ****         USBx_INEP(epnum)->DIEPTSIZ |= (USB_OTG_DIEPTSIZ_MULCNT & (1U << 29));
 793:../../Drivers/STM32H7xx_HAL_Driver/Src/stm32h7xx_ll_usb.c ****       }
 794:../../Drivers/STM32H7xx_HAL_Driver/Src/stm32h7xx_ll_usb.c ****     }
 795:../../Drivers/STM32H7xx_HAL_Driver/Src/stm32h7xx_ll_usb.c **** 
 796:../../Drivers/STM32H7xx_HAL_Driver/Src/stm32h7xx_ll_usb.c ****     if (dma == 1U)
 797:../../Drivers/STM32H7xx_HAL_Driver/Src/stm32h7xx_ll_usb.c ****     {
 798:../../Drivers/STM32H7xx_HAL_Driver/Src/stm32h7xx_ll_usb.c ****       if ((uint32_t)ep->dma_addr != 0U)
 799:../../Drivers/STM32H7xx_HAL_Driver/Src/stm32h7xx_ll_usb.c ****       {
 800:../../Drivers/STM32H7xx_HAL_Driver/Src/stm32h7xx_ll_usb.c ****         USBx_INEP(epnum)->DIEPDMA = (uint32_t)(ep->dma_addr);
 801:../../Drivers/STM32H7xx_HAL_Driver/Src/stm32h7xx_ll_usb.c ****       }
 802:../../Drivers/STM32H7xx_HAL_Driver/Src/stm32h7xx_ll_usb.c **** 
 803:../../Drivers/STM32H7xx_HAL_Driver/Src/stm32h7xx_ll_usb.c ****       if (ep->type == EP_TYPE_ISOC)
 804:../../Drivers/STM32H7xx_HAL_Driver/Src/stm32h7xx_ll_usb.c ****       {
 805:../../Drivers/STM32H7xx_HAL_Driver/Src/stm32h7xx_ll_usb.c ****         if ((USBx_DEVICE->DSTS & (1U << 8)) == 0U)
 806:../../Drivers/STM32H7xx_HAL_Driver/Src/stm32h7xx_ll_usb.c ****         {
 807:../../Drivers/STM32H7xx_HAL_Driver/Src/stm32h7xx_ll_usb.c ****           USBx_INEP(epnum)->DIEPCTL |= USB_OTG_DIEPCTL_SODDFRM;
 808:../../Drivers/STM32H7xx_HAL_Driver/Src/stm32h7xx_ll_usb.c ****         }
 809:../../Drivers/STM32H7xx_HAL_Driver/Src/stm32h7xx_ll_usb.c ****         else
 810:../../Drivers/STM32H7xx_HAL_Driver/Src/stm32h7xx_ll_usb.c ****         {
 811:../../Drivers/STM32H7xx_HAL_Driver/Src/stm32h7xx_ll_usb.c ****           USBx_INEP(epnum)->DIEPCTL |= USB_OTG_DIEPCTL_SD0PID_SEVNFRM;
 812:../../Drivers/STM32H7xx_HAL_Driver/Src/stm32h7xx_ll_usb.c ****         }
 813:../../Drivers/STM32H7xx_HAL_Driver/Src/stm32h7xx_ll_usb.c ****       }
 814:../../Drivers/STM32H7xx_HAL_Driver/Src/stm32h7xx_ll_usb.c **** 
 815:../../Drivers/STM32H7xx_HAL_Driver/Src/stm32h7xx_ll_usb.c ****       /* EP enable, IN data in FIFO */
 816:../../Drivers/STM32H7xx_HAL_Driver/Src/stm32h7xx_ll_usb.c ****       USBx_INEP(epnum)->DIEPCTL |= (USB_OTG_DIEPCTL_CNAK | USB_OTG_DIEPCTL_EPENA);
 817:../../Drivers/STM32H7xx_HAL_Driver/Src/stm32h7xx_ll_usb.c ****     }
 818:../../Drivers/STM32H7xx_HAL_Driver/Src/stm32h7xx_ll_usb.c ****     else
 819:../../Drivers/STM32H7xx_HAL_Driver/Src/stm32h7xx_ll_usb.c ****     {
 820:../../Drivers/STM32H7xx_HAL_Driver/Src/stm32h7xx_ll_usb.c ****       /* EP enable, IN data in FIFO */
 821:../../Drivers/STM32H7xx_HAL_Driver/Src/stm32h7xx_ll_usb.c ****       USBx_INEP(epnum)->DIEPCTL |= (USB_OTG_DIEPCTL_CNAK | USB_OTG_DIEPCTL_EPENA);
 822:../../Drivers/STM32H7xx_HAL_Driver/Src/stm32h7xx_ll_usb.c **** 
 823:../../Drivers/STM32H7xx_HAL_Driver/Src/stm32h7xx_ll_usb.c ****       if (ep->type != EP_TYPE_ISOC)
 824:../../Drivers/STM32H7xx_HAL_Driver/Src/stm32h7xx_ll_usb.c ****       {
 825:../../Drivers/STM32H7xx_HAL_Driver/Src/stm32h7xx_ll_usb.c ****         /* Enable the Tx FIFO Empty Interrupt for this EP */
 826:../../Drivers/STM32H7xx_HAL_Driver/Src/stm32h7xx_ll_usb.c ****         if (ep->xfer_len > 0U)
 827:../../Drivers/STM32H7xx_HAL_Driver/Src/stm32h7xx_ll_usb.c ****         {
 828:../../Drivers/STM32H7xx_HAL_Driver/Src/stm32h7xx_ll_usb.c ****           USBx_DEVICE->DIEPEMPMSK |= 1UL << (ep->num & EP_ADDR_MSK);
 829:../../Drivers/STM32H7xx_HAL_Driver/Src/stm32h7xx_ll_usb.c ****         }
ARM GAS  C:\Users\gigig\AppData\Local\Temp\ccBJNrpK.s 			page 16


 830:../../Drivers/STM32H7xx_HAL_Driver/Src/stm32h7xx_ll_usb.c ****       }
 831:../../Drivers/STM32H7xx_HAL_Driver/Src/stm32h7xx_ll_usb.c ****       else
 832:../../Drivers/STM32H7xx_HAL_Driver/Src/stm32h7xx_ll_usb.c ****       {
 833:../../Drivers/STM32H7xx_HAL_Driver/Src/stm32h7xx_ll_usb.c ****         if ((USBx_DEVICE->DSTS & (1U << 8)) == 0U)
 834:../../Drivers/STM32H7xx_HAL_Driver/Src/stm32h7xx_ll_usb.c ****         {
 835:../../Drivers/STM32H7xx_HAL_Driver/Src/stm32h7xx_ll_usb.c ****           USBx_INEP(epnum)->DIEPCTL |= USB_OTG_DIEPCTL_SODDFRM;
 836:../../Drivers/STM32H7xx_HAL_Driver/Src/stm32h7xx_ll_usb.c ****         }
 837:../../Drivers/STM32H7xx_HAL_Driver/Src/stm32h7xx_ll_usb.c ****         else
 838:../../Drivers/STM32H7xx_HAL_Driver/Src/stm32h7xx_ll_usb.c ****         {
 839:../../Drivers/STM32H7xx_HAL_Driver/Src/stm32h7xx_ll_usb.c ****           USBx_INEP(epnum)->DIEPCTL |= USB_OTG_DIEPCTL_SD0PID_SEVNFRM;
 840:../../Drivers/STM32H7xx_HAL_Driver/Src/stm32h7xx_ll_usb.c ****         }
 841:../../Drivers/STM32H7xx_HAL_Driver/Src/stm32h7xx_ll_usb.c **** 
 842:../../Drivers/STM32H7xx_HAL_Driver/Src/stm32h7xx_ll_usb.c ****         (void)USB_WritePacket(USBx, ep->xfer_buff, ep->num, (uint16_t)ep->xfer_len, dma);
 843:../../Drivers/STM32H7xx_HAL_Driver/Src/stm32h7xx_ll_usb.c ****       }
 844:../../Drivers/STM32H7xx_HAL_Driver/Src/stm32h7xx_ll_usb.c ****     }
 845:../../Drivers/STM32H7xx_HAL_Driver/Src/stm32h7xx_ll_usb.c ****   }
 846:../../Drivers/STM32H7xx_HAL_Driver/Src/stm32h7xx_ll_usb.c ****   else /* OUT endpoint */
 847:../../Drivers/STM32H7xx_HAL_Driver/Src/stm32h7xx_ll_usb.c ****   {
 848:../../Drivers/STM32H7xx_HAL_Driver/Src/stm32h7xx_ll_usb.c ****     /* Program the transfer size and packet count as follows:
 849:../../Drivers/STM32H7xx_HAL_Driver/Src/stm32h7xx_ll_usb.c ****     * pktcnt = N
 850:../../Drivers/STM32H7xx_HAL_Driver/Src/stm32h7xx_ll_usb.c ****     * xfersize = N * maxpacket
 851:../../Drivers/STM32H7xx_HAL_Driver/Src/stm32h7xx_ll_usb.c ****     */
 852:../../Drivers/STM32H7xx_HAL_Driver/Src/stm32h7xx_ll_usb.c ****     USBx_OUTEP(epnum)->DOEPTSIZ &= ~(USB_OTG_DOEPTSIZ_XFRSIZ);
 853:../../Drivers/STM32H7xx_HAL_Driver/Src/stm32h7xx_ll_usb.c ****     USBx_OUTEP(epnum)->DOEPTSIZ &= ~(USB_OTG_DOEPTSIZ_PKTCNT);
 854:../../Drivers/STM32H7xx_HAL_Driver/Src/stm32h7xx_ll_usb.c **** 
 855:../../Drivers/STM32H7xx_HAL_Driver/Src/stm32h7xx_ll_usb.c ****     if (epnum == 0U)
 856:../../Drivers/STM32H7xx_HAL_Driver/Src/stm32h7xx_ll_usb.c ****     {
 857:../../Drivers/STM32H7xx_HAL_Driver/Src/stm32h7xx_ll_usb.c ****       if (ep->xfer_len > 0U)
 858:../../Drivers/STM32H7xx_HAL_Driver/Src/stm32h7xx_ll_usb.c ****       {
 859:../../Drivers/STM32H7xx_HAL_Driver/Src/stm32h7xx_ll_usb.c ****         ep->xfer_len = ep->maxpacket;
 860:../../Drivers/STM32H7xx_HAL_Driver/Src/stm32h7xx_ll_usb.c ****       }
 861:../../Drivers/STM32H7xx_HAL_Driver/Src/stm32h7xx_ll_usb.c **** 
 862:../../Drivers/STM32H7xx_HAL_Driver/Src/stm32h7xx_ll_usb.c ****       /* Store transfer size, for EP0 this is equal to endpoint max packet size */
 863:../../Drivers/STM32H7xx_HAL_Driver/Src/stm32h7xx_ll_usb.c ****       ep->xfer_size = ep->maxpacket;
 864:../../Drivers/STM32H7xx_HAL_Driver/Src/stm32h7xx_ll_usb.c **** 
 865:../../Drivers/STM32H7xx_HAL_Driver/Src/stm32h7xx_ll_usb.c ****       USBx_OUTEP(epnum)->DOEPTSIZ |= (USB_OTG_DOEPTSIZ_XFRSIZ & ep->xfer_size);
 866:../../Drivers/STM32H7xx_HAL_Driver/Src/stm32h7xx_ll_usb.c ****       USBx_OUTEP(epnum)->DOEPTSIZ |= (USB_OTG_DOEPTSIZ_PKTCNT & (1U << 19));
 867:../../Drivers/STM32H7xx_HAL_Driver/Src/stm32h7xx_ll_usb.c ****     }
 868:../../Drivers/STM32H7xx_HAL_Driver/Src/stm32h7xx_ll_usb.c ****     else
 869:../../Drivers/STM32H7xx_HAL_Driver/Src/stm32h7xx_ll_usb.c ****     {
 870:../../Drivers/STM32H7xx_HAL_Driver/Src/stm32h7xx_ll_usb.c ****       if (ep->xfer_len == 0U)
 871:../../Drivers/STM32H7xx_HAL_Driver/Src/stm32h7xx_ll_usb.c ****       {
 872:../../Drivers/STM32H7xx_HAL_Driver/Src/stm32h7xx_ll_usb.c ****         USBx_OUTEP(epnum)->DOEPTSIZ |= (USB_OTG_DOEPTSIZ_XFRSIZ & ep->maxpacket);
 873:../../Drivers/STM32H7xx_HAL_Driver/Src/stm32h7xx_ll_usb.c ****         USBx_OUTEP(epnum)->DOEPTSIZ |= (USB_OTG_DOEPTSIZ_PKTCNT & (1U << 19));
 874:../../Drivers/STM32H7xx_HAL_Driver/Src/stm32h7xx_ll_usb.c ****       }
 875:../../Drivers/STM32H7xx_HAL_Driver/Src/stm32h7xx_ll_usb.c ****       else
 876:../../Drivers/STM32H7xx_HAL_Driver/Src/stm32h7xx_ll_usb.c ****       {
 877:../../Drivers/STM32H7xx_HAL_Driver/Src/stm32h7xx_ll_usb.c ****         pktcnt = (uint16_t)((ep->xfer_len + ep->maxpacket - 1U) / ep->maxpacket);
 878:../../Drivers/STM32H7xx_HAL_Driver/Src/stm32h7xx_ll_usb.c ****         ep->xfer_size = ep->maxpacket * pktcnt;
 879:../../Drivers/STM32H7xx_HAL_Driver/Src/stm32h7xx_ll_usb.c **** 
 880:../../Drivers/STM32H7xx_HAL_Driver/Src/stm32h7xx_ll_usb.c ****         USBx_OUTEP(epnum)->DOEPTSIZ |= USB_OTG_DOEPTSIZ_PKTCNT & ((uint32_t)pktcnt << 19);
 881:../../Drivers/STM32H7xx_HAL_Driver/Src/stm32h7xx_ll_usb.c ****         USBx_OUTEP(epnum)->DOEPTSIZ |= USB_OTG_DOEPTSIZ_XFRSIZ & ep->xfer_size;
 882:../../Drivers/STM32H7xx_HAL_Driver/Src/stm32h7xx_ll_usb.c ****       }
 883:../../Drivers/STM32H7xx_HAL_Driver/Src/stm32h7xx_ll_usb.c ****     }
 884:../../Drivers/STM32H7xx_HAL_Driver/Src/stm32h7xx_ll_usb.c **** 
 885:../../Drivers/STM32H7xx_HAL_Driver/Src/stm32h7xx_ll_usb.c ****     if (dma == 1U)
 886:../../Drivers/STM32H7xx_HAL_Driver/Src/stm32h7xx_ll_usb.c ****     {
ARM GAS  C:\Users\gigig\AppData\Local\Temp\ccBJNrpK.s 			page 17


 887:../../Drivers/STM32H7xx_HAL_Driver/Src/stm32h7xx_ll_usb.c ****       if ((uint32_t)ep->xfer_buff != 0U)
 888:../../Drivers/STM32H7xx_HAL_Driver/Src/stm32h7xx_ll_usb.c ****       {
 889:../../Drivers/STM32H7xx_HAL_Driver/Src/stm32h7xx_ll_usb.c ****         USBx_OUTEP(epnum)->DOEPDMA = (uint32_t)(ep->xfer_buff);
 890:../../Drivers/STM32H7xx_HAL_Driver/Src/stm32h7xx_ll_usb.c ****       }
 891:../../Drivers/STM32H7xx_HAL_Driver/Src/stm32h7xx_ll_usb.c ****     }
 892:../../Drivers/STM32H7xx_HAL_Driver/Src/stm32h7xx_ll_usb.c **** 
 893:../../Drivers/STM32H7xx_HAL_Driver/Src/stm32h7xx_ll_usb.c ****     if (ep->type == EP_TYPE_ISOC)
 894:../../Drivers/STM32H7xx_HAL_Driver/Src/stm32h7xx_ll_usb.c ****     {
 895:../../Drivers/STM32H7xx_HAL_Driver/Src/stm32h7xx_ll_usb.c ****       if ((USBx_DEVICE->DSTS & (1U << 8)) == 0U)
 896:../../Drivers/STM32H7xx_HAL_Driver/Src/stm32h7xx_ll_usb.c ****       {
 897:../../Drivers/STM32H7xx_HAL_Driver/Src/stm32h7xx_ll_usb.c ****         USBx_OUTEP(epnum)->DOEPCTL |= USB_OTG_DOEPCTL_SODDFRM;
 898:../../Drivers/STM32H7xx_HAL_Driver/Src/stm32h7xx_ll_usb.c ****       }
 899:../../Drivers/STM32H7xx_HAL_Driver/Src/stm32h7xx_ll_usb.c ****       else
 900:../../Drivers/STM32H7xx_HAL_Driver/Src/stm32h7xx_ll_usb.c ****       {
 901:../../Drivers/STM32H7xx_HAL_Driver/Src/stm32h7xx_ll_usb.c ****         USBx_OUTEP(epnum)->DOEPCTL |= USB_OTG_DOEPCTL_SD0PID_SEVNFRM;
 902:../../Drivers/STM32H7xx_HAL_Driver/Src/stm32h7xx_ll_usb.c ****       }
 903:../../Drivers/STM32H7xx_HAL_Driver/Src/stm32h7xx_ll_usb.c ****     }
 904:../../Drivers/STM32H7xx_HAL_Driver/Src/stm32h7xx_ll_usb.c ****     /* EP enable */
 905:../../Drivers/STM32H7xx_HAL_Driver/Src/stm32h7xx_ll_usb.c ****     USBx_OUTEP(epnum)->DOEPCTL |= (USB_OTG_DOEPCTL_CNAK | USB_OTG_DOEPCTL_EPENA);
 906:../../Drivers/STM32H7xx_HAL_Driver/Src/stm32h7xx_ll_usb.c ****   }
 907:../../Drivers/STM32H7xx_HAL_Driver/Src/stm32h7xx_ll_usb.c **** 
 908:../../Drivers/STM32H7xx_HAL_Driver/Src/stm32h7xx_ll_usb.c ****   return HAL_OK;
 909:../../Drivers/STM32H7xx_HAL_Driver/Src/stm32h7xx_ll_usb.c **** }
 910:../../Drivers/STM32H7xx_HAL_Driver/Src/stm32h7xx_ll_usb.c **** 
 911:../../Drivers/STM32H7xx_HAL_Driver/Src/stm32h7xx_ll_usb.c **** 
 912:../../Drivers/STM32H7xx_HAL_Driver/Src/stm32h7xx_ll_usb.c **** /**
 913:../../Drivers/STM32H7xx_HAL_Driver/Src/stm32h7xx_ll_usb.c ****    * @brief  USB_EPStoptXfer  Stop transfer on an EP
 914:../../Drivers/STM32H7xx_HAL_Driver/Src/stm32h7xx_ll_usb.c ****    * @param  USBx  usb device instance
 915:../../Drivers/STM32H7xx_HAL_Driver/Src/stm32h7xx_ll_usb.c ****    * @param  ep pointer to endpoint structure
 916:../../Drivers/STM32H7xx_HAL_Driver/Src/stm32h7xx_ll_usb.c ****    * @retval HAL status
 917:../../Drivers/STM32H7xx_HAL_Driver/Src/stm32h7xx_ll_usb.c ****    */
 918:../../Drivers/STM32H7xx_HAL_Driver/Src/stm32h7xx_ll_usb.c **** HAL_StatusTypeDef USB_EPStopXfer(USB_OTG_GlobalTypeDef *USBx, USB_OTG_EPTypeDef *ep)
 919:../../Drivers/STM32H7xx_HAL_Driver/Src/stm32h7xx_ll_usb.c **** {
 920:../../Drivers/STM32H7xx_HAL_Driver/Src/stm32h7xx_ll_usb.c ****   __IO uint32_t count = 0U;
 921:../../Drivers/STM32H7xx_HAL_Driver/Src/stm32h7xx_ll_usb.c ****   HAL_StatusTypeDef ret = HAL_OK;
 922:../../Drivers/STM32H7xx_HAL_Driver/Src/stm32h7xx_ll_usb.c ****   uint32_t USBx_BASE = (uint32_t)USBx;
 923:../../Drivers/STM32H7xx_HAL_Driver/Src/stm32h7xx_ll_usb.c **** 
 924:../../Drivers/STM32H7xx_HAL_Driver/Src/stm32h7xx_ll_usb.c ****   /* IN endpoint */
 925:../../Drivers/STM32H7xx_HAL_Driver/Src/stm32h7xx_ll_usb.c ****   if (ep->is_in == 1U)
 926:../../Drivers/STM32H7xx_HAL_Driver/Src/stm32h7xx_ll_usb.c ****   {
 927:../../Drivers/STM32H7xx_HAL_Driver/Src/stm32h7xx_ll_usb.c ****     /* EP enable, IN data in FIFO */
 928:../../Drivers/STM32H7xx_HAL_Driver/Src/stm32h7xx_ll_usb.c ****     if (((USBx_INEP(ep->num)->DIEPCTL) & USB_OTG_DIEPCTL_EPENA) == USB_OTG_DIEPCTL_EPENA)
 929:../../Drivers/STM32H7xx_HAL_Driver/Src/stm32h7xx_ll_usb.c ****     {
 930:../../Drivers/STM32H7xx_HAL_Driver/Src/stm32h7xx_ll_usb.c ****       USBx_INEP(ep->num)->DIEPCTL |= (USB_OTG_DIEPCTL_SNAK);
 931:../../Drivers/STM32H7xx_HAL_Driver/Src/stm32h7xx_ll_usb.c ****       USBx_INEP(ep->num)->DIEPCTL |= (USB_OTG_DIEPCTL_EPDIS);
 932:../../Drivers/STM32H7xx_HAL_Driver/Src/stm32h7xx_ll_usb.c **** 
 933:../../Drivers/STM32H7xx_HAL_Driver/Src/stm32h7xx_ll_usb.c ****       do
 934:../../Drivers/STM32H7xx_HAL_Driver/Src/stm32h7xx_ll_usb.c ****       {
 935:../../Drivers/STM32H7xx_HAL_Driver/Src/stm32h7xx_ll_usb.c ****         count++;
 936:../../Drivers/STM32H7xx_HAL_Driver/Src/stm32h7xx_ll_usb.c **** 
 937:../../Drivers/STM32H7xx_HAL_Driver/Src/stm32h7xx_ll_usb.c ****         if (count > 10000U)
 938:../../Drivers/STM32H7xx_HAL_Driver/Src/stm32h7xx_ll_usb.c ****         {
 939:../../Drivers/STM32H7xx_HAL_Driver/Src/stm32h7xx_ll_usb.c ****           ret = HAL_ERROR;
 940:../../Drivers/STM32H7xx_HAL_Driver/Src/stm32h7xx_ll_usb.c ****           break;
 941:../../Drivers/STM32H7xx_HAL_Driver/Src/stm32h7xx_ll_usb.c ****         }
 942:../../Drivers/STM32H7xx_HAL_Driver/Src/stm32h7xx_ll_usb.c ****       } while (((USBx_INEP(ep->num)->DIEPCTL) & USB_OTG_DIEPCTL_EPENA) ==  USB_OTG_DIEPCTL_EPENA);
 943:../../Drivers/STM32H7xx_HAL_Driver/Src/stm32h7xx_ll_usb.c ****     }
ARM GAS  C:\Users\gigig\AppData\Local\Temp\ccBJNrpK.s 			page 18


 944:../../Drivers/STM32H7xx_HAL_Driver/Src/stm32h7xx_ll_usb.c ****   }
 945:../../Drivers/STM32H7xx_HAL_Driver/Src/stm32h7xx_ll_usb.c ****   else /* OUT endpoint */
 946:../../Drivers/STM32H7xx_HAL_Driver/Src/stm32h7xx_ll_usb.c ****   {
 947:../../Drivers/STM32H7xx_HAL_Driver/Src/stm32h7xx_ll_usb.c ****     if (((USBx_OUTEP(ep->num)->DOEPCTL) & USB_OTG_DOEPCTL_EPENA) == USB_OTG_DOEPCTL_EPENA)
 948:../../Drivers/STM32H7xx_HAL_Driver/Src/stm32h7xx_ll_usb.c ****     {
 949:../../Drivers/STM32H7xx_HAL_Driver/Src/stm32h7xx_ll_usb.c ****       USBx_OUTEP(ep->num)->DOEPCTL |= (USB_OTG_DOEPCTL_SNAK);
 950:../../Drivers/STM32H7xx_HAL_Driver/Src/stm32h7xx_ll_usb.c ****       USBx_OUTEP(ep->num)->DOEPCTL |= (USB_OTG_DOEPCTL_EPDIS);
 951:../../Drivers/STM32H7xx_HAL_Driver/Src/stm32h7xx_ll_usb.c **** 
 952:../../Drivers/STM32H7xx_HAL_Driver/Src/stm32h7xx_ll_usb.c ****       do
 953:../../Drivers/STM32H7xx_HAL_Driver/Src/stm32h7xx_ll_usb.c ****       {
 954:../../Drivers/STM32H7xx_HAL_Driver/Src/stm32h7xx_ll_usb.c ****         count++;
 955:../../Drivers/STM32H7xx_HAL_Driver/Src/stm32h7xx_ll_usb.c **** 
 956:../../Drivers/STM32H7xx_HAL_Driver/Src/stm32h7xx_ll_usb.c ****         if (count > 10000U)
 957:../../Drivers/STM32H7xx_HAL_Driver/Src/stm32h7xx_ll_usb.c ****         {
 958:../../Drivers/STM32H7xx_HAL_Driver/Src/stm32h7xx_ll_usb.c ****           ret = HAL_ERROR;
 959:../../Drivers/STM32H7xx_HAL_Driver/Src/stm32h7xx_ll_usb.c ****           break;
 960:../../Drivers/STM32H7xx_HAL_Driver/Src/stm32h7xx_ll_usb.c ****         }
 961:../../Drivers/STM32H7xx_HAL_Driver/Src/stm32h7xx_ll_usb.c ****       } while (((USBx_OUTEP(ep->num)->DOEPCTL) & USB_OTG_DOEPCTL_EPENA) ==  USB_OTG_DOEPCTL_EPENA);
 962:../../Drivers/STM32H7xx_HAL_Driver/Src/stm32h7xx_ll_usb.c ****     }
 963:../../Drivers/STM32H7xx_HAL_Driver/Src/stm32h7xx_ll_usb.c ****   }
 964:../../Drivers/STM32H7xx_HAL_Driver/Src/stm32h7xx_ll_usb.c **** 
 965:../../Drivers/STM32H7xx_HAL_Driver/Src/stm32h7xx_ll_usb.c ****   return ret;
 966:../../Drivers/STM32H7xx_HAL_Driver/Src/stm32h7xx_ll_usb.c **** }
 967:../../Drivers/STM32H7xx_HAL_Driver/Src/stm32h7xx_ll_usb.c **** 
 968:../../Drivers/STM32H7xx_HAL_Driver/Src/stm32h7xx_ll_usb.c **** 
 969:../../Drivers/STM32H7xx_HAL_Driver/Src/stm32h7xx_ll_usb.c **** /**
 970:../../Drivers/STM32H7xx_HAL_Driver/Src/stm32h7xx_ll_usb.c ****   * @brief  USB_WritePacket : Writes a packet into the Tx FIFO associated
 971:../../Drivers/STM32H7xx_HAL_Driver/Src/stm32h7xx_ll_usb.c ****   *         with the EP/channel
 972:../../Drivers/STM32H7xx_HAL_Driver/Src/stm32h7xx_ll_usb.c ****   * @param  USBx  Selected device
 973:../../Drivers/STM32H7xx_HAL_Driver/Src/stm32h7xx_ll_usb.c ****   * @param  src   pointer to source buffer
 974:../../Drivers/STM32H7xx_HAL_Driver/Src/stm32h7xx_ll_usb.c ****   * @param  ch_ep_num  endpoint or host channel number
 975:../../Drivers/STM32H7xx_HAL_Driver/Src/stm32h7xx_ll_usb.c ****   * @param  len  Number of bytes to write
 976:../../Drivers/STM32H7xx_HAL_Driver/Src/stm32h7xx_ll_usb.c ****   * @param  dma USB dma enabled or disabled
 977:../../Drivers/STM32H7xx_HAL_Driver/Src/stm32h7xx_ll_usb.c ****   *          This parameter can be one of these values:
 978:../../Drivers/STM32H7xx_HAL_Driver/Src/stm32h7xx_ll_usb.c ****   *           0 : DMA feature not used
 979:../../Drivers/STM32H7xx_HAL_Driver/Src/stm32h7xx_ll_usb.c ****   *           1 : DMA feature used
 980:../../Drivers/STM32H7xx_HAL_Driver/Src/stm32h7xx_ll_usb.c ****   * @retval HAL status
 981:../../Drivers/STM32H7xx_HAL_Driver/Src/stm32h7xx_ll_usb.c ****   */
 982:../../Drivers/STM32H7xx_HAL_Driver/Src/stm32h7xx_ll_usb.c **** HAL_StatusTypeDef USB_WritePacket(USB_OTG_GlobalTypeDef *USBx, uint8_t *src,
 983:../../Drivers/STM32H7xx_HAL_Driver/Src/stm32h7xx_ll_usb.c ****                                   uint8_t ch_ep_num, uint16_t len, uint8_t dma)
 984:../../Drivers/STM32H7xx_HAL_Driver/Src/stm32h7xx_ll_usb.c **** {
 985:../../Drivers/STM32H7xx_HAL_Driver/Src/stm32h7xx_ll_usb.c ****   uint32_t USBx_BASE = (uint32_t)USBx;
 986:../../Drivers/STM32H7xx_HAL_Driver/Src/stm32h7xx_ll_usb.c ****   uint8_t *pSrc = src;
 987:../../Drivers/STM32H7xx_HAL_Driver/Src/stm32h7xx_ll_usb.c ****   uint32_t count32b;
 988:../../Drivers/STM32H7xx_HAL_Driver/Src/stm32h7xx_ll_usb.c ****   uint32_t i;
 989:../../Drivers/STM32H7xx_HAL_Driver/Src/stm32h7xx_ll_usb.c **** 
 990:../../Drivers/STM32H7xx_HAL_Driver/Src/stm32h7xx_ll_usb.c ****   if (dma == 0U)
 991:../../Drivers/STM32H7xx_HAL_Driver/Src/stm32h7xx_ll_usb.c ****   {
 992:../../Drivers/STM32H7xx_HAL_Driver/Src/stm32h7xx_ll_usb.c ****     count32b = ((uint32_t)len + 3U) / 4U;
 993:../../Drivers/STM32H7xx_HAL_Driver/Src/stm32h7xx_ll_usb.c ****     for (i = 0U; i < count32b; i++)
 994:../../Drivers/STM32H7xx_HAL_Driver/Src/stm32h7xx_ll_usb.c ****     {
 995:../../Drivers/STM32H7xx_HAL_Driver/Src/stm32h7xx_ll_usb.c ****       USBx_DFIFO((uint32_t)ch_ep_num) = __UNALIGNED_UINT32_READ(pSrc);
 996:../../Drivers/STM32H7xx_HAL_Driver/Src/stm32h7xx_ll_usb.c ****       pSrc++;
 997:../../Drivers/STM32H7xx_HAL_Driver/Src/stm32h7xx_ll_usb.c ****       pSrc++;
 998:../../Drivers/STM32H7xx_HAL_Driver/Src/stm32h7xx_ll_usb.c ****       pSrc++;
 999:../../Drivers/STM32H7xx_HAL_Driver/Src/stm32h7xx_ll_usb.c ****       pSrc++;
1000:../../Drivers/STM32H7xx_HAL_Driver/Src/stm32h7xx_ll_usb.c ****     }
ARM GAS  C:\Users\gigig\AppData\Local\Temp\ccBJNrpK.s 			page 19


1001:../../Drivers/STM32H7xx_HAL_Driver/Src/stm32h7xx_ll_usb.c ****   }
1002:../../Drivers/STM32H7xx_HAL_Driver/Src/stm32h7xx_ll_usb.c **** 
1003:../../Drivers/STM32H7xx_HAL_Driver/Src/stm32h7xx_ll_usb.c ****   return HAL_OK;
1004:../../Drivers/STM32H7xx_HAL_Driver/Src/stm32h7xx_ll_usb.c **** }
1005:../../Drivers/STM32H7xx_HAL_Driver/Src/stm32h7xx_ll_usb.c **** 
1006:../../Drivers/STM32H7xx_HAL_Driver/Src/stm32h7xx_ll_usb.c **** /**
1007:../../Drivers/STM32H7xx_HAL_Driver/Src/stm32h7xx_ll_usb.c ****   * @brief  USB_ReadPacket : read a packet from the RX FIFO
1008:../../Drivers/STM32H7xx_HAL_Driver/Src/stm32h7xx_ll_usb.c ****   * @param  USBx  Selected device
1009:../../Drivers/STM32H7xx_HAL_Driver/Src/stm32h7xx_ll_usb.c ****   * @param  dest  source pointer
1010:../../Drivers/STM32H7xx_HAL_Driver/Src/stm32h7xx_ll_usb.c ****   * @param  len  Number of bytes to read
1011:../../Drivers/STM32H7xx_HAL_Driver/Src/stm32h7xx_ll_usb.c ****   * @retval pointer to destination buffer
1012:../../Drivers/STM32H7xx_HAL_Driver/Src/stm32h7xx_ll_usb.c ****   */
1013:../../Drivers/STM32H7xx_HAL_Driver/Src/stm32h7xx_ll_usb.c **** void *USB_ReadPacket(USB_OTG_GlobalTypeDef *USBx, uint8_t *dest, uint16_t len)
1014:../../Drivers/STM32H7xx_HAL_Driver/Src/stm32h7xx_ll_usb.c **** {
1015:../../Drivers/STM32H7xx_HAL_Driver/Src/stm32h7xx_ll_usb.c ****   uint32_t USBx_BASE = (uint32_t)USBx;
1016:../../Drivers/STM32H7xx_HAL_Driver/Src/stm32h7xx_ll_usb.c ****   uint8_t *pDest = dest;
1017:../../Drivers/STM32H7xx_HAL_Driver/Src/stm32h7xx_ll_usb.c ****   uint32_t pData;
1018:../../Drivers/STM32H7xx_HAL_Driver/Src/stm32h7xx_ll_usb.c ****   uint32_t i;
1019:../../Drivers/STM32H7xx_HAL_Driver/Src/stm32h7xx_ll_usb.c ****   uint32_t count32b = (uint32_t)len >> 2U;
1020:../../Drivers/STM32H7xx_HAL_Driver/Src/stm32h7xx_ll_usb.c ****   uint16_t remaining_bytes = len % 4U;
1021:../../Drivers/STM32H7xx_HAL_Driver/Src/stm32h7xx_ll_usb.c **** 
1022:../../Drivers/STM32H7xx_HAL_Driver/Src/stm32h7xx_ll_usb.c ****   for (i = 0U; i < count32b; i++)
1023:../../Drivers/STM32H7xx_HAL_Driver/Src/stm32h7xx_ll_usb.c ****   {
1024:../../Drivers/STM32H7xx_HAL_Driver/Src/stm32h7xx_ll_usb.c ****     __UNALIGNED_UINT32_WRITE(pDest, USBx_DFIFO(0U));
1025:../../Drivers/STM32H7xx_HAL_Driver/Src/stm32h7xx_ll_usb.c ****     pDest++;
1026:../../Drivers/STM32H7xx_HAL_Driver/Src/stm32h7xx_ll_usb.c ****     pDest++;
1027:../../Drivers/STM32H7xx_HAL_Driver/Src/stm32h7xx_ll_usb.c ****     pDest++;
1028:../../Drivers/STM32H7xx_HAL_Driver/Src/stm32h7xx_ll_usb.c ****     pDest++;
1029:../../Drivers/STM32H7xx_HAL_Driver/Src/stm32h7xx_ll_usb.c ****   }
1030:../../Drivers/STM32H7xx_HAL_Driver/Src/stm32h7xx_ll_usb.c **** 
1031:../../Drivers/STM32H7xx_HAL_Driver/Src/stm32h7xx_ll_usb.c ****   /* When Number of data is not word aligned, read the remaining byte */
1032:../../Drivers/STM32H7xx_HAL_Driver/Src/stm32h7xx_ll_usb.c ****   if (remaining_bytes != 0U)
1033:../../Drivers/STM32H7xx_HAL_Driver/Src/stm32h7xx_ll_usb.c ****   {
1034:../../Drivers/STM32H7xx_HAL_Driver/Src/stm32h7xx_ll_usb.c ****     i = 0U;
1035:../../Drivers/STM32H7xx_HAL_Driver/Src/stm32h7xx_ll_usb.c ****     __UNALIGNED_UINT32_WRITE(&pData, USBx_DFIFO(0U));
1036:../../Drivers/STM32H7xx_HAL_Driver/Src/stm32h7xx_ll_usb.c **** 
1037:../../Drivers/STM32H7xx_HAL_Driver/Src/stm32h7xx_ll_usb.c ****     do
1038:../../Drivers/STM32H7xx_HAL_Driver/Src/stm32h7xx_ll_usb.c ****     {
1039:../../Drivers/STM32H7xx_HAL_Driver/Src/stm32h7xx_ll_usb.c ****       *(uint8_t *)pDest = (uint8_t)(pData >> (8U * (uint8_t)(i)));
1040:../../Drivers/STM32H7xx_HAL_Driver/Src/stm32h7xx_ll_usb.c ****       i++;
1041:../../Drivers/STM32H7xx_HAL_Driver/Src/stm32h7xx_ll_usb.c ****       pDest++;
1042:../../Drivers/STM32H7xx_HAL_Driver/Src/stm32h7xx_ll_usb.c ****       remaining_bytes--;
1043:../../Drivers/STM32H7xx_HAL_Driver/Src/stm32h7xx_ll_usb.c ****     } while (remaining_bytes != 0U);
1044:../../Drivers/STM32H7xx_HAL_Driver/Src/stm32h7xx_ll_usb.c ****   }
1045:../../Drivers/STM32H7xx_HAL_Driver/Src/stm32h7xx_ll_usb.c **** 
1046:../../Drivers/STM32H7xx_HAL_Driver/Src/stm32h7xx_ll_usb.c ****   return ((void *)pDest);
1047:../../Drivers/STM32H7xx_HAL_Driver/Src/stm32h7xx_ll_usb.c **** }
1048:../../Drivers/STM32H7xx_HAL_Driver/Src/stm32h7xx_ll_usb.c **** 
1049:../../Drivers/STM32H7xx_HAL_Driver/Src/stm32h7xx_ll_usb.c **** /**
1050:../../Drivers/STM32H7xx_HAL_Driver/Src/stm32h7xx_ll_usb.c ****   * @brief  USB_EPSetStall : set a stall condition over an EP
1051:../../Drivers/STM32H7xx_HAL_Driver/Src/stm32h7xx_ll_usb.c ****   * @param  USBx  Selected device
1052:../../Drivers/STM32H7xx_HAL_Driver/Src/stm32h7xx_ll_usb.c ****   * @param  ep pointer to endpoint structure
1053:../../Drivers/STM32H7xx_HAL_Driver/Src/stm32h7xx_ll_usb.c ****   * @retval HAL status
1054:../../Drivers/STM32H7xx_HAL_Driver/Src/stm32h7xx_ll_usb.c ****   */
1055:../../Drivers/STM32H7xx_HAL_Driver/Src/stm32h7xx_ll_usb.c **** HAL_StatusTypeDef USB_EPSetStall(USB_OTG_GlobalTypeDef *USBx, USB_OTG_EPTypeDef *ep)
1056:../../Drivers/STM32H7xx_HAL_Driver/Src/stm32h7xx_ll_usb.c **** {
1057:../../Drivers/STM32H7xx_HAL_Driver/Src/stm32h7xx_ll_usb.c ****   uint32_t USBx_BASE = (uint32_t)USBx;
ARM GAS  C:\Users\gigig\AppData\Local\Temp\ccBJNrpK.s 			page 20


1058:../../Drivers/STM32H7xx_HAL_Driver/Src/stm32h7xx_ll_usb.c ****   uint32_t epnum = (uint32_t)ep->num;
1059:../../Drivers/STM32H7xx_HAL_Driver/Src/stm32h7xx_ll_usb.c **** 
1060:../../Drivers/STM32H7xx_HAL_Driver/Src/stm32h7xx_ll_usb.c ****   if (ep->is_in == 1U)
1061:../../Drivers/STM32H7xx_HAL_Driver/Src/stm32h7xx_ll_usb.c ****   {
1062:../../Drivers/STM32H7xx_HAL_Driver/Src/stm32h7xx_ll_usb.c ****     if (((USBx_INEP(epnum)->DIEPCTL & USB_OTG_DIEPCTL_EPENA) == 0U) && (epnum != 0U))
1063:../../Drivers/STM32H7xx_HAL_Driver/Src/stm32h7xx_ll_usb.c ****     {
1064:../../Drivers/STM32H7xx_HAL_Driver/Src/stm32h7xx_ll_usb.c ****       USBx_INEP(epnum)->DIEPCTL &= ~(USB_OTG_DIEPCTL_EPDIS);
1065:../../Drivers/STM32H7xx_HAL_Driver/Src/stm32h7xx_ll_usb.c ****     }
1066:../../Drivers/STM32H7xx_HAL_Driver/Src/stm32h7xx_ll_usb.c ****     USBx_INEP(epnum)->DIEPCTL |= USB_OTG_DIEPCTL_STALL;
1067:../../Drivers/STM32H7xx_HAL_Driver/Src/stm32h7xx_ll_usb.c ****   }
1068:../../Drivers/STM32H7xx_HAL_Driver/Src/stm32h7xx_ll_usb.c ****   else
1069:../../Drivers/STM32H7xx_HAL_Driver/Src/stm32h7xx_ll_usb.c ****   {
1070:../../Drivers/STM32H7xx_HAL_Driver/Src/stm32h7xx_ll_usb.c ****     if (((USBx_OUTEP(epnum)->DOEPCTL & USB_OTG_DOEPCTL_EPENA) == 0U) && (epnum != 0U))
1071:../../Drivers/STM32H7xx_HAL_Driver/Src/stm32h7xx_ll_usb.c ****     {
1072:../../Drivers/STM32H7xx_HAL_Driver/Src/stm32h7xx_ll_usb.c ****       USBx_OUTEP(epnum)->DOEPCTL &= ~(USB_OTG_DOEPCTL_EPDIS);
1073:../../Drivers/STM32H7xx_HAL_Driver/Src/stm32h7xx_ll_usb.c ****     }
1074:../../Drivers/STM32H7xx_HAL_Driver/Src/stm32h7xx_ll_usb.c ****     USBx_OUTEP(epnum)->DOEPCTL |= USB_OTG_DOEPCTL_STALL;
1075:../../Drivers/STM32H7xx_HAL_Driver/Src/stm32h7xx_ll_usb.c ****   }
1076:../../Drivers/STM32H7xx_HAL_Driver/Src/stm32h7xx_ll_usb.c **** 
1077:../../Drivers/STM32H7xx_HAL_Driver/Src/stm32h7xx_ll_usb.c ****   return HAL_OK;
1078:../../Drivers/STM32H7xx_HAL_Driver/Src/stm32h7xx_ll_usb.c **** }
1079:../../Drivers/STM32H7xx_HAL_Driver/Src/stm32h7xx_ll_usb.c **** 
1080:../../Drivers/STM32H7xx_HAL_Driver/Src/stm32h7xx_ll_usb.c **** /**
1081:../../Drivers/STM32H7xx_HAL_Driver/Src/stm32h7xx_ll_usb.c ****   * @brief  USB_EPClearStall : Clear a stall condition over an EP
1082:../../Drivers/STM32H7xx_HAL_Driver/Src/stm32h7xx_ll_usb.c ****   * @param  USBx  Selected device
1083:../../Drivers/STM32H7xx_HAL_Driver/Src/stm32h7xx_ll_usb.c ****   * @param  ep pointer to endpoint structure
1084:../../Drivers/STM32H7xx_HAL_Driver/Src/stm32h7xx_ll_usb.c ****   * @retval HAL status
1085:../../Drivers/STM32H7xx_HAL_Driver/Src/stm32h7xx_ll_usb.c ****   */
1086:../../Drivers/STM32H7xx_HAL_Driver/Src/stm32h7xx_ll_usb.c **** HAL_StatusTypeDef USB_EPClearStall(USB_OTG_GlobalTypeDef *USBx, USB_OTG_EPTypeDef *ep)
1087:../../Drivers/STM32H7xx_HAL_Driver/Src/stm32h7xx_ll_usb.c **** {
1088:../../Drivers/STM32H7xx_HAL_Driver/Src/stm32h7xx_ll_usb.c ****   uint32_t USBx_BASE = (uint32_t)USBx;
1089:../../Drivers/STM32H7xx_HAL_Driver/Src/stm32h7xx_ll_usb.c ****   uint32_t epnum = (uint32_t)ep->num;
1090:../../Drivers/STM32H7xx_HAL_Driver/Src/stm32h7xx_ll_usb.c **** 
1091:../../Drivers/STM32H7xx_HAL_Driver/Src/stm32h7xx_ll_usb.c ****   if (ep->is_in == 1U)
1092:../../Drivers/STM32H7xx_HAL_Driver/Src/stm32h7xx_ll_usb.c ****   {
1093:../../Drivers/STM32H7xx_HAL_Driver/Src/stm32h7xx_ll_usb.c ****     USBx_INEP(epnum)->DIEPCTL &= ~USB_OTG_DIEPCTL_STALL;
1094:../../Drivers/STM32H7xx_HAL_Driver/Src/stm32h7xx_ll_usb.c ****     if ((ep->type == EP_TYPE_INTR) || (ep->type == EP_TYPE_BULK))
1095:../../Drivers/STM32H7xx_HAL_Driver/Src/stm32h7xx_ll_usb.c ****     {
1096:../../Drivers/STM32H7xx_HAL_Driver/Src/stm32h7xx_ll_usb.c ****       USBx_INEP(epnum)->DIEPCTL |= USB_OTG_DIEPCTL_SD0PID_SEVNFRM; /* DATA0 */
1097:../../Drivers/STM32H7xx_HAL_Driver/Src/stm32h7xx_ll_usb.c ****     }
1098:../../Drivers/STM32H7xx_HAL_Driver/Src/stm32h7xx_ll_usb.c ****   }
1099:../../Drivers/STM32H7xx_HAL_Driver/Src/stm32h7xx_ll_usb.c ****   else
1100:../../Drivers/STM32H7xx_HAL_Driver/Src/stm32h7xx_ll_usb.c ****   {
1101:../../Drivers/STM32H7xx_HAL_Driver/Src/stm32h7xx_ll_usb.c ****     USBx_OUTEP(epnum)->DOEPCTL &= ~USB_OTG_DOEPCTL_STALL;
1102:../../Drivers/STM32H7xx_HAL_Driver/Src/stm32h7xx_ll_usb.c ****     if ((ep->type == EP_TYPE_INTR) || (ep->type == EP_TYPE_BULK))
1103:../../Drivers/STM32H7xx_HAL_Driver/Src/stm32h7xx_ll_usb.c ****     {
1104:../../Drivers/STM32H7xx_HAL_Driver/Src/stm32h7xx_ll_usb.c ****       USBx_OUTEP(epnum)->DOEPCTL |= USB_OTG_DOEPCTL_SD0PID_SEVNFRM; /* DATA0 */
1105:../../Drivers/STM32H7xx_HAL_Driver/Src/stm32h7xx_ll_usb.c ****     }
1106:../../Drivers/STM32H7xx_HAL_Driver/Src/stm32h7xx_ll_usb.c ****   }
1107:../../Drivers/STM32H7xx_HAL_Driver/Src/stm32h7xx_ll_usb.c ****   return HAL_OK;
1108:../../Drivers/STM32H7xx_HAL_Driver/Src/stm32h7xx_ll_usb.c **** }
1109:../../Drivers/STM32H7xx_HAL_Driver/Src/stm32h7xx_ll_usb.c **** 
1110:../../Drivers/STM32H7xx_HAL_Driver/Src/stm32h7xx_ll_usb.c **** /**
1111:../../Drivers/STM32H7xx_HAL_Driver/Src/stm32h7xx_ll_usb.c ****   * @brief  USB_StopDevice : Stop the usb device mode
1112:../../Drivers/STM32H7xx_HAL_Driver/Src/stm32h7xx_ll_usb.c ****   * @param  USBx  Selected device
1113:../../Drivers/STM32H7xx_HAL_Driver/Src/stm32h7xx_ll_usb.c ****   * @retval HAL status
1114:../../Drivers/STM32H7xx_HAL_Driver/Src/stm32h7xx_ll_usb.c ****   */
ARM GAS  C:\Users\gigig\AppData\Local\Temp\ccBJNrpK.s 			page 21


1115:../../Drivers/STM32H7xx_HAL_Driver/Src/stm32h7xx_ll_usb.c **** HAL_StatusTypeDef USB_StopDevice(USB_OTG_GlobalTypeDef *USBx)
1116:../../Drivers/STM32H7xx_HAL_Driver/Src/stm32h7xx_ll_usb.c **** {
1117:../../Drivers/STM32H7xx_HAL_Driver/Src/stm32h7xx_ll_usb.c ****   HAL_StatusTypeDef ret;
1118:../../Drivers/STM32H7xx_HAL_Driver/Src/stm32h7xx_ll_usb.c ****   uint32_t USBx_BASE = (uint32_t)USBx;
1119:../../Drivers/STM32H7xx_HAL_Driver/Src/stm32h7xx_ll_usb.c ****   uint32_t i;
1120:../../Drivers/STM32H7xx_HAL_Driver/Src/stm32h7xx_ll_usb.c **** 
1121:../../Drivers/STM32H7xx_HAL_Driver/Src/stm32h7xx_ll_usb.c ****   /* Clear Pending interrupt */
1122:../../Drivers/STM32H7xx_HAL_Driver/Src/stm32h7xx_ll_usb.c ****   for (i = 0U; i < 15U; i++)
1123:../../Drivers/STM32H7xx_HAL_Driver/Src/stm32h7xx_ll_usb.c ****   {
1124:../../Drivers/STM32H7xx_HAL_Driver/Src/stm32h7xx_ll_usb.c ****     USBx_INEP(i)->DIEPINT = 0xFB7FU;
1125:../../Drivers/STM32H7xx_HAL_Driver/Src/stm32h7xx_ll_usb.c ****     USBx_OUTEP(i)->DOEPINT = 0xFB7FU;
1126:../../Drivers/STM32H7xx_HAL_Driver/Src/stm32h7xx_ll_usb.c ****   }
1127:../../Drivers/STM32H7xx_HAL_Driver/Src/stm32h7xx_ll_usb.c **** 
1128:../../Drivers/STM32H7xx_HAL_Driver/Src/stm32h7xx_ll_usb.c ****   /* Clear interrupt masks */
1129:../../Drivers/STM32H7xx_HAL_Driver/Src/stm32h7xx_ll_usb.c ****   USBx_DEVICE->DIEPMSK  = 0U;
1130:../../Drivers/STM32H7xx_HAL_Driver/Src/stm32h7xx_ll_usb.c ****   USBx_DEVICE->DOEPMSK  = 0U;
1131:../../Drivers/STM32H7xx_HAL_Driver/Src/stm32h7xx_ll_usb.c ****   USBx_DEVICE->DAINTMSK = 0U;
1132:../../Drivers/STM32H7xx_HAL_Driver/Src/stm32h7xx_ll_usb.c **** 
1133:../../Drivers/STM32H7xx_HAL_Driver/Src/stm32h7xx_ll_usb.c ****   /* Flush the FIFO */
1134:../../Drivers/STM32H7xx_HAL_Driver/Src/stm32h7xx_ll_usb.c ****   ret = USB_FlushRxFifo(USBx);
1135:../../Drivers/STM32H7xx_HAL_Driver/Src/stm32h7xx_ll_usb.c ****   if (ret != HAL_OK)
1136:../../Drivers/STM32H7xx_HAL_Driver/Src/stm32h7xx_ll_usb.c ****   {
1137:../../Drivers/STM32H7xx_HAL_Driver/Src/stm32h7xx_ll_usb.c ****     return ret;
1138:../../Drivers/STM32H7xx_HAL_Driver/Src/stm32h7xx_ll_usb.c ****   }
1139:../../Drivers/STM32H7xx_HAL_Driver/Src/stm32h7xx_ll_usb.c **** 
1140:../../Drivers/STM32H7xx_HAL_Driver/Src/stm32h7xx_ll_usb.c ****   ret = USB_FlushTxFifo(USBx,  0x10U);
1141:../../Drivers/STM32H7xx_HAL_Driver/Src/stm32h7xx_ll_usb.c ****   if (ret != HAL_OK)
1142:../../Drivers/STM32H7xx_HAL_Driver/Src/stm32h7xx_ll_usb.c ****   {
1143:../../Drivers/STM32H7xx_HAL_Driver/Src/stm32h7xx_ll_usb.c ****     return ret;
1144:../../Drivers/STM32H7xx_HAL_Driver/Src/stm32h7xx_ll_usb.c ****   }
1145:../../Drivers/STM32H7xx_HAL_Driver/Src/stm32h7xx_ll_usb.c **** 
1146:../../Drivers/STM32H7xx_HAL_Driver/Src/stm32h7xx_ll_usb.c ****   return ret;
1147:../../Drivers/STM32H7xx_HAL_Driver/Src/stm32h7xx_ll_usb.c **** }
1148:../../Drivers/STM32H7xx_HAL_Driver/Src/stm32h7xx_ll_usb.c **** 
1149:../../Drivers/STM32H7xx_HAL_Driver/Src/stm32h7xx_ll_usb.c **** /**
1150:../../Drivers/STM32H7xx_HAL_Driver/Src/stm32h7xx_ll_usb.c ****   * @brief  USB_SetDevAddress : Stop the usb device mode
1151:../../Drivers/STM32H7xx_HAL_Driver/Src/stm32h7xx_ll_usb.c ****   * @param  USBx  Selected device
1152:../../Drivers/STM32H7xx_HAL_Driver/Src/stm32h7xx_ll_usb.c ****   * @param  address  new device address to be assigned
1153:../../Drivers/STM32H7xx_HAL_Driver/Src/stm32h7xx_ll_usb.c ****   *          This parameter can be a value from 0 to 255
1154:../../Drivers/STM32H7xx_HAL_Driver/Src/stm32h7xx_ll_usb.c ****   * @retval HAL status
1155:../../Drivers/STM32H7xx_HAL_Driver/Src/stm32h7xx_ll_usb.c ****   */
1156:../../Drivers/STM32H7xx_HAL_Driver/Src/stm32h7xx_ll_usb.c **** HAL_StatusTypeDef USB_SetDevAddress(USB_OTG_GlobalTypeDef *USBx, uint8_t address)
1157:../../Drivers/STM32H7xx_HAL_Driver/Src/stm32h7xx_ll_usb.c **** {
1158:../../Drivers/STM32H7xx_HAL_Driver/Src/stm32h7xx_ll_usb.c ****   uint32_t USBx_BASE = (uint32_t)USBx;
1159:../../Drivers/STM32H7xx_HAL_Driver/Src/stm32h7xx_ll_usb.c **** 
1160:../../Drivers/STM32H7xx_HAL_Driver/Src/stm32h7xx_ll_usb.c ****   USBx_DEVICE->DCFG &= ~(USB_OTG_DCFG_DAD);
1161:../../Drivers/STM32H7xx_HAL_Driver/Src/stm32h7xx_ll_usb.c ****   USBx_DEVICE->DCFG |= ((uint32_t)address << 4) & USB_OTG_DCFG_DAD;
1162:../../Drivers/STM32H7xx_HAL_Driver/Src/stm32h7xx_ll_usb.c **** 
1163:../../Drivers/STM32H7xx_HAL_Driver/Src/stm32h7xx_ll_usb.c ****   return HAL_OK;
1164:../../Drivers/STM32H7xx_HAL_Driver/Src/stm32h7xx_ll_usb.c **** }
1165:../../Drivers/STM32H7xx_HAL_Driver/Src/stm32h7xx_ll_usb.c **** 
1166:../../Drivers/STM32H7xx_HAL_Driver/Src/stm32h7xx_ll_usb.c **** /**
1167:../../Drivers/STM32H7xx_HAL_Driver/Src/stm32h7xx_ll_usb.c ****   * @brief  USB_DevConnect : Connect the USB device by enabling Rpu
1168:../../Drivers/STM32H7xx_HAL_Driver/Src/stm32h7xx_ll_usb.c ****   * @param  USBx  Selected device
1169:../../Drivers/STM32H7xx_HAL_Driver/Src/stm32h7xx_ll_usb.c ****   * @retval HAL status
1170:../../Drivers/STM32H7xx_HAL_Driver/Src/stm32h7xx_ll_usb.c ****   */
1171:../../Drivers/STM32H7xx_HAL_Driver/Src/stm32h7xx_ll_usb.c **** HAL_StatusTypeDef USB_DevConnect(USB_OTG_GlobalTypeDef *USBx)
ARM GAS  C:\Users\gigig\AppData\Local\Temp\ccBJNrpK.s 			page 22


1172:../../Drivers/STM32H7xx_HAL_Driver/Src/stm32h7xx_ll_usb.c **** {
1173:../../Drivers/STM32H7xx_HAL_Driver/Src/stm32h7xx_ll_usb.c ****   uint32_t USBx_BASE = (uint32_t)USBx;
1174:../../Drivers/STM32H7xx_HAL_Driver/Src/stm32h7xx_ll_usb.c **** 
1175:../../Drivers/STM32H7xx_HAL_Driver/Src/stm32h7xx_ll_usb.c ****   /* In case phy is stopped, ensure to ungate and restore the phy CLK */
1176:../../Drivers/STM32H7xx_HAL_Driver/Src/stm32h7xx_ll_usb.c ****   USBx_PCGCCTL &= ~(USB_OTG_PCGCCTL_STOPCLK | USB_OTG_PCGCCTL_GATECLK);
1177:../../Drivers/STM32H7xx_HAL_Driver/Src/stm32h7xx_ll_usb.c **** 
1178:../../Drivers/STM32H7xx_HAL_Driver/Src/stm32h7xx_ll_usb.c ****   USBx_DEVICE->DCTL &= ~USB_OTG_DCTL_SDIS;
1179:../../Drivers/STM32H7xx_HAL_Driver/Src/stm32h7xx_ll_usb.c **** 
1180:../../Drivers/STM32H7xx_HAL_Driver/Src/stm32h7xx_ll_usb.c ****   return HAL_OK;
1181:../../Drivers/STM32H7xx_HAL_Driver/Src/stm32h7xx_ll_usb.c **** }
1182:../../Drivers/STM32H7xx_HAL_Driver/Src/stm32h7xx_ll_usb.c **** 
1183:../../Drivers/STM32H7xx_HAL_Driver/Src/stm32h7xx_ll_usb.c **** /**
1184:../../Drivers/STM32H7xx_HAL_Driver/Src/stm32h7xx_ll_usb.c ****   * @brief  USB_DevDisconnect : Disconnect the USB device by disabling Rpu
1185:../../Drivers/STM32H7xx_HAL_Driver/Src/stm32h7xx_ll_usb.c ****   * @param  USBx  Selected device
1186:../../Drivers/STM32H7xx_HAL_Driver/Src/stm32h7xx_ll_usb.c ****   * @retval HAL status
1187:../../Drivers/STM32H7xx_HAL_Driver/Src/stm32h7xx_ll_usb.c ****   */
1188:../../Drivers/STM32H7xx_HAL_Driver/Src/stm32h7xx_ll_usb.c **** HAL_StatusTypeDef USB_DevDisconnect(USB_OTG_GlobalTypeDef *USBx)
1189:../../Drivers/STM32H7xx_HAL_Driver/Src/stm32h7xx_ll_usb.c **** {
1190:../../Drivers/STM32H7xx_HAL_Driver/Src/stm32h7xx_ll_usb.c ****   uint32_t USBx_BASE = (uint32_t)USBx;
1191:../../Drivers/STM32H7xx_HAL_Driver/Src/stm32h7xx_ll_usb.c **** 
1192:../../Drivers/STM32H7xx_HAL_Driver/Src/stm32h7xx_ll_usb.c ****   /* In case phy is stopped, ensure to ungate and restore the phy CLK */
1193:../../Drivers/STM32H7xx_HAL_Driver/Src/stm32h7xx_ll_usb.c ****   USBx_PCGCCTL &= ~(USB_OTG_PCGCCTL_STOPCLK | USB_OTG_PCGCCTL_GATECLK);
1194:../../Drivers/STM32H7xx_HAL_Driver/Src/stm32h7xx_ll_usb.c **** 
1195:../../Drivers/STM32H7xx_HAL_Driver/Src/stm32h7xx_ll_usb.c ****   USBx_DEVICE->DCTL |= USB_OTG_DCTL_SDIS;
1196:../../Drivers/STM32H7xx_HAL_Driver/Src/stm32h7xx_ll_usb.c **** 
1197:../../Drivers/STM32H7xx_HAL_Driver/Src/stm32h7xx_ll_usb.c ****   return HAL_OK;
1198:../../Drivers/STM32H7xx_HAL_Driver/Src/stm32h7xx_ll_usb.c **** }
1199:../../Drivers/STM32H7xx_HAL_Driver/Src/stm32h7xx_ll_usb.c **** 
1200:../../Drivers/STM32H7xx_HAL_Driver/Src/stm32h7xx_ll_usb.c **** /**
1201:../../Drivers/STM32H7xx_HAL_Driver/Src/stm32h7xx_ll_usb.c ****   * @brief  USB_ReadInterrupts: return the global USB interrupt status
1202:../../Drivers/STM32H7xx_HAL_Driver/Src/stm32h7xx_ll_usb.c ****   * @param  USBx  Selected device
1203:../../Drivers/STM32H7xx_HAL_Driver/Src/stm32h7xx_ll_usb.c ****   * @retval USB Global Interrupt status
1204:../../Drivers/STM32H7xx_HAL_Driver/Src/stm32h7xx_ll_usb.c ****   */
1205:../../Drivers/STM32H7xx_HAL_Driver/Src/stm32h7xx_ll_usb.c **** uint32_t USB_ReadInterrupts(USB_OTG_GlobalTypeDef *USBx)
1206:../../Drivers/STM32H7xx_HAL_Driver/Src/stm32h7xx_ll_usb.c **** {
1207:../../Drivers/STM32H7xx_HAL_Driver/Src/stm32h7xx_ll_usb.c ****   uint32_t tmpreg;
1208:../../Drivers/STM32H7xx_HAL_Driver/Src/stm32h7xx_ll_usb.c **** 
1209:../../Drivers/STM32H7xx_HAL_Driver/Src/stm32h7xx_ll_usb.c ****   tmpreg = USBx->GINTSTS;
1210:../../Drivers/STM32H7xx_HAL_Driver/Src/stm32h7xx_ll_usb.c ****   tmpreg &= USBx->GINTMSK;
1211:../../Drivers/STM32H7xx_HAL_Driver/Src/stm32h7xx_ll_usb.c **** 
1212:../../Drivers/STM32H7xx_HAL_Driver/Src/stm32h7xx_ll_usb.c ****   return tmpreg;
1213:../../Drivers/STM32H7xx_HAL_Driver/Src/stm32h7xx_ll_usb.c **** }
1214:../../Drivers/STM32H7xx_HAL_Driver/Src/stm32h7xx_ll_usb.c **** 
1215:../../Drivers/STM32H7xx_HAL_Driver/Src/stm32h7xx_ll_usb.c **** /**
1216:../../Drivers/STM32H7xx_HAL_Driver/Src/stm32h7xx_ll_usb.c ****   * @brief  USB_ReadChInterrupts: return USB channel interrupt status
1217:../../Drivers/STM32H7xx_HAL_Driver/Src/stm32h7xx_ll_usb.c ****   * @param  USBx  Selected device
1218:../../Drivers/STM32H7xx_HAL_Driver/Src/stm32h7xx_ll_usb.c ****   * @param  chnum Channel number
1219:../../Drivers/STM32H7xx_HAL_Driver/Src/stm32h7xx_ll_usb.c ****   * @retval USB Channel Interrupt status
1220:../../Drivers/STM32H7xx_HAL_Driver/Src/stm32h7xx_ll_usb.c ****   */
1221:../../Drivers/STM32H7xx_HAL_Driver/Src/stm32h7xx_ll_usb.c **** uint32_t USB_ReadChInterrupts(USB_OTG_GlobalTypeDef *USBx, uint8_t chnum)
1222:../../Drivers/STM32H7xx_HAL_Driver/Src/stm32h7xx_ll_usb.c **** {
1223:../../Drivers/STM32H7xx_HAL_Driver/Src/stm32h7xx_ll_usb.c ****   uint32_t USBx_BASE = (uint32_t)USBx;
1224:../../Drivers/STM32H7xx_HAL_Driver/Src/stm32h7xx_ll_usb.c ****   uint32_t tmpreg;
1225:../../Drivers/STM32H7xx_HAL_Driver/Src/stm32h7xx_ll_usb.c **** 
1226:../../Drivers/STM32H7xx_HAL_Driver/Src/stm32h7xx_ll_usb.c ****   tmpreg = USBx_HC(chnum)->HCINT;
1227:../../Drivers/STM32H7xx_HAL_Driver/Src/stm32h7xx_ll_usb.c ****   tmpreg &= USBx_HC(chnum)->HCINTMSK;
1228:../../Drivers/STM32H7xx_HAL_Driver/Src/stm32h7xx_ll_usb.c **** 
ARM GAS  C:\Users\gigig\AppData\Local\Temp\ccBJNrpK.s 			page 23


1229:../../Drivers/STM32H7xx_HAL_Driver/Src/stm32h7xx_ll_usb.c ****   return tmpreg;
1230:../../Drivers/STM32H7xx_HAL_Driver/Src/stm32h7xx_ll_usb.c **** }
1231:../../Drivers/STM32H7xx_HAL_Driver/Src/stm32h7xx_ll_usb.c **** 
1232:../../Drivers/STM32H7xx_HAL_Driver/Src/stm32h7xx_ll_usb.c **** /**
1233:../../Drivers/STM32H7xx_HAL_Driver/Src/stm32h7xx_ll_usb.c ****   * @brief  USB_ReadDevAllOutEpInterrupt: return the USB device OUT endpoints interrupt status
1234:../../Drivers/STM32H7xx_HAL_Driver/Src/stm32h7xx_ll_usb.c ****   * @param  USBx  Selected device
1235:../../Drivers/STM32H7xx_HAL_Driver/Src/stm32h7xx_ll_usb.c ****   * @retval USB Device OUT EP interrupt status
1236:../../Drivers/STM32H7xx_HAL_Driver/Src/stm32h7xx_ll_usb.c ****   */
1237:../../Drivers/STM32H7xx_HAL_Driver/Src/stm32h7xx_ll_usb.c **** uint32_t USB_ReadDevAllOutEpInterrupt(USB_OTG_GlobalTypeDef *USBx)
1238:../../Drivers/STM32H7xx_HAL_Driver/Src/stm32h7xx_ll_usb.c **** {
1239:../../Drivers/STM32H7xx_HAL_Driver/Src/stm32h7xx_ll_usb.c ****   uint32_t USBx_BASE = (uint32_t)USBx;
1240:../../Drivers/STM32H7xx_HAL_Driver/Src/stm32h7xx_ll_usb.c ****   uint32_t tmpreg;
1241:../../Drivers/STM32H7xx_HAL_Driver/Src/stm32h7xx_ll_usb.c **** 
1242:../../Drivers/STM32H7xx_HAL_Driver/Src/stm32h7xx_ll_usb.c ****   tmpreg  = USBx_DEVICE->DAINT;
1243:../../Drivers/STM32H7xx_HAL_Driver/Src/stm32h7xx_ll_usb.c ****   tmpreg &= USBx_DEVICE->DAINTMSK;
1244:../../Drivers/STM32H7xx_HAL_Driver/Src/stm32h7xx_ll_usb.c **** 
1245:../../Drivers/STM32H7xx_HAL_Driver/Src/stm32h7xx_ll_usb.c ****   return ((tmpreg & 0xffff0000U) >> 16);
1246:../../Drivers/STM32H7xx_HAL_Driver/Src/stm32h7xx_ll_usb.c **** }
1247:../../Drivers/STM32H7xx_HAL_Driver/Src/stm32h7xx_ll_usb.c **** 
1248:../../Drivers/STM32H7xx_HAL_Driver/Src/stm32h7xx_ll_usb.c **** /**
1249:../../Drivers/STM32H7xx_HAL_Driver/Src/stm32h7xx_ll_usb.c ****   * @brief  USB_ReadDevAllInEpInterrupt: return the USB device IN endpoints interrupt status
1250:../../Drivers/STM32H7xx_HAL_Driver/Src/stm32h7xx_ll_usb.c ****   * @param  USBx  Selected device
1251:../../Drivers/STM32H7xx_HAL_Driver/Src/stm32h7xx_ll_usb.c ****   * @retval USB Device IN EP interrupt status
1252:../../Drivers/STM32H7xx_HAL_Driver/Src/stm32h7xx_ll_usb.c ****   */
1253:../../Drivers/STM32H7xx_HAL_Driver/Src/stm32h7xx_ll_usb.c **** uint32_t USB_ReadDevAllInEpInterrupt(USB_OTG_GlobalTypeDef *USBx)
1254:../../Drivers/STM32H7xx_HAL_Driver/Src/stm32h7xx_ll_usb.c **** {
1255:../../Drivers/STM32H7xx_HAL_Driver/Src/stm32h7xx_ll_usb.c ****   uint32_t USBx_BASE = (uint32_t)USBx;
1256:../../Drivers/STM32H7xx_HAL_Driver/Src/stm32h7xx_ll_usb.c ****   uint32_t tmpreg;
1257:../../Drivers/STM32H7xx_HAL_Driver/Src/stm32h7xx_ll_usb.c **** 
1258:../../Drivers/STM32H7xx_HAL_Driver/Src/stm32h7xx_ll_usb.c ****   tmpreg  = USBx_DEVICE->DAINT;
1259:../../Drivers/STM32H7xx_HAL_Driver/Src/stm32h7xx_ll_usb.c ****   tmpreg &= USBx_DEVICE->DAINTMSK;
1260:../../Drivers/STM32H7xx_HAL_Driver/Src/stm32h7xx_ll_usb.c **** 
1261:../../Drivers/STM32H7xx_HAL_Driver/Src/stm32h7xx_ll_usb.c ****   return ((tmpreg & 0xFFFFU));
1262:../../Drivers/STM32H7xx_HAL_Driver/Src/stm32h7xx_ll_usb.c **** }
1263:../../Drivers/STM32H7xx_HAL_Driver/Src/stm32h7xx_ll_usb.c **** 
1264:../../Drivers/STM32H7xx_HAL_Driver/Src/stm32h7xx_ll_usb.c **** /**
1265:../../Drivers/STM32H7xx_HAL_Driver/Src/stm32h7xx_ll_usb.c ****   * @brief  Returns Device OUT EP Interrupt register
1266:../../Drivers/STM32H7xx_HAL_Driver/Src/stm32h7xx_ll_usb.c ****   * @param  USBx  Selected device
1267:../../Drivers/STM32H7xx_HAL_Driver/Src/stm32h7xx_ll_usb.c ****   * @param  epnum  endpoint number
1268:../../Drivers/STM32H7xx_HAL_Driver/Src/stm32h7xx_ll_usb.c ****   *          This parameter can be a value from 0 to 15
1269:../../Drivers/STM32H7xx_HAL_Driver/Src/stm32h7xx_ll_usb.c ****   * @retval Device OUT EP Interrupt register
1270:../../Drivers/STM32H7xx_HAL_Driver/Src/stm32h7xx_ll_usb.c ****   */
1271:../../Drivers/STM32H7xx_HAL_Driver/Src/stm32h7xx_ll_usb.c **** uint32_t USB_ReadDevOutEPInterrupt(USB_OTG_GlobalTypeDef *USBx, uint8_t epnum)
1272:../../Drivers/STM32H7xx_HAL_Driver/Src/stm32h7xx_ll_usb.c **** {
1273:../../Drivers/STM32H7xx_HAL_Driver/Src/stm32h7xx_ll_usb.c ****   uint32_t USBx_BASE = (uint32_t)USBx;
1274:../../Drivers/STM32H7xx_HAL_Driver/Src/stm32h7xx_ll_usb.c ****   uint32_t tmpreg;
1275:../../Drivers/STM32H7xx_HAL_Driver/Src/stm32h7xx_ll_usb.c **** 
1276:../../Drivers/STM32H7xx_HAL_Driver/Src/stm32h7xx_ll_usb.c ****   tmpreg  = USBx_OUTEP((uint32_t)epnum)->DOEPINT;
1277:../../Drivers/STM32H7xx_HAL_Driver/Src/stm32h7xx_ll_usb.c ****   tmpreg &= USBx_DEVICE->DOEPMSK;
1278:../../Drivers/STM32H7xx_HAL_Driver/Src/stm32h7xx_ll_usb.c **** 
1279:../../Drivers/STM32H7xx_HAL_Driver/Src/stm32h7xx_ll_usb.c ****   return tmpreg;
1280:../../Drivers/STM32H7xx_HAL_Driver/Src/stm32h7xx_ll_usb.c **** }
1281:../../Drivers/STM32H7xx_HAL_Driver/Src/stm32h7xx_ll_usb.c **** 
1282:../../Drivers/STM32H7xx_HAL_Driver/Src/stm32h7xx_ll_usb.c **** /**
1283:../../Drivers/STM32H7xx_HAL_Driver/Src/stm32h7xx_ll_usb.c ****   * @brief  Returns Device IN EP Interrupt register
1284:../../Drivers/STM32H7xx_HAL_Driver/Src/stm32h7xx_ll_usb.c ****   * @param  USBx  Selected device
1285:../../Drivers/STM32H7xx_HAL_Driver/Src/stm32h7xx_ll_usb.c ****   * @param  epnum  endpoint number
ARM GAS  C:\Users\gigig\AppData\Local\Temp\ccBJNrpK.s 			page 24


1286:../../Drivers/STM32H7xx_HAL_Driver/Src/stm32h7xx_ll_usb.c ****   *          This parameter can be a value from 0 to 15
1287:../../Drivers/STM32H7xx_HAL_Driver/Src/stm32h7xx_ll_usb.c ****   * @retval Device IN EP Interrupt register
1288:../../Drivers/STM32H7xx_HAL_Driver/Src/stm32h7xx_ll_usb.c ****   */
1289:../../Drivers/STM32H7xx_HAL_Driver/Src/stm32h7xx_ll_usb.c **** uint32_t USB_ReadDevInEPInterrupt(USB_OTG_GlobalTypeDef *USBx, uint8_t epnum)
1290:../../Drivers/STM32H7xx_HAL_Driver/Src/stm32h7xx_ll_usb.c **** {
1291:../../Drivers/STM32H7xx_HAL_Driver/Src/stm32h7xx_ll_usb.c ****   uint32_t USBx_BASE = (uint32_t)USBx;
1292:../../Drivers/STM32H7xx_HAL_Driver/Src/stm32h7xx_ll_usb.c ****   uint32_t tmpreg;
1293:../../Drivers/STM32H7xx_HAL_Driver/Src/stm32h7xx_ll_usb.c ****   uint32_t msk;
1294:../../Drivers/STM32H7xx_HAL_Driver/Src/stm32h7xx_ll_usb.c ****   uint32_t emp;
1295:../../Drivers/STM32H7xx_HAL_Driver/Src/stm32h7xx_ll_usb.c **** 
1296:../../Drivers/STM32H7xx_HAL_Driver/Src/stm32h7xx_ll_usb.c ****   msk = USBx_DEVICE->DIEPMSK;
1297:../../Drivers/STM32H7xx_HAL_Driver/Src/stm32h7xx_ll_usb.c ****   emp = USBx_DEVICE->DIEPEMPMSK;
1298:../../Drivers/STM32H7xx_HAL_Driver/Src/stm32h7xx_ll_usb.c ****   msk |= ((emp >> (epnum & EP_ADDR_MSK)) & 0x1U) << 7;
1299:../../Drivers/STM32H7xx_HAL_Driver/Src/stm32h7xx_ll_usb.c ****   tmpreg = USBx_INEP((uint32_t)epnum)->DIEPINT & msk;
1300:../../Drivers/STM32H7xx_HAL_Driver/Src/stm32h7xx_ll_usb.c **** 
1301:../../Drivers/STM32H7xx_HAL_Driver/Src/stm32h7xx_ll_usb.c ****   return tmpreg;
1302:../../Drivers/STM32H7xx_HAL_Driver/Src/stm32h7xx_ll_usb.c **** }
1303:../../Drivers/STM32H7xx_HAL_Driver/Src/stm32h7xx_ll_usb.c **** 
1304:../../Drivers/STM32H7xx_HAL_Driver/Src/stm32h7xx_ll_usb.c **** /**
1305:../../Drivers/STM32H7xx_HAL_Driver/Src/stm32h7xx_ll_usb.c ****   * @brief  USB_ClearInterrupts: clear a USB interrupt
1306:../../Drivers/STM32H7xx_HAL_Driver/Src/stm32h7xx_ll_usb.c ****   * @param  USBx  Selected device
1307:../../Drivers/STM32H7xx_HAL_Driver/Src/stm32h7xx_ll_usb.c ****   * @param  interrupt  flag
1308:../../Drivers/STM32H7xx_HAL_Driver/Src/stm32h7xx_ll_usb.c ****   * @retval None
1309:../../Drivers/STM32H7xx_HAL_Driver/Src/stm32h7xx_ll_usb.c ****   */
1310:../../Drivers/STM32H7xx_HAL_Driver/Src/stm32h7xx_ll_usb.c **** void  USB_ClearInterrupts(USB_OTG_GlobalTypeDef *USBx, uint32_t interrupt)
1311:../../Drivers/STM32H7xx_HAL_Driver/Src/stm32h7xx_ll_usb.c **** {
1312:../../Drivers/STM32H7xx_HAL_Driver/Src/stm32h7xx_ll_usb.c ****   USBx->GINTSTS |= interrupt;
1313:../../Drivers/STM32H7xx_HAL_Driver/Src/stm32h7xx_ll_usb.c **** }
1314:../../Drivers/STM32H7xx_HAL_Driver/Src/stm32h7xx_ll_usb.c **** 
1315:../../Drivers/STM32H7xx_HAL_Driver/Src/stm32h7xx_ll_usb.c **** /**
1316:../../Drivers/STM32H7xx_HAL_Driver/Src/stm32h7xx_ll_usb.c ****   * @brief  Returns USB core mode
1317:../../Drivers/STM32H7xx_HAL_Driver/Src/stm32h7xx_ll_usb.c ****   * @param  USBx  Selected device
1318:../../Drivers/STM32H7xx_HAL_Driver/Src/stm32h7xx_ll_usb.c ****   * @retval return core mode : Host or Device
1319:../../Drivers/STM32H7xx_HAL_Driver/Src/stm32h7xx_ll_usb.c ****   *          This parameter can be one of these values:
1320:../../Drivers/STM32H7xx_HAL_Driver/Src/stm32h7xx_ll_usb.c ****   *           0 : Host
1321:../../Drivers/STM32H7xx_HAL_Driver/Src/stm32h7xx_ll_usb.c ****   *           1 : Device
1322:../../Drivers/STM32H7xx_HAL_Driver/Src/stm32h7xx_ll_usb.c ****   */
1323:../../Drivers/STM32H7xx_HAL_Driver/Src/stm32h7xx_ll_usb.c **** uint32_t USB_GetMode(USB_OTG_GlobalTypeDef *USBx)
1324:../../Drivers/STM32H7xx_HAL_Driver/Src/stm32h7xx_ll_usb.c **** {
1325:../../Drivers/STM32H7xx_HAL_Driver/Src/stm32h7xx_ll_usb.c ****   return ((USBx->GINTSTS) & 0x1U);
1326:../../Drivers/STM32H7xx_HAL_Driver/Src/stm32h7xx_ll_usb.c **** }
1327:../../Drivers/STM32H7xx_HAL_Driver/Src/stm32h7xx_ll_usb.c **** 
1328:../../Drivers/STM32H7xx_HAL_Driver/Src/stm32h7xx_ll_usb.c **** /**
1329:../../Drivers/STM32H7xx_HAL_Driver/Src/stm32h7xx_ll_usb.c ****   * @brief  Activate EP0 for Setup transactions
1330:../../Drivers/STM32H7xx_HAL_Driver/Src/stm32h7xx_ll_usb.c ****   * @param  USBx  Selected device
1331:../../Drivers/STM32H7xx_HAL_Driver/Src/stm32h7xx_ll_usb.c ****   * @retval HAL status
1332:../../Drivers/STM32H7xx_HAL_Driver/Src/stm32h7xx_ll_usb.c ****   */
1333:../../Drivers/STM32H7xx_HAL_Driver/Src/stm32h7xx_ll_usb.c **** HAL_StatusTypeDef USB_ActivateSetup(USB_OTG_GlobalTypeDef *USBx)
1334:../../Drivers/STM32H7xx_HAL_Driver/Src/stm32h7xx_ll_usb.c **** {
1335:../../Drivers/STM32H7xx_HAL_Driver/Src/stm32h7xx_ll_usb.c ****   uint32_t USBx_BASE = (uint32_t)USBx;
1336:../../Drivers/STM32H7xx_HAL_Driver/Src/stm32h7xx_ll_usb.c **** 
1337:../../Drivers/STM32H7xx_HAL_Driver/Src/stm32h7xx_ll_usb.c ****   /* Set the MPS of the IN EP0 to 64 bytes */
1338:../../Drivers/STM32H7xx_HAL_Driver/Src/stm32h7xx_ll_usb.c ****   USBx_INEP(0U)->DIEPCTL &= ~USB_OTG_DIEPCTL_MPSIZ;
1339:../../Drivers/STM32H7xx_HAL_Driver/Src/stm32h7xx_ll_usb.c **** 
1340:../../Drivers/STM32H7xx_HAL_Driver/Src/stm32h7xx_ll_usb.c ****   USBx_DEVICE->DCTL |= USB_OTG_DCTL_CGINAK;
1341:../../Drivers/STM32H7xx_HAL_Driver/Src/stm32h7xx_ll_usb.c **** 
1342:../../Drivers/STM32H7xx_HAL_Driver/Src/stm32h7xx_ll_usb.c ****   return HAL_OK;
ARM GAS  C:\Users\gigig\AppData\Local\Temp\ccBJNrpK.s 			page 25


1343:../../Drivers/STM32H7xx_HAL_Driver/Src/stm32h7xx_ll_usb.c **** }
1344:../../Drivers/STM32H7xx_HAL_Driver/Src/stm32h7xx_ll_usb.c **** 
1345:../../Drivers/STM32H7xx_HAL_Driver/Src/stm32h7xx_ll_usb.c **** /**
1346:../../Drivers/STM32H7xx_HAL_Driver/Src/stm32h7xx_ll_usb.c ****   * @brief  Prepare the EP0 to start the first control setup
1347:../../Drivers/STM32H7xx_HAL_Driver/Src/stm32h7xx_ll_usb.c ****   * @param  USBx  Selected device
1348:../../Drivers/STM32H7xx_HAL_Driver/Src/stm32h7xx_ll_usb.c ****   * @param  dma USB dma enabled or disabled
1349:../../Drivers/STM32H7xx_HAL_Driver/Src/stm32h7xx_ll_usb.c ****   *          This parameter can be one of these values:
1350:../../Drivers/STM32H7xx_HAL_Driver/Src/stm32h7xx_ll_usb.c ****   *           0 : DMA feature not used
1351:../../Drivers/STM32H7xx_HAL_Driver/Src/stm32h7xx_ll_usb.c ****   *           1 : DMA feature used
1352:../../Drivers/STM32H7xx_HAL_Driver/Src/stm32h7xx_ll_usb.c ****   * @param  psetup  pointer to setup packet
1353:../../Drivers/STM32H7xx_HAL_Driver/Src/stm32h7xx_ll_usb.c ****   * @retval HAL status
1354:../../Drivers/STM32H7xx_HAL_Driver/Src/stm32h7xx_ll_usb.c ****   */
1355:../../Drivers/STM32H7xx_HAL_Driver/Src/stm32h7xx_ll_usb.c **** HAL_StatusTypeDef USB_EP0_OutStart(USB_OTG_GlobalTypeDef *USBx, uint8_t dma, uint8_t *psetup)
1356:../../Drivers/STM32H7xx_HAL_Driver/Src/stm32h7xx_ll_usb.c **** {
1357:../../Drivers/STM32H7xx_HAL_Driver/Src/stm32h7xx_ll_usb.c ****   uint32_t USBx_BASE = (uint32_t)USBx;
1358:../../Drivers/STM32H7xx_HAL_Driver/Src/stm32h7xx_ll_usb.c ****   uint32_t gSNPSiD = *(__IO uint32_t *)(&USBx->CID + 0x1U);
1359:../../Drivers/STM32H7xx_HAL_Driver/Src/stm32h7xx_ll_usb.c **** 
1360:../../Drivers/STM32H7xx_HAL_Driver/Src/stm32h7xx_ll_usb.c ****   if (gSNPSiD > USB_OTG_CORE_ID_300A)
1361:../../Drivers/STM32H7xx_HAL_Driver/Src/stm32h7xx_ll_usb.c ****   {
1362:../../Drivers/STM32H7xx_HAL_Driver/Src/stm32h7xx_ll_usb.c ****     if ((USBx_OUTEP(0U)->DOEPCTL & USB_OTG_DOEPCTL_EPENA) == USB_OTG_DOEPCTL_EPENA)
1363:../../Drivers/STM32H7xx_HAL_Driver/Src/stm32h7xx_ll_usb.c ****     {
1364:../../Drivers/STM32H7xx_HAL_Driver/Src/stm32h7xx_ll_usb.c ****       return HAL_OK;
1365:../../Drivers/STM32H7xx_HAL_Driver/Src/stm32h7xx_ll_usb.c ****     }
1366:../../Drivers/STM32H7xx_HAL_Driver/Src/stm32h7xx_ll_usb.c ****   }
1367:../../Drivers/STM32H7xx_HAL_Driver/Src/stm32h7xx_ll_usb.c **** 
1368:../../Drivers/STM32H7xx_HAL_Driver/Src/stm32h7xx_ll_usb.c ****   USBx_OUTEP(0U)->DOEPTSIZ = 0U;
1369:../../Drivers/STM32H7xx_HAL_Driver/Src/stm32h7xx_ll_usb.c ****   USBx_OUTEP(0U)->DOEPTSIZ |= (USB_OTG_DOEPTSIZ_PKTCNT & (1U << 19));
1370:../../Drivers/STM32H7xx_HAL_Driver/Src/stm32h7xx_ll_usb.c ****   USBx_OUTEP(0U)->DOEPTSIZ |= (3U * 8U);
1371:../../Drivers/STM32H7xx_HAL_Driver/Src/stm32h7xx_ll_usb.c ****   USBx_OUTEP(0U)->DOEPTSIZ |=  USB_OTG_DOEPTSIZ_STUPCNT;
1372:../../Drivers/STM32H7xx_HAL_Driver/Src/stm32h7xx_ll_usb.c **** 
1373:../../Drivers/STM32H7xx_HAL_Driver/Src/stm32h7xx_ll_usb.c ****   if (dma == 1U)
1374:../../Drivers/STM32H7xx_HAL_Driver/Src/stm32h7xx_ll_usb.c ****   {
1375:../../Drivers/STM32H7xx_HAL_Driver/Src/stm32h7xx_ll_usb.c ****     USBx_OUTEP(0U)->DOEPDMA = (uint32_t)psetup;
1376:../../Drivers/STM32H7xx_HAL_Driver/Src/stm32h7xx_ll_usb.c ****     /* EP enable */
1377:../../Drivers/STM32H7xx_HAL_Driver/Src/stm32h7xx_ll_usb.c ****     USBx_OUTEP(0U)->DOEPCTL |= USB_OTG_DOEPCTL_EPENA | USB_OTG_DOEPCTL_USBAEP;
1378:../../Drivers/STM32H7xx_HAL_Driver/Src/stm32h7xx_ll_usb.c ****   }
1379:../../Drivers/STM32H7xx_HAL_Driver/Src/stm32h7xx_ll_usb.c **** 
1380:../../Drivers/STM32H7xx_HAL_Driver/Src/stm32h7xx_ll_usb.c ****   return HAL_OK;
1381:../../Drivers/STM32H7xx_HAL_Driver/Src/stm32h7xx_ll_usb.c **** }
1382:../../Drivers/STM32H7xx_HAL_Driver/Src/stm32h7xx_ll_usb.c **** 
1383:../../Drivers/STM32H7xx_HAL_Driver/Src/stm32h7xx_ll_usb.c **** /**
1384:../../Drivers/STM32H7xx_HAL_Driver/Src/stm32h7xx_ll_usb.c ****   * @brief  Reset the USB Core (needed after USB clock settings change)
1385:../../Drivers/STM32H7xx_HAL_Driver/Src/stm32h7xx_ll_usb.c ****   * @param  USBx  Selected device
1386:../../Drivers/STM32H7xx_HAL_Driver/Src/stm32h7xx_ll_usb.c ****   * @retval HAL status
1387:../../Drivers/STM32H7xx_HAL_Driver/Src/stm32h7xx_ll_usb.c ****   */
1388:../../Drivers/STM32H7xx_HAL_Driver/Src/stm32h7xx_ll_usb.c **** static HAL_StatusTypeDef USB_CoreReset(USB_OTG_GlobalTypeDef *USBx)
1389:../../Drivers/STM32H7xx_HAL_Driver/Src/stm32h7xx_ll_usb.c **** {
  28              		.loc 1 1389 1 view -0
  29              		.cfi_startproc
  30              		@ args = 0, pretend = 0, frame = 8
  31              		@ frame_needed = 0, uses_anonymous_args = 0
  32              		@ link register save eliminated.
  33              		.loc 1 1389 1 is_stmt 0 view .LVU1
  34 0000 82B0     		sub	sp, sp, #8
  35              	.LCFI0:
  36              		.cfi_def_cfa_offset 8
1390:../../Drivers/STM32H7xx_HAL_Driver/Src/stm32h7xx_ll_usb.c ****   __IO uint32_t count = 0U;
ARM GAS  C:\Users\gigig\AppData\Local\Temp\ccBJNrpK.s 			page 26


  37              		.loc 1 1390 3 is_stmt 1 view .LVU2
  38              		.loc 1 1390 17 is_stmt 0 view .LVU3
  39 0002 0023     		movs	r3, #0
  40 0004 0193     		str	r3, [sp, #4]
  41              	.L3:
1391:../../Drivers/STM32H7xx_HAL_Driver/Src/stm32h7xx_ll_usb.c **** 
1392:../../Drivers/STM32H7xx_HAL_Driver/Src/stm32h7xx_ll_usb.c ****   /* Wait for AHB master IDLE state. */
1393:../../Drivers/STM32H7xx_HAL_Driver/Src/stm32h7xx_ll_usb.c ****   do
  42              		.loc 1 1393 3 is_stmt 1 view .LVU4
1394:../../Drivers/STM32H7xx_HAL_Driver/Src/stm32h7xx_ll_usb.c ****   {
1395:../../Drivers/STM32H7xx_HAL_Driver/Src/stm32h7xx_ll_usb.c ****     count++;
  43              		.loc 1 1395 5 view .LVU5
  44              		.loc 1 1395 10 is_stmt 0 view .LVU6
  45 0006 019B     		ldr	r3, [sp, #4]
  46 0008 0133     		adds	r3, r3, #1
  47 000a 0193     		str	r3, [sp, #4]
1396:../../Drivers/STM32H7xx_HAL_Driver/Src/stm32h7xx_ll_usb.c **** 
1397:../../Drivers/STM32H7xx_HAL_Driver/Src/stm32h7xx_ll_usb.c ****     if (count > 200000U)
  48              		.loc 1 1397 5 is_stmt 1 view .LVU7
  49              		.loc 1 1397 15 is_stmt 0 view .LVU8
  50 000c 019A     		ldr	r2, [sp, #4]
  51              		.loc 1 1397 8 view .LVU9
  52 000e 0F4B     		ldr	r3, .L8
  53 0010 9A42     		cmp	r2, r3
  54 0012 15D8     		bhi	.L5
1398:../../Drivers/STM32H7xx_HAL_Driver/Src/stm32h7xx_ll_usb.c ****     {
1399:../../Drivers/STM32H7xx_HAL_Driver/Src/stm32h7xx_ll_usb.c ****       return HAL_TIMEOUT;
1400:../../Drivers/STM32H7xx_HAL_Driver/Src/stm32h7xx_ll_usb.c ****     }
1401:../../Drivers/STM32H7xx_HAL_Driver/Src/stm32h7xx_ll_usb.c ****   } while ((USBx->GRSTCTL & USB_OTG_GRSTCTL_AHBIDL) == 0U);
  55              		.loc 1 1401 11 is_stmt 1 view .LVU10
  56              		.loc 1 1401 17 is_stmt 0 view .LVU11
  57 0014 0369     		ldr	r3, [r0, #16]
  58              		.loc 1 1401 3 view .LVU12
  59 0016 002B     		cmp	r3, #0
  60 0018 F5DA     		bge	.L3
1402:../../Drivers/STM32H7xx_HAL_Driver/Src/stm32h7xx_ll_usb.c **** 
1403:../../Drivers/STM32H7xx_HAL_Driver/Src/stm32h7xx_ll_usb.c ****   /* Core Soft Reset */
1404:../../Drivers/STM32H7xx_HAL_Driver/Src/stm32h7xx_ll_usb.c ****   count = 0U;
  61              		.loc 1 1404 3 is_stmt 1 view .LVU13
  62              		.loc 1 1404 9 is_stmt 0 view .LVU14
  63 001a 0023     		movs	r3, #0
  64 001c 0193     		str	r3, [sp, #4]
1405:../../Drivers/STM32H7xx_HAL_Driver/Src/stm32h7xx_ll_usb.c ****   USBx->GRSTCTL |= USB_OTG_GRSTCTL_CSRST;
  65              		.loc 1 1405 3 is_stmt 1 view .LVU15
  66              		.loc 1 1405 17 is_stmt 0 view .LVU16
  67 001e 0369     		ldr	r3, [r0, #16]
  68 0020 43F00103 		orr	r3, r3, #1
  69 0024 0361     		str	r3, [r0, #16]
  70              	.L4:
1406:../../Drivers/STM32H7xx_HAL_Driver/Src/stm32h7xx_ll_usb.c **** 
1407:../../Drivers/STM32H7xx_HAL_Driver/Src/stm32h7xx_ll_usb.c ****   do
  71              		.loc 1 1407 3 is_stmt 1 view .LVU17
1408:../../Drivers/STM32H7xx_HAL_Driver/Src/stm32h7xx_ll_usb.c ****   {
1409:../../Drivers/STM32H7xx_HAL_Driver/Src/stm32h7xx_ll_usb.c ****     count++;
  72              		.loc 1 1409 5 view .LVU18
  73              		.loc 1 1409 10 is_stmt 0 view .LVU19
  74 0026 019B     		ldr	r3, [sp, #4]
ARM GAS  C:\Users\gigig\AppData\Local\Temp\ccBJNrpK.s 			page 27


  75 0028 0133     		adds	r3, r3, #1
  76 002a 0193     		str	r3, [sp, #4]
1410:../../Drivers/STM32H7xx_HAL_Driver/Src/stm32h7xx_ll_usb.c **** 
1411:../../Drivers/STM32H7xx_HAL_Driver/Src/stm32h7xx_ll_usb.c ****     if (count > 200000U)
  77              		.loc 1 1411 5 is_stmt 1 view .LVU20
  78              		.loc 1 1411 15 is_stmt 0 view .LVU21
  79 002c 019A     		ldr	r2, [sp, #4]
  80              		.loc 1 1411 8 view .LVU22
  81 002e 074B     		ldr	r3, .L8
  82 0030 9A42     		cmp	r2, r3
  83 0032 08D8     		bhi	.L6
1412:../../Drivers/STM32H7xx_HAL_Driver/Src/stm32h7xx_ll_usb.c ****     {
1413:../../Drivers/STM32H7xx_HAL_Driver/Src/stm32h7xx_ll_usb.c ****       return HAL_TIMEOUT;
1414:../../Drivers/STM32H7xx_HAL_Driver/Src/stm32h7xx_ll_usb.c ****     }
1415:../../Drivers/STM32H7xx_HAL_Driver/Src/stm32h7xx_ll_usb.c ****   } while ((USBx->GRSTCTL & USB_OTG_GRSTCTL_CSRST) == USB_OTG_GRSTCTL_CSRST);
  84              		.loc 1 1415 11 is_stmt 1 view .LVU23
  85              		.loc 1 1415 17 is_stmt 0 view .LVU24
  86 0034 0369     		ldr	r3, [r0, #16]
  87              		.loc 1 1415 3 view .LVU25
  88 0036 13F0010F 		tst	r3, #1
  89 003a F4D1     		bne	.L4
1416:../../Drivers/STM32H7xx_HAL_Driver/Src/stm32h7xx_ll_usb.c **** 
1417:../../Drivers/STM32H7xx_HAL_Driver/Src/stm32h7xx_ll_usb.c ****   return HAL_OK;
  90              		.loc 1 1417 10 view .LVU26
  91 003c 0020     		movs	r0, #0
  92              	.LVL1:
  93              		.loc 1 1417 10 view .LVU27
  94 003e 00E0     		b	.L2
  95              	.LVL2:
  96              	.L5:
1399:../../Drivers/STM32H7xx_HAL_Driver/Src/stm32h7xx_ll_usb.c ****     }
  97              		.loc 1 1399 14 view .LVU28
  98 0040 0320     		movs	r0, #3
  99              	.LVL3:
 100              	.L2:
1418:../../Drivers/STM32H7xx_HAL_Driver/Src/stm32h7xx_ll_usb.c **** }
 101              		.loc 1 1418 1 view .LVU29
 102 0042 02B0     		add	sp, sp, #8
 103              	.LCFI1:
 104              		.cfi_remember_state
 105              		.cfi_def_cfa_offset 0
 106              		@ sp needed
 107 0044 7047     		bx	lr
 108              	.LVL4:
 109              	.L6:
 110              	.LCFI2:
 111              		.cfi_restore_state
1413:../../Drivers/STM32H7xx_HAL_Driver/Src/stm32h7xx_ll_usb.c ****     }
 112              		.loc 1 1413 14 view .LVU30
 113 0046 0320     		movs	r0, #3
 114              	.LVL5:
1413:../../Drivers/STM32H7xx_HAL_Driver/Src/stm32h7xx_ll_usb.c ****     }
 115              		.loc 1 1413 14 view .LVU31
 116 0048 FBE7     		b	.L2
 117              	.L9:
 118 004a 00BF     		.align	2
 119              	.L8:
ARM GAS  C:\Users\gigig\AppData\Local\Temp\ccBJNrpK.s 			page 28


 120 004c 400D0300 		.word	200000
 121              		.cfi_endproc
 122              	.LFE178:
 124              		.section	.text.USB_CoreInit,"ax",%progbits
 125              		.align	1
 126              		.global	USB_CoreInit
 127              		.syntax unified
 128              		.thumb
 129              		.thumb_func
 131              	USB_CoreInit:
 132              	.LVL6:
 133              	.LFB144:
  84:../../Drivers/STM32H7xx_HAL_Driver/Src/stm32h7xx_ll_usb.c ****   HAL_StatusTypeDef ret;
 134              		.loc 1 84 1 is_stmt 1 view -0
 135              		.cfi_startproc
 136              		@ args = 56, pretend = 16, frame = 0
 137              		@ frame_needed = 0, uses_anonymous_args = 0
  84:../../Drivers/STM32H7xx_HAL_Driver/Src/stm32h7xx_ll_usb.c ****   HAL_StatusTypeDef ret;
 138              		.loc 1 84 1 is_stmt 0 view .LVU33
 139 0000 84B0     		sub	sp, sp, #16
 140              	.LCFI3:
 141              		.cfi_def_cfa_offset 16
 142 0002 10B5     		push	{r4, lr}
 143              	.LCFI4:
 144              		.cfi_def_cfa_offset 24
 145              		.cfi_offset 4, -24
 146              		.cfi_offset 14, -20
 147 0004 0446     		mov	r4, r0
 148 0006 03A8     		add	r0, sp, #12
 149 0008 80E80E00 		stm	r0, {r1, r2, r3}
  85:../../Drivers/STM32H7xx_HAL_Driver/Src/stm32h7xx_ll_usb.c ****   if (cfg.phy_itface == USB_OTG_ULPI_PHY)
 150              		.loc 1 85 3 is_stmt 1 view .LVU34
  86:../../Drivers/STM32H7xx_HAL_Driver/Src/stm32h7xx_ll_usb.c ****   {
 151              		.loc 1 86 3 view .LVU35
  86:../../Drivers/STM32H7xx_HAL_Driver/Src/stm32h7xx_ll_usb.c ****   {
 152              		.loc 1 86 10 is_stmt 0 view .LVU36
 153 000c 089B     		ldr	r3, [sp, #32]
  86:../../Drivers/STM32H7xx_HAL_Driver/Src/stm32h7xx_ll_usb.c ****   {
 154              		.loc 1 86 6 view .LVU37
 155 000e 012B     		cmp	r3, #1
 156 0010 1DD1     		bne	.L11
  88:../../Drivers/STM32H7xx_HAL_Driver/Src/stm32h7xx_ll_usb.c **** 
 157              		.loc 1 88 5 is_stmt 1 view .LVU38
  88:../../Drivers/STM32H7xx_HAL_Driver/Src/stm32h7xx_ll_usb.c **** 
 158              		.loc 1 88 17 is_stmt 0 view .LVU39
 159 0012 A36B     		ldr	r3, [r4, #56]
 160 0014 23F48033 		bic	r3, r3, #65536
 161 0018 A363     		str	r3, [r4, #56]
  91:../../Drivers/STM32H7xx_HAL_Driver/Src/stm32h7xx_ll_usb.c **** 
 162              		.loc 1 91 5 is_stmt 1 view .LVU40
  91:../../Drivers/STM32H7xx_HAL_Driver/Src/stm32h7xx_ll_usb.c **** 
 163              		.loc 1 91 19 is_stmt 0 view .LVU41
 164 001a E268     		ldr	r2, [r4, #12]
 165 001c 1D4B     		ldr	r3, .L19
 166 001e 1340     		ands	r3, r3, r2
 167 0020 E360     		str	r3, [r4, #12]
  94:../../Drivers/STM32H7xx_HAL_Driver/Src/stm32h7xx_ll_usb.c ****     if (cfg.use_external_vbus == 1U)
ARM GAS  C:\Users\gigig\AppData\Local\Temp\ccBJNrpK.s 			page 29


 168              		.loc 1 94 5 is_stmt 1 view .LVU42
  94:../../Drivers/STM32H7xx_HAL_Driver/Src/stm32h7xx_ll_usb.c ****     if (cfg.use_external_vbus == 1U)
 169              		.loc 1 94 19 is_stmt 0 view .LVU43
 170 0022 E368     		ldr	r3, [r4, #12]
 171 0024 23F44013 		bic	r3, r3, #3145728
 172 0028 E360     		str	r3, [r4, #12]
  95:../../Drivers/STM32H7xx_HAL_Driver/Src/stm32h7xx_ll_usb.c ****     {
 173              		.loc 1 95 5 is_stmt 1 view .LVU44
  95:../../Drivers/STM32H7xx_HAL_Driver/Src/stm32h7xx_ll_usb.c ****     {
 174              		.loc 1 95 12 is_stmt 0 view .LVU45
 175 002a 0F9B     		ldr	r3, [sp, #60]
  95:../../Drivers/STM32H7xx_HAL_Driver/Src/stm32h7xx_ll_usb.c ****     {
 176              		.loc 1 95 8 view .LVU46
 177 002c 012B     		cmp	r3, #1
 178 002e 09D0     		beq	.L17
 179              	.L12:
 101:../../Drivers/STM32H7xx_HAL_Driver/Src/stm32h7xx_ll_usb.c ****   }
 180              		.loc 1 101 5 is_stmt 1 view .LVU47
 101:../../Drivers/STM32H7xx_HAL_Driver/Src/stm32h7xx_ll_usb.c ****   }
 181              		.loc 1 101 11 is_stmt 0 view .LVU48
 182 0030 2046     		mov	r0, r4
 183              	.LVL7:
 101:../../Drivers/STM32H7xx_HAL_Driver/Src/stm32h7xx_ll_usb.c ****   }
 184              		.loc 1 101 11 view .LVU49
 185 0032 FFF7FEFF 		bl	USB_CoreReset
 186              	.LVL8:
 187              	.L13:
 123:../../Drivers/STM32H7xx_HAL_Driver/Src/stm32h7xx_ll_usb.c ****   {
 188              		.loc 1 123 3 is_stmt 1 view .LVU50
 123:../../Drivers/STM32H7xx_HAL_Driver/Src/stm32h7xx_ll_usb.c ****   {
 189              		.loc 1 123 10 is_stmt 0 view .LVU51
 190 0036 059B     		ldr	r3, [sp, #20]
 123:../../Drivers/STM32H7xx_HAL_Driver/Src/stm32h7xx_ll_usb.c ****   {
 191              		.loc 1 123 6 view .LVU52
 192 0038 012B     		cmp	r3, #1
 193 003a 1BD0     		beq	.L18
 194              	.L15:
 133:../../Drivers/STM32H7xx_HAL_Driver/Src/stm32h7xx_ll_usb.c **** }
 195              		.loc 1 133 3 is_stmt 1 view .LVU53
 134:../../Drivers/STM32H7xx_HAL_Driver/Src/stm32h7xx_ll_usb.c **** 
 196              		.loc 1 134 1 is_stmt 0 view .LVU54
 197 003c BDE81040 		pop	{r4, lr}
 198              	.LCFI5:
 199              		.cfi_remember_state
 200              		.cfi_restore 14
 201              		.cfi_restore 4
 202              		.cfi_def_cfa_offset 16
 203              	.LVL9:
 134:../../Drivers/STM32H7xx_HAL_Driver/Src/stm32h7xx_ll_usb.c **** 
 204              		.loc 1 134 1 view .LVU55
 205 0040 04B0     		add	sp, sp, #16
 206              	.LCFI6:
 207              		.cfi_def_cfa_offset 0
 208 0042 7047     		bx	lr
 209              	.LVL10:
 210              	.L17:
 211              	.LCFI7:
ARM GAS  C:\Users\gigig\AppData\Local\Temp\ccBJNrpK.s 			page 30


 212              		.cfi_restore_state
  97:../../Drivers/STM32H7xx_HAL_Driver/Src/stm32h7xx_ll_usb.c ****     }
 213              		.loc 1 97 7 is_stmt 1 view .LVU56
  97:../../Drivers/STM32H7xx_HAL_Driver/Src/stm32h7xx_ll_usb.c ****     }
 214              		.loc 1 97 21 is_stmt 0 view .LVU57
 215 0044 E368     		ldr	r3, [r4, #12]
 216 0046 43F48013 		orr	r3, r3, #1048576
 217 004a E360     		str	r3, [r4, #12]
 218 004c F0E7     		b	.L12
 219              	.L11:
 106:../../Drivers/STM32H7xx_HAL_Driver/Src/stm32h7xx_ll_usb.c **** 
 220              		.loc 1 106 5 is_stmt 1 view .LVU58
 106:../../Drivers/STM32H7xx_HAL_Driver/Src/stm32h7xx_ll_usb.c **** 
 221              		.loc 1 106 19 is_stmt 0 view .LVU59
 222 004e E368     		ldr	r3, [r4, #12]
 223 0050 43F04003 		orr	r3, r3, #64
 224 0054 E360     		str	r3, [r4, #12]
 109:../../Drivers/STM32H7xx_HAL_Driver/Src/stm32h7xx_ll_usb.c **** 
 225              		.loc 1 109 5 is_stmt 1 view .LVU60
 109:../../Drivers/STM32H7xx_HAL_Driver/Src/stm32h7xx_ll_usb.c **** 
 226              		.loc 1 109 11 is_stmt 0 view .LVU61
 227 0056 2046     		mov	r0, r4
 228              	.LVL11:
 109:../../Drivers/STM32H7xx_HAL_Driver/Src/stm32h7xx_ll_usb.c **** 
 229              		.loc 1 109 11 view .LVU62
 230 0058 FFF7FEFF 		bl	USB_CoreReset
 231              	.LVL12:
 111:../../Drivers/STM32H7xx_HAL_Driver/Src/stm32h7xx_ll_usb.c ****     {
 232              		.loc 1 111 5 is_stmt 1 view .LVU63
 111:../../Drivers/STM32H7xx_HAL_Driver/Src/stm32h7xx_ll_usb.c ****     {
 233              		.loc 1 111 12 is_stmt 0 view .LVU64
 234 005c 0C9B     		ldr	r3, [sp, #48]
 111:../../Drivers/STM32H7xx_HAL_Driver/Src/stm32h7xx_ll_usb.c ****     {
 235              		.loc 1 111 8 view .LVU65
 236 005e 23B9     		cbnz	r3, .L14
 114:../../Drivers/STM32H7xx_HAL_Driver/Src/stm32h7xx_ll_usb.c ****     }
 237              		.loc 1 114 7 is_stmt 1 view .LVU66
 114:../../Drivers/STM32H7xx_HAL_Driver/Src/stm32h7xx_ll_usb.c ****     }
 238              		.loc 1 114 19 is_stmt 0 view .LVU67
 239 0060 A36B     		ldr	r3, [r4, #56]
 240 0062 43F48033 		orr	r3, r3, #65536
 241 0066 A363     		str	r3, [r4, #56]
 242 0068 E5E7     		b	.L13
 243              	.L14:
 119:../../Drivers/STM32H7xx_HAL_Driver/Src/stm32h7xx_ll_usb.c ****     }
 244              		.loc 1 119 7 is_stmt 1 view .LVU68
 119:../../Drivers/STM32H7xx_HAL_Driver/Src/stm32h7xx_ll_usb.c ****     }
 245              		.loc 1 119 19 is_stmt 0 view .LVU69
 246 006a A36B     		ldr	r3, [r4, #56]
 247 006c 23F48033 		bic	r3, r3, #65536
 248 0070 A363     		str	r3, [r4, #56]
 249 0072 E0E7     		b	.L13
 250              	.L18:
 126:../../Drivers/STM32H7xx_HAL_Driver/Src/stm32h7xx_ll_usb.c ****     USBx->GDFIFOCFG |= 0x3EEU << 16;
 251              		.loc 1 126 5 is_stmt 1 view .LVU70
 126:../../Drivers/STM32H7xx_HAL_Driver/Src/stm32h7xx_ll_usb.c ****     USBx->GDFIFOCFG |= 0x3EEU << 16;
 252              		.loc 1 126 21 is_stmt 0 view .LVU71
ARM GAS  C:\Users\gigig\AppData\Local\Temp\ccBJNrpK.s 			page 31


 253 0074 E36D     		ldr	r3, [r4, #92]
 254 0076 9BB2     		uxth	r3, r3
 255 0078 E365     		str	r3, [r4, #92]
 127:../../Drivers/STM32H7xx_HAL_Driver/Src/stm32h7xx_ll_usb.c **** 
 256              		.loc 1 127 5 is_stmt 1 view .LVU72
 127:../../Drivers/STM32H7xx_HAL_Driver/Src/stm32h7xx_ll_usb.c **** 
 257              		.loc 1 127 21 is_stmt 0 view .LVU73
 258 007a E26D     		ldr	r2, [r4, #92]
 259 007c 064B     		ldr	r3, .L19+4
 260 007e 1343     		orrs	r3, r3, r2
 261 0080 E365     		str	r3, [r4, #92]
 129:../../Drivers/STM32H7xx_HAL_Driver/Src/stm32h7xx_ll_usb.c ****     USBx->GAHBCFG |= USB_OTG_GAHBCFG_DMAEN;
 262              		.loc 1 129 5 is_stmt 1 view .LVU74
 129:../../Drivers/STM32H7xx_HAL_Driver/Src/stm32h7xx_ll_usb.c ****     USBx->GAHBCFG |= USB_OTG_GAHBCFG_DMAEN;
 263              		.loc 1 129 19 is_stmt 0 view .LVU75
 264 0082 A368     		ldr	r3, [r4, #8]
 265 0084 43F00603 		orr	r3, r3, #6
 266 0088 A360     		str	r3, [r4, #8]
 130:../../Drivers/STM32H7xx_HAL_Driver/Src/stm32h7xx_ll_usb.c ****   }
 267              		.loc 1 130 5 is_stmt 1 view .LVU76
 130:../../Drivers/STM32H7xx_HAL_Driver/Src/stm32h7xx_ll_usb.c ****   }
 268              		.loc 1 130 19 is_stmt 0 view .LVU77
 269 008a A368     		ldr	r3, [r4, #8]
 270 008c 43F02003 		orr	r3, r3, #32
 271 0090 A360     		str	r3, [r4, #8]
 272 0092 D3E7     		b	.L15
 273              	.L20:
 274              		.align	2
 275              	.L19:
 276 0094 BFFFBDFF 		.word	-4325441
 277 0098 0000EE03 		.word	65929216
 278              		.cfi_endproc
 279              	.LFE144:
 281              		.section	.text.USB_SetTurnaroundTime,"ax",%progbits
 282              		.align	1
 283              		.global	USB_SetTurnaroundTime
 284              		.syntax unified
 285              		.thumb
 286              		.thumb_func
 288              	USB_SetTurnaroundTime:
 289              	.LVL13:
 290              	.LFB145:
 145:../../Drivers/STM32H7xx_HAL_Driver/Src/stm32h7xx_ll_usb.c ****   uint32_t UsbTrd;
 291              		.loc 1 145 1 is_stmt 1 view -0
 292              		.cfi_startproc
 293              		@ args = 0, pretend = 0, frame = 0
 294              		@ frame_needed = 0, uses_anonymous_args = 0
 295              		@ link register save eliminated.
 146:../../Drivers/STM32H7xx_HAL_Driver/Src/stm32h7xx_ll_usb.c **** 
 296              		.loc 1 146 3 view .LVU79
 152:../../Drivers/STM32H7xx_HAL_Driver/Src/stm32h7xx_ll_usb.c ****   {
 297              		.loc 1 152 3 view .LVU80
 152:../../Drivers/STM32H7xx_HAL_Driver/Src/stm32h7xx_ll_usb.c ****   {
 298              		.loc 1 152 6 is_stmt 0 view .LVU81
 299 0000 022A     		cmp	r2, #2
 300 0002 0AD0     		beq	.L33
 207:../../Drivers/STM32H7xx_HAL_Driver/Src/stm32h7xx_ll_usb.c ****   }
ARM GAS  C:\Users\gigig\AppData\Local\Temp\ccBJNrpK.s 			page 32


 301              		.loc 1 207 12 view .LVU82
 302 0004 0921     		movs	r1, #9
 303              	.LVL14:
 304              	.L22:
 214:../../Drivers/STM32H7xx_HAL_Driver/Src/stm32h7xx_ll_usb.c ****   USBx->GUSBCFG |= (uint32_t)((UsbTrd << 10) & USB_OTG_GUSBCFG_TRDT);
 305              		.loc 1 214 3 is_stmt 1 view .LVU83
 214:../../Drivers/STM32H7xx_HAL_Driver/Src/stm32h7xx_ll_usb.c ****   USBx->GUSBCFG |= (uint32_t)((UsbTrd << 10) & USB_OTG_GUSBCFG_TRDT);
 306              		.loc 1 214 17 is_stmt 0 view .LVU84
 307 0006 C268     		ldr	r2, [r0, #12]
 308 0008 22F47052 		bic	r2, r2, #15360
 309 000c C260     		str	r2, [r0, #12]
 215:../../Drivers/STM32H7xx_HAL_Driver/Src/stm32h7xx_ll_usb.c **** 
 310              		.loc 1 215 3 is_stmt 1 view .LVU85
 215:../../Drivers/STM32H7xx_HAL_Driver/Src/stm32h7xx_ll_usb.c **** 
 311              		.loc 1 215 17 is_stmt 0 view .LVU86
 312 000e C368     		ldr	r3, [r0, #12]
 313 0010 43EA8123 		orr	r3, r3, r1, lsl #10
 314 0014 C360     		str	r3, [r0, #12]
 217:../../Drivers/STM32H7xx_HAL_Driver/Src/stm32h7xx_ll_usb.c **** }
 315              		.loc 1 217 3 is_stmt 1 view .LVU87
 218:../../Drivers/STM32H7xx_HAL_Driver/Src/stm32h7xx_ll_usb.c **** 
 316              		.loc 1 218 1 is_stmt 0 view .LVU88
 317 0016 0020     		movs	r0, #0
 318              	.LVL15:
 218:../../Drivers/STM32H7xx_HAL_Driver/Src/stm32h7xx_ll_usb.c **** 
 319              		.loc 1 218 1 view .LVU89
 320 0018 7047     		bx	lr
 321              	.LVL16:
 322              	.L33:
 154:../../Drivers/STM32H7xx_HAL_Driver/Src/stm32h7xx_ll_usb.c ****     {
 323              		.loc 1 154 5 is_stmt 1 view .LVU90
 154:../../Drivers/STM32H7xx_HAL_Driver/Src/stm32h7xx_ll_usb.c ****     {
 324              		.loc 1 154 29 is_stmt 0 view .LVU91
 325 001a 204B     		ldr	r3, .L34
 326 001c 0B44     		add	r3, r3, r1
 154:../../Drivers/STM32H7xx_HAL_Driver/Src/stm32h7xx_ll_usb.c ****     {
 327              		.loc 1 154 8 view .LVU92
 328 001e 204A     		ldr	r2, .L34+4
 329              	.LVL17:
 154:../../Drivers/STM32H7xx_HAL_Driver/Src/stm32h7xx_ll_usb.c ****     {
 330              		.loc 1 154 8 view .LVU93
 331 0020 9342     		cmp	r3, r2
 332 0022 29D9     		bls	.L24
 159:../../Drivers/STM32H7xx_HAL_Driver/Src/stm32h7xx_ll_usb.c ****     {
 333              		.loc 1 159 10 is_stmt 1 view .LVU94
 159:../../Drivers/STM32H7xx_HAL_Driver/Src/stm32h7xx_ll_usb.c ****     {
 334              		.loc 1 159 34 is_stmt 0 view .LVU95
 335 0024 1F4B     		ldr	r3, .L34+8
 336 0026 0B44     		add	r3, r3, r1
 159:../../Drivers/STM32H7xx_HAL_Driver/Src/stm32h7xx_ll_usb.c ****     {
 337              		.loc 1 159 13 view .LVU96
 338 0028 1F4A     		ldr	r2, .L34+12
 339 002a 9342     		cmp	r3, r2
 340 002c 26D9     		bls	.L25
 164:../../Drivers/STM32H7xx_HAL_Driver/Src/stm32h7xx_ll_usb.c ****     {
 341              		.loc 1 164 10 is_stmt 1 view .LVU97
 164:../../Drivers/STM32H7xx_HAL_Driver/Src/stm32h7xx_ll_usb.c ****     {
ARM GAS  C:\Users\gigig\AppData\Local\Temp\ccBJNrpK.s 			page 33


 342              		.loc 1 164 34 is_stmt 0 view .LVU98
 343 002e 1F4B     		ldr	r3, .L34+16
 344 0030 0B44     		add	r3, r3, r1
 164:../../Drivers/STM32H7xx_HAL_Driver/Src/stm32h7xx_ll_usb.c ****     {
 345              		.loc 1 164 13 view .LVU99
 346 0032 1F4A     		ldr	r2, .L34+20
 347 0034 9342     		cmp	r3, r2
 348 0036 23D9     		bls	.L26
 169:../../Drivers/STM32H7xx_HAL_Driver/Src/stm32h7xx_ll_usb.c ****     {
 349              		.loc 1 169 10 is_stmt 1 view .LVU100
 169:../../Drivers/STM32H7xx_HAL_Driver/Src/stm32h7xx_ll_usb.c ****     {
 350              		.loc 1 169 34 is_stmt 0 view .LVU101
 351 0038 1E4B     		ldr	r3, .L34+24
 352 003a 0B44     		add	r3, r3, r1
 169:../../Drivers/STM32H7xx_HAL_Driver/Src/stm32h7xx_ll_usb.c ****     {
 353              		.loc 1 169 13 view .LVU102
 354 003c 1E4A     		ldr	r2, .L34+28
 355 003e 9342     		cmp	r3, r2
 356 0040 20D3     		bcc	.L27
 174:../../Drivers/STM32H7xx_HAL_Driver/Src/stm32h7xx_ll_usb.c ****     {
 357              		.loc 1 174 10 is_stmt 1 view .LVU103
 174:../../Drivers/STM32H7xx_HAL_Driver/Src/stm32h7xx_ll_usb.c ****     {
 358              		.loc 1 174 34 is_stmt 0 view .LVU104
 359 0042 1E4B     		ldr	r3, .L34+32
 360 0044 0B44     		add	r3, r3, r1
 174:../../Drivers/STM32H7xx_HAL_Driver/Src/stm32h7xx_ll_usb.c ****     {
 361              		.loc 1 174 13 view .LVU105
 362 0046 1E4A     		ldr	r2, .L34+36
 363 0048 9342     		cmp	r3, r2
 364 004a 1DD9     		bls	.L28
 179:../../Drivers/STM32H7xx_HAL_Driver/Src/stm32h7xx_ll_usb.c ****     {
 365              		.loc 1 179 10 is_stmt 1 view .LVU106
 179:../../Drivers/STM32H7xx_HAL_Driver/Src/stm32h7xx_ll_usb.c ****     {
 366              		.loc 1 179 34 is_stmt 0 view .LVU107
 367 004c 1D4B     		ldr	r3, .L34+40
 368 004e 0B44     		add	r3, r3, r1
 179:../../Drivers/STM32H7xx_HAL_Driver/Src/stm32h7xx_ll_usb.c ****     {
 369              		.loc 1 179 13 view .LVU108
 370 0050 1D4A     		ldr	r2, .L34+44
 371 0052 9342     		cmp	r3, r2
 372 0054 1AD3     		bcc	.L29
 184:../../Drivers/STM32H7xx_HAL_Driver/Src/stm32h7xx_ll_usb.c ****     {
 373              		.loc 1 184 10 is_stmt 1 view .LVU109
 184:../../Drivers/STM32H7xx_HAL_Driver/Src/stm32h7xx_ll_usb.c ****     {
 374              		.loc 1 184 34 is_stmt 0 view .LVU110
 375 0056 1D4B     		ldr	r3, .L34+48
 376 0058 0B44     		add	r3, r3, r1
 184:../../Drivers/STM32H7xx_HAL_Driver/Src/stm32h7xx_ll_usb.c ****     {
 377              		.loc 1 184 13 view .LVU111
 378 005a 1D4A     		ldr	r2, .L34+52
 379 005c 9342     		cmp	r3, r2
 380 005e 17D3     		bcc	.L30
 189:../../Drivers/STM32H7xx_HAL_Driver/Src/stm32h7xx_ll_usb.c ****     {
 381              		.loc 1 189 10 is_stmt 1 view .LVU112
 189:../../Drivers/STM32H7xx_HAL_Driver/Src/stm32h7xx_ll_usb.c ****     {
 382              		.loc 1 189 34 is_stmt 0 view .LVU113
 383 0060 1C4B     		ldr	r3, .L34+56
ARM GAS  C:\Users\gigig\AppData\Local\Temp\ccBJNrpK.s 			page 34


 384 0062 0B44     		add	r3, r3, r1
 189:../../Drivers/STM32H7xx_HAL_Driver/Src/stm32h7xx_ll_usb.c ****     {
 385              		.loc 1 189 13 view .LVU114
 386 0064 1C4A     		ldr	r2, .L34+60
 387 0066 9342     		cmp	r3, r2
 388 0068 14D3     		bcc	.L31
 194:../../Drivers/STM32H7xx_HAL_Driver/Src/stm32h7xx_ll_usb.c ****     {
 389              		.loc 1 194 10 is_stmt 1 view .LVU115
 194:../../Drivers/STM32H7xx_HAL_Driver/Src/stm32h7xx_ll_usb.c ****     {
 390              		.loc 1 194 34 is_stmt 0 view .LVU116
 391 006a 1C4B     		ldr	r3, .L34+64
 392 006c 0B44     		add	r3, r3, r1
 194:../../Drivers/STM32H7xx_HAL_Driver/Src/stm32h7xx_ll_usb.c ****     {
 393              		.loc 1 194 13 view .LVU117
 394 006e 1C4A     		ldr	r2, .L34+68
 395 0070 9342     		cmp	r3, r2
 396 0072 11D2     		bcs	.L32
 197:../../Drivers/STM32H7xx_HAL_Driver/Src/stm32h7xx_ll_usb.c ****     }
 397              		.loc 1 197 14 view .LVU118
 398 0074 0721     		movs	r1, #7
 399              	.LVL18:
 197:../../Drivers/STM32H7xx_HAL_Driver/Src/stm32h7xx_ll_usb.c ****     }
 400              		.loc 1 197 14 view .LVU119
 401 0076 C6E7     		b	.L22
 402              	.LVL19:
 403              	.L24:
 157:../../Drivers/STM32H7xx_HAL_Driver/Src/stm32h7xx_ll_usb.c ****     }
 404              		.loc 1 157 14 view .LVU120
 405 0078 0F21     		movs	r1, #15
 406              	.LVL20:
 157:../../Drivers/STM32H7xx_HAL_Driver/Src/stm32h7xx_ll_usb.c ****     }
 407              		.loc 1 157 14 view .LVU121
 408 007a C4E7     		b	.L22
 409              	.LVL21:
 410              	.L25:
 162:../../Drivers/STM32H7xx_HAL_Driver/Src/stm32h7xx_ll_usb.c ****     }
 411              		.loc 1 162 14 view .LVU122
 412 007c 0E21     		movs	r1, #14
 413              	.LVL22:
 162:../../Drivers/STM32H7xx_HAL_Driver/Src/stm32h7xx_ll_usb.c ****     }
 414              		.loc 1 162 14 view .LVU123
 415 007e C2E7     		b	.L22
 416              	.LVL23:
 417              	.L26:
 167:../../Drivers/STM32H7xx_HAL_Driver/Src/stm32h7xx_ll_usb.c ****     }
 418              		.loc 1 167 14 view .LVU124
 419 0080 0D21     		movs	r1, #13
 420              	.LVL24:
 167:../../Drivers/STM32H7xx_HAL_Driver/Src/stm32h7xx_ll_usb.c ****     }
 421              		.loc 1 167 14 view .LVU125
 422 0082 C0E7     		b	.L22
 423              	.LVL25:
 424              	.L27:
 172:../../Drivers/STM32H7xx_HAL_Driver/Src/stm32h7xx_ll_usb.c ****     }
 425              		.loc 1 172 14 view .LVU126
 426 0084 0C21     		movs	r1, #12
 427              	.LVL26:
ARM GAS  C:\Users\gigig\AppData\Local\Temp\ccBJNrpK.s 			page 35


 172:../../Drivers/STM32H7xx_HAL_Driver/Src/stm32h7xx_ll_usb.c ****     }
 428              		.loc 1 172 14 view .LVU127
 429 0086 BEE7     		b	.L22
 430              	.LVL27:
 431              	.L28:
 177:../../Drivers/STM32H7xx_HAL_Driver/Src/stm32h7xx_ll_usb.c ****     }
 432              		.loc 1 177 14 view .LVU128
 433 0088 0B21     		movs	r1, #11
 434              	.LVL28:
 177:../../Drivers/STM32H7xx_HAL_Driver/Src/stm32h7xx_ll_usb.c ****     }
 435              		.loc 1 177 14 view .LVU129
 436 008a BCE7     		b	.L22
 437              	.LVL29:
 438              	.L29:
 182:../../Drivers/STM32H7xx_HAL_Driver/Src/stm32h7xx_ll_usb.c ****     }
 439              		.loc 1 182 14 view .LVU130
 440 008c 0A21     		movs	r1, #10
 441              	.LVL30:
 182:../../Drivers/STM32H7xx_HAL_Driver/Src/stm32h7xx_ll_usb.c ****     }
 442              		.loc 1 182 14 view .LVU131
 443 008e BAE7     		b	.L22
 444              	.LVL31:
 445              	.L30:
 187:../../Drivers/STM32H7xx_HAL_Driver/Src/stm32h7xx_ll_usb.c ****     }
 446              		.loc 1 187 14 view .LVU132
 447 0090 0921     		movs	r1, #9
 448              	.LVL32:
 187:../../Drivers/STM32H7xx_HAL_Driver/Src/stm32h7xx_ll_usb.c ****     }
 449              		.loc 1 187 14 view .LVU133
 450 0092 B8E7     		b	.L22
 451              	.LVL33:
 452              	.L31:
 192:../../Drivers/STM32H7xx_HAL_Driver/Src/stm32h7xx_ll_usb.c ****     }
 453              		.loc 1 192 14 view .LVU134
 454 0094 0821     		movs	r1, #8
 455              	.LVL34:
 192:../../Drivers/STM32H7xx_HAL_Driver/Src/stm32h7xx_ll_usb.c ****     }
 456              		.loc 1 192 14 view .LVU135
 457 0096 B6E7     		b	.L22
 458              	.LVL35:
 459              	.L32:
 202:../../Drivers/STM32H7xx_HAL_Driver/Src/stm32h7xx_ll_usb.c ****     }
 460              		.loc 1 202 14 view .LVU136
 461 0098 0621     		movs	r1, #6
 462              	.LVL36:
 202:../../Drivers/STM32H7xx_HAL_Driver/Src/stm32h7xx_ll_usb.c ****     }
 463              		.loc 1 202 14 view .LVU137
 464 009a B4E7     		b	.L22
 465              	.L35:
 466              		.align	2
 467              	.L34:
 468 009c 405327FF 		.word	-14200000
 469 00a0 FF340C00 		.word	799999
 470 00a4 401E1BFF 		.word	-15000000
 471 00a8 3F420F00 		.word	999999
 472 00ac 00DC0BFF 		.word	-16000000
 473 00b0 7F4F1200 		.word	1199999
ARM GAS  C:\Users\gigig\AppData\Local\Temp\ccBJNrpK.s 			page 36


 474 00b4 808CF9FE 		.word	-17200000
 475 00b8 20D61300 		.word	1300000
 476 00bc 60B6E5FE 		.word	-18500000
 477 00c0 5FE31600 		.word	1499999
 478 00c4 00D3CEFE 		.word	-20000000
 479 00c8 40771B00 		.word	1800000
 480 00cc C05BB3FE 		.word	-21800000
 481 00d0 C0912100 		.word	2200000
 482 00d4 00CA91FE 		.word	-24000000
 483 00d8 20753800 		.word	3700000
 484 00dc E05459FE 		.word	-27700000
 485 00e0 E09C4100 		.word	4300000
 486              		.cfi_endproc
 487              	.LFE145:
 489              		.section	.text.USB_EnableGlobalInt,"ax",%progbits
 490              		.align	1
 491              		.global	USB_EnableGlobalInt
 492              		.syntax unified
 493              		.thumb
 494              		.thumb_func
 496              	USB_EnableGlobalInt:
 497              	.LVL37:
 498              	.LFB146:
 227:../../Drivers/STM32H7xx_HAL_Driver/Src/stm32h7xx_ll_usb.c ****   USBx->GAHBCFG |= USB_OTG_GAHBCFG_GINT;
 499              		.loc 1 227 1 is_stmt 1 view -0
 500              		.cfi_startproc
 501              		@ args = 0, pretend = 0, frame = 0
 502              		@ frame_needed = 0, uses_anonymous_args = 0
 503              		@ link register save eliminated.
 228:../../Drivers/STM32H7xx_HAL_Driver/Src/stm32h7xx_ll_usb.c ****   return HAL_OK;
 504              		.loc 1 228 3 view .LVU139
 228:../../Drivers/STM32H7xx_HAL_Driver/Src/stm32h7xx_ll_usb.c ****   return HAL_OK;
 505              		.loc 1 228 17 is_stmt 0 view .LVU140
 506 0000 8368     		ldr	r3, [r0, #8]
 507 0002 43F00103 		orr	r3, r3, #1
 508 0006 8360     		str	r3, [r0, #8]
 229:../../Drivers/STM32H7xx_HAL_Driver/Src/stm32h7xx_ll_usb.c **** }
 509              		.loc 1 229 3 is_stmt 1 view .LVU141
 230:../../Drivers/STM32H7xx_HAL_Driver/Src/stm32h7xx_ll_usb.c **** 
 510              		.loc 1 230 1 is_stmt 0 view .LVU142
 511 0008 0020     		movs	r0, #0
 512              	.LVL38:
 230:../../Drivers/STM32H7xx_HAL_Driver/Src/stm32h7xx_ll_usb.c **** 
 513              		.loc 1 230 1 view .LVU143
 514 000a 7047     		bx	lr
 515              		.cfi_endproc
 516              	.LFE146:
 518              		.section	.text.USB_DisableGlobalInt,"ax",%progbits
 519              		.align	1
 520              		.global	USB_DisableGlobalInt
 521              		.syntax unified
 522              		.thumb
 523              		.thumb_func
 525              	USB_DisableGlobalInt:
 526              	.LVL39:
 527              	.LFB147:
 239:../../Drivers/STM32H7xx_HAL_Driver/Src/stm32h7xx_ll_usb.c ****   USBx->GAHBCFG &= ~USB_OTG_GAHBCFG_GINT;
ARM GAS  C:\Users\gigig\AppData\Local\Temp\ccBJNrpK.s 			page 37


 528              		.loc 1 239 1 is_stmt 1 view -0
 529              		.cfi_startproc
 530              		@ args = 0, pretend = 0, frame = 0
 531              		@ frame_needed = 0, uses_anonymous_args = 0
 532              		@ link register save eliminated.
 240:../../Drivers/STM32H7xx_HAL_Driver/Src/stm32h7xx_ll_usb.c ****   return HAL_OK;
 533              		.loc 1 240 3 view .LVU145
 240:../../Drivers/STM32H7xx_HAL_Driver/Src/stm32h7xx_ll_usb.c ****   return HAL_OK;
 534              		.loc 1 240 17 is_stmt 0 view .LVU146
 535 0000 8368     		ldr	r3, [r0, #8]
 536 0002 23F00103 		bic	r3, r3, #1
 537 0006 8360     		str	r3, [r0, #8]
 241:../../Drivers/STM32H7xx_HAL_Driver/Src/stm32h7xx_ll_usb.c **** }
 538              		.loc 1 241 3 is_stmt 1 view .LVU147
 242:../../Drivers/STM32H7xx_HAL_Driver/Src/stm32h7xx_ll_usb.c **** 
 539              		.loc 1 242 1 is_stmt 0 view .LVU148
 540 0008 0020     		movs	r0, #0
 541              	.LVL40:
 242:../../Drivers/STM32H7xx_HAL_Driver/Src/stm32h7xx_ll_usb.c **** 
 542              		.loc 1 242 1 view .LVU149
 543 000a 7047     		bx	lr
 544              		.cfi_endproc
 545              	.LFE147:
 547              		.section	.text.USB_FlushTxFifo,"ax",%progbits
 548              		.align	1
 549              		.global	USB_FlushTxFifo
 550              		.syntax unified
 551              		.thumb
 552              		.thumb_func
 554              	USB_FlushTxFifo:
 555              	.LVL41:
 556              	.LFB150:
 456:../../Drivers/STM32H7xx_HAL_Driver/Src/stm32h7xx_ll_usb.c ****   __IO uint32_t count = 0U;
 557              		.loc 1 456 1 is_stmt 1 view -0
 558              		.cfi_startproc
 559              		@ args = 0, pretend = 0, frame = 8
 560              		@ frame_needed = 0, uses_anonymous_args = 0
 561              		@ link register save eliminated.
 456:../../Drivers/STM32H7xx_HAL_Driver/Src/stm32h7xx_ll_usb.c ****   __IO uint32_t count = 0U;
 562              		.loc 1 456 1 is_stmt 0 view .LVU151
 563 0000 82B0     		sub	sp, sp, #8
 564              	.LCFI8:
 565              		.cfi_def_cfa_offset 8
 457:../../Drivers/STM32H7xx_HAL_Driver/Src/stm32h7xx_ll_usb.c **** 
 566              		.loc 1 457 3 is_stmt 1 view .LVU152
 457:../../Drivers/STM32H7xx_HAL_Driver/Src/stm32h7xx_ll_usb.c **** 
 567              		.loc 1 457 17 is_stmt 0 view .LVU153
 568 0002 0023     		movs	r3, #0
 569 0004 0193     		str	r3, [sp, #4]
 570              	.L40:
 460:../../Drivers/STM32H7xx_HAL_Driver/Src/stm32h7xx_ll_usb.c ****   {
 571              		.loc 1 460 3 is_stmt 1 view .LVU154
 462:../../Drivers/STM32H7xx_HAL_Driver/Src/stm32h7xx_ll_usb.c **** 
 572              		.loc 1 462 5 view .LVU155
 462:../../Drivers/STM32H7xx_HAL_Driver/Src/stm32h7xx_ll_usb.c **** 
 573              		.loc 1 462 10 is_stmt 0 view .LVU156
 574 0006 019B     		ldr	r3, [sp, #4]
ARM GAS  C:\Users\gigig\AppData\Local\Temp\ccBJNrpK.s 			page 38


 575 0008 0133     		adds	r3, r3, #1
 576 000a 0193     		str	r3, [sp, #4]
 464:../../Drivers/STM32H7xx_HAL_Driver/Src/stm32h7xx_ll_usb.c ****     {
 577              		.loc 1 464 5 is_stmt 1 view .LVU157
 464:../../Drivers/STM32H7xx_HAL_Driver/Src/stm32h7xx_ll_usb.c ****     {
 578              		.loc 1 464 15 is_stmt 0 view .LVU158
 579 000c 019A     		ldr	r2, [sp, #4]
 464:../../Drivers/STM32H7xx_HAL_Driver/Src/stm32h7xx_ll_usb.c ****     {
 580              		.loc 1 464 8 view .LVU159
 581 000e 0F4B     		ldr	r3, .L45
 582 0010 9A42     		cmp	r2, r3
 583 0012 15D8     		bhi	.L42
 468:../../Drivers/STM32H7xx_HAL_Driver/Src/stm32h7xx_ll_usb.c **** 
 584              		.loc 1 468 11 is_stmt 1 view .LVU160
 468:../../Drivers/STM32H7xx_HAL_Driver/Src/stm32h7xx_ll_usb.c **** 
 585              		.loc 1 468 17 is_stmt 0 view .LVU161
 586 0014 0369     		ldr	r3, [r0, #16]
 468:../../Drivers/STM32H7xx_HAL_Driver/Src/stm32h7xx_ll_usb.c **** 
 587              		.loc 1 468 3 view .LVU162
 588 0016 002B     		cmp	r3, #0
 589 0018 F5DA     		bge	.L40
 471:../../Drivers/STM32H7xx_HAL_Driver/Src/stm32h7xx_ll_usb.c ****   USBx->GRSTCTL = (USB_OTG_GRSTCTL_TXFFLSH | (num << 6));
 590              		.loc 1 471 3 is_stmt 1 view .LVU163
 471:../../Drivers/STM32H7xx_HAL_Driver/Src/stm32h7xx_ll_usb.c ****   USBx->GRSTCTL = (USB_OTG_GRSTCTL_TXFFLSH | (num << 6));
 591              		.loc 1 471 9 is_stmt 0 view .LVU164
 592 001a 0023     		movs	r3, #0
 593 001c 0193     		str	r3, [sp, #4]
 472:../../Drivers/STM32H7xx_HAL_Driver/Src/stm32h7xx_ll_usb.c **** 
 594              		.loc 1 472 3 is_stmt 1 view .LVU165
 472:../../Drivers/STM32H7xx_HAL_Driver/Src/stm32h7xx_ll_usb.c **** 
 595              		.loc 1 472 51 is_stmt 0 view .LVU166
 596 001e 8901     		lsls	r1, r1, #6
 597              	.LVL42:
 472:../../Drivers/STM32H7xx_HAL_Driver/Src/stm32h7xx_ll_usb.c **** 
 598              		.loc 1 472 44 view .LVU167
 599 0020 41F02001 		orr	r1, r1, #32
 472:../../Drivers/STM32H7xx_HAL_Driver/Src/stm32h7xx_ll_usb.c **** 
 600              		.loc 1 472 17 view .LVU168
 601 0024 0161     		str	r1, [r0, #16]
 602              	.L41:
 474:../../Drivers/STM32H7xx_HAL_Driver/Src/stm32h7xx_ll_usb.c ****   {
 603              		.loc 1 474 3 is_stmt 1 view .LVU169
 476:../../Drivers/STM32H7xx_HAL_Driver/Src/stm32h7xx_ll_usb.c **** 
 604              		.loc 1 476 5 view .LVU170
 476:../../Drivers/STM32H7xx_HAL_Driver/Src/stm32h7xx_ll_usb.c **** 
 605              		.loc 1 476 10 is_stmt 0 view .LVU171
 606 0026 019B     		ldr	r3, [sp, #4]
 607 0028 0133     		adds	r3, r3, #1
 608 002a 0193     		str	r3, [sp, #4]
 478:../../Drivers/STM32H7xx_HAL_Driver/Src/stm32h7xx_ll_usb.c ****     {
 609              		.loc 1 478 5 is_stmt 1 view .LVU172
 478:../../Drivers/STM32H7xx_HAL_Driver/Src/stm32h7xx_ll_usb.c ****     {
 610              		.loc 1 478 15 is_stmt 0 view .LVU173
 611 002c 019A     		ldr	r2, [sp, #4]
 478:../../Drivers/STM32H7xx_HAL_Driver/Src/stm32h7xx_ll_usb.c ****     {
 612              		.loc 1 478 8 view .LVU174
 613 002e 074B     		ldr	r3, .L45
ARM GAS  C:\Users\gigig\AppData\Local\Temp\ccBJNrpK.s 			page 39


 614 0030 9A42     		cmp	r2, r3
 615 0032 08D8     		bhi	.L43
 482:../../Drivers/STM32H7xx_HAL_Driver/Src/stm32h7xx_ll_usb.c **** 
 616              		.loc 1 482 11 is_stmt 1 view .LVU175
 482:../../Drivers/STM32H7xx_HAL_Driver/Src/stm32h7xx_ll_usb.c **** 
 617              		.loc 1 482 17 is_stmt 0 view .LVU176
 618 0034 0369     		ldr	r3, [r0, #16]
 482:../../Drivers/STM32H7xx_HAL_Driver/Src/stm32h7xx_ll_usb.c **** 
 619              		.loc 1 482 3 view .LVU177
 620 0036 13F0200F 		tst	r3, #32
 621 003a F4D1     		bne	.L41
 484:../../Drivers/STM32H7xx_HAL_Driver/Src/stm32h7xx_ll_usb.c **** }
 622              		.loc 1 484 10 view .LVU178
 623 003c 0020     		movs	r0, #0
 624              	.LVL43:
 484:../../Drivers/STM32H7xx_HAL_Driver/Src/stm32h7xx_ll_usb.c **** }
 625              		.loc 1 484 10 view .LVU179
 626 003e 00E0     		b	.L39
 627              	.LVL44:
 628              	.L42:
 466:../../Drivers/STM32H7xx_HAL_Driver/Src/stm32h7xx_ll_usb.c ****     }
 629              		.loc 1 466 14 view .LVU180
 630 0040 0320     		movs	r0, #3
 631              	.LVL45:
 632              	.L39:
 485:../../Drivers/STM32H7xx_HAL_Driver/Src/stm32h7xx_ll_usb.c **** 
 633              		.loc 1 485 1 view .LVU181
 634 0042 02B0     		add	sp, sp, #8
 635              	.LCFI9:
 636              		.cfi_remember_state
 637              		.cfi_def_cfa_offset 0
 638              		@ sp needed
 639 0044 7047     		bx	lr
 640              	.LVL46:
 641              	.L43:
 642              	.LCFI10:
 643              		.cfi_restore_state
 480:../../Drivers/STM32H7xx_HAL_Driver/Src/stm32h7xx_ll_usb.c ****     }
 644              		.loc 1 480 14 view .LVU182
 645 0046 0320     		movs	r0, #3
 646              	.LVL47:
 480:../../Drivers/STM32H7xx_HAL_Driver/Src/stm32h7xx_ll_usb.c ****     }
 647              		.loc 1 480 14 view .LVU183
 648 0048 FBE7     		b	.L39
 649              	.L46:
 650 004a 00BF     		.align	2
 651              	.L45:
 652 004c 400D0300 		.word	200000
 653              		.cfi_endproc
 654              	.LFE150:
 656              		.section	.text.USB_FlushRxFifo,"ax",%progbits
 657              		.align	1
 658              		.global	USB_FlushRxFifo
 659              		.syntax unified
 660              		.thumb
 661              		.thumb_func
 663              	USB_FlushRxFifo:
ARM GAS  C:\Users\gigig\AppData\Local\Temp\ccBJNrpK.s 			page 40


 664              	.LVL48:
 665              	.LFB151:
 493:../../Drivers/STM32H7xx_HAL_Driver/Src/stm32h7xx_ll_usb.c ****   __IO uint32_t count = 0U;
 666              		.loc 1 493 1 is_stmt 1 view -0
 667              		.cfi_startproc
 668              		@ args = 0, pretend = 0, frame = 8
 669              		@ frame_needed = 0, uses_anonymous_args = 0
 670              		@ link register save eliminated.
 493:../../Drivers/STM32H7xx_HAL_Driver/Src/stm32h7xx_ll_usb.c ****   __IO uint32_t count = 0U;
 671              		.loc 1 493 1 is_stmt 0 view .LVU185
 672 0000 82B0     		sub	sp, sp, #8
 673              	.LCFI11:
 674              		.cfi_def_cfa_offset 8
 494:../../Drivers/STM32H7xx_HAL_Driver/Src/stm32h7xx_ll_usb.c **** 
 675              		.loc 1 494 3 is_stmt 1 view .LVU186
 494:../../Drivers/STM32H7xx_HAL_Driver/Src/stm32h7xx_ll_usb.c **** 
 676              		.loc 1 494 17 is_stmt 0 view .LVU187
 677 0002 0023     		movs	r3, #0
 678 0004 0193     		str	r3, [sp, #4]
 679              	.L49:
 497:../../Drivers/STM32H7xx_HAL_Driver/Src/stm32h7xx_ll_usb.c ****   {
 680              		.loc 1 497 3 is_stmt 1 view .LVU188
 499:../../Drivers/STM32H7xx_HAL_Driver/Src/stm32h7xx_ll_usb.c **** 
 681              		.loc 1 499 5 view .LVU189
 499:../../Drivers/STM32H7xx_HAL_Driver/Src/stm32h7xx_ll_usb.c **** 
 682              		.loc 1 499 10 is_stmt 0 view .LVU190
 683 0006 019B     		ldr	r3, [sp, #4]
 684 0008 0133     		adds	r3, r3, #1
 685 000a 0193     		str	r3, [sp, #4]
 501:../../Drivers/STM32H7xx_HAL_Driver/Src/stm32h7xx_ll_usb.c ****     {
 686              		.loc 1 501 5 is_stmt 1 view .LVU191
 501:../../Drivers/STM32H7xx_HAL_Driver/Src/stm32h7xx_ll_usb.c ****     {
 687              		.loc 1 501 15 is_stmt 0 view .LVU192
 688 000c 019A     		ldr	r2, [sp, #4]
 501:../../Drivers/STM32H7xx_HAL_Driver/Src/stm32h7xx_ll_usb.c ****     {
 689              		.loc 1 501 8 view .LVU193
 690 000e 0E4B     		ldr	r3, .L54
 691 0010 9A42     		cmp	r2, r3
 692 0012 13D8     		bhi	.L51
 505:../../Drivers/STM32H7xx_HAL_Driver/Src/stm32h7xx_ll_usb.c **** 
 693              		.loc 1 505 11 is_stmt 1 view .LVU194
 505:../../Drivers/STM32H7xx_HAL_Driver/Src/stm32h7xx_ll_usb.c **** 
 694              		.loc 1 505 17 is_stmt 0 view .LVU195
 695 0014 0369     		ldr	r3, [r0, #16]
 505:../../Drivers/STM32H7xx_HAL_Driver/Src/stm32h7xx_ll_usb.c **** 
 696              		.loc 1 505 3 view .LVU196
 697 0016 002B     		cmp	r3, #0
 698 0018 F5DA     		bge	.L49
 508:../../Drivers/STM32H7xx_HAL_Driver/Src/stm32h7xx_ll_usb.c ****   USBx->GRSTCTL = USB_OTG_GRSTCTL_RXFFLSH;
 699              		.loc 1 508 3 is_stmt 1 view .LVU197
 508:../../Drivers/STM32H7xx_HAL_Driver/Src/stm32h7xx_ll_usb.c ****   USBx->GRSTCTL = USB_OTG_GRSTCTL_RXFFLSH;
 700              		.loc 1 508 9 is_stmt 0 view .LVU198
 701 001a 0023     		movs	r3, #0
 702 001c 0193     		str	r3, [sp, #4]
 509:../../Drivers/STM32H7xx_HAL_Driver/Src/stm32h7xx_ll_usb.c **** 
 703              		.loc 1 509 3 is_stmt 1 view .LVU199
 509:../../Drivers/STM32H7xx_HAL_Driver/Src/stm32h7xx_ll_usb.c **** 
ARM GAS  C:\Users\gigig\AppData\Local\Temp\ccBJNrpK.s 			page 41


 704              		.loc 1 509 17 is_stmt 0 view .LVU200
 705 001e 1023     		movs	r3, #16
 706 0020 0361     		str	r3, [r0, #16]
 707              	.L50:
 511:../../Drivers/STM32H7xx_HAL_Driver/Src/stm32h7xx_ll_usb.c ****   {
 708              		.loc 1 511 3 is_stmt 1 view .LVU201
 513:../../Drivers/STM32H7xx_HAL_Driver/Src/stm32h7xx_ll_usb.c **** 
 709              		.loc 1 513 5 view .LVU202
 513:../../Drivers/STM32H7xx_HAL_Driver/Src/stm32h7xx_ll_usb.c **** 
 710              		.loc 1 513 10 is_stmt 0 view .LVU203
 711 0022 019B     		ldr	r3, [sp, #4]
 712 0024 0133     		adds	r3, r3, #1
 713 0026 0193     		str	r3, [sp, #4]
 515:../../Drivers/STM32H7xx_HAL_Driver/Src/stm32h7xx_ll_usb.c ****     {
 714              		.loc 1 515 5 is_stmt 1 view .LVU204
 515:../../Drivers/STM32H7xx_HAL_Driver/Src/stm32h7xx_ll_usb.c ****     {
 715              		.loc 1 515 15 is_stmt 0 view .LVU205
 716 0028 019A     		ldr	r2, [sp, #4]
 515:../../Drivers/STM32H7xx_HAL_Driver/Src/stm32h7xx_ll_usb.c ****     {
 717              		.loc 1 515 8 view .LVU206
 718 002a 074B     		ldr	r3, .L54
 719 002c 9A42     		cmp	r2, r3
 720 002e 08D8     		bhi	.L52
 519:../../Drivers/STM32H7xx_HAL_Driver/Src/stm32h7xx_ll_usb.c **** 
 721              		.loc 1 519 11 is_stmt 1 view .LVU207
 519:../../Drivers/STM32H7xx_HAL_Driver/Src/stm32h7xx_ll_usb.c **** 
 722              		.loc 1 519 17 is_stmt 0 view .LVU208
 723 0030 0369     		ldr	r3, [r0, #16]
 519:../../Drivers/STM32H7xx_HAL_Driver/Src/stm32h7xx_ll_usb.c **** 
 724              		.loc 1 519 3 view .LVU209
 725 0032 13F0100F 		tst	r3, #16
 726 0036 F4D1     		bne	.L50
 521:../../Drivers/STM32H7xx_HAL_Driver/Src/stm32h7xx_ll_usb.c **** }
 727              		.loc 1 521 10 view .LVU210
 728 0038 0020     		movs	r0, #0
 729              	.LVL49:
 521:../../Drivers/STM32H7xx_HAL_Driver/Src/stm32h7xx_ll_usb.c **** }
 730              		.loc 1 521 10 view .LVU211
 731 003a 00E0     		b	.L48
 732              	.LVL50:
 733              	.L51:
 503:../../Drivers/STM32H7xx_HAL_Driver/Src/stm32h7xx_ll_usb.c ****     }
 734              		.loc 1 503 14 view .LVU212
 735 003c 0320     		movs	r0, #3
 736              	.LVL51:
 737              	.L48:
 522:../../Drivers/STM32H7xx_HAL_Driver/Src/stm32h7xx_ll_usb.c **** 
 738              		.loc 1 522 1 view .LVU213
 739 003e 02B0     		add	sp, sp, #8
 740              	.LCFI12:
 741              		.cfi_remember_state
 742              		.cfi_def_cfa_offset 0
 743              		@ sp needed
 744 0040 7047     		bx	lr
 745              	.LVL52:
 746              	.L52:
 747              	.LCFI13:
ARM GAS  C:\Users\gigig\AppData\Local\Temp\ccBJNrpK.s 			page 42


 748              		.cfi_restore_state
 517:../../Drivers/STM32H7xx_HAL_Driver/Src/stm32h7xx_ll_usb.c ****     }
 749              		.loc 1 517 14 view .LVU214
 750 0042 0320     		movs	r0, #3
 751              	.LVL53:
 517:../../Drivers/STM32H7xx_HAL_Driver/Src/stm32h7xx_ll_usb.c ****     }
 752              		.loc 1 517 14 view .LVU215
 753 0044 FBE7     		b	.L48
 754              	.L55:
 755 0046 00BF     		.align	2
 756              	.L54:
 757 0048 400D0300 		.word	200000
 758              		.cfi_endproc
 759              	.LFE151:
 761              		.section	.text.USB_SetDevSpeed,"ax",%progbits
 762              		.align	1
 763              		.global	USB_SetDevSpeed
 764              		.syntax unified
 765              		.thumb
 766              		.thumb_func
 768              	USB_SetDevSpeed:
 769              	.LVL54:
 770              	.LFB152:
 536:../../Drivers/STM32H7xx_HAL_Driver/Src/stm32h7xx_ll_usb.c ****   uint32_t USBx_BASE = (uint32_t)USBx;
 771              		.loc 1 536 1 is_stmt 1 view -0
 772              		.cfi_startproc
 773              		@ args = 0, pretend = 0, frame = 0
 774              		@ frame_needed = 0, uses_anonymous_args = 0
 775              		@ link register save eliminated.
 537:../../Drivers/STM32H7xx_HAL_Driver/Src/stm32h7xx_ll_usb.c **** 
 776              		.loc 1 537 3 view .LVU217
 539:../../Drivers/STM32H7xx_HAL_Driver/Src/stm32h7xx_ll_usb.c ****   return HAL_OK;
 777              		.loc 1 539 3 view .LVU218
 539:../../Drivers/STM32H7xx_HAL_Driver/Src/stm32h7xx_ll_usb.c ****   return HAL_OK;
 778              		.loc 1 539 21 is_stmt 0 view .LVU219
 779 0000 D0F80038 		ldr	r3, [r0, #2048]
 780 0004 1943     		orrs	r1, r1, r3
 781              	.LVL55:
 539:../../Drivers/STM32H7xx_HAL_Driver/Src/stm32h7xx_ll_usb.c ****   return HAL_OK;
 782              		.loc 1 539 21 view .LVU220
 783 0006 C0F80018 		str	r1, [r0, #2048]
 540:../../Drivers/STM32H7xx_HAL_Driver/Src/stm32h7xx_ll_usb.c **** }
 784              		.loc 1 540 3 is_stmt 1 view .LVU221
 541:../../Drivers/STM32H7xx_HAL_Driver/Src/stm32h7xx_ll_usb.c **** 
 785              		.loc 1 541 1 is_stmt 0 view .LVU222
 786 000a 0020     		movs	r0, #0
 787              	.LVL56:
 541:../../Drivers/STM32H7xx_HAL_Driver/Src/stm32h7xx_ll_usb.c **** 
 788              		.loc 1 541 1 view .LVU223
 789 000c 7047     		bx	lr
 790              		.cfi_endproc
 791              	.LFE152:
 793              		.section	.text.USB_DevInit,"ax",%progbits
 794              		.align	1
 795              		.global	USB_DevInit
 796              		.syntax unified
 797              		.thumb
ARM GAS  C:\Users\gigig\AppData\Local\Temp\ccBJNrpK.s 			page 43


 798              		.thumb_func
 800              	USB_DevInit:
 801              	.LVL57:
 802              	.LFB149:
 301:../../Drivers/STM32H7xx_HAL_Driver/Src/stm32h7xx_ll_usb.c ****   HAL_StatusTypeDef ret = HAL_OK;
 803              		.loc 1 301 1 is_stmt 1 view -0
 804              		.cfi_startproc
 805              		@ args = 56, pretend = 16, frame = 0
 806              		@ frame_needed = 0, uses_anonymous_args = 0
 301:../../Drivers/STM32H7xx_HAL_Driver/Src/stm32h7xx_ll_usb.c ****   HAL_StatusTypeDef ret = HAL_OK;
 807              		.loc 1 301 1 is_stmt 0 view .LVU225
 808 0000 84B0     		sub	sp, sp, #16
 809              	.LCFI14:
 810              		.cfi_def_cfa_offset 16
 811 0002 2DE9F041 		push	{r4, r5, r6, r7, r8, lr}
 812              	.LCFI15:
 813              		.cfi_def_cfa_offset 40
 814              		.cfi_offset 4, -40
 815              		.cfi_offset 5, -36
 816              		.cfi_offset 6, -32
 817              		.cfi_offset 7, -28
 818              		.cfi_offset 8, -24
 819              		.cfi_offset 14, -20
 820 0006 0446     		mov	r4, r0
 821 0008 07A8     		add	r0, sp, #28
 822 000a 80E80E00 		stm	r0, {r1, r2, r3}
 302:../../Drivers/STM32H7xx_HAL_Driver/Src/stm32h7xx_ll_usb.c ****   uint32_t USBx_BASE = (uint32_t)USBx;
 823              		.loc 1 302 3 is_stmt 1 view .LVU226
 824              	.LVL58:
 303:../../Drivers/STM32H7xx_HAL_Driver/Src/stm32h7xx_ll_usb.c ****   uint32_t i;
 825              		.loc 1 303 3 view .LVU227
 304:../../Drivers/STM32H7xx_HAL_Driver/Src/stm32h7xx_ll_usb.c **** 
 826              		.loc 1 304 3 view .LVU228
 306:../../Drivers/STM32H7xx_HAL_Driver/Src/stm32h7xx_ll_usb.c ****   {
 827              		.loc 1 306 3 view .LVU229
 306:../../Drivers/STM32H7xx_HAL_Driver/Src/stm32h7xx_ll_usb.c ****   {
 828              		.loc 1 306 10 is_stmt 0 view .LVU230
 829 000e 0023     		movs	r3, #0
 306:../../Drivers/STM32H7xx_HAL_Driver/Src/stm32h7xx_ll_usb.c ****   {
 830              		.loc 1 306 3 view .LVU231
 831 0010 06E0     		b	.L58
 832              	.LVL59:
 833              	.L59:
 308:../../Drivers/STM32H7xx_HAL_Driver/Src/stm32h7xx_ll_usb.c ****   }
 834              		.loc 1 308 5 is_stmt 1 discriminator 3 view .LVU232
 308:../../Drivers/STM32H7xx_HAL_Driver/Src/stm32h7xx_ll_usb.c ****   }
 835              		.loc 1 308 22 is_stmt 0 discriminator 3 view .LVU233
 836 0012 03F14002 		add	r2, r3, #64
 837 0016 04EB8202 		add	r2, r4, r2, lsl #2
 838 001a 0021     		movs	r1, #0
 839 001c 5160     		str	r1, [r2, #4]
 306:../../Drivers/STM32H7xx_HAL_Driver/Src/stm32h7xx_ll_usb.c ****   {
 840              		.loc 1 306 25 is_stmt 1 discriminator 3 view .LVU234
 306:../../Drivers/STM32H7xx_HAL_Driver/Src/stm32h7xx_ll_usb.c ****   {
 841              		.loc 1 306 26 is_stmt 0 discriminator 3 view .LVU235
 842 001e 0133     		adds	r3, r3, #1
 843              	.LVL60:
ARM GAS  C:\Users\gigig\AppData\Local\Temp\ccBJNrpK.s 			page 44


 844              	.L58:
 306:../../Drivers/STM32H7xx_HAL_Driver/Src/stm32h7xx_ll_usb.c ****   {
 845              		.loc 1 306 16 is_stmt 1 discriminator 1 view .LVU236
 306:../../Drivers/STM32H7xx_HAL_Driver/Src/stm32h7xx_ll_usb.c ****   {
 846              		.loc 1 306 3 is_stmt 0 discriminator 1 view .LVU237
 847 0020 0E2B     		cmp	r3, #14
 848 0022 F6D9     		bls	.L59
 312:../../Drivers/STM32H7xx_HAL_Driver/Src/stm32h7xx_ll_usb.c ****   {
 849              		.loc 1 312 3 is_stmt 1 view .LVU238
 312:../../Drivers/STM32H7xx_HAL_Driver/Src/stm32h7xx_ll_usb.c ****   {
 850              		.loc 1 312 10 is_stmt 0 view .LVU239
 851 0024 119F     		ldr	r7, [sp, #68]
 312:../../Drivers/STM32H7xx_HAL_Driver/Src/stm32h7xx_ll_usb.c ****   {
 852              		.loc 1 312 6 view .LVU240
 853 0026 27BB     		cbnz	r7, .L60
 314:../../Drivers/STM32H7xx_HAL_Driver/Src/stm32h7xx_ll_usb.c **** 
 854              		.loc 1 314 5 is_stmt 1 view .LVU241
 314:../../Drivers/STM32H7xx_HAL_Driver/Src/stm32h7xx_ll_usb.c **** 
 855              		.loc 1 314 23 is_stmt 0 view .LVU242
 856 0028 D4F80438 		ldr	r3, [r4, #2052]
 857              	.LVL61:
 314:../../Drivers/STM32H7xx_HAL_Driver/Src/stm32h7xx_ll_usb.c **** 
 858              		.loc 1 314 23 view .LVU243
 859 002c 43F00203 		orr	r3, r3, #2
 860 0030 C4F80438 		str	r3, [r4, #2052]
 317:../../Drivers/STM32H7xx_HAL_Driver/Src/stm32h7xx_ll_usb.c **** 
 861              		.loc 1 317 5 is_stmt 1 view .LVU244
 317:../../Drivers/STM32H7xx_HAL_Driver/Src/stm32h7xx_ll_usb.c **** 
 862              		.loc 1 317 17 is_stmt 0 view .LVU245
 863 0034 A36B     		ldr	r3, [r4, #56]
 864 0036 23F40013 		bic	r3, r3, #2097152
 865 003a A363     		str	r3, [r4, #56]
 320:../../Drivers/STM32H7xx_HAL_Driver/Src/stm32h7xx_ll_usb.c ****     USBx->GOTGCTL |= USB_OTG_GOTGCTL_BVALOVAL;
 866              		.loc 1 320 5 is_stmt 1 view .LVU246
 320:../../Drivers/STM32H7xx_HAL_Driver/Src/stm32h7xx_ll_usb.c ****     USBx->GOTGCTL |= USB_OTG_GOTGCTL_BVALOVAL;
 867              		.loc 1 320 19 is_stmt 0 view .LVU247
 868 003c 2368     		ldr	r3, [r4]
 869 003e 43F04003 		orr	r3, r3, #64
 870 0042 2360     		str	r3, [r4]
 321:../../Drivers/STM32H7xx_HAL_Driver/Src/stm32h7xx_ll_usb.c ****   }
 871              		.loc 1 321 5 is_stmt 1 view .LVU248
 321:../../Drivers/STM32H7xx_HAL_Driver/Src/stm32h7xx_ll_usb.c ****   }
 872              		.loc 1 321 19 is_stmt 0 view .LVU249
 873 0044 2368     		ldr	r3, [r4]
 874 0046 43F08003 		orr	r3, r3, #128
 875 004a 2360     		str	r3, [r4]
 876              	.L61:
 330:../../Drivers/STM32H7xx_HAL_Driver/Src/stm32h7xx_ll_usb.c **** 
 877              		.loc 1 330 3 is_stmt 1 view .LVU250
 330:../../Drivers/STM32H7xx_HAL_Driver/Src/stm32h7xx_ll_usb.c **** 
 878              		.loc 1 330 16 is_stmt 0 view .LVU251
 879 004c 0023     		movs	r3, #0
 880 004e C4F8003E 		str	r3, [r4, #3584]
 333:../../Drivers/STM32H7xx_HAL_Driver/Src/stm32h7xx_ll_usb.c **** 
 881              		.loc 1 333 3 is_stmt 1 view .LVU252
 333:../../Drivers/STM32H7xx_HAL_Driver/Src/stm32h7xx_ll_usb.c **** 
 882              		.loc 1 333 21 is_stmt 0 view .LVU253
ARM GAS  C:\Users\gigig\AppData\Local\Temp\ccBJNrpK.s 			page 45


 883 0052 04F50065 		add	r5, r4, #2048
 884 0056 D4F80038 		ldr	r3, [r4, #2048]
 885 005a C4F80038 		str	r3, [r4, #2048]
 335:../../Drivers/STM32H7xx_HAL_Driver/Src/stm32h7xx_ll_usb.c ****   {
 886              		.loc 1 335 3 is_stmt 1 view .LVU254
 335:../../Drivers/STM32H7xx_HAL_Driver/Src/stm32h7xx_ll_usb.c ****   {
 887              		.loc 1 335 10 is_stmt 0 view .LVU255
 888 005e 0C9B     		ldr	r3, [sp, #48]
 335:../../Drivers/STM32H7xx_HAL_Driver/Src/stm32h7xx_ll_usb.c ****   {
 889              		.loc 1 335 6 view .LVU256
 890 0060 012B     		cmp	r3, #1
 891 0062 10D1     		bne	.L62
 337:../../Drivers/STM32H7xx_HAL_Driver/Src/stm32h7xx_ll_usb.c ****     {
 892              		.loc 1 337 5 is_stmt 1 view .LVU257
 337:../../Drivers/STM32H7xx_HAL_Driver/Src/stm32h7xx_ll_usb.c ****     {
 893              		.loc 1 337 12 is_stmt 0 view .LVU258
 894 0064 0A9B     		ldr	r3, [sp, #40]
 337:../../Drivers/STM32H7xx_HAL_Driver/Src/stm32h7xx_ll_usb.c ****     {
 895              		.loc 1 337 8 view .LVU259
 896 0066 4BB9     		cbnz	r3, .L63
 340:../../Drivers/STM32H7xx_HAL_Driver/Src/stm32h7xx_ll_usb.c ****     }
 897              		.loc 1 340 7 is_stmt 1 view .LVU260
 340:../../Drivers/STM32H7xx_HAL_Driver/Src/stm32h7xx_ll_usb.c ****     }
 898              		.loc 1 340 13 is_stmt 0 view .LVU261
 899 0068 0021     		movs	r1, #0
 900 006a 2046     		mov	r0, r4
 901              	.LVL62:
 340:../../Drivers/STM32H7xx_HAL_Driver/Src/stm32h7xx_ll_usb.c ****     }
 902              		.loc 1 340 13 view .LVU262
 903 006c FFF7FEFF 		bl	USB_SetDevSpeed
 904              	.LVL63:
 905 0070 0DE0     		b	.L64
 906              	.LVL64:
 907              	.L60:
 326:../../Drivers/STM32H7xx_HAL_Driver/Src/stm32h7xx_ll_usb.c ****   }
 908              		.loc 1 326 5 is_stmt 1 view .LVU263
 326:../../Drivers/STM32H7xx_HAL_Driver/Src/stm32h7xx_ll_usb.c ****   }
 909              		.loc 1 326 17 is_stmt 0 view .LVU264
 910 0072 A36B     		ldr	r3, [r4, #56]
 911              	.LVL65:
 326:../../Drivers/STM32H7xx_HAL_Driver/Src/stm32h7xx_ll_usb.c ****   }
 912              		.loc 1 326 17 view .LVU265
 913 0074 43F40013 		orr	r3, r3, #2097152
 914 0078 A363     		str	r3, [r4, #56]
 915 007a E7E7     		b	.L61
 916              	.L63:
 345:../../Drivers/STM32H7xx_HAL_Driver/Src/stm32h7xx_ll_usb.c ****     }
 917              		.loc 1 345 7 is_stmt 1 view .LVU266
 345:../../Drivers/STM32H7xx_HAL_Driver/Src/stm32h7xx_ll_usb.c ****     }
 918              		.loc 1 345 13 is_stmt 0 view .LVU267
 919 007c 0121     		movs	r1, #1
 920 007e 2046     		mov	r0, r4
 921              	.LVL66:
 345:../../Drivers/STM32H7xx_HAL_Driver/Src/stm32h7xx_ll_usb.c ****     }
 922              		.loc 1 345 13 view .LVU268
 923 0080 FFF7FEFF 		bl	USB_SetDevSpeed
 924              	.LVL67:
ARM GAS  C:\Users\gigig\AppData\Local\Temp\ccBJNrpK.s 			page 46


 925 0084 03E0     		b	.L64
 926              	.LVL68:
 927              	.L62:
 351:../../Drivers/STM32H7xx_HAL_Driver/Src/stm32h7xx_ll_usb.c ****   }
 928              		.loc 1 351 5 is_stmt 1 view .LVU269
 351:../../Drivers/STM32H7xx_HAL_Driver/Src/stm32h7xx_ll_usb.c ****   }
 929              		.loc 1 351 11 is_stmt 0 view .LVU270
 930 0086 0321     		movs	r1, #3
 931 0088 2046     		mov	r0, r4
 932              	.LVL69:
 351:../../Drivers/STM32H7xx_HAL_Driver/Src/stm32h7xx_ll_usb.c ****   }
 933              		.loc 1 351 11 view .LVU271
 934 008a FFF7FEFF 		bl	USB_SetDevSpeed
 935              	.LVL70:
 936              	.L64:
 355:../../Drivers/STM32H7xx_HAL_Driver/Src/stm32h7xx_ll_usb.c ****   {
 937              		.loc 1 355 3 is_stmt 1 view .LVU272
 355:../../Drivers/STM32H7xx_HAL_Driver/Src/stm32h7xx_ll_usb.c ****   {
 938              		.loc 1 355 7 is_stmt 0 view .LVU273
 939 008e 1021     		movs	r1, #16
 940 0090 2046     		mov	r0, r4
 941 0092 FFF7FEFF 		bl	USB_FlushTxFifo
 942              	.LVL71:
 355:../../Drivers/STM32H7xx_HAL_Driver/Src/stm32h7xx_ll_usb.c ****   {
 943              		.loc 1 355 6 view .LVU274
 944 0096 8046     		mov	r8, r0
 945 0098 08B1     		cbz	r0, .L65
 357:../../Drivers/STM32H7xx_HAL_Driver/Src/stm32h7xx_ll_usb.c ****   }
 946              		.loc 1 357 9 view .LVU275
 947 009a 4FF00108 		mov	r8, #1
 948              	.L65:
 949              	.LVL72:
 360:../../Drivers/STM32H7xx_HAL_Driver/Src/stm32h7xx_ll_usb.c ****   {
 950              		.loc 1 360 3 is_stmt 1 view .LVU276
 360:../../Drivers/STM32H7xx_HAL_Driver/Src/stm32h7xx_ll_usb.c ****   {
 951              		.loc 1 360 7 is_stmt 0 view .LVU277
 952 009e 2046     		mov	r0, r4
 953 00a0 FFF7FEFF 		bl	USB_FlushRxFifo
 954              	.LVL73:
 360:../../Drivers/STM32H7xx_HAL_Driver/Src/stm32h7xx_ll_usb.c ****   {
 955              		.loc 1 360 6 view .LVU278
 956 00a4 08B1     		cbz	r0, .L66
 362:../../Drivers/STM32H7xx_HAL_Driver/Src/stm32h7xx_ll_usb.c ****   }
 957              		.loc 1 362 9 view .LVU279
 958 00a6 4FF00108 		mov	r8, #1
 959              	.LVL74:
 960              	.L66:
 366:../../Drivers/STM32H7xx_HAL_Driver/Src/stm32h7xx_ll_usb.c ****   USBx_DEVICE->DOEPMSK = 0U;
 961              		.loc 1 366 3 is_stmt 1 view .LVU280
 366:../../Drivers/STM32H7xx_HAL_Driver/Src/stm32h7xx_ll_usb.c ****   USBx_DEVICE->DOEPMSK = 0U;
 962              		.loc 1 366 24 is_stmt 0 view .LVU281
 963 00aa 0023     		movs	r3, #0
 964 00ac 2B61     		str	r3, [r5, #16]
 367:../../Drivers/STM32H7xx_HAL_Driver/Src/stm32h7xx_ll_usb.c ****   USBx_DEVICE->DAINTMSK = 0U;
 965              		.loc 1 367 3 is_stmt 1 view .LVU282
 367:../../Drivers/STM32H7xx_HAL_Driver/Src/stm32h7xx_ll_usb.c ****   USBx_DEVICE->DAINTMSK = 0U;
 966              		.loc 1 367 24 is_stmt 0 view .LVU283
ARM GAS  C:\Users\gigig\AppData\Local\Temp\ccBJNrpK.s 			page 47


 967 00ae 6B61     		str	r3, [r5, #20]
 368:../../Drivers/STM32H7xx_HAL_Driver/Src/stm32h7xx_ll_usb.c **** 
 968              		.loc 1 368 3 is_stmt 1 view .LVU284
 368:../../Drivers/STM32H7xx_HAL_Driver/Src/stm32h7xx_ll_usb.c **** 
 969              		.loc 1 368 25 is_stmt 0 view .LVU285
 970 00b0 EB61     		str	r3, [r5, #28]
 370:../../Drivers/STM32H7xx_HAL_Driver/Src/stm32h7xx_ll_usb.c ****   {
 971              		.loc 1 370 3 is_stmt 1 view .LVU286
 972              	.LVL75:
 370:../../Drivers/STM32H7xx_HAL_Driver/Src/stm32h7xx_ll_usb.c ****   {
 973              		.loc 1 370 3 is_stmt 0 view .LVU287
 974 00b2 0AE0     		b	.L67
 975              	.LVL76:
 976              	.L84:
 374:../../Drivers/STM32H7xx_HAL_Driver/Src/stm32h7xx_ll_usb.c ****       {
 977              		.loc 1 374 7 is_stmt 1 view .LVU288
 374:../../Drivers/STM32H7xx_HAL_Driver/Src/stm32h7xx_ll_usb.c ****       {
 978              		.loc 1 374 10 is_stmt 0 view .LVU289
 979 00b4 C3B9     		cbnz	r3, .L69
 376:../../Drivers/STM32H7xx_HAL_Driver/Src/stm32h7xx_ll_usb.c ****       }
 980              		.loc 1 376 9 is_stmt 1 view .LVU290
 376:../../Drivers/STM32H7xx_HAL_Driver/Src/stm32h7xx_ll_usb.c ****       }
 981              		.loc 1 376 31 is_stmt 0 view .LVU291
 982 00b6 4FF00060 		mov	r0, #134217728
 983 00ba C2F80009 		str	r0, [r2, #2304]
 984              	.L70:
 388:../../Drivers/STM32H7xx_HAL_Driver/Src/stm32h7xx_ll_usb.c ****     USBx_INEP(i)->DIEPINT  = 0xFB7FU;
 985              		.loc 1 388 5 is_stmt 1 discriminator 2 view .LVU292
 388:../../Drivers/STM32H7xx_HAL_Driver/Src/stm32h7xx_ll_usb.c ****     USBx_INEP(i)->DIEPINT  = 0xFB7FU;
 986              		.loc 1 388 28 is_stmt 0 discriminator 2 view .LVU293
 987 00be 0022     		movs	r2, #0
 988 00c0 0A61     		str	r2, [r1, #16]
 389:../../Drivers/STM32H7xx_HAL_Driver/Src/stm32h7xx_ll_usb.c ****   }
 989              		.loc 1 389 5 is_stmt 1 discriminator 2 view .LVU294
 389:../../Drivers/STM32H7xx_HAL_Driver/Src/stm32h7xx_ll_usb.c ****   }
 990              		.loc 1 389 28 is_stmt 0 discriminator 2 view .LVU295
 991 00c2 4FF67F32 		movw	r2, #64383
 992 00c6 8A60     		str	r2, [r1, #8]
 370:../../Drivers/STM32H7xx_HAL_Driver/Src/stm32h7xx_ll_usb.c ****   {
 993              		.loc 1 370 39 is_stmt 1 discriminator 2 view .LVU296
 370:../../Drivers/STM32H7xx_HAL_Driver/Src/stm32h7xx_ll_usb.c ****   {
 994              		.loc 1 370 40 is_stmt 0 discriminator 2 view .LVU297
 995 00c8 0133     		adds	r3, r3, #1
 996              	.LVL77:
 997              	.L67:
 370:../../Drivers/STM32H7xx_HAL_Driver/Src/stm32h7xx_ll_usb.c ****   {
 998              		.loc 1 370 16 is_stmt 1 discriminator 1 view .LVU298
 370:../../Drivers/STM32H7xx_HAL_Driver/Src/stm32h7xx_ll_usb.c ****   {
 999              		.loc 1 370 23 is_stmt 0 discriminator 1 view .LVU299
 1000 00ca 0799     		ldr	r1, [sp, #28]
 370:../../Drivers/STM32H7xx_HAL_Driver/Src/stm32h7xx_ll_usb.c ****   {
 1001              		.loc 1 370 3 discriminator 1 view .LVU300
 1002 00cc 9942     		cmp	r1, r3
 1003 00ce 10D9     		bls	.L83
 372:../../Drivers/STM32H7xx_HAL_Driver/Src/stm32h7xx_ll_usb.c ****     {
 1004              		.loc 1 372 5 is_stmt 1 view .LVU301
 372:../../Drivers/STM32H7xx_HAL_Driver/Src/stm32h7xx_ll_usb.c ****     {
ARM GAS  C:\Users\gigig\AppData\Local\Temp\ccBJNrpK.s 			page 48


 1005              		.loc 1 372 10 is_stmt 0 view .LVU302
 1006 00d0 04EB4312 		add	r2, r4, r3, lsl #5
 1007 00d4 02F51061 		add	r1, r2, #2304
 372:../../Drivers/STM32H7xx_HAL_Driver/Src/stm32h7xx_ll_usb.c ****     {
 1008              		.loc 1 372 22 view .LVU303
 1009 00d8 D2F80009 		ldr	r0, [r2, #2304]
 372:../../Drivers/STM32H7xx_HAL_Driver/Src/stm32h7xx_ll_usb.c ****     {
 1010              		.loc 1 372 8 view .LVU304
 1011 00dc 0028     		cmp	r0, #0
 1012 00de E9DB     		blt	.L84
 385:../../Drivers/STM32H7xx_HAL_Driver/Src/stm32h7xx_ll_usb.c ****     }
 1013              		.loc 1 385 7 is_stmt 1 view .LVU305
 385:../../Drivers/STM32H7xx_HAL_Driver/Src/stm32h7xx_ll_usb.c ****     }
 1014              		.loc 1 385 29 is_stmt 0 view .LVU306
 1015 00e0 0020     		movs	r0, #0
 1016 00e2 C2F80009 		str	r0, [r2, #2304]
 1017 00e6 EAE7     		b	.L70
 1018              	.L69:
 380:../../Drivers/STM32H7xx_HAL_Driver/Src/stm32h7xx_ll_usb.c ****       }
 1019              		.loc 1 380 9 is_stmt 1 view .LVU307
 380:../../Drivers/STM32H7xx_HAL_Driver/Src/stm32h7xx_ll_usb.c ****       }
 1020              		.loc 1 380 31 is_stmt 0 view .LVU308
 1021 00e8 4FF09040 		mov	r0, #1207959552
 1022 00ec C2F80009 		str	r0, [r2, #2304]
 1023 00f0 E5E7     		b	.L70
 1024              	.L83:
 392:../../Drivers/STM32H7xx_HAL_Driver/Src/stm32h7xx_ll_usb.c ****   {
 1025              		.loc 1 392 10 view .LVU309
 1026 00f2 0023     		movs	r3, #0
 1027              	.LVL78:
 392:../../Drivers/STM32H7xx_HAL_Driver/Src/stm32h7xx_ll_usb.c ****   {
 1028              		.loc 1 392 10 view .LVU310
 1029 00f4 0AE0     		b	.L72
 1030              	.LVL79:
 1031              	.L87:
 396:../../Drivers/STM32H7xx_HAL_Driver/Src/stm32h7xx_ll_usb.c ****       {
 1032              		.loc 1 396 7 is_stmt 1 view .LVU311
 396:../../Drivers/STM32H7xx_HAL_Driver/Src/stm32h7xx_ll_usb.c ****       {
 1033              		.loc 1 396 10 is_stmt 0 view .LVU312
 1034 00f6 C3B1     		cbz	r3, .L85
 402:../../Drivers/STM32H7xx_HAL_Driver/Src/stm32h7xx_ll_usb.c ****       }
 1035              		.loc 1 402 9 is_stmt 1 view .LVU313
 402:../../Drivers/STM32H7xx_HAL_Driver/Src/stm32h7xx_ll_usb.c ****       }
 1036              		.loc 1 402 32 is_stmt 0 view .LVU314
 1037 00f8 4FF0904C 		mov	ip, #1207959552
 1038 00fc C2F800CB 		str	ip, [r2, #2816]
 1039              	.L75:
 410:../../Drivers/STM32H7xx_HAL_Driver/Src/stm32h7xx_ll_usb.c ****     USBx_OUTEP(i)->DOEPINT  = 0xFB7FU;
 1040              		.loc 1 410 5 is_stmt 1 discriminator 2 view .LVU315
 410:../../Drivers/STM32H7xx_HAL_Driver/Src/stm32h7xx_ll_usb.c ****     USBx_OUTEP(i)->DOEPINT  = 0xFB7FU;
 1041              		.loc 1 410 29 is_stmt 0 discriminator 2 view .LVU316
 1042 0100 0022     		movs	r2, #0
 1043 0102 0261     		str	r2, [r0, #16]
 411:../../Drivers/STM32H7xx_HAL_Driver/Src/stm32h7xx_ll_usb.c ****   }
 1044              		.loc 1 411 5 is_stmt 1 discriminator 2 view .LVU317
 411:../../Drivers/STM32H7xx_HAL_Driver/Src/stm32h7xx_ll_usb.c ****   }
 1045              		.loc 1 411 29 is_stmt 0 discriminator 2 view .LVU318
ARM GAS  C:\Users\gigig\AppData\Local\Temp\ccBJNrpK.s 			page 49


 1046 0104 4FF67F32 		movw	r2, #64383
 1047 0108 8260     		str	r2, [r0, #8]
 392:../../Drivers/STM32H7xx_HAL_Driver/Src/stm32h7xx_ll_usb.c ****   {
 1048              		.loc 1 392 39 is_stmt 1 discriminator 2 view .LVU319
 392:../../Drivers/STM32H7xx_HAL_Driver/Src/stm32h7xx_ll_usb.c ****   {
 1049              		.loc 1 392 40 is_stmt 0 discriminator 2 view .LVU320
 1050 010a 0133     		adds	r3, r3, #1
 1051              	.LVL80:
 1052              	.L72:
 392:../../Drivers/STM32H7xx_HAL_Driver/Src/stm32h7xx_ll_usb.c ****   {
 1053              		.loc 1 392 16 is_stmt 1 discriminator 1 view .LVU321
 392:../../Drivers/STM32H7xx_HAL_Driver/Src/stm32h7xx_ll_usb.c ****   {
 1054              		.loc 1 392 3 is_stmt 0 discriminator 1 view .LVU322
 1055 010c 9942     		cmp	r1, r3
 1056 010e 11D9     		bls	.L86
 394:../../Drivers/STM32H7xx_HAL_Driver/Src/stm32h7xx_ll_usb.c ****     {
 1057              		.loc 1 394 5 is_stmt 1 view .LVU323
 394:../../Drivers/STM32H7xx_HAL_Driver/Src/stm32h7xx_ll_usb.c ****     {
 1058              		.loc 1 394 10 is_stmt 0 view .LVU324
 1059 0110 04EB4312 		add	r2, r4, r3, lsl #5
 1060 0114 02F53060 		add	r0, r2, #2816
 394:../../Drivers/STM32H7xx_HAL_Driver/Src/stm32h7xx_ll_usb.c ****     {
 1061              		.loc 1 394 23 view .LVU325
 1062 0118 D2F8006B 		ldr	r6, [r2, #2816]
 394:../../Drivers/STM32H7xx_HAL_Driver/Src/stm32h7xx_ll_usb.c ****     {
 1063              		.loc 1 394 8 view .LVU326
 1064 011c 002E     		cmp	r6, #0
 1065 011e EADB     		blt	.L87
 407:../../Drivers/STM32H7xx_HAL_Driver/Src/stm32h7xx_ll_usb.c ****     }
 1066              		.loc 1 407 7 is_stmt 1 view .LVU327
 407:../../Drivers/STM32H7xx_HAL_Driver/Src/stm32h7xx_ll_usb.c ****     }
 1067              		.loc 1 407 30 is_stmt 0 view .LVU328
 1068 0120 4FF0000C 		mov	ip, #0
 1069 0124 C2F800CB 		str	ip, [r2, #2816]
 1070 0128 EAE7     		b	.L75
 1071              	.L85:
 398:../../Drivers/STM32H7xx_HAL_Driver/Src/stm32h7xx_ll_usb.c ****       }
 1072              		.loc 1 398 9 is_stmt 1 view .LVU329
 398:../../Drivers/STM32H7xx_HAL_Driver/Src/stm32h7xx_ll_usb.c ****       }
 1073              		.loc 1 398 32 is_stmt 0 view .LVU330
 1074 012a 4FF0006C 		mov	ip, #134217728
 1075 012e C2F800CB 		str	ip, [r2, #2816]
 1076 0132 E5E7     		b	.L75
 1077              	.L86:
 414:../../Drivers/STM32H7xx_HAL_Driver/Src/stm32h7xx_ll_usb.c **** 
 1078              		.loc 1 414 3 is_stmt 1 view .LVU331
 414:../../Drivers/STM32H7xx_HAL_Driver/Src/stm32h7xx_ll_usb.c **** 
 1079              		.loc 1 414 24 is_stmt 0 view .LVU332
 1080 0134 2B69     		ldr	r3, [r5, #16]
 1081              	.LVL81:
 414:../../Drivers/STM32H7xx_HAL_Driver/Src/stm32h7xx_ll_usb.c **** 
 1082              		.loc 1 414 24 view .LVU333
 1083 0136 23F48073 		bic	r3, r3, #256
 1084 013a 2B61     		str	r3, [r5, #16]
 417:../../Drivers/STM32H7xx_HAL_Driver/Src/stm32h7xx_ll_usb.c **** 
 1085              		.loc 1 417 3 is_stmt 1 view .LVU334
 417:../../Drivers/STM32H7xx_HAL_Driver/Src/stm32h7xx_ll_usb.c **** 
ARM GAS  C:\Users\gigig\AppData\Local\Temp\ccBJNrpK.s 			page 50


 1086              		.loc 1 417 17 is_stmt 0 view .LVU335
 1087 013c 0023     		movs	r3, #0
 1088 013e A361     		str	r3, [r4, #24]
 420:../../Drivers/STM32H7xx_HAL_Driver/Src/stm32h7xx_ll_usb.c **** 
 1089              		.loc 1 420 3 is_stmt 1 view .LVU336
 420:../../Drivers/STM32H7xx_HAL_Driver/Src/stm32h7xx_ll_usb.c **** 
 1090              		.loc 1 420 17 is_stmt 0 view .LVU337
 1091 0140 6FF08043 		mvn	r3, #1073741824
 1092 0144 6361     		str	r3, [r4, #20]
 423:../../Drivers/STM32H7xx_HAL_Driver/Src/stm32h7xx_ll_usb.c ****   {
 1093              		.loc 1 423 3 is_stmt 1 view .LVU338
 423:../../Drivers/STM32H7xx_HAL_Driver/Src/stm32h7xx_ll_usb.c ****   {
 1094              		.loc 1 423 10 is_stmt 0 view .LVU339
 1095 0146 099B     		ldr	r3, [sp, #36]
 423:../../Drivers/STM32H7xx_HAL_Driver/Src/stm32h7xx_ll_usb.c ****   {
 1096              		.loc 1 423 6 view .LVU340
 1097 0148 1BB9     		cbnz	r3, .L77
 425:../../Drivers/STM32H7xx_HAL_Driver/Src/stm32h7xx_ll_usb.c ****   }
 1098              		.loc 1 425 5 is_stmt 1 view .LVU341
 425:../../Drivers/STM32H7xx_HAL_Driver/Src/stm32h7xx_ll_usb.c ****   }
 1099              		.loc 1 425 19 is_stmt 0 view .LVU342
 1100 014a A369     		ldr	r3, [r4, #24]
 1101 014c 43F01003 		orr	r3, r3, #16
 1102 0150 A361     		str	r3, [r4, #24]
 1103              	.L77:
 429:../../Drivers/STM32H7xx_HAL_Driver/Src/stm32h7xx_ll_usb.c ****                    USB_OTG_GINTMSK_ENUMDNEM | USB_OTG_GINTMSK_IEPINT |
 1104              		.loc 1 429 3 is_stmt 1 view .LVU343
 429:../../Drivers/STM32H7xx_HAL_Driver/Src/stm32h7xx_ll_usb.c ****                    USB_OTG_GINTMSK_ENUMDNEM | USB_OTG_GINTMSK_IEPINT |
 1105              		.loc 1 429 17 is_stmt 0 view .LVU344
 1106 0152 A269     		ldr	r2, [r4, #24]
 1107 0154 0A4B     		ldr	r3, .L89
 1108 0156 1343     		orrs	r3, r3, r2
 1109 0158 A361     		str	r3, [r4, #24]
 434:../../Drivers/STM32H7xx_HAL_Driver/Src/stm32h7xx_ll_usb.c ****   {
 1110              		.loc 1 434 3 is_stmt 1 view .LVU345
 434:../../Drivers/STM32H7xx_HAL_Driver/Src/stm32h7xx_ll_usb.c ****   {
 1111              		.loc 1 434 10 is_stmt 0 view .LVU346
 1112 015a 0D9B     		ldr	r3, [sp, #52]
 434:../../Drivers/STM32H7xx_HAL_Driver/Src/stm32h7xx_ll_usb.c ****   {
 1113              		.loc 1 434 6 view .LVU347
 1114 015c 1BB1     		cbz	r3, .L78
 436:../../Drivers/STM32H7xx_HAL_Driver/Src/stm32h7xx_ll_usb.c ****   }
 1115              		.loc 1 436 5 is_stmt 1 view .LVU348
 436:../../Drivers/STM32H7xx_HAL_Driver/Src/stm32h7xx_ll_usb.c ****   }
 1116              		.loc 1 436 19 is_stmt 0 view .LVU349
 1117 015e A369     		ldr	r3, [r4, #24]
 1118 0160 43F00803 		orr	r3, r3, #8
 1119 0164 A361     		str	r3, [r4, #24]
 1120              	.L78:
 439:../../Drivers/STM32H7xx_HAL_Driver/Src/stm32h7xx_ll_usb.c ****   {
 1121              		.loc 1 439 3 is_stmt 1 view .LVU350
 439:../../Drivers/STM32H7xx_HAL_Driver/Src/stm32h7xx_ll_usb.c ****   {
 1122              		.loc 1 439 6 is_stmt 0 view .LVU351
 1123 0166 012F     		cmp	r7, #1
 1124 0168 04D0     		beq	.L88
 1125              	.L79:
 444:../../Drivers/STM32H7xx_HAL_Driver/Src/stm32h7xx_ll_usb.c **** }
ARM GAS  C:\Users\gigig\AppData\Local\Temp\ccBJNrpK.s 			page 51


 1126              		.loc 1 444 3 is_stmt 1 view .LVU352
 445:../../Drivers/STM32H7xx_HAL_Driver/Src/stm32h7xx_ll_usb.c **** 
 1127              		.loc 1 445 1 is_stmt 0 view .LVU353
 1128 016a 4046     		mov	r0, r8
 1129 016c BDE8F041 		pop	{r4, r5, r6, r7, r8, lr}
 1130              	.LCFI16:
 1131              		.cfi_remember_state
 1132              		.cfi_restore 14
 1133              		.cfi_restore 8
 1134              		.cfi_restore 7
 1135              		.cfi_restore 6
 1136              		.cfi_restore 5
 1137              		.cfi_restore 4
 1138              		.cfi_def_cfa_offset 16
 1139              	.LVL82:
 445:../../Drivers/STM32H7xx_HAL_Driver/Src/stm32h7xx_ll_usb.c **** 
 1140              		.loc 1 445 1 view .LVU354
 1141 0170 04B0     		add	sp, sp, #16
 1142              	.LCFI17:
 1143              		.cfi_def_cfa_offset 0
 1144 0172 7047     		bx	lr
 1145              	.LVL83:
 1146              	.L88:
 1147              	.LCFI18:
 1148              		.cfi_restore_state
 441:../../Drivers/STM32H7xx_HAL_Driver/Src/stm32h7xx_ll_usb.c ****   }
 1149              		.loc 1 441 5 is_stmt 1 view .LVU355
 441:../../Drivers/STM32H7xx_HAL_Driver/Src/stm32h7xx_ll_usb.c ****   }
 1150              		.loc 1 441 19 is_stmt 0 view .LVU356
 1151 0174 A269     		ldr	r2, [r4, #24]
 1152 0176 034B     		ldr	r3, .L89+4
 1153 0178 1343     		orrs	r3, r3, r2
 1154 017a A361     		str	r3, [r4, #24]
 1155 017c F5E7     		b	.L79
 1156              	.L90:
 1157 017e 00BF     		.align	2
 1158              	.L89:
 1159 0180 00383C80 		.word	-2143537152
 1160 0184 04000040 		.word	1073741828
 1161              		.cfi_endproc
 1162              	.LFE149:
 1164              		.section	.text.USB_GetDevSpeed,"ax",%progbits
 1165              		.align	1
 1166              		.global	USB_GetDevSpeed
 1167              		.syntax unified
 1168              		.thumb
 1169              		.thumb_func
 1171              	USB_GetDevSpeed:
 1172              	.LVL84:
 1173              	.LFB153:
 552:../../Drivers/STM32H7xx_HAL_Driver/Src/stm32h7xx_ll_usb.c ****   uint32_t USBx_BASE = (uint32_t)USBx;
 1174              		.loc 1 552 1 is_stmt 1 view -0
 1175              		.cfi_startproc
 1176              		@ args = 0, pretend = 0, frame = 0
 1177              		@ frame_needed = 0, uses_anonymous_args = 0
 1178              		@ link register save eliminated.
 553:../../Drivers/STM32H7xx_HAL_Driver/Src/stm32h7xx_ll_usb.c ****   uint8_t speed;
ARM GAS  C:\Users\gigig\AppData\Local\Temp\ccBJNrpK.s 			page 52


 1179              		.loc 1 553 3 view .LVU358
 554:../../Drivers/STM32H7xx_HAL_Driver/Src/stm32h7xx_ll_usb.c ****   uint32_t DevEnumSpeed = USBx_DEVICE->DSTS & USB_OTG_DSTS_ENUMSPD;
 1180              		.loc 1 554 3 view .LVU359
 555:../../Drivers/STM32H7xx_HAL_Driver/Src/stm32h7xx_ll_usb.c **** 
 1181              		.loc 1 555 3 view .LVU360
 555:../../Drivers/STM32H7xx_HAL_Driver/Src/stm32h7xx_ll_usb.c **** 
 1182              		.loc 1 555 38 is_stmt 0 view .LVU361
 1183 0000 D0F80838 		ldr	r3, [r0, #2056]
 1184              	.LVL85:
 557:../../Drivers/STM32H7xx_HAL_Driver/Src/stm32h7xx_ll_usb.c ****   {
 1185              		.loc 1 557 3 is_stmt 1 view .LVU362
 557:../../Drivers/STM32H7xx_HAL_Driver/Src/stm32h7xx_ll_usb.c ****   {
 1186              		.loc 1 557 6 is_stmt 0 view .LVU363
 1187 0004 13F00603 		ands	r3, r3, #6
 1188              	.LVL86:
 557:../../Drivers/STM32H7xx_HAL_Driver/Src/stm32h7xx_ll_usb.c ****   {
 1189              		.loc 1 557 6 view .LVU364
 1190 0008 05D0     		beq	.L93
 561:../../Drivers/STM32H7xx_HAL_Driver/Src/stm32h7xx_ll_usb.c ****            (DevEnumSpeed == DSTS_ENUMSPD_FS_PHY_48MHZ))
 1191              		.loc 1 561 8 is_stmt 1 view .LVU365
 561:../../Drivers/STM32H7xx_HAL_Driver/Src/stm32h7xx_ll_usb.c ****            (DevEnumSpeed == DSTS_ENUMSPD_FS_PHY_48MHZ))
 1192              		.loc 1 561 11 is_stmt 0 view .LVU366
 1193 000a 062B     		cmp	r3, #6
 1194 000c 18BF     		it	ne
 1195 000e 022B     		cmpne	r3, #2
 1196 0010 03D1     		bne	.L94
 564:../../Drivers/STM32H7xx_HAL_Driver/Src/stm32h7xx_ll_usb.c ****   }
 1197              		.loc 1 564 11 view .LVU367
 1198 0012 0220     		movs	r0, #2
 1199              	.LVL87:
 564:../../Drivers/STM32H7xx_HAL_Driver/Src/stm32h7xx_ll_usb.c ****   }
 1200              		.loc 1 564 11 view .LVU368
 1201 0014 7047     		bx	lr
 1202              	.LVL88:
 1203              	.L93:
 559:../../Drivers/STM32H7xx_HAL_Driver/Src/stm32h7xx_ll_usb.c ****   }
 1204              		.loc 1 559 11 view .LVU369
 1205 0016 0020     		movs	r0, #0
 1206              	.LVL89:
 559:../../Drivers/STM32H7xx_HAL_Driver/Src/stm32h7xx_ll_usb.c ****   }
 1207              		.loc 1 559 11 view .LVU370
 1208 0018 7047     		bx	lr
 1209              	.LVL90:
 1210              	.L94:
 568:../../Drivers/STM32H7xx_HAL_Driver/Src/stm32h7xx_ll_usb.c ****   }
 1211              		.loc 1 568 11 view .LVU371
 1212 001a 0F20     		movs	r0, #15
 1213              	.LVL91:
 571:../../Drivers/STM32H7xx_HAL_Driver/Src/stm32h7xx_ll_usb.c **** }
 1214              		.loc 1 571 3 is_stmt 1 view .LVU372
 572:../../Drivers/STM32H7xx_HAL_Driver/Src/stm32h7xx_ll_usb.c **** 
 1215              		.loc 1 572 1 is_stmt 0 view .LVU373
 1216 001c 7047     		bx	lr
 1217              		.cfi_endproc
 1218              	.LFE153:
 1220              		.section	.text.USB_ActivateEndpoint,"ax",%progbits
 1221              		.align	1
ARM GAS  C:\Users\gigig\AppData\Local\Temp\ccBJNrpK.s 			page 53


 1222              		.global	USB_ActivateEndpoint
 1223              		.syntax unified
 1224              		.thumb
 1225              		.thumb_func
 1227              	USB_ActivateEndpoint:
 1228              	.LVL92:
 1229              	.LFB154:
 581:../../Drivers/STM32H7xx_HAL_Driver/Src/stm32h7xx_ll_usb.c ****   uint32_t USBx_BASE = (uint32_t)USBx;
 1230              		.loc 1 581 1 is_stmt 1 view -0
 1231              		.cfi_startproc
 1232              		@ args = 0, pretend = 0, frame = 0
 1233              		@ frame_needed = 0, uses_anonymous_args = 0
 581:../../Drivers/STM32H7xx_HAL_Driver/Src/stm32h7xx_ll_usb.c ****   uint32_t USBx_BASE = (uint32_t)USBx;
 1234              		.loc 1 581 1 is_stmt 0 view .LVU375
 1235 0000 10B5     		push	{r4, lr}
 1236              	.LCFI19:
 1237              		.cfi_def_cfa_offset 8
 1238              		.cfi_offset 4, -8
 1239              		.cfi_offset 14, -4
 582:../../Drivers/STM32H7xx_HAL_Driver/Src/stm32h7xx_ll_usb.c ****   uint32_t epnum = (uint32_t)ep->num;
 1240              		.loc 1 582 3 is_stmt 1 view .LVU376
 1241              	.LVL93:
 583:../../Drivers/STM32H7xx_HAL_Driver/Src/stm32h7xx_ll_usb.c **** 
 1242              		.loc 1 583 3 view .LVU377
 583:../../Drivers/STM32H7xx_HAL_Driver/Src/stm32h7xx_ll_usb.c **** 
 1243              		.loc 1 583 32 is_stmt 0 view .LVU378
 1244 0002 91F800C0 		ldrb	ip, [r1]	@ zero_extendqisi2
 1245              	.LVL94:
 585:../../Drivers/STM32H7xx_HAL_Driver/Src/stm32h7xx_ll_usb.c ****   {
 1246              		.loc 1 585 3 is_stmt 1 view .LVU379
 585:../../Drivers/STM32H7xx_HAL_Driver/Src/stm32h7xx_ll_usb.c ****   {
 1247              		.loc 1 585 9 is_stmt 0 view .LVU380
 1248 0006 4B78     		ldrb	r3, [r1, #1]	@ zero_extendqisi2
 585:../../Drivers/STM32H7xx_HAL_Driver/Src/stm32h7xx_ll_usb.c ****   {
 1249              		.loc 1 585 6 view .LVU381
 1250 0008 012B     		cmp	r3, #1
 1251 000a 21D0     		beq	.L99
 599:../../Drivers/STM32H7xx_HAL_Driver/Src/stm32h7xx_ll_usb.c **** 
 1252              		.loc 1 599 5 is_stmt 1 view .LVU382
 599:../../Drivers/STM32H7xx_HAL_Driver/Src/stm32h7xx_ll_usb.c **** 
 1253              		.loc 1 599 27 is_stmt 0 view .LVU383
 1254 000c 00F5006E 		add	lr, r0, #2048
 1255 0010 D0F81C38 		ldr	r3, [r0, #2076]
 599:../../Drivers/STM32H7xx_HAL_Driver/Src/stm32h7xx_ll_usb.c **** 
 1256              		.loc 1 599 82 view .LVU384
 1257 0014 0CF00F04 		and	r4, ip, #15
 599:../../Drivers/STM32H7xx_HAL_Driver/Src/stm32h7xx_ll_usb.c **** 
 1258              		.loc 1 599 55 view .LVU385
 1259 0018 0122     		movs	r2, #1
 1260 001a A240     		lsls	r2, r2, r4
 599:../../Drivers/STM32H7xx_HAL_Driver/Src/stm32h7xx_ll_usb.c **** 
 1261              		.loc 1 599 27 view .LVU386
 1262 001c 43EA0243 		orr	r3, r3, r2, lsl #16
 1263 0020 C0F81C38 		str	r3, [r0, #2076]
 601:../../Drivers/STM32H7xx_HAL_Driver/Src/stm32h7xx_ll_usb.c ****     {
 1264              		.loc 1 601 5 is_stmt 1 view .LVU387
 601:../../Drivers/STM32H7xx_HAL_Driver/Src/stm32h7xx_ll_usb.c ****     {
ARM GAS  C:\Users\gigig\AppData\Local\Temp\ccBJNrpK.s 			page 54


 1265              		.loc 1 601 11 is_stmt 0 view .LVU388
 1266 0024 00EB4C10 		add	r0, r0, ip, lsl #5
 1267              	.LVL95:
 601:../../Drivers/STM32H7xx_HAL_Driver/Src/stm32h7xx_ll_usb.c ****     {
 1268              		.loc 1 601 28 view .LVU389
 1269 0028 D0F8003B 		ldr	r3, [r0, #2816]
 601:../../Drivers/STM32H7xx_HAL_Driver/Src/stm32h7xx_ll_usb.c ****     {
 1270              		.loc 1 601 8 view .LVU390
 1271 002c 13F4004F 		tst	r3, #32768
 1272 0030 0CD1     		bne	.L97
 603:../../Drivers/STM32H7xx_HAL_Driver/Src/stm32h7xx_ll_usb.c ****                                     ((uint32_t)ep->type << 18) |
 1273              		.loc 1 603 7 is_stmt 1 view .LVU391
 603:../../Drivers/STM32H7xx_HAL_Driver/Src/stm32h7xx_ll_usb.c ****                                     ((uint32_t)ep->type << 18) |
 1274              		.loc 1 603 34 is_stmt 0 view .LVU392
 1275 0032 D0F8002B 		ldr	r2, [r0, #2816]
 603:../../Drivers/STM32H7xx_HAL_Driver/Src/stm32h7xx_ll_usb.c ****                                     ((uint32_t)ep->type << 18) |
 1276              		.loc 1 603 40 view .LVU393
 1277 0036 8B68     		ldr	r3, [r1, #8]
 603:../../Drivers/STM32H7xx_HAL_Driver/Src/stm32h7xx_ll_usb.c ****                                     ((uint32_t)ep->type << 18) |
 1278              		.loc 1 603 52 view .LVU394
 1279 0038 C3F30A03 		ubfx	r3, r3, #0, #11
 604:../../Drivers/STM32H7xx_HAL_Driver/Src/stm32h7xx_ll_usb.c ****                                     USB_OTG_DIEPCTL_SD0PID_SEVNFRM |
 1280              		.loc 1 604 50 view .LVU395
 1281 003c 0979     		ldrb	r1, [r1, #4]	@ zero_extendqisi2
 1282              	.LVL96:
 603:../../Drivers/STM32H7xx_HAL_Driver/Src/stm32h7xx_ll_usb.c ****                                     ((uint32_t)ep->type << 18) |
 1283              		.loc 1 603 77 view .LVU396
 1284 003e 43EA8143 		orr	r3, r3, r1, lsl #18
 603:../../Drivers/STM32H7xx_HAL_Driver/Src/stm32h7xx_ll_usb.c ****                                     ((uint32_t)ep->type << 18) |
 1285              		.loc 1 603 34 view .LVU397
 1286 0042 1343     		orrs	r3, r3, r2
 1287 0044 144A     		ldr	r2, .L100
 1288 0046 1A43     		orrs	r2, r2, r3
 1289 0048 C0F8002B 		str	r2, [r0, #2816]
 1290              	.LVL97:
 1291              	.L97:
 609:../../Drivers/STM32H7xx_HAL_Driver/Src/stm32h7xx_ll_usb.c **** }
 1292              		.loc 1 609 3 is_stmt 1 view .LVU398
 610:../../Drivers/STM32H7xx_HAL_Driver/Src/stm32h7xx_ll_usb.c **** 
 1293              		.loc 1 610 1 is_stmt 0 view .LVU399
 1294 004c 0020     		movs	r0, #0
 1295 004e 10BD     		pop	{r4, pc}
 1296              	.LVL98:
 1297              	.L99:
 587:../../Drivers/STM32H7xx_HAL_Driver/Src/stm32h7xx_ll_usb.c **** 
 1298              		.loc 1 587 5 is_stmt 1 view .LVU400
 587:../../Drivers/STM32H7xx_HAL_Driver/Src/stm32h7xx_ll_usb.c **** 
 1299              		.loc 1 587 27 is_stmt 0 view .LVU401
 1300 0050 D0F81C28 		ldr	r2, [r0, #2076]
 587:../../Drivers/STM32H7xx_HAL_Driver/Src/stm32h7xx_ll_usb.c **** 
 1301              		.loc 1 587 81 view .LVU402
 1302 0054 0CF00F0E 		and	lr, ip, #15
 587:../../Drivers/STM32H7xx_HAL_Driver/Src/stm32h7xx_ll_usb.c **** 
 1303              		.loc 1 587 54 view .LVU403
 1304 0058 03FA0EF3 		lsl	r3, r3, lr
 587:../../Drivers/STM32H7xx_HAL_Driver/Src/stm32h7xx_ll_usb.c **** 
 1305              		.loc 1 587 52 view .LVU404
ARM GAS  C:\Users\gigig\AppData\Local\Temp\ccBJNrpK.s 			page 55


 1306 005c 9BB2     		uxth	r3, r3
 587:../../Drivers/STM32H7xx_HAL_Driver/Src/stm32h7xx_ll_usb.c **** 
 1307              		.loc 1 587 27 view .LVU405
 1308 005e 1343     		orrs	r3, r3, r2
 1309 0060 C0F81C38 		str	r3, [r0, #2076]
 589:../../Drivers/STM32H7xx_HAL_Driver/Src/stm32h7xx_ll_usb.c ****     {
 1310              		.loc 1 589 5 is_stmt 1 view .LVU406
 589:../../Drivers/STM32H7xx_HAL_Driver/Src/stm32h7xx_ll_usb.c ****     {
 1311              		.loc 1 589 10 is_stmt 0 view .LVU407
 1312 0064 00EB4C10 		add	r0, r0, ip, lsl #5
 1313              	.LVL99:
 589:../../Drivers/STM32H7xx_HAL_Driver/Src/stm32h7xx_ll_usb.c ****     {
 1314              		.loc 1 589 26 view .LVU408
 1315 0068 D0F80039 		ldr	r3, [r0, #2304]
 589:../../Drivers/STM32H7xx_HAL_Driver/Src/stm32h7xx_ll_usb.c ****     {
 1316              		.loc 1 589 8 view .LVU409
 1317 006c 13F4004F 		tst	r3, #32768
 1318 0070 ECD1     		bne	.L97
 591:../../Drivers/STM32H7xx_HAL_Driver/Src/stm32h7xx_ll_usb.c ****                                    ((uint32_t)ep->type << 18) | (epnum << 22) |
 1319              		.loc 1 591 7 is_stmt 1 view .LVU410
 591:../../Drivers/STM32H7xx_HAL_Driver/Src/stm32h7xx_ll_usb.c ****                                    ((uint32_t)ep->type << 18) | (epnum << 22) |
 1320              		.loc 1 591 33 is_stmt 0 view .LVU411
 1321 0072 D0F80029 		ldr	r2, [r0, #2304]
 591:../../Drivers/STM32H7xx_HAL_Driver/Src/stm32h7xx_ll_usb.c ****                                    ((uint32_t)ep->type << 18) | (epnum << 22) |
 1322              		.loc 1 591 39 view .LVU412
 1323 0076 8B68     		ldr	r3, [r1, #8]
 591:../../Drivers/STM32H7xx_HAL_Driver/Src/stm32h7xx_ll_usb.c ****                                    ((uint32_t)ep->type << 18) | (epnum << 22) |
 1324              		.loc 1 591 51 view .LVU413
 1325 0078 C3F30A03 		ubfx	r3, r3, #0, #11
 592:../../Drivers/STM32H7xx_HAL_Driver/Src/stm32h7xx_ll_usb.c ****                                    USB_OTG_DIEPCTL_SD0PID_SEVNFRM |
 1326              		.loc 1 592 49 view .LVU414
 1327 007c 0979     		ldrb	r1, [r1, #4]	@ zero_extendqisi2
 1328              	.LVL100:
 591:../../Drivers/STM32H7xx_HAL_Driver/Src/stm32h7xx_ll_usb.c ****                                    ((uint32_t)ep->type << 18) | (epnum << 22) |
 1329              		.loc 1 591 76 view .LVU415
 1330 007e 43EA8143 		orr	r3, r3, r1, lsl #18
 592:../../Drivers/STM32H7xx_HAL_Driver/Src/stm32h7xx_ll_usb.c ****                                    USB_OTG_DIEPCTL_SD0PID_SEVNFRM |
 1331              		.loc 1 592 63 view .LVU416
 1332 0082 43EA8C5C 		orr	ip, r3, ip, lsl #22
 1333              	.LVL101:
 591:../../Drivers/STM32H7xx_HAL_Driver/Src/stm32h7xx_ll_usb.c ****                                    ((uint32_t)ep->type << 18) | (epnum << 22) |
 1334              		.loc 1 591 33 view .LVU417
 1335 0086 42EA0C0C 		orr	ip, r2, ip
 1336 008a 034B     		ldr	r3, .L100
 1337 008c 4CEA0303 		orr	r3, ip, r3
 1338 0090 C0F80039 		str	r3, [r0, #2304]
 1339 0094 DAE7     		b	.L97
 1340              	.L101:
 1341 0096 00BF     		.align	2
 1342              	.L100:
 1343 0098 00800010 		.word	268468224
 1344              		.cfi_endproc
 1345              	.LFE154:
 1347              		.section	.text.USB_ActivateDedicatedEndpoint,"ax",%progbits
 1348              		.align	1
 1349              		.global	USB_ActivateDedicatedEndpoint
 1350              		.syntax unified
ARM GAS  C:\Users\gigig\AppData\Local\Temp\ccBJNrpK.s 			page 56


 1351              		.thumb
 1352              		.thumb_func
 1354              	USB_ActivateDedicatedEndpoint:
 1355              	.LVL102:
 1356              	.LFB155:
 619:../../Drivers/STM32H7xx_HAL_Driver/Src/stm32h7xx_ll_usb.c ****   uint32_t USBx_BASE = (uint32_t)USBx;
 1357              		.loc 1 619 1 is_stmt 1 view -0
 1358              		.cfi_startproc
 1359              		@ args = 0, pretend = 0, frame = 0
 1360              		@ frame_needed = 0, uses_anonymous_args = 0
 1361              		@ link register save eliminated.
 619:../../Drivers/STM32H7xx_HAL_Driver/Src/stm32h7xx_ll_usb.c ****   uint32_t USBx_BASE = (uint32_t)USBx;
 1362              		.loc 1 619 1 is_stmt 0 view .LVU419
 1363 0000 30B4     		push	{r4, r5}
 1364              	.LCFI20:
 1365              		.cfi_def_cfa_offset 8
 1366              		.cfi_offset 4, -8
 1367              		.cfi_offset 5, -4
 620:../../Drivers/STM32H7xx_HAL_Driver/Src/stm32h7xx_ll_usb.c ****   uint32_t epnum = (uint32_t)ep->num;
 1368              		.loc 1 620 3 is_stmt 1 view .LVU420
 1369              	.LVL103:
 621:../../Drivers/STM32H7xx_HAL_Driver/Src/stm32h7xx_ll_usb.c **** 
 1370              		.loc 1 621 3 view .LVU421
 621:../../Drivers/STM32H7xx_HAL_Driver/Src/stm32h7xx_ll_usb.c **** 
 1371              		.loc 1 621 32 is_stmt 0 view .LVU422
 1372 0002 0A78     		ldrb	r2, [r1]	@ zero_extendqisi2
 1373              	.LVL104:
 624:../../Drivers/STM32H7xx_HAL_Driver/Src/stm32h7xx_ll_usb.c ****   {
 1374              		.loc 1 624 3 is_stmt 1 view .LVU423
 624:../../Drivers/STM32H7xx_HAL_Driver/Src/stm32h7xx_ll_usb.c ****   {
 1375              		.loc 1 624 9 is_stmt 0 view .LVU424
 1376 0004 4B78     		ldrb	r3, [r1, #1]	@ zero_extendqisi2
 624:../../Drivers/STM32H7xx_HAL_Driver/Src/stm32h7xx_ll_usb.c ****   {
 1377              		.loc 1 624 6 view .LVU425
 1378 0006 012B     		cmp	r3, #1
 1379 0008 23D0     		beq	.L108
 638:../../Drivers/STM32H7xx_HAL_Driver/Src/stm32h7xx_ll_usb.c ****     {
 1380              		.loc 1 638 5 is_stmt 1 view .LVU426
 638:../../Drivers/STM32H7xx_HAL_Driver/Src/stm32h7xx_ll_usb.c ****     {
 1381              		.loc 1 638 11 is_stmt 0 view .LVU427
 1382 000a 00EB421C 		add	ip, r0, r2, lsl #5
 638:../../Drivers/STM32H7xx_HAL_Driver/Src/stm32h7xx_ll_usb.c ****     {
 1383              		.loc 1 638 28 view .LVU428
 1384 000e DCF8003B 		ldr	r3, [ip, #2816]
 638:../../Drivers/STM32H7xx_HAL_Driver/Src/stm32h7xx_ll_usb.c ****     {
 1385              		.loc 1 638 8 view .LVU429
 1386 0012 13F4004F 		tst	r3, #32768
 1387 0016 0ED1     		bne	.L106
 640:../../Drivers/STM32H7xx_HAL_Driver/Src/stm32h7xx_ll_usb.c ****                                     ((uint32_t)ep->type << 18) | (epnum << 22) |
 1388              		.loc 1 640 7 is_stmt 1 view .LVU430
 640:../../Drivers/STM32H7xx_HAL_Driver/Src/stm32h7xx_ll_usb.c ****                                     ((uint32_t)ep->type << 18) | (epnum << 22) |
 1389              		.loc 1 640 34 is_stmt 0 view .LVU431
 1390 0018 DCF8004B 		ldr	r4, [ip, #2816]
 640:../../Drivers/STM32H7xx_HAL_Driver/Src/stm32h7xx_ll_usb.c ****                                     ((uint32_t)ep->type << 18) | (epnum << 22) |
 1391              		.loc 1 640 40 view .LVU432
 1392 001c 8B68     		ldr	r3, [r1, #8]
 640:../../Drivers/STM32H7xx_HAL_Driver/Src/stm32h7xx_ll_usb.c ****                                     ((uint32_t)ep->type << 18) | (epnum << 22) |
ARM GAS  C:\Users\gigig\AppData\Local\Temp\ccBJNrpK.s 			page 57


 1393              		.loc 1 640 52 view .LVU433
 1394 001e C3F30A03 		ubfx	r3, r3, #0, #11
 641:../../Drivers/STM32H7xx_HAL_Driver/Src/stm32h7xx_ll_usb.c ****                                     USB_OTG_DOEPCTL_USBAEP;
 1395              		.loc 1 641 50 view .LVU434
 1396 0022 0D79     		ldrb	r5, [r1, #4]	@ zero_extendqisi2
 640:../../Drivers/STM32H7xx_HAL_Driver/Src/stm32h7xx_ll_usb.c ****                                     ((uint32_t)ep->type << 18) | (epnum << 22) |
 1397              		.loc 1 640 77 view .LVU435
 1398 0024 43EA8543 		orr	r3, r3, r5, lsl #18
 641:../../Drivers/STM32H7xx_HAL_Driver/Src/stm32h7xx_ll_usb.c ****                                     USB_OTG_DOEPCTL_USBAEP;
 1399              		.loc 1 641 64 view .LVU436
 1400 0028 43EA8253 		orr	r3, r3, r2, lsl #22
 640:../../Drivers/STM32H7xx_HAL_Driver/Src/stm32h7xx_ll_usb.c ****                                     ((uint32_t)ep->type << 18) | (epnum << 22) |
 1401              		.loc 1 640 34 view .LVU437
 1402 002c 2343     		orrs	r3, r3, r4
 1403 002e 43F40043 		orr	r3, r3, #32768
 1404 0032 CCF8003B 		str	r3, [ip, #2816]
 1405              	.L106:
 645:../../Drivers/STM32H7xx_HAL_Driver/Src/stm32h7xx_ll_usb.c ****   }
 1406              		.loc 1 645 5 is_stmt 1 view .LVU438
 645:../../Drivers/STM32H7xx_HAL_Driver/Src/stm32h7xx_ll_usb.c ****   }
 1407              		.loc 1 645 27 is_stmt 0 view .LVU439
 1408 0036 D0F83C38 		ldr	r3, [r0, #2108]
 645:../../Drivers/STM32H7xx_HAL_Driver/Src/stm32h7xx_ll_usb.c ****   }
 1409              		.loc 1 645 76 view .LVU440
 1410 003a 0A78     		ldrb	r2, [r1]	@ zero_extendqisi2
 1411              	.LVL105:
 645:../../Drivers/STM32H7xx_HAL_Driver/Src/stm32h7xx_ll_usb.c ****   }
 1412              		.loc 1 645 82 view .LVU441
 1413 003c 02F00F01 		and	r1, r2, #15
 1414              	.LVL106:
 645:../../Drivers/STM32H7xx_HAL_Driver/Src/stm32h7xx_ll_usb.c ****   }
 1415              		.loc 1 645 55 view .LVU442
 1416 0040 0122     		movs	r2, #1
 1417 0042 8A40     		lsls	r2, r2, r1
 645:../../Drivers/STM32H7xx_HAL_Driver/Src/stm32h7xx_ll_usb.c ****   }
 1418              		.loc 1 645 27 view .LVU443
 1419 0044 43EA0243 		orr	r3, r3, r2, lsl #16
 1420 0048 C0F83C38 		str	r3, [r0, #2108]
 1421              	.L105:
 648:../../Drivers/STM32H7xx_HAL_Driver/Src/stm32h7xx_ll_usb.c **** }
 1422              		.loc 1 648 3 is_stmt 1 view .LVU444
 649:../../Drivers/STM32H7xx_HAL_Driver/Src/stm32h7xx_ll_usb.c **** 
 1423              		.loc 1 649 1 is_stmt 0 view .LVU445
 1424 004c 0020     		movs	r0, #0
 1425              	.LVL107:
 649:../../Drivers/STM32H7xx_HAL_Driver/Src/stm32h7xx_ll_usb.c **** 
 1426              		.loc 1 649 1 view .LVU446
 1427 004e 30BC     		pop	{r4, r5}
 1428              	.LCFI21:
 1429              		.cfi_remember_state
 1430              		.cfi_restore 5
 1431              		.cfi_restore 4
 1432              		.cfi_def_cfa_offset 0
 1433 0050 7047     		bx	lr
 1434              	.LVL108:
 1435              	.L108:
 1436              	.LCFI22:
ARM GAS  C:\Users\gigig\AppData\Local\Temp\ccBJNrpK.s 			page 58


 1437              		.cfi_restore_state
 626:../../Drivers/STM32H7xx_HAL_Driver/Src/stm32h7xx_ll_usb.c ****     {
 1438              		.loc 1 626 5 is_stmt 1 view .LVU447
 626:../../Drivers/STM32H7xx_HAL_Driver/Src/stm32h7xx_ll_usb.c ****     {
 1439              		.loc 1 626 11 is_stmt 0 view .LVU448
 1440 0052 00EB4214 		add	r4, r0, r2, lsl #5
 626:../../Drivers/STM32H7xx_HAL_Driver/Src/stm32h7xx_ll_usb.c ****     {
 1441              		.loc 1 626 27 view .LVU449
 1442 0056 D4F80039 		ldr	r3, [r4, #2304]
 626:../../Drivers/STM32H7xx_HAL_Driver/Src/stm32h7xx_ll_usb.c ****     {
 1443              		.loc 1 626 8 view .LVU450
 1444 005a 13F4004F 		tst	r3, #32768
 1445 005e 0FD1     		bne	.L104
 628:../../Drivers/STM32H7xx_HAL_Driver/Src/stm32h7xx_ll_usb.c ****                                    ((uint32_t)ep->type << 18) | (epnum << 22) |
 1446              		.loc 1 628 7 is_stmt 1 view .LVU451
 628:../../Drivers/STM32H7xx_HAL_Driver/Src/stm32h7xx_ll_usb.c ****                                    ((uint32_t)ep->type << 18) | (epnum << 22) |
 1447              		.loc 1 628 33 is_stmt 0 view .LVU452
 1448 0060 D4F80059 		ldr	r5, [r4, #2304]
 628:../../Drivers/STM32H7xx_HAL_Driver/Src/stm32h7xx_ll_usb.c ****                                    ((uint32_t)ep->type << 18) | (epnum << 22) |
 1449              		.loc 1 628 39 view .LVU453
 1450 0064 8B68     		ldr	r3, [r1, #8]
 628:../../Drivers/STM32H7xx_HAL_Driver/Src/stm32h7xx_ll_usb.c ****                                    ((uint32_t)ep->type << 18) | (epnum << 22) |
 1451              		.loc 1 628 51 view .LVU454
 1452 0066 C3F30A03 		ubfx	r3, r3, #0, #11
 629:../../Drivers/STM32H7xx_HAL_Driver/Src/stm32h7xx_ll_usb.c ****                                    USB_OTG_DIEPCTL_SD0PID_SEVNFRM |
 1453              		.loc 1 629 49 view .LVU455
 1454 006a 91F804C0 		ldrb	ip, [r1, #4]	@ zero_extendqisi2
 628:../../Drivers/STM32H7xx_HAL_Driver/Src/stm32h7xx_ll_usb.c ****                                    ((uint32_t)ep->type << 18) | (epnum << 22) |
 1455              		.loc 1 628 76 view .LVU456
 1456 006e 43EA8C43 		orr	r3, r3, ip, lsl #18
 629:../../Drivers/STM32H7xx_HAL_Driver/Src/stm32h7xx_ll_usb.c ****                                    USB_OTG_DIEPCTL_SD0PID_SEVNFRM |
 1457              		.loc 1 629 63 view .LVU457
 1458 0072 43EA8253 		orr	r3, r3, r2, lsl #22
 628:../../Drivers/STM32H7xx_HAL_Driver/Src/stm32h7xx_ll_usb.c ****                                    ((uint32_t)ep->type << 18) | (epnum << 22) |
 1459              		.loc 1 628 33 view .LVU458
 1460 0076 2B43     		orrs	r3, r3, r5
 1461 0078 074A     		ldr	r2, .L109
 1462              	.LVL109:
 628:../../Drivers/STM32H7xx_HAL_Driver/Src/stm32h7xx_ll_usb.c ****                                    ((uint32_t)ep->type << 18) | (epnum << 22) |
 1463              		.loc 1 628 33 view .LVU459
 1464 007a 1A43     		orrs	r2, r2, r3
 1465 007c C4F80029 		str	r2, [r4, #2304]
 1466              	.LVL110:
 1467              	.L104:
 634:../../Drivers/STM32H7xx_HAL_Driver/Src/stm32h7xx_ll_usb.c ****   }
 1468              		.loc 1 634 5 is_stmt 1 view .LVU460
 634:../../Drivers/STM32H7xx_HAL_Driver/Src/stm32h7xx_ll_usb.c ****   }
 1469              		.loc 1 634 27 is_stmt 0 view .LVU461
 1470 0080 D0F83C28 		ldr	r2, [r0, #2108]
 634:../../Drivers/STM32H7xx_HAL_Driver/Src/stm32h7xx_ll_usb.c ****   }
 1471              		.loc 1 634 75 view .LVU462
 1472 0084 0B78     		ldrb	r3, [r1]	@ zero_extendqisi2
 634:../../Drivers/STM32H7xx_HAL_Driver/Src/stm32h7xx_ll_usb.c ****   }
 1473              		.loc 1 634 81 view .LVU463
 1474 0086 03F00F01 		and	r1, r3, #15
 1475              	.LVL111:
 634:../../Drivers/STM32H7xx_HAL_Driver/Src/stm32h7xx_ll_usb.c ****   }
ARM GAS  C:\Users\gigig\AppData\Local\Temp\ccBJNrpK.s 			page 59


 1476              		.loc 1 634 54 view .LVU464
 1477 008a 0123     		movs	r3, #1
 1478 008c 8B40     		lsls	r3, r3, r1
 634:../../Drivers/STM32H7xx_HAL_Driver/Src/stm32h7xx_ll_usb.c ****   }
 1479              		.loc 1 634 52 view .LVU465
 1480 008e 9BB2     		uxth	r3, r3
 634:../../Drivers/STM32H7xx_HAL_Driver/Src/stm32h7xx_ll_usb.c ****   }
 1481              		.loc 1 634 27 view .LVU466
 1482 0090 1343     		orrs	r3, r3, r2
 1483 0092 C0F83C38 		str	r3, [r0, #2108]
 1484 0096 D9E7     		b	.L105
 1485              	.L110:
 1486              		.align	2
 1487              	.L109:
 1488 0098 00800010 		.word	268468224
 1489              		.cfi_endproc
 1490              	.LFE155:
 1492              		.section	.text.USB_DeactivateEndpoint,"ax",%progbits
 1493              		.align	1
 1494              		.global	USB_DeactivateEndpoint
 1495              		.syntax unified
 1496              		.thumb
 1497              		.thumb_func
 1499              	USB_DeactivateEndpoint:
 1500              	.LVL112:
 1501              	.LFB156:
 658:../../Drivers/STM32H7xx_HAL_Driver/Src/stm32h7xx_ll_usb.c ****   uint32_t USBx_BASE = (uint32_t)USBx;
 1502              		.loc 1 658 1 is_stmt 1 view -0
 1503              		.cfi_startproc
 1504              		@ args = 0, pretend = 0, frame = 0
 1505              		@ frame_needed = 0, uses_anonymous_args = 0
 1506              		@ link register save eliminated.
 658:../../Drivers/STM32H7xx_HAL_Driver/Src/stm32h7xx_ll_usb.c ****   uint32_t USBx_BASE = (uint32_t)USBx;
 1507              		.loc 1 658 1 is_stmt 0 view .LVU468
 1508 0000 30B4     		push	{r4, r5}
 1509              	.LCFI23:
 1510              		.cfi_def_cfa_offset 8
 1511              		.cfi_offset 4, -8
 1512              		.cfi_offset 5, -4
 659:../../Drivers/STM32H7xx_HAL_Driver/Src/stm32h7xx_ll_usb.c ****   uint32_t epnum = (uint32_t)ep->num;
 1513              		.loc 1 659 3 is_stmt 1 view .LVU469
 1514              	.LVL113:
 660:../../Drivers/STM32H7xx_HAL_Driver/Src/stm32h7xx_ll_usb.c **** 
 1515              		.loc 1 660 3 view .LVU470
 660:../../Drivers/STM32H7xx_HAL_Driver/Src/stm32h7xx_ll_usb.c **** 
 1516              		.loc 1 660 32 is_stmt 0 view .LVU471
 1517 0002 0B78     		ldrb	r3, [r1]	@ zero_extendqisi2
 1518              	.LVL114:
 663:../../Drivers/STM32H7xx_HAL_Driver/Src/stm32h7xx_ll_usb.c ****   {
 1519              		.loc 1 663 3 is_stmt 1 view .LVU472
 663:../../Drivers/STM32H7xx_HAL_Driver/Src/stm32h7xx_ll_usb.c ****   {
 1520              		.loc 1 663 9 is_stmt 0 view .LVU473
 1521 0004 4A78     		ldrb	r2, [r1, #1]	@ zero_extendqisi2
 663:../../Drivers/STM32H7xx_HAL_Driver/Src/stm32h7xx_ll_usb.c ****   {
 1522              		.loc 1 663 6 view .LVU474
 1523 0006 012A     		cmp	r2, #1
 1524 0008 26D0     		beq	.L117
ARM GAS  C:\Users\gigig\AppData\Local\Temp\ccBJNrpK.s 			page 60


 681:../../Drivers/STM32H7xx_HAL_Driver/Src/stm32h7xx_ll_usb.c ****     {
 1525              		.loc 1 681 5 is_stmt 1 view .LVU475
 681:../../Drivers/STM32H7xx_HAL_Driver/Src/stm32h7xx_ll_usb.c ****     {
 1526              		.loc 1 681 10 is_stmt 0 view .LVU476
 1527 000a 00EB4313 		add	r3, r0, r3, lsl #5
 1528              	.LVL115:
 681:../../Drivers/STM32H7xx_HAL_Driver/Src/stm32h7xx_ll_usb.c ****     {
 1529              		.loc 1 681 27 view .LVU477
 1530 000e D3F8002B 		ldr	r2, [r3, #2816]
 681:../../Drivers/STM32H7xx_HAL_Driver/Src/stm32h7xx_ll_usb.c ****     {
 1531              		.loc 1 681 8 view .LVU478
 1532 0012 002A     		cmp	r2, #0
 1533 0014 52DB     		blt	.L118
 1534              	.LVL116:
 1535              	.L115:
 687:../../Drivers/STM32H7xx_HAL_Driver/Src/stm32h7xx_ll_usb.c ****     USBx_DEVICE->DAINTMSK &= ~(USB_OTG_DAINTMSK_OEPM & ((uint32_t)(1UL << (ep->num & EP_ADDR_MSK)) 
 1536              		.loc 1 687 5 is_stmt 1 view .LVU479
 687:../../Drivers/STM32H7xx_HAL_Driver/Src/stm32h7xx_ll_usb.c ****     USBx_DEVICE->DAINTMSK &= ~(USB_OTG_DAINTMSK_OEPM & ((uint32_t)(1UL << (ep->num & EP_ADDR_MSK)) 
 1537              		.loc 1 687 27 is_stmt 0 view .LVU480
 1538 0016 D0F83C48 		ldr	r4, [r0, #2108]
 687:../../Drivers/STM32H7xx_HAL_Driver/Src/stm32h7xx_ll_usb.c ****     USBx_DEVICE->DAINTMSK &= ~(USB_OTG_DAINTMSK_OEPM & ((uint32_t)(1UL << (ep->num & EP_ADDR_MSK)) 
 1539              		.loc 1 687 78 view .LVU481
 1540 001a 0A78     		ldrb	r2, [r1]	@ zero_extendqisi2
 687:../../Drivers/STM32H7xx_HAL_Driver/Src/stm32h7xx_ll_usb.c ****     USBx_DEVICE->DAINTMSK &= ~(USB_OTG_DAINTMSK_OEPM & ((uint32_t)(1UL << (ep->num & EP_ADDR_MSK)) 
 1541              		.loc 1 687 84 view .LVU482
 1542 001c 02F00F02 		and	r2, r2, #15
 687:../../Drivers/STM32H7xx_HAL_Driver/Src/stm32h7xx_ll_usb.c ****     USBx_DEVICE->DAINTMSK &= ~(USB_OTG_DAINTMSK_OEPM & ((uint32_t)(1UL << (ep->num & EP_ADDR_MSK)) 
 1543              		.loc 1 687 57 view .LVU483
 1544 0020 4FF0010C 		mov	ip, #1
 1545 0024 0CFA02F2 		lsl	r2, ip, r2
 687:../../Drivers/STM32H7xx_HAL_Driver/Src/stm32h7xx_ll_usb.c ****     USBx_DEVICE->DAINTMSK &= ~(USB_OTG_DAINTMSK_OEPM & ((uint32_t)(1UL << (ep->num & EP_ADDR_MSK)) 
 1546              		.loc 1 687 27 view .LVU484
 1547 0028 24EA0242 		bic	r2, r4, r2, lsl #16
 1548 002c C0F83C28 		str	r2, [r0, #2108]
 688:../../Drivers/STM32H7xx_HAL_Driver/Src/stm32h7xx_ll_usb.c ****     USBx_OUTEP(epnum)->DOEPCTL &= ~(USB_OTG_DOEPCTL_USBAEP |
 1549              		.loc 1 688 5 is_stmt 1 view .LVU485
 688:../../Drivers/STM32H7xx_HAL_Driver/Src/stm32h7xx_ll_usb.c ****     USBx_OUTEP(epnum)->DOEPCTL &= ~(USB_OTG_DOEPCTL_USBAEP |
 1550              		.loc 1 688 27 is_stmt 0 view .LVU486
 1551 0030 D0F81C28 		ldr	r2, [r0, #2076]
 688:../../Drivers/STM32H7xx_HAL_Driver/Src/stm32h7xx_ll_usb.c ****     USBx_OUTEP(epnum)->DOEPCTL &= ~(USB_OTG_DOEPCTL_USBAEP |
 1552              		.loc 1 688 78 view .LVU487
 1553 0034 0978     		ldrb	r1, [r1]	@ zero_extendqisi2
 1554              	.LVL117:
 688:../../Drivers/STM32H7xx_HAL_Driver/Src/stm32h7xx_ll_usb.c ****     USBx_OUTEP(epnum)->DOEPCTL &= ~(USB_OTG_DOEPCTL_USBAEP |
 1555              		.loc 1 688 84 view .LVU488
 1556 0036 01F00F01 		and	r1, r1, #15
 688:../../Drivers/STM32H7xx_HAL_Driver/Src/stm32h7xx_ll_usb.c ****     USBx_OUTEP(epnum)->DOEPCTL &= ~(USB_OTG_DOEPCTL_USBAEP |
 1557              		.loc 1 688 57 view .LVU489
 1558 003a 0CFA01FC 		lsl	ip, ip, r1
 688:../../Drivers/STM32H7xx_HAL_Driver/Src/stm32h7xx_ll_usb.c ****     USBx_OUTEP(epnum)->DOEPCTL &= ~(USB_OTG_DOEPCTL_USBAEP |
 1559              		.loc 1 688 27 view .LVU490
 1560 003e 22EA0C42 		bic	r2, r2, ip, lsl #16
 1561 0042 C0F81C28 		str	r2, [r0, #2076]
 689:../../Drivers/STM32H7xx_HAL_Driver/Src/stm32h7xx_ll_usb.c ****                                     USB_OTG_DOEPCTL_MPSIZ |
 1562              		.loc 1 689 5 is_stmt 1 view .LVU491
 689:../../Drivers/STM32H7xx_HAL_Driver/Src/stm32h7xx_ll_usb.c ****                                     USB_OTG_DOEPCTL_MPSIZ |
 1563              		.loc 1 689 32 is_stmt 0 view .LVU492
ARM GAS  C:\Users\gigig\AppData\Local\Temp\ccBJNrpK.s 			page 61


 1564 0046 D3F8001B 		ldr	r1, [r3, #2816]
 1565 004a 234A     		ldr	r2, .L120
 1566 004c 0A40     		ands	r2, r2, r1
 1567 004e C3F8002B 		str	r2, [r3, #2816]
 1568              	.L114:
 695:../../Drivers/STM32H7xx_HAL_Driver/Src/stm32h7xx_ll_usb.c **** }
 1569              		.loc 1 695 3 is_stmt 1 view .LVU493
 696:../../Drivers/STM32H7xx_HAL_Driver/Src/stm32h7xx_ll_usb.c **** 
 1570              		.loc 1 696 1 is_stmt 0 view .LVU494
 1571 0052 0020     		movs	r0, #0
 1572              	.LVL118:
 696:../../Drivers/STM32H7xx_HAL_Driver/Src/stm32h7xx_ll_usb.c **** 
 1573              		.loc 1 696 1 view .LVU495
 1574 0054 30BC     		pop	{r4, r5}
 1575              	.LCFI24:
 1576              		.cfi_remember_state
 1577              		.cfi_restore 5
 1578              		.cfi_restore 4
 1579              		.cfi_def_cfa_offset 0
 1580 0056 7047     		bx	lr
 1581              	.LVL119:
 1582              	.L117:
 1583              	.LCFI25:
 1584              		.cfi_restore_state
 665:../../Drivers/STM32H7xx_HAL_Driver/Src/stm32h7xx_ll_usb.c ****     {
 1585              		.loc 1 665 5 is_stmt 1 view .LVU496
 665:../../Drivers/STM32H7xx_HAL_Driver/Src/stm32h7xx_ll_usb.c ****     {
 1586              		.loc 1 665 10 is_stmt 0 view .LVU497
 1587 0058 00EB4313 		add	r3, r0, r3, lsl #5
 1588              	.LVL120:
 665:../../Drivers/STM32H7xx_HAL_Driver/Src/stm32h7xx_ll_usb.c ****     {
 1589              		.loc 1 665 26 view .LVU498
 1590 005c D3F80029 		ldr	r2, [r3, #2304]
 665:../../Drivers/STM32H7xx_HAL_Driver/Src/stm32h7xx_ll_usb.c ****     {
 1591              		.loc 1 665 8 view .LVU499
 1592 0060 002A     		cmp	r2, #0
 1593 0062 1EDB     		blt	.L119
 1594              	.LVL121:
 1595              	.L113:
 671:../../Drivers/STM32H7xx_HAL_Driver/Src/stm32h7xx_ll_usb.c ****     USBx_DEVICE->DAINTMSK &= ~(USB_OTG_DAINTMSK_IEPM & (uint32_t)(1UL << (ep->num & EP_ADDR_MSK)));
 1596              		.loc 1 671 5 is_stmt 1 view .LVU500
 671:../../Drivers/STM32H7xx_HAL_Driver/Src/stm32h7xx_ll_usb.c ****     USBx_DEVICE->DAINTMSK &= ~(USB_OTG_DAINTMSK_IEPM & (uint32_t)(1UL << (ep->num & EP_ADDR_MSK)));
 1597              		.loc 1 671 27 is_stmt 0 view .LVU501
 1598 0064 D0F83C58 		ldr	r5, [r0, #2108]
 671:../../Drivers/STM32H7xx_HAL_Driver/Src/stm32h7xx_ll_usb.c ****     USBx_DEVICE->DAINTMSK &= ~(USB_OTG_DAINTMSK_IEPM & (uint32_t)(1UL << (ep->num & EP_ADDR_MSK)));
 1599              		.loc 1 671 77 view .LVU502
 1600 0068 0A78     		ldrb	r2, [r1]	@ zero_extendqisi2
 671:../../Drivers/STM32H7xx_HAL_Driver/Src/stm32h7xx_ll_usb.c ****     USBx_DEVICE->DAINTMSK &= ~(USB_OTG_DAINTMSK_IEPM & (uint32_t)(1UL << (ep->num & EP_ADDR_MSK)));
 1601              		.loc 1 671 83 view .LVU503
 1602 006a 02F00F02 		and	r2, r2, #15
 671:../../Drivers/STM32H7xx_HAL_Driver/Src/stm32h7xx_ll_usb.c ****     USBx_DEVICE->DAINTMSK &= ~(USB_OTG_DAINTMSK_IEPM & (uint32_t)(1UL << (ep->num & EP_ADDR_MSK)));
 1603              		.loc 1 671 56 view .LVU504
 1604 006e 0124     		movs	r4, #1
 1605 0070 04FA02F2 		lsl	r2, r4, r2
 671:../../Drivers/STM32H7xx_HAL_Driver/Src/stm32h7xx_ll_usb.c ****     USBx_DEVICE->DAINTMSK &= ~(USB_OTG_DAINTMSK_IEPM & (uint32_t)(1UL << (ep->num & EP_ADDR_MSK)));
 1606              		.loc 1 671 54 view .LVU505
 1607 0074 92B2     		uxth	r2, r2
ARM GAS  C:\Users\gigig\AppData\Local\Temp\ccBJNrpK.s 			page 62


 671:../../Drivers/STM32H7xx_HAL_Driver/Src/stm32h7xx_ll_usb.c ****     USBx_DEVICE->DAINTMSK &= ~(USB_OTG_DAINTMSK_IEPM & (uint32_t)(1UL << (ep->num & EP_ADDR_MSK)));
 1608              		.loc 1 671 27 view .LVU506
 1609 0076 25EA0202 		bic	r2, r5, r2
 1610 007a C0F83C28 		str	r2, [r0, #2108]
 672:../../Drivers/STM32H7xx_HAL_Driver/Src/stm32h7xx_ll_usb.c ****     USBx_INEP(epnum)->DIEPCTL &= ~(USB_OTG_DIEPCTL_USBAEP |
 1611              		.loc 1 672 5 is_stmt 1 view .LVU507
 672:../../Drivers/STM32H7xx_HAL_Driver/Src/stm32h7xx_ll_usb.c ****     USBx_INEP(epnum)->DIEPCTL &= ~(USB_OTG_DIEPCTL_USBAEP |
 1612              		.loc 1 672 27 is_stmt 0 view .LVU508
 1613 007e D0F81C28 		ldr	r2, [r0, #2076]
 672:../../Drivers/STM32H7xx_HAL_Driver/Src/stm32h7xx_ll_usb.c ****     USBx_INEP(epnum)->DIEPCTL &= ~(USB_OTG_DIEPCTL_USBAEP |
 1614              		.loc 1 672 77 view .LVU509
 1615 0082 0978     		ldrb	r1, [r1]	@ zero_extendqisi2
 1616              	.LVL122:
 672:../../Drivers/STM32H7xx_HAL_Driver/Src/stm32h7xx_ll_usb.c ****     USBx_INEP(epnum)->DIEPCTL &= ~(USB_OTG_DIEPCTL_USBAEP |
 1617              		.loc 1 672 83 view .LVU510
 1618 0084 01F00F01 		and	r1, r1, #15
 672:../../Drivers/STM32H7xx_HAL_Driver/Src/stm32h7xx_ll_usb.c ****     USBx_INEP(epnum)->DIEPCTL &= ~(USB_OTG_DIEPCTL_USBAEP |
 1619              		.loc 1 672 56 view .LVU511
 1620 0088 8C40     		lsls	r4, r4, r1
 672:../../Drivers/STM32H7xx_HAL_Driver/Src/stm32h7xx_ll_usb.c ****     USBx_INEP(epnum)->DIEPCTL &= ~(USB_OTG_DIEPCTL_USBAEP |
 1621              		.loc 1 672 54 view .LVU512
 1622 008a A4B2     		uxth	r4, r4
 672:../../Drivers/STM32H7xx_HAL_Driver/Src/stm32h7xx_ll_usb.c ****     USBx_INEP(epnum)->DIEPCTL &= ~(USB_OTG_DIEPCTL_USBAEP |
 1623              		.loc 1 672 27 view .LVU513
 1624 008c 22EA0404 		bic	r4, r2, r4
 1625 0090 C0F81C48 		str	r4, [r0, #2076]
 673:../../Drivers/STM32H7xx_HAL_Driver/Src/stm32h7xx_ll_usb.c ****                                    USB_OTG_DIEPCTL_MPSIZ |
 1626              		.loc 1 673 5 is_stmt 1 view .LVU514
 673:../../Drivers/STM32H7xx_HAL_Driver/Src/stm32h7xx_ll_usb.c ****                                    USB_OTG_DIEPCTL_MPSIZ |
 1627              		.loc 1 673 31 is_stmt 0 view .LVU515
 1628 0094 D3F80019 		ldr	r1, [r3, #2304]
 1629 0098 104A     		ldr	r2, .L120+4
 1630 009a 0A40     		ands	r2, r2, r1
 1631 009c C3F80029 		str	r2, [r3, #2304]
 1632 00a0 D7E7     		b	.L114
 1633              	.LVL123:
 1634              	.L119:
 667:../../Drivers/STM32H7xx_HAL_Driver/Src/stm32h7xx_ll_usb.c ****       USBx_INEP(epnum)->DIEPCTL |= USB_OTG_DIEPCTL_EPDIS;
 1635              		.loc 1 667 7 is_stmt 1 view .LVU516
 667:../../Drivers/STM32H7xx_HAL_Driver/Src/stm32h7xx_ll_usb.c ****       USBx_INEP(epnum)->DIEPCTL |= USB_OTG_DIEPCTL_EPDIS;
 1636              		.loc 1 667 33 is_stmt 0 view .LVU517
 1637 00a2 D3F80029 		ldr	r2, [r3, #2304]
 1638 00a6 42F00062 		orr	r2, r2, #134217728
 1639 00aa C3F80029 		str	r2, [r3, #2304]
 1640              	.LVL124:
 668:../../Drivers/STM32H7xx_HAL_Driver/Src/stm32h7xx_ll_usb.c ****     }
 1641              		.loc 1 668 7 is_stmt 1 view .LVU518
 668:../../Drivers/STM32H7xx_HAL_Driver/Src/stm32h7xx_ll_usb.c ****     }
 1642              		.loc 1 668 33 is_stmt 0 view .LVU519
 1643 00ae D3F80029 		ldr	r2, [r3, #2304]
 1644 00b2 42F08042 		orr	r2, r2, #1073741824
 1645 00b6 C3F80029 		str	r2, [r3, #2304]
 1646 00ba D3E7     		b	.L113
 1647              	.LVL125:
 1648              	.L118:
 683:../../Drivers/STM32H7xx_HAL_Driver/Src/stm32h7xx_ll_usb.c ****       USBx_OUTEP(epnum)->DOEPCTL |= USB_OTG_DOEPCTL_EPDIS;
 1649              		.loc 1 683 7 is_stmt 1 view .LVU520
ARM GAS  C:\Users\gigig\AppData\Local\Temp\ccBJNrpK.s 			page 63


 683:../../Drivers/STM32H7xx_HAL_Driver/Src/stm32h7xx_ll_usb.c ****       USBx_OUTEP(epnum)->DOEPCTL |= USB_OTG_DOEPCTL_EPDIS;
 1650              		.loc 1 683 34 is_stmt 0 view .LVU521
 1651 00bc D3F8002B 		ldr	r2, [r3, #2816]
 1652 00c0 42F00062 		orr	r2, r2, #134217728
 1653 00c4 C3F8002B 		str	r2, [r3, #2816]
 1654              	.LVL126:
 684:../../Drivers/STM32H7xx_HAL_Driver/Src/stm32h7xx_ll_usb.c ****     }
 1655              		.loc 1 684 7 is_stmt 1 view .LVU522
 684:../../Drivers/STM32H7xx_HAL_Driver/Src/stm32h7xx_ll_usb.c ****     }
 1656              		.loc 1 684 34 is_stmt 0 view .LVU523
 1657 00c8 D3F8002B 		ldr	r2, [r3, #2816]
 1658 00cc 42F08042 		orr	r2, r2, #1073741824
 1659 00d0 C3F8002B 		str	r2, [r3, #2816]
 1660 00d4 9FE7     		b	.L115
 1661              	.L121:
 1662 00d6 00BF     		.align	2
 1663              	.L120:
 1664 00d8 0078F3EF 		.word	-269256704
 1665 00dc 007833EC 		.word	-332171264
 1666              		.cfi_endproc
 1667              	.LFE156:
 1669              		.section	.text.USB_DeactivateDedicatedEndpoint,"ax",%progbits
 1670              		.align	1
 1671              		.global	USB_DeactivateDedicatedEndpoint
 1672              		.syntax unified
 1673              		.thumb
 1674              		.thumb_func
 1676              	USB_DeactivateDedicatedEndpoint:
 1677              	.LVL127:
 1678              	.LFB157:
 705:../../Drivers/STM32H7xx_HAL_Driver/Src/stm32h7xx_ll_usb.c ****   uint32_t USBx_BASE = (uint32_t)USBx;
 1679              		.loc 1 705 1 is_stmt 1 view -0
 1680              		.cfi_startproc
 1681              		@ args = 0, pretend = 0, frame = 0
 1682              		@ frame_needed = 0, uses_anonymous_args = 0
 1683              		@ link register save eliminated.
 706:../../Drivers/STM32H7xx_HAL_Driver/Src/stm32h7xx_ll_usb.c ****   uint32_t epnum = (uint32_t)ep->num;
 1684              		.loc 1 706 3 view .LVU525
 707:../../Drivers/STM32H7xx_HAL_Driver/Src/stm32h7xx_ll_usb.c **** 
 1685              		.loc 1 707 3 view .LVU526
 707:../../Drivers/STM32H7xx_HAL_Driver/Src/stm32h7xx_ll_usb.c **** 
 1686              		.loc 1 707 32 is_stmt 0 view .LVU527
 1687 0000 0B78     		ldrb	r3, [r1]	@ zero_extendqisi2
 1688              	.LVL128:
 710:../../Drivers/STM32H7xx_HAL_Driver/Src/stm32h7xx_ll_usb.c ****   {
 1689              		.loc 1 710 3 is_stmt 1 view .LVU528
 710:../../Drivers/STM32H7xx_HAL_Driver/Src/stm32h7xx_ll_usb.c ****   {
 1690              		.loc 1 710 9 is_stmt 0 view .LVU529
 1691 0002 4A78     		ldrb	r2, [r1, #1]	@ zero_extendqisi2
 710:../../Drivers/STM32H7xx_HAL_Driver/Src/stm32h7xx_ll_usb.c ****   {
 1692              		.loc 1 710 6 view .LVU530
 1693 0004 012A     		cmp	r2, #1
 1694 0006 18D0     		beq	.L127
 723:../../Drivers/STM32H7xx_HAL_Driver/Src/stm32h7xx_ll_usb.c ****     {
 1695              		.loc 1 723 5 is_stmt 1 view .LVU531
 723:../../Drivers/STM32H7xx_HAL_Driver/Src/stm32h7xx_ll_usb.c ****     {
 1696              		.loc 1 723 10 is_stmt 0 view .LVU532
ARM GAS  C:\Users\gigig\AppData\Local\Temp\ccBJNrpK.s 			page 64


 1697 0008 00EB4313 		add	r3, r0, r3, lsl #5
 1698              	.LVL129:
 723:../../Drivers/STM32H7xx_HAL_Driver/Src/stm32h7xx_ll_usb.c ****     {
 1699              		.loc 1 723 27 view .LVU533
 1700 000c D3F8002B 		ldr	r2, [r3, #2816]
 723:../../Drivers/STM32H7xx_HAL_Driver/Src/stm32h7xx_ll_usb.c ****     {
 1701              		.loc 1 723 8 view .LVU534
 1702 0010 002A     		cmp	r2, #0
 1703 0012 38DB     		blt	.L128
 1704              	.LVL130:
 1705              	.L126:
 729:../../Drivers/STM32H7xx_HAL_Driver/Src/stm32h7xx_ll_usb.c ****     USBx_DEVICE->DAINTMSK &= ~(USB_OTG_DAINTMSK_OEPM & ((uint32_t)(1UL << (ep->num & EP_ADDR_MSK)) 
 1706              		.loc 1 729 5 is_stmt 1 view .LVU535
 729:../../Drivers/STM32H7xx_HAL_Driver/Src/stm32h7xx_ll_usb.c ****     USBx_DEVICE->DAINTMSK &= ~(USB_OTG_DAINTMSK_OEPM & ((uint32_t)(1UL << (ep->num & EP_ADDR_MSK)) 
 1707              		.loc 1 729 32 is_stmt 0 view .LVU536
 1708 0014 D3F8002B 		ldr	r2, [r3, #2816]
 1709 0018 22F40042 		bic	r2, r2, #32768
 1710 001c C3F8002B 		str	r2, [r3, #2816]
 730:../../Drivers/STM32H7xx_HAL_Driver/Src/stm32h7xx_ll_usb.c ****   }
 1711              		.loc 1 730 5 is_stmt 1 view .LVU537
 730:../../Drivers/STM32H7xx_HAL_Driver/Src/stm32h7xx_ll_usb.c ****   }
 1712              		.loc 1 730 27 is_stmt 0 view .LVU538
 1713 0020 D0F81C38 		ldr	r3, [r0, #2076]
 730:../../Drivers/STM32H7xx_HAL_Driver/Src/stm32h7xx_ll_usb.c ****   }
 1714              		.loc 1 730 78 view .LVU539
 1715 0024 0A78     		ldrb	r2, [r1]	@ zero_extendqisi2
 730:../../Drivers/STM32H7xx_HAL_Driver/Src/stm32h7xx_ll_usb.c ****   }
 1716              		.loc 1 730 84 view .LVU540
 1717 0026 02F00F01 		and	r1, r2, #15
 1718              	.LVL131:
 730:../../Drivers/STM32H7xx_HAL_Driver/Src/stm32h7xx_ll_usb.c ****   }
 1719              		.loc 1 730 57 view .LVU541
 1720 002a 0122     		movs	r2, #1
 1721 002c 8A40     		lsls	r2, r2, r1
 730:../../Drivers/STM32H7xx_HAL_Driver/Src/stm32h7xx_ll_usb.c ****   }
 1722              		.loc 1 730 27 view .LVU542
 1723 002e 23EA0243 		bic	r3, r3, r2, lsl #16
 1724 0032 C0F81C38 		str	r3, [r0, #2076]
 1725              	.L125:
 733:../../Drivers/STM32H7xx_HAL_Driver/Src/stm32h7xx_ll_usb.c **** }
 1726              		.loc 1 733 3 is_stmt 1 view .LVU543
 734:../../Drivers/STM32H7xx_HAL_Driver/Src/stm32h7xx_ll_usb.c **** 
 1727              		.loc 1 734 1 is_stmt 0 view .LVU544
 1728 0036 0020     		movs	r0, #0
 1729              	.LVL132:
 734:../../Drivers/STM32H7xx_HAL_Driver/Src/stm32h7xx_ll_usb.c **** 
 1730              		.loc 1 734 1 view .LVU545
 1731 0038 7047     		bx	lr
 1732              	.LVL133:
 1733              	.L127:
 712:../../Drivers/STM32H7xx_HAL_Driver/Src/stm32h7xx_ll_usb.c ****     {
 1734              		.loc 1 712 5 is_stmt 1 view .LVU546
 712:../../Drivers/STM32H7xx_HAL_Driver/Src/stm32h7xx_ll_usb.c ****     {
 1735              		.loc 1 712 10 is_stmt 0 view .LVU547
 1736 003a 00EB4313 		add	r3, r0, r3, lsl #5
 1737              	.LVL134:
 712:../../Drivers/STM32H7xx_HAL_Driver/Src/stm32h7xx_ll_usb.c ****     {
ARM GAS  C:\Users\gigig\AppData\Local\Temp\ccBJNrpK.s 			page 65


 1738              		.loc 1 712 26 view .LVU548
 1739 003e D3F80029 		ldr	r2, [r3, #2304]
 712:../../Drivers/STM32H7xx_HAL_Driver/Src/stm32h7xx_ll_usb.c ****     {
 1740              		.loc 1 712 8 view .LVU549
 1741 0042 002A     		cmp	r2, #0
 1742 0044 12DB     		blt	.L129
 1743              	.LVL135:
 1744              	.L124:
 718:../../Drivers/STM32H7xx_HAL_Driver/Src/stm32h7xx_ll_usb.c ****     USBx_DEVICE->DAINTMSK &= ~(USB_OTG_DAINTMSK_IEPM & (uint32_t)(1UL << (ep->num & EP_ADDR_MSK)));
 1745              		.loc 1 718 5 is_stmt 1 view .LVU550
 718:../../Drivers/STM32H7xx_HAL_Driver/Src/stm32h7xx_ll_usb.c ****     USBx_DEVICE->DAINTMSK &= ~(USB_OTG_DAINTMSK_IEPM & (uint32_t)(1UL << (ep->num & EP_ADDR_MSK)));
 1746              		.loc 1 718 31 is_stmt 0 view .LVU551
 1747 0046 D3F80029 		ldr	r2, [r3, #2304]
 1748 004a 22F40042 		bic	r2, r2, #32768
 1749 004e C3F80029 		str	r2, [r3, #2304]
 719:../../Drivers/STM32H7xx_HAL_Driver/Src/stm32h7xx_ll_usb.c ****   }
 1750              		.loc 1 719 5 is_stmt 1 view .LVU552
 719:../../Drivers/STM32H7xx_HAL_Driver/Src/stm32h7xx_ll_usb.c ****   }
 1751              		.loc 1 719 27 is_stmt 0 view .LVU553
 1752 0052 D0F81C28 		ldr	r2, [r0, #2076]
 719:../../Drivers/STM32H7xx_HAL_Driver/Src/stm32h7xx_ll_usb.c ****   }
 1753              		.loc 1 719 77 view .LVU554
 1754 0056 0B78     		ldrb	r3, [r1]	@ zero_extendqisi2
 719:../../Drivers/STM32H7xx_HAL_Driver/Src/stm32h7xx_ll_usb.c ****   }
 1755              		.loc 1 719 83 view .LVU555
 1756 0058 03F00F01 		and	r1, r3, #15
 1757              	.LVL136:
 719:../../Drivers/STM32H7xx_HAL_Driver/Src/stm32h7xx_ll_usb.c ****   }
 1758              		.loc 1 719 56 view .LVU556
 1759 005c 0123     		movs	r3, #1
 1760 005e 8B40     		lsls	r3, r3, r1
 719:../../Drivers/STM32H7xx_HAL_Driver/Src/stm32h7xx_ll_usb.c ****   }
 1761              		.loc 1 719 54 view .LVU557
 1762 0060 9BB2     		uxth	r3, r3
 719:../../Drivers/STM32H7xx_HAL_Driver/Src/stm32h7xx_ll_usb.c ****   }
 1763              		.loc 1 719 27 view .LVU558
 1764 0062 22EA0303 		bic	r3, r2, r3
 1765 0066 C0F81C38 		str	r3, [r0, #2076]
 1766 006a E4E7     		b	.L125
 1767              	.LVL137:
 1768              	.L129:
 714:../../Drivers/STM32H7xx_HAL_Driver/Src/stm32h7xx_ll_usb.c ****       USBx_INEP(epnum)->DIEPCTL  |= USB_OTG_DIEPCTL_EPDIS;
 1769              		.loc 1 714 7 is_stmt 1 view .LVU559
 714:../../Drivers/STM32H7xx_HAL_Driver/Src/stm32h7xx_ll_usb.c ****       USBx_INEP(epnum)->DIEPCTL  |= USB_OTG_DIEPCTL_EPDIS;
 1770              		.loc 1 714 34 is_stmt 0 view .LVU560
 1771 006c D3F80029 		ldr	r2, [r3, #2304]
 1772 0070 42F00062 		orr	r2, r2, #134217728
 1773 0074 C3F80029 		str	r2, [r3, #2304]
 1774              	.LVL138:
 715:../../Drivers/STM32H7xx_HAL_Driver/Src/stm32h7xx_ll_usb.c ****     }
 1775              		.loc 1 715 7 is_stmt 1 view .LVU561
 715:../../Drivers/STM32H7xx_HAL_Driver/Src/stm32h7xx_ll_usb.c ****     }
 1776              		.loc 1 715 34 is_stmt 0 view .LVU562
 1777 0078 D3F80029 		ldr	r2, [r3, #2304]
 1778 007c 42F08042 		orr	r2, r2, #1073741824
 1779 0080 C3F80029 		str	r2, [r3, #2304]
 1780 0084 DFE7     		b	.L124
ARM GAS  C:\Users\gigig\AppData\Local\Temp\ccBJNrpK.s 			page 66


 1781              	.LVL139:
 1782              	.L128:
 725:../../Drivers/STM32H7xx_HAL_Driver/Src/stm32h7xx_ll_usb.c ****       USBx_OUTEP(epnum)->DOEPCTL  |= USB_OTG_DOEPCTL_EPDIS;
 1783              		.loc 1 725 7 is_stmt 1 view .LVU563
 725:../../Drivers/STM32H7xx_HAL_Driver/Src/stm32h7xx_ll_usb.c ****       USBx_OUTEP(epnum)->DOEPCTL  |= USB_OTG_DOEPCTL_EPDIS;
 1784              		.loc 1 725 35 is_stmt 0 view .LVU564
 1785 0086 D3F8002B 		ldr	r2, [r3, #2816]
 1786 008a 42F00062 		orr	r2, r2, #134217728
 1787 008e C3F8002B 		str	r2, [r3, #2816]
 1788              	.LVL140:
 726:../../Drivers/STM32H7xx_HAL_Driver/Src/stm32h7xx_ll_usb.c ****     }
 1789              		.loc 1 726 7 is_stmt 1 view .LVU565
 726:../../Drivers/STM32H7xx_HAL_Driver/Src/stm32h7xx_ll_usb.c ****     }
 1790              		.loc 1 726 35 is_stmt 0 view .LVU566
 1791 0092 D3F8002B 		ldr	r2, [r3, #2816]
 1792 0096 42F08042 		orr	r2, r2, #1073741824
 1793 009a C3F8002B 		str	r2, [r3, #2816]
 1794 009e B9E7     		b	.L126
 1795              		.cfi_endproc
 1796              	.LFE157:
 1798              		.section	.text.USB_EPStopXfer,"ax",%progbits
 1799              		.align	1
 1800              		.global	USB_EPStopXfer
 1801              		.syntax unified
 1802              		.thumb
 1803              		.thumb_func
 1805              	USB_EPStopXfer:
 1806              	.LVL141:
 1807              	.LFB159:
 919:../../Drivers/STM32H7xx_HAL_Driver/Src/stm32h7xx_ll_usb.c ****   __IO uint32_t count = 0U;
 1808              		.loc 1 919 1 is_stmt 1 view -0
 1809              		.cfi_startproc
 1810              		@ args = 0, pretend = 0, frame = 8
 1811              		@ frame_needed = 0, uses_anonymous_args = 0
 1812              		@ link register save eliminated.
 919:../../Drivers/STM32H7xx_HAL_Driver/Src/stm32h7xx_ll_usb.c ****   __IO uint32_t count = 0U;
 1813              		.loc 1 919 1 is_stmt 0 view .LVU568
 1814 0000 10B4     		push	{r4}
 1815              	.LCFI26:
 1816              		.cfi_def_cfa_offset 4
 1817              		.cfi_offset 4, -4
 1818 0002 83B0     		sub	sp, sp, #12
 1819              	.LCFI27:
 1820              		.cfi_def_cfa_offset 16
 1821 0004 0246     		mov	r2, r0
 920:../../Drivers/STM32H7xx_HAL_Driver/Src/stm32h7xx_ll_usb.c ****   HAL_StatusTypeDef ret = HAL_OK;
 1822              		.loc 1 920 3 is_stmt 1 view .LVU569
 920:../../Drivers/STM32H7xx_HAL_Driver/Src/stm32h7xx_ll_usb.c ****   HAL_StatusTypeDef ret = HAL_OK;
 1823              		.loc 1 920 17 is_stmt 0 view .LVU570
 1824 0006 0023     		movs	r3, #0
 1825 0008 0193     		str	r3, [sp, #4]
 921:../../Drivers/STM32H7xx_HAL_Driver/Src/stm32h7xx_ll_usb.c ****   uint32_t USBx_BASE = (uint32_t)USBx;
 1826              		.loc 1 921 3 is_stmt 1 view .LVU571
 1827              	.LVL142:
 922:../../Drivers/STM32H7xx_HAL_Driver/Src/stm32h7xx_ll_usb.c **** 
 1828              		.loc 1 922 3 view .LVU572
 925:../../Drivers/STM32H7xx_HAL_Driver/Src/stm32h7xx_ll_usb.c ****   {
ARM GAS  C:\Users\gigig\AppData\Local\Temp\ccBJNrpK.s 			page 67


 1829              		.loc 1 925 3 view .LVU573
 925:../../Drivers/STM32H7xx_HAL_Driver/Src/stm32h7xx_ll_usb.c ****   {
 1830              		.loc 1 925 9 is_stmt 0 view .LVU574
 1831 000a 4878     		ldrb	r0, [r1, #1]	@ zero_extendqisi2
 1832              	.LVL143:
 925:../../Drivers/STM32H7xx_HAL_Driver/Src/stm32h7xx_ll_usb.c ****   {
 1833              		.loc 1 925 6 view .LVU575
 1834 000c 0128     		cmp	r0, #1
 1835 000e 0BD0     		beq	.L139
 947:../../Drivers/STM32H7xx_HAL_Driver/Src/stm32h7xx_ll_usb.c ****     {
 1836              		.loc 1 947 5 is_stmt 1 view .LVU576
 947:../../Drivers/STM32H7xx_HAL_Driver/Src/stm32h7xx_ll_usb.c ****     {
 1837              		.loc 1 947 11 is_stmt 0 view .LVU577
 1838 0010 0B78     		ldrb	r3, [r1]	@ zero_extendqisi2
 1839 0012 02EB4313 		add	r3, r2, r3, lsl #5
 947:../../Drivers/STM32H7xx_HAL_Driver/Src/stm32h7xx_ll_usb.c ****     {
 1840              		.loc 1 947 30 view .LVU578
 1841 0016 D3F8000B 		ldr	r0, [r3, #2816]
 947:../../Drivers/STM32H7xx_HAL_Driver/Src/stm32h7xx_ll_usb.c ****     {
 1842              		.loc 1 947 8 view .LVU579
 1843 001a 0028     		cmp	r0, #0
 1844 001c 2DDB     		blt	.L140
 921:../../Drivers/STM32H7xx_HAL_Driver/Src/stm32h7xx_ll_usb.c ****   uint32_t USBx_BASE = (uint32_t)USBx;
 1845              		.loc 1 921 21 view .LVU580
 1846 001e 0020     		movs	r0, #0
 1847              	.L132:
 1848              	.LVL144:
 965:../../Drivers/STM32H7xx_HAL_Driver/Src/stm32h7xx_ll_usb.c **** }
 1849              		.loc 1 965 3 is_stmt 1 view .LVU581
 966:../../Drivers/STM32H7xx_HAL_Driver/Src/stm32h7xx_ll_usb.c **** 
 1850              		.loc 1 966 1 is_stmt 0 view .LVU582
 1851 0020 03B0     		add	sp, sp, #12
 1852              	.LCFI28:
 1853              		.cfi_remember_state
 1854              		.cfi_def_cfa_offset 4
 1855              		@ sp needed
 1856 0022 5DF8044B 		ldr	r4, [sp], #4
 1857              	.LCFI29:
 1858              		.cfi_restore 4
 1859              		.cfi_def_cfa_offset 0
 1860 0026 7047     		bx	lr
 1861              	.LVL145:
 1862              	.L139:
 1863              	.LCFI30:
 1864              		.cfi_restore_state
 928:../../Drivers/STM32H7xx_HAL_Driver/Src/stm32h7xx_ll_usb.c ****     {
 1865              		.loc 1 928 5 is_stmt 1 view .LVU583
 928:../../Drivers/STM32H7xx_HAL_Driver/Src/stm32h7xx_ll_usb.c ****     {
 1866              		.loc 1 928 11 is_stmt 0 view .LVU584
 1867 0028 0B78     		ldrb	r3, [r1]	@ zero_extendqisi2
 1868 002a 02EB4313 		add	r3, r2, r3, lsl #5
 928:../../Drivers/STM32H7xx_HAL_Driver/Src/stm32h7xx_ll_usb.c ****     {
 1869              		.loc 1 928 29 view .LVU585
 1870 002e D3F80049 		ldr	r4, [r3, #2304]
 928:../../Drivers/STM32H7xx_HAL_Driver/Src/stm32h7xx_ll_usb.c ****     {
 1871              		.loc 1 928 8 view .LVU586
 1872 0032 002C     		cmp	r4, #0
ARM GAS  C:\Users\gigig\AppData\Local\Temp\ccBJNrpK.s 			page 68


 1873 0034 01DB     		blt	.L141
 921:../../Drivers/STM32H7xx_HAL_Driver/Src/stm32h7xx_ll_usb.c ****   uint32_t USBx_BASE = (uint32_t)USBx;
 1874              		.loc 1 921 21 view .LVU587
 1875 0036 0020     		movs	r0, #0
 1876 0038 F2E7     		b	.L132
 1877              	.L141:
 930:../../Drivers/STM32H7xx_HAL_Driver/Src/stm32h7xx_ll_usb.c ****       USBx_INEP(ep->num)->DIEPCTL |= (USB_OTG_DIEPCTL_EPDIS);
 1878              		.loc 1 930 7 is_stmt 1 view .LVU588
 930:../../Drivers/STM32H7xx_HAL_Driver/Src/stm32h7xx_ll_usb.c ****       USBx_INEP(ep->num)->DIEPCTL |= (USB_OTG_DIEPCTL_EPDIS);
 1879              		.loc 1 930 35 is_stmt 0 view .LVU589
 1880 003a D3F80049 		ldr	r4, [r3, #2304]
 1881 003e 44F00064 		orr	r4, r4, #134217728
 1882 0042 C3F80049 		str	r4, [r3, #2304]
 931:../../Drivers/STM32H7xx_HAL_Driver/Src/stm32h7xx_ll_usb.c **** 
 1883              		.loc 1 931 7 is_stmt 1 view .LVU590
 1884 0046 0B78     		ldrb	r3, [r1]	@ zero_extendqisi2
 931:../../Drivers/STM32H7xx_HAL_Driver/Src/stm32h7xx_ll_usb.c **** 
 1885              		.loc 1 931 35 is_stmt 0 view .LVU591
 1886 0048 02EB4313 		add	r3, r2, r3, lsl #5
 1887 004c D3F80049 		ldr	r4, [r3, #2304]
 1888 0050 44F08044 		orr	r4, r4, #1073741824
 1889 0054 C3F80049 		str	r4, [r3, #2304]
 1890              	.L133:
 933:../../Drivers/STM32H7xx_HAL_Driver/Src/stm32h7xx_ll_usb.c ****       {
 1891              		.loc 1 933 7 is_stmt 1 view .LVU592
 935:../../Drivers/STM32H7xx_HAL_Driver/Src/stm32h7xx_ll_usb.c **** 
 1892              		.loc 1 935 9 view .LVU593
 935:../../Drivers/STM32H7xx_HAL_Driver/Src/stm32h7xx_ll_usb.c **** 
 1893              		.loc 1 935 14 is_stmt 0 view .LVU594
 1894 0058 019B     		ldr	r3, [sp, #4]
 1895 005a 0133     		adds	r3, r3, #1
 1896 005c 0193     		str	r3, [sp, #4]
 937:../../Drivers/STM32H7xx_HAL_Driver/Src/stm32h7xx_ll_usb.c ****         {
 1897              		.loc 1 937 9 is_stmt 1 view .LVU595
 937:../../Drivers/STM32H7xx_HAL_Driver/Src/stm32h7xx_ll_usb.c ****         {
 1898              		.loc 1 937 19 is_stmt 0 view .LVU596
 1899 005e 019C     		ldr	r4, [sp, #4]
 937:../../Drivers/STM32H7xx_HAL_Driver/Src/stm32h7xx_ll_usb.c ****         {
 1900              		.loc 1 937 12 view .LVU597
 1901 0060 42F21073 		movw	r3, #10000
 1902 0064 9C42     		cmp	r4, r3
 1903 0066 DBD8     		bhi	.L132
 942:../../Drivers/STM32H7xx_HAL_Driver/Src/stm32h7xx_ll_usb.c ****     }
 1904              		.loc 1 942 15 is_stmt 1 view .LVU598
 942:../../Drivers/STM32H7xx_HAL_Driver/Src/stm32h7xx_ll_usb.c ****     }
 1905              		.loc 1 942 18 is_stmt 0 view .LVU599
 1906 0068 0B78     		ldrb	r3, [r1]	@ zero_extendqisi2
 1907 006a 02EB4313 		add	r3, r2, r3, lsl #5
 942:../../Drivers/STM32H7xx_HAL_Driver/Src/stm32h7xx_ll_usb.c ****     }
 1908              		.loc 1 942 36 view .LVU600
 1909 006e D3F80039 		ldr	r3, [r3, #2304]
 942:../../Drivers/STM32H7xx_HAL_Driver/Src/stm32h7xx_ll_usb.c ****     }
 1910              		.loc 1 942 7 view .LVU601
 1911 0072 002B     		cmp	r3, #0
 1912 0074 F0DB     		blt	.L133
 921:../../Drivers/STM32H7xx_HAL_Driver/Src/stm32h7xx_ll_usb.c ****   uint32_t USBx_BASE = (uint32_t)USBx;
 1913              		.loc 1 921 21 view .LVU602
ARM GAS  C:\Users\gigig\AppData\Local\Temp\ccBJNrpK.s 			page 69


 1914 0076 0020     		movs	r0, #0
 1915 0078 D2E7     		b	.L132
 1916              	.L140:
 949:../../Drivers/STM32H7xx_HAL_Driver/Src/stm32h7xx_ll_usb.c ****       USBx_OUTEP(ep->num)->DOEPCTL |= (USB_OTG_DOEPCTL_EPDIS);
 1917              		.loc 1 949 7 is_stmt 1 view .LVU603
 949:../../Drivers/STM32H7xx_HAL_Driver/Src/stm32h7xx_ll_usb.c ****       USBx_OUTEP(ep->num)->DOEPCTL |= (USB_OTG_DOEPCTL_EPDIS);
 1918              		.loc 1 949 36 is_stmt 0 view .LVU604
 1919 007a D3F8000B 		ldr	r0, [r3, #2816]
 1920 007e 40F00060 		orr	r0, r0, #134217728
 1921 0082 C3F8000B 		str	r0, [r3, #2816]
 950:../../Drivers/STM32H7xx_HAL_Driver/Src/stm32h7xx_ll_usb.c **** 
 1922              		.loc 1 950 7 is_stmt 1 view .LVU605
 1923 0086 0B78     		ldrb	r3, [r1]	@ zero_extendqisi2
 950:../../Drivers/STM32H7xx_HAL_Driver/Src/stm32h7xx_ll_usb.c **** 
 1924              		.loc 1 950 36 is_stmt 0 view .LVU606
 1925 0088 02EB4313 		add	r3, r2, r3, lsl #5
 1926 008c D3F8000B 		ldr	r0, [r3, #2816]
 1927 0090 40F08040 		orr	r0, r0, #1073741824
 1928 0094 C3F8000B 		str	r0, [r3, #2816]
 1929              	.L134:
 952:../../Drivers/STM32H7xx_HAL_Driver/Src/stm32h7xx_ll_usb.c ****       {
 1930              		.loc 1 952 7 is_stmt 1 view .LVU607
 954:../../Drivers/STM32H7xx_HAL_Driver/Src/stm32h7xx_ll_usb.c **** 
 1931              		.loc 1 954 9 view .LVU608
 954:../../Drivers/STM32H7xx_HAL_Driver/Src/stm32h7xx_ll_usb.c **** 
 1932              		.loc 1 954 14 is_stmt 0 view .LVU609
 1933 0098 019B     		ldr	r3, [sp, #4]
 1934 009a 0133     		adds	r3, r3, #1
 1935 009c 0193     		str	r3, [sp, #4]
 956:../../Drivers/STM32H7xx_HAL_Driver/Src/stm32h7xx_ll_usb.c ****         {
 1936              		.loc 1 956 9 is_stmt 1 view .LVU610
 956:../../Drivers/STM32H7xx_HAL_Driver/Src/stm32h7xx_ll_usb.c ****         {
 1937              		.loc 1 956 19 is_stmt 0 view .LVU611
 1938 009e 0198     		ldr	r0, [sp, #4]
 956:../../Drivers/STM32H7xx_HAL_Driver/Src/stm32h7xx_ll_usb.c ****         {
 1939              		.loc 1 956 12 view .LVU612
 1940 00a0 42F21073 		movw	r3, #10000
 1941 00a4 9842     		cmp	r0, r3
 1942 00a6 08D8     		bhi	.L137
 961:../../Drivers/STM32H7xx_HAL_Driver/Src/stm32h7xx_ll_usb.c ****     }
 1943              		.loc 1 961 15 is_stmt 1 view .LVU613
 961:../../Drivers/STM32H7xx_HAL_Driver/Src/stm32h7xx_ll_usb.c ****     }
 1944              		.loc 1 961 18 is_stmt 0 view .LVU614
 1945 00a8 0B78     		ldrb	r3, [r1]	@ zero_extendqisi2
 1946 00aa 02EB4313 		add	r3, r2, r3, lsl #5
 961:../../Drivers/STM32H7xx_HAL_Driver/Src/stm32h7xx_ll_usb.c ****     }
 1947              		.loc 1 961 37 view .LVU615
 1948 00ae D3F8003B 		ldr	r3, [r3, #2816]
 961:../../Drivers/STM32H7xx_HAL_Driver/Src/stm32h7xx_ll_usb.c ****     }
 1949              		.loc 1 961 7 view .LVU616
 1950 00b2 002B     		cmp	r3, #0
 1951 00b4 F0DB     		blt	.L134
 921:../../Drivers/STM32H7xx_HAL_Driver/Src/stm32h7xx_ll_usb.c ****   uint32_t USBx_BASE = (uint32_t)USBx;
 1952              		.loc 1 921 21 view .LVU617
 1953 00b6 0020     		movs	r0, #0
 1954 00b8 B2E7     		b	.L132
 1955              	.L137:
ARM GAS  C:\Users\gigig\AppData\Local\Temp\ccBJNrpK.s 			page 70


 958:../../Drivers/STM32H7xx_HAL_Driver/Src/stm32h7xx_ll_usb.c ****           break;
 1956              		.loc 1 958 15 view .LVU618
 1957 00ba 0120     		movs	r0, #1
 1958 00bc B0E7     		b	.L132
 1959              		.cfi_endproc
 1960              	.LFE159:
 1962              		.section	.text.USB_WritePacket,"ax",%progbits
 1963              		.align	1
 1964              		.global	USB_WritePacket
 1965              		.syntax unified
 1966              		.thumb
 1967              		.thumb_func
 1969              	USB_WritePacket:
 1970              	.LVL146:
 1971              	.LFB160:
 984:../../Drivers/STM32H7xx_HAL_Driver/Src/stm32h7xx_ll_usb.c ****   uint32_t USBx_BASE = (uint32_t)USBx;
 1972              		.loc 1 984 1 is_stmt 1 view -0
 1973              		.cfi_startproc
 1974              		@ args = 4, pretend = 0, frame = 0
 1975              		@ frame_needed = 0, uses_anonymous_args = 0
 984:../../Drivers/STM32H7xx_HAL_Driver/Src/stm32h7xx_ll_usb.c ****   uint32_t USBx_BASE = (uint32_t)USBx;
 1976              		.loc 1 984 1 is_stmt 0 view .LVU620
 1977 0000 10B5     		push	{r4, lr}
 1978              	.LCFI31:
 1979              		.cfi_def_cfa_offset 8
 1980              		.cfi_offset 4, -8
 1981              		.cfi_offset 14, -4
 1982 0002 9DF80840 		ldrb	r4, [sp, #8]	@ zero_extendqisi2
 985:../../Drivers/STM32H7xx_HAL_Driver/Src/stm32h7xx_ll_usb.c ****   uint8_t *pSrc = src;
 1983              		.loc 1 985 3 is_stmt 1 view .LVU621
 1984              	.LVL147:
 986:../../Drivers/STM32H7xx_HAL_Driver/Src/stm32h7xx_ll_usb.c ****   uint32_t count32b;
 1985              		.loc 1 986 3 view .LVU622
 987:../../Drivers/STM32H7xx_HAL_Driver/Src/stm32h7xx_ll_usb.c ****   uint32_t i;
 1986              		.loc 1 987 3 view .LVU623
 988:../../Drivers/STM32H7xx_HAL_Driver/Src/stm32h7xx_ll_usb.c **** 
 1987              		.loc 1 988 3 view .LVU624
 990:../../Drivers/STM32H7xx_HAL_Driver/Src/stm32h7xx_ll_usb.c ****   {
 1988              		.loc 1 990 3 view .LVU625
 990:../../Drivers/STM32H7xx_HAL_Driver/Src/stm32h7xx_ll_usb.c ****   {
 1989              		.loc 1 990 6 is_stmt 0 view .LVU626
 1990 0006 84B9     		cbnz	r4, .L143
 992:../../Drivers/STM32H7xx_HAL_Driver/Src/stm32h7xx_ll_usb.c ****     for (i = 0U; i < count32b; i++)
 1991              		.loc 1 992 5 is_stmt 1 view .LVU627
 992:../../Drivers/STM32H7xx_HAL_Driver/Src/stm32h7xx_ll_usb.c ****     for (i = 0U; i < count32b; i++)
 1992              		.loc 1 992 31 is_stmt 0 view .LVU628
 1993 0008 0333     		adds	r3, r3, #3
 1994              	.LVL148:
 992:../../Drivers/STM32H7xx_HAL_Driver/Src/stm32h7xx_ll_usb.c ****     for (i = 0U; i < count32b; i++)
 1995              		.loc 1 992 14 view .LVU629
 1996 000a 4FEA930E 		lsr	lr, r3, #2
 1997              	.LVL149:
 993:../../Drivers/STM32H7xx_HAL_Driver/Src/stm32h7xx_ll_usb.c ****     {
 1998              		.loc 1 993 5 is_stmt 1 view .LVU630
 993:../../Drivers/STM32H7xx_HAL_Driver/Src/stm32h7xx_ll_usb.c ****     {
 1999              		.loc 1 993 12 is_stmt 0 view .LVU631
 2000 000e 4FF0000C 		mov	ip, #0
ARM GAS  C:\Users\gigig\AppData\Local\Temp\ccBJNrpK.s 			page 71


 993:../../Drivers/STM32H7xx_HAL_Driver/Src/stm32h7xx_ll_usb.c ****     {
 2001              		.loc 1 993 5 view .LVU632
 2002 0012 08E0     		b	.L144
 2003              	.LVL150:
 2004              	.L145:
 995:../../Drivers/STM32H7xx_HAL_Driver/Src/stm32h7xx_ll_usb.c ****       pSrc++;
 2005              		.loc 1 995 7 is_stmt 1 discriminator 3 view .LVU633
 2006 0014 00EB0233 		add	r3, r0, r2, lsl #12
 2007 0018 03F58053 		add	r3, r3, #4096
 995:../../Drivers/STM32H7xx_HAL_Driver/Src/stm32h7xx_ll_usb.c ****       pSrc++;
 2008              		.loc 1 995 41 is_stmt 0 discriminator 3 view .LVU634
 2009 001c 51F8044B 		ldr	r4, [r1], #4	@ unaligned
 2010              	.LVL151:
 995:../../Drivers/STM32H7xx_HAL_Driver/Src/stm32h7xx_ll_usb.c ****       pSrc++;
 2011              		.loc 1 995 39 discriminator 3 view .LVU635
 2012 0020 1C60     		str	r4, [r3]
 996:../../Drivers/STM32H7xx_HAL_Driver/Src/stm32h7xx_ll_usb.c ****       pSrc++;
 2013              		.loc 1 996 7 is_stmt 1 discriminator 3 view .LVU636
 2014              	.LVL152:
 997:../../Drivers/STM32H7xx_HAL_Driver/Src/stm32h7xx_ll_usb.c ****       pSrc++;
 2015              		.loc 1 997 7 discriminator 3 view .LVU637
 998:../../Drivers/STM32H7xx_HAL_Driver/Src/stm32h7xx_ll_usb.c ****       pSrc++;
 2016              		.loc 1 998 7 discriminator 3 view .LVU638
 999:../../Drivers/STM32H7xx_HAL_Driver/Src/stm32h7xx_ll_usb.c ****     }
 2017              		.loc 1 999 7 discriminator 3 view .LVU639
 993:../../Drivers/STM32H7xx_HAL_Driver/Src/stm32h7xx_ll_usb.c ****     {
 2018              		.loc 1 993 32 discriminator 3 view .LVU640
 993:../../Drivers/STM32H7xx_HAL_Driver/Src/stm32h7xx_ll_usb.c ****     {
 2019              		.loc 1 993 33 is_stmt 0 discriminator 3 view .LVU641
 2020 0022 0CF1010C 		add	ip, ip, #1
 2021              	.LVL153:
 2022              	.L144:
 993:../../Drivers/STM32H7xx_HAL_Driver/Src/stm32h7xx_ll_usb.c ****     {
 2023              		.loc 1 993 18 is_stmt 1 discriminator 1 view .LVU642
 993:../../Drivers/STM32H7xx_HAL_Driver/Src/stm32h7xx_ll_usb.c ****     {
 2024              		.loc 1 993 5 is_stmt 0 discriminator 1 view .LVU643
 2025 0026 F445     		cmp	ip, lr
 2026 0028 F4D3     		bcc	.L145
 2027              	.LVL154:
 2028              	.L143:
1003:../../Drivers/STM32H7xx_HAL_Driver/Src/stm32h7xx_ll_usb.c **** }
 2029              		.loc 1 1003 3 is_stmt 1 view .LVU644
1004:../../Drivers/STM32H7xx_HAL_Driver/Src/stm32h7xx_ll_usb.c **** 
 2030              		.loc 1 1004 1 is_stmt 0 view .LVU645
 2031 002a 0020     		movs	r0, #0
 2032              	.LVL155:
1004:../../Drivers/STM32H7xx_HAL_Driver/Src/stm32h7xx_ll_usb.c **** 
 2033              		.loc 1 1004 1 view .LVU646
 2034 002c 10BD     		pop	{r4, pc}
1004:../../Drivers/STM32H7xx_HAL_Driver/Src/stm32h7xx_ll_usb.c **** 
 2035              		.loc 1 1004 1 view .LVU647
 2036              		.cfi_endproc
 2037              	.LFE160:
 2039              		.section	.text.USB_EPStartXfer,"ax",%progbits
 2040              		.align	1
 2041              		.global	USB_EPStartXfer
 2042              		.syntax unified
ARM GAS  C:\Users\gigig\AppData\Local\Temp\ccBJNrpK.s 			page 72


 2043              		.thumb
 2044              		.thumb_func
 2046              	USB_EPStartXfer:
 2047              	.LVL156:
 2048              	.LFB158:
 747:../../Drivers/STM32H7xx_HAL_Driver/Src/stm32h7xx_ll_usb.c ****   uint32_t USBx_BASE = (uint32_t)USBx;
 2049              		.loc 1 747 1 is_stmt 1 view -0
 2050              		.cfi_startproc
 2051              		@ args = 0, pretend = 0, frame = 0
 2052              		@ frame_needed = 0, uses_anonymous_args = 0
 747:../../Drivers/STM32H7xx_HAL_Driver/Src/stm32h7xx_ll_usb.c ****   uint32_t USBx_BASE = (uint32_t)USBx;
 2053              		.loc 1 747 1 is_stmt 0 view .LVU649
 2054 0000 F0B5     		push	{r4, r5, r6, r7, lr}
 2055              	.LCFI32:
 2056              		.cfi_def_cfa_offset 20
 2057              		.cfi_offset 4, -20
 2058              		.cfi_offset 5, -16
 2059              		.cfi_offset 6, -12
 2060              		.cfi_offset 7, -8
 2061              		.cfi_offset 14, -4
 2062 0002 83B0     		sub	sp, sp, #12
 2063              	.LCFI33:
 2064              		.cfi_def_cfa_offset 32
 748:../../Drivers/STM32H7xx_HAL_Driver/Src/stm32h7xx_ll_usb.c ****   uint32_t epnum = (uint32_t)ep->num;
 2065              		.loc 1 748 3 is_stmt 1 view .LVU650
 2066              	.LVL157:
 749:../../Drivers/STM32H7xx_HAL_Driver/Src/stm32h7xx_ll_usb.c ****   uint16_t pktcnt;
 2067              		.loc 1 749 3 view .LVU651
 749:../../Drivers/STM32H7xx_HAL_Driver/Src/stm32h7xx_ll_usb.c ****   uint16_t pktcnt;
 2068              		.loc 1 749 32 is_stmt 0 view .LVU652
 2069 0004 0C78     		ldrb	r4, [r1]	@ zero_extendqisi2
 2070              	.LVL158:
 750:../../Drivers/STM32H7xx_HAL_Driver/Src/stm32h7xx_ll_usb.c **** 
 2071              		.loc 1 750 3 is_stmt 1 view .LVU653
 753:../../Drivers/STM32H7xx_HAL_Driver/Src/stm32h7xx_ll_usb.c ****   {
 2072              		.loc 1 753 3 view .LVU654
 753:../../Drivers/STM32H7xx_HAL_Driver/Src/stm32h7xx_ll_usb.c ****   {
 2073              		.loc 1 753 9 is_stmt 0 view .LVU655
 2074 0006 4B78     		ldrb	r3, [r1, #1]	@ zero_extendqisi2
 753:../../Drivers/STM32H7xx_HAL_Driver/Src/stm32h7xx_ll_usb.c ****   {
 2075              		.loc 1 753 6 view .LVU656
 2076 0008 012B     		cmp	r3, #1
 2077 000a 2DD0     		beq	.L170
 852:../../Drivers/STM32H7xx_HAL_Driver/Src/stm32h7xx_ll_usb.c ****     USBx_OUTEP(epnum)->DOEPTSIZ &= ~(USB_OTG_DOEPTSIZ_PKTCNT);
 2078              		.loc 1 852 5 is_stmt 1 view .LVU657
 852:../../Drivers/STM32H7xx_HAL_Driver/Src/stm32h7xx_ll_usb.c ****     USBx_OUTEP(epnum)->DOEPTSIZ &= ~(USB_OTG_DOEPTSIZ_PKTCNT);
 2079              		.loc 1 852 33 is_stmt 0 view .LVU658
 2080 000c 00EB441C 		add	ip, r0, r4, lsl #5
 2081 0010 0CF53063 		add	r3, ip, #2816
 2082 0014 1E69     		ldr	r6, [r3, #16]
 2083 0016 864D     		ldr	r5, .L175
 2084 0018 3540     		ands	r5, r5, r6
 2085 001a 1D61     		str	r5, [r3, #16]
 853:../../Drivers/STM32H7xx_HAL_Driver/Src/stm32h7xx_ll_usb.c **** 
 2086              		.loc 1 853 5 is_stmt 1 view .LVU659
 853:../../Drivers/STM32H7xx_HAL_Driver/Src/stm32h7xx_ll_usb.c **** 
 2087              		.loc 1 853 33 is_stmt 0 view .LVU660
ARM GAS  C:\Users\gigig\AppData\Local\Temp\ccBJNrpK.s 			page 73


 2088 001c 1E69     		ldr	r6, [r3, #16]
 2089 001e 854D     		ldr	r5, .L175+4
 2090 0020 3540     		ands	r5, r5, r6
 2091 0022 1D61     		str	r5, [r3, #16]
 855:../../Drivers/STM32H7xx_HAL_Driver/Src/stm32h7xx_ll_usb.c ****     {
 2092              		.loc 1 855 5 is_stmt 1 view .LVU661
 855:../../Drivers/STM32H7xx_HAL_Driver/Src/stm32h7xx_ll_usb.c ****     {
 2093              		.loc 1 855 8 is_stmt 0 view .LVU662
 2094 0024 002C     		cmp	r4, #0
 2095 0026 40F0C780 		bne	.L162
 857:../../Drivers/STM32H7xx_HAL_Driver/Src/stm32h7xx_ll_usb.c ****       {
 2096              		.loc 1 857 7 is_stmt 1 view .LVU663
 857:../../Drivers/STM32H7xx_HAL_Driver/Src/stm32h7xx_ll_usb.c ****       {
 2097              		.loc 1 857 13 is_stmt 0 view .LVU664
 2098 002a 0C69     		ldr	r4, [r1, #16]
 2099              	.LVL159:
 857:../../Drivers/STM32H7xx_HAL_Driver/Src/stm32h7xx_ll_usb.c ****       {
 2100              		.loc 1 857 10 view .LVU665
 2101 002c 0CB1     		cbz	r4, .L163
 859:../../Drivers/STM32H7xx_HAL_Driver/Src/stm32h7xx_ll_usb.c ****       }
 2102              		.loc 1 859 9 is_stmt 1 view .LVU666
 859:../../Drivers/STM32H7xx_HAL_Driver/Src/stm32h7xx_ll_usb.c ****       }
 2103              		.loc 1 859 26 is_stmt 0 view .LVU667
 2104 002e 8C68     		ldr	r4, [r1, #8]
 859:../../Drivers/STM32H7xx_HAL_Driver/Src/stm32h7xx_ll_usb.c ****       }
 2105              		.loc 1 859 22 view .LVU668
 2106 0030 0C61     		str	r4, [r1, #16]
 2107              	.L163:
 863:../../Drivers/STM32H7xx_HAL_Driver/Src/stm32h7xx_ll_usb.c **** 
 2108              		.loc 1 863 7 is_stmt 1 view .LVU669
 863:../../Drivers/STM32H7xx_HAL_Driver/Src/stm32h7xx_ll_usb.c **** 
 2109              		.loc 1 863 25 is_stmt 0 view .LVU670
 2110 0032 8C68     		ldr	r4, [r1, #8]
 863:../../Drivers/STM32H7xx_HAL_Driver/Src/stm32h7xx_ll_usb.c **** 
 2111              		.loc 1 863 21 view .LVU671
 2112 0034 0C62     		str	r4, [r1, #32]
 865:../../Drivers/STM32H7xx_HAL_Driver/Src/stm32h7xx_ll_usb.c ****       USBx_OUTEP(epnum)->DOEPTSIZ |= (USB_OTG_DOEPTSIZ_PKTCNT & (1U << 19));
 2113              		.loc 1 865 7 is_stmt 1 view .LVU672
 865:../../Drivers/STM32H7xx_HAL_Driver/Src/stm32h7xx_ll_usb.c ****       USBx_OUTEP(epnum)->DOEPTSIZ |= (USB_OTG_DOEPTSIZ_PKTCNT & (1U << 19));
 2114              		.loc 1 865 35 is_stmt 0 view .LVU673
 2115 0036 1D69     		ldr	r5, [r3, #16]
 865:../../Drivers/STM32H7xx_HAL_Driver/Src/stm32h7xx_ll_usb.c ****       USBx_OUTEP(epnum)->DOEPTSIZ |= (USB_OTG_DOEPTSIZ_PKTCNT & (1U << 19));
 2116              		.loc 1 865 63 view .LVU674
 2117 0038 C4F31204 		ubfx	r4, r4, #0, #19
 865:../../Drivers/STM32H7xx_HAL_Driver/Src/stm32h7xx_ll_usb.c ****       USBx_OUTEP(epnum)->DOEPTSIZ |= (USB_OTG_DOEPTSIZ_PKTCNT & (1U << 19));
 2118              		.loc 1 865 35 view .LVU675
 2119 003c 2C43     		orrs	r4, r4, r5
 2120 003e 1C61     		str	r4, [r3, #16]
 866:../../Drivers/STM32H7xx_HAL_Driver/Src/stm32h7xx_ll_usb.c ****     }
 2121              		.loc 1 866 7 is_stmt 1 view .LVU676
 866:../../Drivers/STM32H7xx_HAL_Driver/Src/stm32h7xx_ll_usb.c ****     }
 2122              		.loc 1 866 35 is_stmt 0 view .LVU677
 2123 0040 1C69     		ldr	r4, [r3, #16]
 2124 0042 44F40024 		orr	r4, r4, #524288
 2125 0046 1C61     		str	r4, [r3, #16]
 2126              	.L164:
 885:../../Drivers/STM32H7xx_HAL_Driver/Src/stm32h7xx_ll_usb.c ****     {
ARM GAS  C:\Users\gigig\AppData\Local\Temp\ccBJNrpK.s 			page 74


 2127              		.loc 1 885 5 is_stmt 1 view .LVU678
 885:../../Drivers/STM32H7xx_HAL_Driver/Src/stm32h7xx_ll_usb.c ****     {
 2128              		.loc 1 885 8 is_stmt 0 view .LVU679
 2129 0048 012A     		cmp	r2, #1
 2130 004a 00F0D880 		beq	.L171
 2131              	.LVL160:
 2132              	.L166:
 893:../../Drivers/STM32H7xx_HAL_Driver/Src/stm32h7xx_ll_usb.c ****     {
 2133              		.loc 1 893 5 is_stmt 1 view .LVU680
 893:../../Drivers/STM32H7xx_HAL_Driver/Src/stm32h7xx_ll_usb.c ****     {
 2134              		.loc 1 893 11 is_stmt 0 view .LVU681
 2135 004e 0B79     		ldrb	r3, [r1, #4]	@ zero_extendqisi2
 893:../../Drivers/STM32H7xx_HAL_Driver/Src/stm32h7xx_ll_usb.c ****     {
 2136              		.loc 1 893 8 view .LVU682
 2137 0050 012B     		cmp	r3, #1
 2138 0052 00F0DA80 		beq	.L172
 2139              	.L167:
 905:../../Drivers/STM32H7xx_HAL_Driver/Src/stm32h7xx_ll_usb.c ****   }
 2140              		.loc 1 905 5 is_stmt 1 view .LVU683
 905:../../Drivers/STM32H7xx_HAL_Driver/Src/stm32h7xx_ll_usb.c ****   }
 2141              		.loc 1 905 32 is_stmt 0 view .LVU684
 2142 0056 DCF8003B 		ldr	r3, [ip, #2816]
 2143 005a 43F00443 		orr	r3, r3, #-2080374784
 2144 005e CCF8003B 		str	r3, [ip, #2816]
 2145              	.LVL161:
 2146              	.L158:
 908:../../Drivers/STM32H7xx_HAL_Driver/Src/stm32h7xx_ll_usb.c **** }
 2147              		.loc 1 908 3 is_stmt 1 view .LVU685
 909:../../Drivers/STM32H7xx_HAL_Driver/Src/stm32h7xx_ll_usb.c **** 
 2148              		.loc 1 909 1 is_stmt 0 view .LVU686
 2149 0062 0020     		movs	r0, #0
 2150 0064 03B0     		add	sp, sp, #12
 2151              	.LCFI34:
 2152              		.cfi_remember_state
 2153              		.cfi_def_cfa_offset 20
 2154              		@ sp needed
 2155 0066 F0BD     		pop	{r4, r5, r6, r7, pc}
 2156              	.LVL162:
 2157              	.L170:
 2158              	.LCFI35:
 2159              		.cfi_restore_state
 756:../../Drivers/STM32H7xx_HAL_Driver/Src/stm32h7xx_ll_usb.c ****     {
 2160              		.loc 1 756 5 is_stmt 1 view .LVU687
 756:../../Drivers/STM32H7xx_HAL_Driver/Src/stm32h7xx_ll_usb.c ****     {
 2161              		.loc 1 756 11 is_stmt 0 view .LVU688
 2162 0068 0B69     		ldr	r3, [r1, #16]
 756:../../Drivers/STM32H7xx_HAL_Driver/Src/stm32h7xx_ll_usb.c ****     {
 2163              		.loc 1 756 8 view .LVU689
 2164 006a 73BB     		cbnz	r3, .L149
 758:../../Drivers/STM32H7xx_HAL_Driver/Src/stm32h7xx_ll_usb.c ****       USBx_INEP(epnum)->DIEPTSIZ |= (USB_OTG_DIEPTSIZ_PKTCNT & (1U << 19));
 2165              		.loc 1 758 7 is_stmt 1 view .LVU690
 758:../../Drivers/STM32H7xx_HAL_Driver/Src/stm32h7xx_ll_usb.c ****       USBx_INEP(epnum)->DIEPTSIZ |= (USB_OTG_DIEPTSIZ_PKTCNT & (1U << 19));
 2166              		.loc 1 758 34 is_stmt 0 view .LVU691
 2167 006c 00EB4413 		add	r3, r0, r4, lsl #5
 2168 0070 D3F81069 		ldr	r6, [r3, #2320]
 2169 0074 6F4D     		ldr	r5, .L175+4
 2170 0076 3540     		ands	r5, r5, r6
ARM GAS  C:\Users\gigig\AppData\Local\Temp\ccBJNrpK.s 			page 75


 2171 0078 C3F81059 		str	r5, [r3, #2320]
 759:../../Drivers/STM32H7xx_HAL_Driver/Src/stm32h7xx_ll_usb.c ****       USBx_INEP(epnum)->DIEPTSIZ &= ~(USB_OTG_DIEPTSIZ_XFRSIZ);
 2172              		.loc 1 759 7 is_stmt 1 view .LVU692
 759:../../Drivers/STM32H7xx_HAL_Driver/Src/stm32h7xx_ll_usb.c ****       USBx_INEP(epnum)->DIEPTSIZ &= ~(USB_OTG_DIEPTSIZ_XFRSIZ);
 2173              		.loc 1 759 34 is_stmt 0 view .LVU693
 2174 007c D3F81059 		ldr	r5, [r3, #2320]
 2175 0080 45F40025 		orr	r5, r5, #524288
 2176 0084 C3F81059 		str	r5, [r3, #2320]
 760:../../Drivers/STM32H7xx_HAL_Driver/Src/stm32h7xx_ll_usb.c ****     }
 2177              		.loc 1 760 7 is_stmt 1 view .LVU694
 760:../../Drivers/STM32H7xx_HAL_Driver/Src/stm32h7xx_ll_usb.c ****     }
 2178              		.loc 1 760 34 is_stmt 0 view .LVU695
 2179 0088 D3F81069 		ldr	r6, [r3, #2320]
 2180 008c 684D     		ldr	r5, .L175
 2181 008e 3540     		ands	r5, r5, r6
 2182 0090 C3F81059 		str	r5, [r3, #2320]
 2183              	.L150:
 796:../../Drivers/STM32H7xx_HAL_Driver/Src/stm32h7xx_ll_usb.c ****     {
 2184              		.loc 1 796 5 is_stmt 1 view .LVU696
 796:../../Drivers/STM32H7xx_HAL_Driver/Src/stm32h7xx_ll_usb.c ****     {
 2185              		.loc 1 796 8 is_stmt 0 view .LVU697
 2186 0094 012A     		cmp	r2, #1
 2187 0096 4DD0     		beq	.L173
 821:../../Drivers/STM32H7xx_HAL_Driver/Src/stm32h7xx_ll_usb.c **** 
 2188              		.loc 1 821 7 is_stmt 1 view .LVU698
 821:../../Drivers/STM32H7xx_HAL_Driver/Src/stm32h7xx_ll_usb.c **** 
 2189              		.loc 1 821 33 is_stmt 0 view .LVU699
 2190 0098 00EB4414 		add	r4, r0, r4, lsl #5
 2191              	.LVL163:
 821:../../Drivers/STM32H7xx_HAL_Driver/Src/stm32h7xx_ll_usb.c **** 
 2192              		.loc 1 821 33 view .LVU700
 2193 009c D4F80039 		ldr	r3, [r4, #2304]
 2194 00a0 43F00443 		orr	r3, r3, #-2080374784
 2195 00a4 C4F80039 		str	r3, [r4, #2304]
 823:../../Drivers/STM32H7xx_HAL_Driver/Src/stm32h7xx_ll_usb.c ****       {
 2196              		.loc 1 823 7 is_stmt 1 view .LVU701
 823:../../Drivers/STM32H7xx_HAL_Driver/Src/stm32h7xx_ll_usb.c ****       {
 2197              		.loc 1 823 13 is_stmt 0 view .LVU702
 2198 00a8 0B79     		ldrb	r3, [r1, #4]	@ zero_extendqisi2
 823:../../Drivers/STM32H7xx_HAL_Driver/Src/stm32h7xx_ll_usb.c ****       {
 2199              		.loc 1 823 10 view .LVU703
 2200 00aa 012B     		cmp	r3, #1
 2201 00ac 6BD0     		beq	.L159
 826:../../Drivers/STM32H7xx_HAL_Driver/Src/stm32h7xx_ll_usb.c ****         {
 2202              		.loc 1 826 9 is_stmt 1 view .LVU704
 826:../../Drivers/STM32H7xx_HAL_Driver/Src/stm32h7xx_ll_usb.c ****         {
 2203              		.loc 1 826 15 is_stmt 0 view .LVU705
 2204 00ae 0B69     		ldr	r3, [r1, #16]
 826:../../Drivers/STM32H7xx_HAL_Driver/Src/stm32h7xx_ll_usb.c ****         {
 2205              		.loc 1 826 12 view .LVU706
 2206 00b0 002B     		cmp	r3, #0
 2207 00b2 D6D0     		beq	.L158
 828:../../Drivers/STM32H7xx_HAL_Driver/Src/stm32h7xx_ll_usb.c ****         }
 2208              		.loc 1 828 11 is_stmt 1 view .LVU707
 828:../../Drivers/STM32H7xx_HAL_Driver/Src/stm32h7xx_ll_usb.c ****         }
 2209              		.loc 1 828 35 is_stmt 0 view .LVU708
 2210 00b4 D0F83438 		ldr	r3, [r0, #2100]
ARM GAS  C:\Users\gigig\AppData\Local\Temp\ccBJNrpK.s 			page 76


 828:../../Drivers/STM32H7xx_HAL_Driver/Src/stm32h7xx_ll_usb.c ****         }
 2211              		.loc 1 828 48 view .LVU709
 2212 00b8 0A78     		ldrb	r2, [r1]	@ zero_extendqisi2
 2213              	.LVL164:
 828:../../Drivers/STM32H7xx_HAL_Driver/Src/stm32h7xx_ll_usb.c ****         }
 2214              		.loc 1 828 54 view .LVU710
 2215 00ba 02F00F01 		and	r1, r2, #15
 2216              	.LVL165:
 828:../../Drivers/STM32H7xx_HAL_Driver/Src/stm32h7xx_ll_usb.c ****         }
 2217              		.loc 1 828 42 view .LVU711
 2218 00be 0122     		movs	r2, #1
 2219 00c0 8A40     		lsls	r2, r2, r1
 828:../../Drivers/STM32H7xx_HAL_Driver/Src/stm32h7xx_ll_usb.c ****         }
 2220              		.loc 1 828 35 view .LVU712
 2221 00c2 1343     		orrs	r3, r3, r2
 2222 00c4 C0F83438 		str	r3, [r0, #2100]
 2223 00c8 CBE7     		b	.L158
 2224              	.LVL166:
 2225              	.L149:
 769:../../Drivers/STM32H7xx_HAL_Driver/Src/stm32h7xx_ll_usb.c ****       USBx_INEP(epnum)->DIEPTSIZ &= ~(USB_OTG_DIEPTSIZ_PKTCNT);
 2226              		.loc 1 769 7 is_stmt 1 view .LVU713
 769:../../Drivers/STM32H7xx_HAL_Driver/Src/stm32h7xx_ll_usb.c ****       USBx_INEP(epnum)->DIEPTSIZ &= ~(USB_OTG_DIEPTSIZ_PKTCNT);
 2227              		.loc 1 769 34 is_stmt 0 view .LVU714
 2228 00ca 00EB4413 		add	r3, r0, r4, lsl #5
 2229 00ce 03F51063 		add	r3, r3, #2304
 2230 00d2 1E69     		ldr	r6, [r3, #16]
 2231 00d4 564D     		ldr	r5, .L175
 2232 00d6 3540     		ands	r5, r5, r6
 2233 00d8 1D61     		str	r5, [r3, #16]
 770:../../Drivers/STM32H7xx_HAL_Driver/Src/stm32h7xx_ll_usb.c **** 
 2234              		.loc 1 770 7 is_stmt 1 view .LVU715
 770:../../Drivers/STM32H7xx_HAL_Driver/Src/stm32h7xx_ll_usb.c **** 
 2235              		.loc 1 770 34 is_stmt 0 view .LVU716
 2236 00da 1E69     		ldr	r6, [r3, #16]
 2237 00dc 554D     		ldr	r5, .L175+4
 2238 00de 3540     		ands	r5, r5, r6
 2239 00e0 1D61     		str	r5, [r3, #16]
 772:../../Drivers/STM32H7xx_HAL_Driver/Src/stm32h7xx_ll_usb.c ****       {
 2240              		.loc 1 772 7 is_stmt 1 view .LVU717
 772:../../Drivers/STM32H7xx_HAL_Driver/Src/stm32h7xx_ll_usb.c ****       {
 2241              		.loc 1 772 10 is_stmt 0 view .LVU718
 2242 00e2 D4B9     		cbnz	r4, .L151
 774:../../Drivers/STM32H7xx_HAL_Driver/Src/stm32h7xx_ll_usb.c ****         {
 2243              		.loc 1 774 9 is_stmt 1 view .LVU719
 774:../../Drivers/STM32H7xx_HAL_Driver/Src/stm32h7xx_ll_usb.c ****         {
 2244              		.loc 1 774 15 is_stmt 0 view .LVU720
 2245 00e4 0E69     		ldr	r6, [r1, #16]
 774:../../Drivers/STM32H7xx_HAL_Driver/Src/stm32h7xx_ll_usb.c ****         {
 2246              		.loc 1 774 30 view .LVU721
 2247 00e6 8D68     		ldr	r5, [r1, #8]
 774:../../Drivers/STM32H7xx_HAL_Driver/Src/stm32h7xx_ll_usb.c ****         {
 2248              		.loc 1 774 12 view .LVU722
 2249 00e8 AE42     		cmp	r6, r5
 2250 00ea 00D9     		bls	.L152
 776:../../Drivers/STM32H7xx_HAL_Driver/Src/stm32h7xx_ll_usb.c ****         }
 2251              		.loc 1 776 11 is_stmt 1 view .LVU723
 776:../../Drivers/STM32H7xx_HAL_Driver/Src/stm32h7xx_ll_usb.c ****         }
ARM GAS  C:\Users\gigig\AppData\Local\Temp\ccBJNrpK.s 			page 77


 2252              		.loc 1 776 24 is_stmt 0 view .LVU724
 2253 00ec 0D61     		str	r5, [r1, #16]
 2254              	.L152:
 779:../../Drivers/STM32H7xx_HAL_Driver/Src/stm32h7xx_ll_usb.c ****       }
 2255              		.loc 1 779 9 is_stmt 1 view .LVU725
 779:../../Drivers/STM32H7xx_HAL_Driver/Src/stm32h7xx_ll_usb.c ****       }
 2256              		.loc 1 779 36 is_stmt 0 view .LVU726
 2257 00ee 1D69     		ldr	r5, [r3, #16]
 2258 00f0 45F40025 		orr	r5, r5, #524288
 2259 00f4 1D61     		str	r5, [r3, #16]
 2260              	.L153:
 787:../../Drivers/STM32H7xx_HAL_Driver/Src/stm32h7xx_ll_usb.c **** 
 2261              		.loc 1 787 7 is_stmt 1 view .LVU727
 787:../../Drivers/STM32H7xx_HAL_Driver/Src/stm32h7xx_ll_usb.c **** 
 2262              		.loc 1 787 34 is_stmt 0 view .LVU728
 2263 00f6 1D69     		ldr	r5, [r3, #16]
 787:../../Drivers/STM32H7xx_HAL_Driver/Src/stm32h7xx_ll_usb.c **** 
 2264              		.loc 1 787 66 view .LVU729
 2265 00f8 0E69     		ldr	r6, [r1, #16]
 787:../../Drivers/STM32H7xx_HAL_Driver/Src/stm32h7xx_ll_usb.c **** 
 2266              		.loc 1 787 62 view .LVU730
 2267 00fa C6F31206 		ubfx	r6, r6, #0, #19
 787:../../Drivers/STM32H7xx_HAL_Driver/Src/stm32h7xx_ll_usb.c **** 
 2268              		.loc 1 787 34 view .LVU731
 2269 00fe 3543     		orrs	r5, r5, r6
 2270 0100 1D61     		str	r5, [r3, #16]
 789:../../Drivers/STM32H7xx_HAL_Driver/Src/stm32h7xx_ll_usb.c ****       {
 2271              		.loc 1 789 7 is_stmt 1 view .LVU732
 789:../../Drivers/STM32H7xx_HAL_Driver/Src/stm32h7xx_ll_usb.c ****       {
 2272              		.loc 1 789 13 is_stmt 0 view .LVU733
 2273 0102 0D79     		ldrb	r5, [r1, #4]	@ zero_extendqisi2
 789:../../Drivers/STM32H7xx_HAL_Driver/Src/stm32h7xx_ll_usb.c ****       {
 2274              		.loc 1 789 10 view .LVU734
 2275 0104 012D     		cmp	r5, #1
 2276 0106 C5D1     		bne	.L150
 791:../../Drivers/STM32H7xx_HAL_Driver/Src/stm32h7xx_ll_usb.c ****         USBx_INEP(epnum)->DIEPTSIZ |= (USB_OTG_DIEPTSIZ_MULCNT & (1U << 29));
 2277              		.loc 1 791 9 is_stmt 1 view .LVU735
 791:../../Drivers/STM32H7xx_HAL_Driver/Src/stm32h7xx_ll_usb.c ****         USBx_INEP(epnum)->DIEPTSIZ |= (USB_OTG_DIEPTSIZ_MULCNT & (1U << 29));
 2278              		.loc 1 791 36 is_stmt 0 view .LVU736
 2279 0108 1D69     		ldr	r5, [r3, #16]
 2280 010a 25F0C045 		bic	r5, r5, #1610612736
 2281 010e 1D61     		str	r5, [r3, #16]
 792:../../Drivers/STM32H7xx_HAL_Driver/Src/stm32h7xx_ll_usb.c ****       }
 2282              		.loc 1 792 9 is_stmt 1 view .LVU737
 792:../../Drivers/STM32H7xx_HAL_Driver/Src/stm32h7xx_ll_usb.c ****       }
 2283              		.loc 1 792 36 is_stmt 0 view .LVU738
 2284 0110 1D69     		ldr	r5, [r3, #16]
 2285 0112 45F00055 		orr	r5, r5, #536870912
 2286 0116 1D61     		str	r5, [r3, #16]
 2287 0118 BCE7     		b	.L150
 2288              	.L151:
 783:../../Drivers/STM32H7xx_HAL_Driver/Src/stm32h7xx_ll_usb.c ****                                        (((ep->xfer_len + ep->maxpacket - 1U) / ep->maxpacket) << 19
 2289              		.loc 1 783 9 is_stmt 1 view .LVU739
 783:../../Drivers/STM32H7xx_HAL_Driver/Src/stm32h7xx_ll_usb.c ****                                        (((ep->xfer_len + ep->maxpacket - 1U) / ep->maxpacket) << 19
 2290              		.loc 1 783 36 is_stmt 0 view .LVU740
 2291 011a 1E69     		ldr	r6, [r3, #16]
 784:../../Drivers/STM32H7xx_HAL_Driver/Src/stm32h7xx_ll_usb.c ****       }
ARM GAS  C:\Users\gigig\AppData\Local\Temp\ccBJNrpK.s 			page 78


 2292              		.loc 1 784 45 view .LVU741
 2293 011c 0D69     		ldr	r5, [r1, #16]
 784:../../Drivers/STM32H7xx_HAL_Driver/Src/stm32h7xx_ll_usb.c ****       }
 2294              		.loc 1 784 60 view .LVU742
 2295 011e 8F68     		ldr	r7, [r1, #8]
 784:../../Drivers/STM32H7xx_HAL_Driver/Src/stm32h7xx_ll_usb.c ****       }
 2296              		.loc 1 784 56 view .LVU743
 2297 0120 3D44     		add	r5, r5, r7
 784:../../Drivers/STM32H7xx_HAL_Driver/Src/stm32h7xx_ll_usb.c ****       }
 2298              		.loc 1 784 72 view .LVU744
 2299 0122 013D     		subs	r5, r5, #1
 784:../../Drivers/STM32H7xx_HAL_Driver/Src/stm32h7xx_ll_usb.c ****       }
 2300              		.loc 1 784 78 view .LVU745
 2301 0124 B5FBF7F5 		udiv	r5, r5, r7
 783:../../Drivers/STM32H7xx_HAL_Driver/Src/stm32h7xx_ll_usb.c ****                                        (((ep->xfer_len + ep->maxpacket - 1U) / ep->maxpacket) << 19
 2302              		.loc 1 783 64 view .LVU746
 2303 0128 434F     		ldr	r7, .L175+8
 2304 012a 07EAC545 		and	r5, r7, r5, lsl #19
 783:../../Drivers/STM32H7xx_HAL_Driver/Src/stm32h7xx_ll_usb.c ****                                        (((ep->xfer_len + ep->maxpacket - 1U) / ep->maxpacket) << 19
 2305              		.loc 1 783 36 view .LVU747
 2306 012e 3543     		orrs	r5, r5, r6
 2307 0130 1D61     		str	r5, [r3, #16]
 2308 0132 E0E7     		b	.L153
 2309              	.L173:
 798:../../Drivers/STM32H7xx_HAL_Driver/Src/stm32h7xx_ll_usb.c ****       {
 2310              		.loc 1 798 7 is_stmt 1 view .LVU748
 798:../../Drivers/STM32H7xx_HAL_Driver/Src/stm32h7xx_ll_usb.c ****       {
 2311              		.loc 1 798 23 is_stmt 0 view .LVU749
 2312 0134 CB69     		ldr	r3, [r1, #28]
 798:../../Drivers/STM32H7xx_HAL_Driver/Src/stm32h7xx_ll_usb.c ****       {
 2313              		.loc 1 798 10 view .LVU750
 2314 0136 1BB1     		cbz	r3, .L155
 800:../../Drivers/STM32H7xx_HAL_Driver/Src/stm32h7xx_ll_usb.c ****       }
 2315              		.loc 1 800 9 is_stmt 1 view .LVU751
 2316 0138 00EB4412 		add	r2, r0, r4, lsl #5
 2317              	.LVL167:
 800:../../Drivers/STM32H7xx_HAL_Driver/Src/stm32h7xx_ll_usb.c ****       }
 2318              		.loc 1 800 35 is_stmt 0 view .LVU752
 2319 013c C2F81439 		str	r3, [r2, #2324]
 2320              	.L155:
 803:../../Drivers/STM32H7xx_HAL_Driver/Src/stm32h7xx_ll_usb.c ****       {
 2321              		.loc 1 803 7 is_stmt 1 view .LVU753
 803:../../Drivers/STM32H7xx_HAL_Driver/Src/stm32h7xx_ll_usb.c ****       {
 2322              		.loc 1 803 13 is_stmt 0 view .LVU754
 2323 0140 0B79     		ldrb	r3, [r1, #4]	@ zero_extendqisi2
 803:../../Drivers/STM32H7xx_HAL_Driver/Src/stm32h7xx_ll_usb.c ****       {
 2324              		.loc 1 803 10 view .LVU755
 2325 0142 012B     		cmp	r3, #1
 2326 0144 08D0     		beq	.L174
 2327              	.L156:
 816:../../Drivers/STM32H7xx_HAL_Driver/Src/stm32h7xx_ll_usb.c ****     }
 2328              		.loc 1 816 7 is_stmt 1 view .LVU756
 816:../../Drivers/STM32H7xx_HAL_Driver/Src/stm32h7xx_ll_usb.c ****     }
 2329              		.loc 1 816 33 is_stmt 0 view .LVU757
 2330 0146 00EB4410 		add	r0, r0, r4, lsl #5
 2331              	.LVL168:
 816:../../Drivers/STM32H7xx_HAL_Driver/Src/stm32h7xx_ll_usb.c ****     }
ARM GAS  C:\Users\gigig\AppData\Local\Temp\ccBJNrpK.s 			page 79


 2332              		.loc 1 816 33 view .LVU758
 2333 014a D0F80039 		ldr	r3, [r0, #2304]
 2334 014e 43F00443 		orr	r3, r3, #-2080374784
 2335 0152 C0F80039 		str	r3, [r0, #2304]
 2336 0156 84E7     		b	.L158
 2337              	.LVL169:
 2338              	.L174:
 805:../../Drivers/STM32H7xx_HAL_Driver/Src/stm32h7xx_ll_usb.c ****         {
 2339              		.loc 1 805 9 is_stmt 1 view .LVU759
 805:../../Drivers/STM32H7xx_HAL_Driver/Src/stm32h7xx_ll_usb.c ****         {
 2340              		.loc 1 805 25 is_stmt 0 view .LVU760
 2341 0158 D0F80838 		ldr	r3, [r0, #2056]
 805:../../Drivers/STM32H7xx_HAL_Driver/Src/stm32h7xx_ll_usb.c ****         {
 2342              		.loc 1 805 12 view .LVU761
 2343 015c 13F4807F 		tst	r3, #256
 2344 0160 08D1     		bne	.L157
 807:../../Drivers/STM32H7xx_HAL_Driver/Src/stm32h7xx_ll_usb.c ****         }
 2345              		.loc 1 807 11 is_stmt 1 view .LVU762
 807:../../Drivers/STM32H7xx_HAL_Driver/Src/stm32h7xx_ll_usb.c ****         }
 2346              		.loc 1 807 37 is_stmt 0 view .LVU763
 2347 0162 00EB4412 		add	r2, r0, r4, lsl #5
 2348 0166 D2F80039 		ldr	r3, [r2, #2304]
 2349 016a 43F00053 		orr	r3, r3, #536870912
 2350 016e C2F80039 		str	r3, [r2, #2304]
 2351 0172 E8E7     		b	.L156
 2352              	.L157:
 811:../../Drivers/STM32H7xx_HAL_Driver/Src/stm32h7xx_ll_usb.c ****         }
 2353              		.loc 1 811 11 is_stmt 1 view .LVU764
 811:../../Drivers/STM32H7xx_HAL_Driver/Src/stm32h7xx_ll_usb.c ****         }
 2354              		.loc 1 811 37 is_stmt 0 view .LVU765
 2355 0174 00EB4412 		add	r2, r0, r4, lsl #5
 2356 0178 D2F80039 		ldr	r3, [r2, #2304]
 2357 017c 43F08053 		orr	r3, r3, #268435456
 2358 0180 C2F80039 		str	r3, [r2, #2304]
 2359 0184 DFE7     		b	.L156
 2360              	.LVL170:
 2361              	.L159:
 833:../../Drivers/STM32H7xx_HAL_Driver/Src/stm32h7xx_ll_usb.c ****         {
 2362              		.loc 1 833 9 is_stmt 1 view .LVU766
 833:../../Drivers/STM32H7xx_HAL_Driver/Src/stm32h7xx_ll_usb.c ****         {
 2363              		.loc 1 833 25 is_stmt 0 view .LVU767
 2364 0186 D0F80838 		ldr	r3, [r0, #2056]
 833:../../Drivers/STM32H7xx_HAL_Driver/Src/stm32h7xx_ll_usb.c ****         {
 2365              		.loc 1 833 12 view .LVU768
 2366 018a 13F4807F 		tst	r3, #256
 2367 018e 0CD1     		bne	.L160
 835:../../Drivers/STM32H7xx_HAL_Driver/Src/stm32h7xx_ll_usb.c ****         }
 2368              		.loc 1 835 11 is_stmt 1 view .LVU769
 835:../../Drivers/STM32H7xx_HAL_Driver/Src/stm32h7xx_ll_usb.c ****         }
 2369              		.loc 1 835 37 is_stmt 0 view .LVU770
 2370 0190 D4F80039 		ldr	r3, [r4, #2304]
 2371 0194 43F00053 		orr	r3, r3, #536870912
 2372 0198 C4F80039 		str	r3, [r4, #2304]
 2373              	.L161:
 842:../../Drivers/STM32H7xx_HAL_Driver/Src/stm32h7xx_ll_usb.c ****       }
 2374              		.loc 1 842 9 is_stmt 1 view .LVU771
 842:../../Drivers/STM32H7xx_HAL_Driver/Src/stm32h7xx_ll_usb.c ****       }
ARM GAS  C:\Users\gigig\AppData\Local\Temp\ccBJNrpK.s 			page 80


 2375              		.loc 1 842 15 is_stmt 0 view .LVU772
 2376 019c 0092     		str	r2, [sp]
 2377 019e 0B8A     		ldrh	r3, [r1, #16]
 2378 01a0 0A78     		ldrb	r2, [r1]	@ zero_extendqisi2
 2379              	.LVL171:
 842:../../Drivers/STM32H7xx_HAL_Driver/Src/stm32h7xx_ll_usb.c ****       }
 2380              		.loc 1 842 15 view .LVU773
 2381 01a2 C968     		ldr	r1, [r1, #12]
 2382              	.LVL172:
 842:../../Drivers/STM32H7xx_HAL_Driver/Src/stm32h7xx_ll_usb.c ****       }
 2383              		.loc 1 842 15 view .LVU774
 2384 01a4 FFF7FEFF 		bl	USB_WritePacket
 2385              	.LVL173:
 842:../../Drivers/STM32H7xx_HAL_Driver/Src/stm32h7xx_ll_usb.c ****       }
 2386              		.loc 1 842 15 view .LVU775
 2387 01a8 5BE7     		b	.L158
 2388              	.LVL174:
 2389              	.L160:
 839:../../Drivers/STM32H7xx_HAL_Driver/Src/stm32h7xx_ll_usb.c ****         }
 2390              		.loc 1 839 11 is_stmt 1 view .LVU776
 839:../../Drivers/STM32H7xx_HAL_Driver/Src/stm32h7xx_ll_usb.c ****         }
 2391              		.loc 1 839 37 is_stmt 0 view .LVU777
 2392 01aa D4F80039 		ldr	r3, [r4, #2304]
 2393 01ae 43F08053 		orr	r3, r3, #268435456
 2394 01b2 C4F80039 		str	r3, [r4, #2304]
 2395 01b6 F1E7     		b	.L161
 2396              	.LVL175:
 2397              	.L162:
 870:../../Drivers/STM32H7xx_HAL_Driver/Src/stm32h7xx_ll_usb.c ****       {
 2398              		.loc 1 870 7 is_stmt 1 view .LVU778
 870:../../Drivers/STM32H7xx_HAL_Driver/Src/stm32h7xx_ll_usb.c ****       {
 2399              		.loc 1 870 13 is_stmt 0 view .LVU779
 2400 01b8 0C69     		ldr	r4, [r1, #16]
 2401              	.LVL176:
 870:../../Drivers/STM32H7xx_HAL_Driver/Src/stm32h7xx_ll_usb.c ****       {
 2402              		.loc 1 870 10 view .LVU780
 2403 01ba 54B9     		cbnz	r4, .L165
 872:../../Drivers/STM32H7xx_HAL_Driver/Src/stm32h7xx_ll_usb.c ****         USBx_OUTEP(epnum)->DOEPTSIZ |= (USB_OTG_DOEPTSIZ_PKTCNT & (1U << 19));
 2404              		.loc 1 872 9 is_stmt 1 view .LVU781
 872:../../Drivers/STM32H7xx_HAL_Driver/Src/stm32h7xx_ll_usb.c ****         USBx_OUTEP(epnum)->DOEPTSIZ |= (USB_OTG_DOEPTSIZ_PKTCNT & (1U << 19));
 2405              		.loc 1 872 37 is_stmt 0 view .LVU782
 2406 01bc 1C69     		ldr	r4, [r3, #16]
 872:../../Drivers/STM32H7xx_HAL_Driver/Src/stm32h7xx_ll_usb.c ****         USBx_OUTEP(epnum)->DOEPTSIZ |= (USB_OTG_DOEPTSIZ_PKTCNT & (1U << 19));
 2407              		.loc 1 872 69 view .LVU783
 2408 01be 8D68     		ldr	r5, [r1, #8]
 872:../../Drivers/STM32H7xx_HAL_Driver/Src/stm32h7xx_ll_usb.c ****         USBx_OUTEP(epnum)->DOEPTSIZ |= (USB_OTG_DOEPTSIZ_PKTCNT & (1U << 19));
 2409              		.loc 1 872 65 view .LVU784
 2410 01c0 C5F31205 		ubfx	r5, r5, #0, #19
 872:../../Drivers/STM32H7xx_HAL_Driver/Src/stm32h7xx_ll_usb.c ****         USBx_OUTEP(epnum)->DOEPTSIZ |= (USB_OTG_DOEPTSIZ_PKTCNT & (1U << 19));
 2411              		.loc 1 872 37 view .LVU785
 2412 01c4 2C43     		orrs	r4, r4, r5
 2413 01c6 1C61     		str	r4, [r3, #16]
 873:../../Drivers/STM32H7xx_HAL_Driver/Src/stm32h7xx_ll_usb.c ****       }
 2414              		.loc 1 873 9 is_stmt 1 view .LVU786
 873:../../Drivers/STM32H7xx_HAL_Driver/Src/stm32h7xx_ll_usb.c ****       }
 2415              		.loc 1 873 37 is_stmt 0 view .LVU787
 2416 01c8 1C69     		ldr	r4, [r3, #16]
ARM GAS  C:\Users\gigig\AppData\Local\Temp\ccBJNrpK.s 			page 81


 2417 01ca 44F40024 		orr	r4, r4, #524288
 2418 01ce 1C61     		str	r4, [r3, #16]
 2419 01d0 3AE7     		b	.L164
 2420              	.L165:
 877:../../Drivers/STM32H7xx_HAL_Driver/Src/stm32h7xx_ll_usb.c ****         ep->xfer_size = ep->maxpacket * pktcnt;
 2421              		.loc 1 877 9 is_stmt 1 view .LVU788
 877:../../Drivers/STM32H7xx_HAL_Driver/Src/stm32h7xx_ll_usb.c ****         ep->xfer_size = ep->maxpacket * pktcnt;
 2422              		.loc 1 877 47 is_stmt 0 view .LVU789
 2423 01d2 8D68     		ldr	r5, [r1, #8]
 877:../../Drivers/STM32H7xx_HAL_Driver/Src/stm32h7xx_ll_usb.c ****         ep->xfer_size = ep->maxpacket * pktcnt;
 2424              		.loc 1 877 43 view .LVU790
 2425 01d4 2C44     		add	r4, r4, r5
 877:../../Drivers/STM32H7xx_HAL_Driver/Src/stm32h7xx_ll_usb.c ****         ep->xfer_size = ep->maxpacket * pktcnt;
 2426              		.loc 1 877 59 view .LVU791
 2427 01d6 013C     		subs	r4, r4, #1
 877:../../Drivers/STM32H7xx_HAL_Driver/Src/stm32h7xx_ll_usb.c ****         ep->xfer_size = ep->maxpacket * pktcnt;
 2428              		.loc 1 877 65 view .LVU792
 2429 01d8 B4FBF5F4 		udiv	r4, r4, r5
 2430              	.LVL177:
 878:../../Drivers/STM32H7xx_HAL_Driver/Src/stm32h7xx_ll_usb.c **** 
 2431              		.loc 1 878 9 is_stmt 1 view .LVU793
 2432 01dc A4B2     		uxth	r4, r4
 878:../../Drivers/STM32H7xx_HAL_Driver/Src/stm32h7xx_ll_usb.c **** 
 2433              		.loc 1 878 39 is_stmt 0 view .LVU794
 2434 01de 04FB05F5 		mul	r5, r4, r5
 878:../../Drivers/STM32H7xx_HAL_Driver/Src/stm32h7xx_ll_usb.c **** 
 2435              		.loc 1 878 23 view .LVU795
 2436 01e2 0D62     		str	r5, [r1, #32]
 880:../../Drivers/STM32H7xx_HAL_Driver/Src/stm32h7xx_ll_usb.c ****         USBx_OUTEP(epnum)->DOEPTSIZ |= USB_OTG_DOEPTSIZ_XFRSIZ & ep->xfer_size;
 2437              		.loc 1 880 9 is_stmt 1 view .LVU796
 880:../../Drivers/STM32H7xx_HAL_Driver/Src/stm32h7xx_ll_usb.c ****         USBx_OUTEP(epnum)->DOEPTSIZ |= USB_OTG_DOEPTSIZ_XFRSIZ & ep->xfer_size;
 2438              		.loc 1 880 37 is_stmt 0 view .LVU797
 2439 01e4 1D69     		ldr	r5, [r3, #16]
 880:../../Drivers/STM32H7xx_HAL_Driver/Src/stm32h7xx_ll_usb.c ****         USBx_OUTEP(epnum)->DOEPTSIZ |= USB_OTG_DOEPTSIZ_XFRSIZ & ep->xfer_size;
 2440              		.loc 1 880 64 view .LVU798
 2441 01e6 144E     		ldr	r6, .L175+8
 2442 01e8 06EAC444 		and	r4, r6, r4, lsl #19
 2443              	.LVL178:
 880:../../Drivers/STM32H7xx_HAL_Driver/Src/stm32h7xx_ll_usb.c ****         USBx_OUTEP(epnum)->DOEPTSIZ |= USB_OTG_DOEPTSIZ_XFRSIZ & ep->xfer_size;
 2444              		.loc 1 880 37 view .LVU799
 2445 01ec 2C43     		orrs	r4, r4, r5
 2446 01ee 1C61     		str	r4, [r3, #16]
 2447              	.LVL179:
 881:../../Drivers/STM32H7xx_HAL_Driver/Src/stm32h7xx_ll_usb.c ****       }
 2448              		.loc 1 881 9 is_stmt 1 view .LVU800
 881:../../Drivers/STM32H7xx_HAL_Driver/Src/stm32h7xx_ll_usb.c ****       }
 2449              		.loc 1 881 37 is_stmt 0 view .LVU801
 2450 01f0 1C69     		ldr	r4, [r3, #16]
 881:../../Drivers/STM32H7xx_HAL_Driver/Src/stm32h7xx_ll_usb.c ****       }
 2451              		.loc 1 881 68 view .LVU802
 2452 01f2 0D6A     		ldr	r5, [r1, #32]
 881:../../Drivers/STM32H7xx_HAL_Driver/Src/stm32h7xx_ll_usb.c ****       }
 2453              		.loc 1 881 64 view .LVU803
 2454 01f4 C5F31205 		ubfx	r5, r5, #0, #19
 881:../../Drivers/STM32H7xx_HAL_Driver/Src/stm32h7xx_ll_usb.c ****       }
 2455              		.loc 1 881 37 view .LVU804
 2456 01f8 2C43     		orrs	r4, r4, r5
ARM GAS  C:\Users\gigig\AppData\Local\Temp\ccBJNrpK.s 			page 82


 2457 01fa 1C61     		str	r4, [r3, #16]
 2458 01fc 24E7     		b	.L164
 2459              	.L171:
 887:../../Drivers/STM32H7xx_HAL_Driver/Src/stm32h7xx_ll_usb.c ****       {
 2460              		.loc 1 887 7 is_stmt 1 view .LVU805
 887:../../Drivers/STM32H7xx_HAL_Driver/Src/stm32h7xx_ll_usb.c ****       {
 2461              		.loc 1 887 23 is_stmt 0 view .LVU806
 2462 01fe CA68     		ldr	r2, [r1, #12]
 2463              	.LVL180:
 887:../../Drivers/STM32H7xx_HAL_Driver/Src/stm32h7xx_ll_usb.c ****       {
 2464              		.loc 1 887 10 view .LVU807
 2465 0200 002A     		cmp	r2, #0
 2466 0202 3FF424AF 		beq	.L166
 889:../../Drivers/STM32H7xx_HAL_Driver/Src/stm32h7xx_ll_usb.c ****       }
 2467              		.loc 1 889 9 is_stmt 1 view .LVU808
 889:../../Drivers/STM32H7xx_HAL_Driver/Src/stm32h7xx_ll_usb.c ****       }
 2468              		.loc 1 889 36 is_stmt 0 view .LVU809
 2469 0206 5A61     		str	r2, [r3, #20]
 2470 0208 21E7     		b	.L166
 2471              	.L172:
 895:../../Drivers/STM32H7xx_HAL_Driver/Src/stm32h7xx_ll_usb.c ****       {
 2472              		.loc 1 895 7 is_stmt 1 view .LVU810
 895:../../Drivers/STM32H7xx_HAL_Driver/Src/stm32h7xx_ll_usb.c ****       {
 2473              		.loc 1 895 23 is_stmt 0 view .LVU811
 2474 020a D0F80838 		ldr	r3, [r0, #2056]
 895:../../Drivers/STM32H7xx_HAL_Driver/Src/stm32h7xx_ll_usb.c ****       {
 2475              		.loc 1 895 10 view .LVU812
 2476 020e 13F4807F 		tst	r3, #256
 2477 0212 06D1     		bne	.L168
 897:../../Drivers/STM32H7xx_HAL_Driver/Src/stm32h7xx_ll_usb.c ****       }
 2478              		.loc 1 897 9 is_stmt 1 view .LVU813
 897:../../Drivers/STM32H7xx_HAL_Driver/Src/stm32h7xx_ll_usb.c ****       }
 2479              		.loc 1 897 36 is_stmt 0 view .LVU814
 2480 0214 DCF8003B 		ldr	r3, [ip, #2816]
 2481 0218 43F00053 		orr	r3, r3, #536870912
 2482 021c CCF8003B 		str	r3, [ip, #2816]
 2483 0220 19E7     		b	.L167
 2484              	.L168:
 901:../../Drivers/STM32H7xx_HAL_Driver/Src/stm32h7xx_ll_usb.c ****       }
 2485              		.loc 1 901 9 is_stmt 1 view .LVU815
 901:../../Drivers/STM32H7xx_HAL_Driver/Src/stm32h7xx_ll_usb.c ****       }
 2486              		.loc 1 901 36 is_stmt 0 view .LVU816
 2487 0222 DCF8003B 		ldr	r3, [ip, #2816]
 2488 0226 43F08053 		orr	r3, r3, #268435456
 2489 022a CCF8003B 		str	r3, [ip, #2816]
 2490 022e 12E7     		b	.L167
 2491              	.L176:
 2492              		.align	2
 2493              	.L175:
 2494 0230 0000F8FF 		.word	-524288
 2495 0234 FFFF07E0 		.word	-536346625
 2496 0238 0000F81F 		.word	536346624
 2497              		.cfi_endproc
 2498              	.LFE158:
 2500              		.section	.text.USB_ReadPacket,"ax",%progbits
 2501              		.align	1
 2502              		.global	USB_ReadPacket
ARM GAS  C:\Users\gigig\AppData\Local\Temp\ccBJNrpK.s 			page 83


 2503              		.syntax unified
 2504              		.thumb
 2505              		.thumb_func
 2507              	USB_ReadPacket:
 2508              	.LVL181:
 2509              	.LFB161:
1014:../../Drivers/STM32H7xx_HAL_Driver/Src/stm32h7xx_ll_usb.c ****   uint32_t USBx_BASE = (uint32_t)USBx;
 2510              		.loc 1 1014 1 is_stmt 1 view -0
 2511              		.cfi_startproc
 2512              		@ args = 0, pretend = 0, frame = 8
 2513              		@ frame_needed = 0, uses_anonymous_args = 0
1014:../../Drivers/STM32H7xx_HAL_Driver/Src/stm32h7xx_ll_usb.c ****   uint32_t USBx_BASE = (uint32_t)USBx;
 2514              		.loc 1 1014 1 is_stmt 0 view .LVU818
 2515 0000 00B5     		push	{lr}
 2516              	.LCFI36:
 2517              		.cfi_def_cfa_offset 4
 2518              		.cfi_offset 14, -4
 2519 0002 83B0     		sub	sp, sp, #12
 2520              	.LCFI37:
 2521              		.cfi_def_cfa_offset 16
 2522 0004 8446     		mov	ip, r0
 2523 0006 0846     		mov	r0, r1
 2524              	.LVL182:
1015:../../Drivers/STM32H7xx_HAL_Driver/Src/stm32h7xx_ll_usb.c ****   uint8_t *pDest = dest;
 2525              		.loc 1 1015 3 is_stmt 1 view .LVU819
1016:../../Drivers/STM32H7xx_HAL_Driver/Src/stm32h7xx_ll_usb.c ****   uint32_t pData;
 2526              		.loc 1 1016 3 view .LVU820
1017:../../Drivers/STM32H7xx_HAL_Driver/Src/stm32h7xx_ll_usb.c ****   uint32_t i;
 2527              		.loc 1 1017 3 view .LVU821
1018:../../Drivers/STM32H7xx_HAL_Driver/Src/stm32h7xx_ll_usb.c ****   uint32_t count32b = (uint32_t)len >> 2U;
 2528              		.loc 1 1018 3 view .LVU822
1019:../../Drivers/STM32H7xx_HAL_Driver/Src/stm32h7xx_ll_usb.c ****   uint16_t remaining_bytes = len % 4U;
 2529              		.loc 1 1019 3 view .LVU823
1019:../../Drivers/STM32H7xx_HAL_Driver/Src/stm32h7xx_ll_usb.c ****   uint16_t remaining_bytes = len % 4U;
 2530              		.loc 1 1019 37 is_stmt 0 view .LVU824
 2531 0008 4FEA920E 		lsr	lr, r2, #2
 2532              	.LVL183:
1020:../../Drivers/STM32H7xx_HAL_Driver/Src/stm32h7xx_ll_usb.c **** 
 2533              		.loc 1 1020 3 is_stmt 1 view .LVU825
1020:../../Drivers/STM32H7xx_HAL_Driver/Src/stm32h7xx_ll_usb.c **** 
 2534              		.loc 1 1020 12 is_stmt 0 view .LVU826
 2535 000c 02F00302 		and	r2, r2, #3
 2536              	.LVL184:
1022:../../Drivers/STM32H7xx_HAL_Driver/Src/stm32h7xx_ll_usb.c ****   {
 2537              		.loc 1 1022 3 is_stmt 1 view .LVU827
1022:../../Drivers/STM32H7xx_HAL_Driver/Src/stm32h7xx_ll_usb.c ****   {
 2538              		.loc 1 1022 10 is_stmt 0 view .LVU828
 2539 0010 0023     		movs	r3, #0
1022:../../Drivers/STM32H7xx_HAL_Driver/Src/stm32h7xx_ll_usb.c ****   {
 2540              		.loc 1 1022 3 view .LVU829
 2541 0012 05E0     		b	.L178
 2542              	.LVL185:
 2543              	.L179:
1024:../../Drivers/STM32H7xx_HAL_Driver/Src/stm32h7xx_ll_usb.c ****     pDest++;
 2544              		.loc 1 1024 5 is_stmt 1 discriminator 3 view .LVU830
 2545 0014 0CF58051 		add	r1, ip, #4096
 2546 0018 0968     		ldr	r1, [r1]
ARM GAS  C:\Users\gigig\AppData\Local\Temp\ccBJNrpK.s 			page 84


 2547 001a 40F8041B 		str	r1, [r0], #4	@ unaligned
 2548              	.LVL186:
1025:../../Drivers/STM32H7xx_HAL_Driver/Src/stm32h7xx_ll_usb.c ****     pDest++;
 2549              		.loc 1 1025 5 discriminator 3 view .LVU831
1026:../../Drivers/STM32H7xx_HAL_Driver/Src/stm32h7xx_ll_usb.c ****     pDest++;
 2550              		.loc 1 1026 5 discriminator 3 view .LVU832
1027:../../Drivers/STM32H7xx_HAL_Driver/Src/stm32h7xx_ll_usb.c ****     pDest++;
 2551              		.loc 1 1027 5 discriminator 3 view .LVU833
1028:../../Drivers/STM32H7xx_HAL_Driver/Src/stm32h7xx_ll_usb.c ****   }
 2552              		.loc 1 1028 5 discriminator 3 view .LVU834
1022:../../Drivers/STM32H7xx_HAL_Driver/Src/stm32h7xx_ll_usb.c ****   {
 2553              		.loc 1 1022 30 discriminator 3 view .LVU835
1022:../../Drivers/STM32H7xx_HAL_Driver/Src/stm32h7xx_ll_usb.c ****   {
 2554              		.loc 1 1022 31 is_stmt 0 discriminator 3 view .LVU836
 2555 001e 0133     		adds	r3, r3, #1
 2556              	.LVL187:
 2557              	.L178:
1022:../../Drivers/STM32H7xx_HAL_Driver/Src/stm32h7xx_ll_usb.c ****   {
 2558              		.loc 1 1022 16 is_stmt 1 discriminator 1 view .LVU837
1022:../../Drivers/STM32H7xx_HAL_Driver/Src/stm32h7xx_ll_usb.c ****   {
 2559              		.loc 1 1022 3 is_stmt 0 discriminator 1 view .LVU838
 2560 0020 7345     		cmp	r3, lr
 2561 0022 F7D3     		bcc	.L179
1032:../../Drivers/STM32H7xx_HAL_Driver/Src/stm32h7xx_ll_usb.c ****   {
 2562              		.loc 1 1032 3 is_stmt 1 view .LVU839
1032:../../Drivers/STM32H7xx_HAL_Driver/Src/stm32h7xx_ll_usb.c ****   {
 2563              		.loc 1 1032 6 is_stmt 0 view .LVU840
 2564 0024 9AB1     		cbz	r2, .L180
1034:../../Drivers/STM32H7xx_HAL_Driver/Src/stm32h7xx_ll_usb.c ****     __UNALIGNED_UINT32_WRITE(&pData, USBx_DFIFO(0U));
 2565              		.loc 1 1034 5 is_stmt 1 view .LVU841
 2566              	.LVL188:
1035:../../Drivers/STM32H7xx_HAL_Driver/Src/stm32h7xx_ll_usb.c **** 
 2567              		.loc 1 1035 5 view .LVU842
 2568 0026 0CF5805C 		add	ip, ip, #4096
 2569              	.LVL189:
1035:../../Drivers/STM32H7xx_HAL_Driver/Src/stm32h7xx_ll_usb.c **** 
 2570              		.loc 1 1035 5 is_stmt 0 view .LVU843
 2571 002a DCF80030 		ldr	r3, [ip]
 2572 002e 0193     		str	r3, [sp, #4]
1034:../../Drivers/STM32H7xx_HAL_Driver/Src/stm32h7xx_ll_usb.c ****     __UNALIGNED_UINT32_WRITE(&pData, USBx_DFIFO(0U));
 2573              		.loc 1 1034 7 view .LVU844
 2574 0030 4FF0000C 		mov	ip, #0
 2575              	.LVL190:
 2576              	.L181:
1037:../../Drivers/STM32H7xx_HAL_Driver/Src/stm32h7xx_ll_usb.c ****     {
 2577              		.loc 1 1037 5 is_stmt 1 discriminator 1 view .LVU845
1039:../../Drivers/STM32H7xx_HAL_Driver/Src/stm32h7xx_ll_usb.c ****       i++;
 2578              		.loc 1 1039 7 discriminator 1 view .LVU846
1039:../../Drivers/STM32H7xx_HAL_Driver/Src/stm32h7xx_ll_usb.c ****       i++;
 2579              		.loc 1 1039 50 is_stmt 0 discriminator 1 view .LVU847
 2580 0034 5FFA8CF3 		uxtb	r3, ip
 2581 0038 D900     		lsls	r1, r3, #3
1039:../../Drivers/STM32H7xx_HAL_Driver/Src/stm32h7xx_ll_usb.c ****       i++;
 2582              		.loc 1 1039 43 discriminator 1 view .LVU848
 2583 003a 019B     		ldr	r3, [sp, #4]
 2584 003c CB40     		lsrs	r3, r3, r1
1039:../../Drivers/STM32H7xx_HAL_Driver/Src/stm32h7xx_ll_usb.c ****       i++;
ARM GAS  C:\Users\gigig\AppData\Local\Temp\ccBJNrpK.s 			page 85


 2585              		.loc 1 1039 25 discriminator 1 view .LVU849
 2586 003e 00F8013B 		strb	r3, [r0], #1
 2587              	.LVL191:
1040:../../Drivers/STM32H7xx_HAL_Driver/Src/stm32h7xx_ll_usb.c ****       pDest++;
 2588              		.loc 1 1040 7 is_stmt 1 discriminator 1 view .LVU850
1040:../../Drivers/STM32H7xx_HAL_Driver/Src/stm32h7xx_ll_usb.c ****       pDest++;
 2589              		.loc 1 1040 8 is_stmt 0 discriminator 1 view .LVU851
 2590 0042 0CF1010C 		add	ip, ip, #1
 2591              	.LVL192:
1041:../../Drivers/STM32H7xx_HAL_Driver/Src/stm32h7xx_ll_usb.c ****       remaining_bytes--;
 2592              		.loc 1 1041 7 is_stmt 1 discriminator 1 view .LVU852
1042:../../Drivers/STM32H7xx_HAL_Driver/Src/stm32h7xx_ll_usb.c ****     } while (remaining_bytes != 0U);
 2593              		.loc 1 1042 7 discriminator 1 view .LVU853
1042:../../Drivers/STM32H7xx_HAL_Driver/Src/stm32h7xx_ll_usb.c ****     } while (remaining_bytes != 0U);
 2594              		.loc 1 1042 22 is_stmt 0 discriminator 1 view .LVU854
 2595 0046 013A     		subs	r2, r2, #1
 2596              	.LVL193:
1042:../../Drivers/STM32H7xx_HAL_Driver/Src/stm32h7xx_ll_usb.c ****     } while (remaining_bytes != 0U);
 2597              		.loc 1 1042 22 discriminator 1 view .LVU855
 2598 0048 92B2     		uxth	r2, r2
 2599              	.LVL194:
1043:../../Drivers/STM32H7xx_HAL_Driver/Src/stm32h7xx_ll_usb.c ****   }
 2600              		.loc 1 1043 13 is_stmt 1 discriminator 1 view .LVU856
1043:../../Drivers/STM32H7xx_HAL_Driver/Src/stm32h7xx_ll_usb.c ****   }
 2601              		.loc 1 1043 5 is_stmt 0 discriminator 1 view .LVU857
 2602 004a 002A     		cmp	r2, #0
 2603 004c F2D1     		bne	.L181
 2604              	.LVL195:
 2605              	.L180:
1046:../../Drivers/STM32H7xx_HAL_Driver/Src/stm32h7xx_ll_usb.c **** }
 2606              		.loc 1 1046 3 is_stmt 1 view .LVU858
1047:../../Drivers/STM32H7xx_HAL_Driver/Src/stm32h7xx_ll_usb.c **** 
 2607              		.loc 1 1047 1 is_stmt 0 view .LVU859
 2608 004e 03B0     		add	sp, sp, #12
 2609              	.LCFI38:
 2610              		.cfi_def_cfa_offset 4
 2611              		@ sp needed
 2612 0050 5DF804FB 		ldr	pc, [sp], #4
 2613              		.cfi_endproc
 2614              	.LFE161:
 2616              		.section	.text.USB_EPSetStall,"ax",%progbits
 2617              		.align	1
 2618              		.global	USB_EPSetStall
 2619              		.syntax unified
 2620              		.thumb
 2621              		.thumb_func
 2623              	USB_EPSetStall:
 2624              	.LVL196:
 2625              	.LFB162:
1056:../../Drivers/STM32H7xx_HAL_Driver/Src/stm32h7xx_ll_usb.c ****   uint32_t USBx_BASE = (uint32_t)USBx;
 2626              		.loc 1 1056 1 is_stmt 1 view -0
 2627              		.cfi_startproc
 2628              		@ args = 0, pretend = 0, frame = 0
 2629              		@ frame_needed = 0, uses_anonymous_args = 0
 2630              		@ link register save eliminated.
1057:../../Drivers/STM32H7xx_HAL_Driver/Src/stm32h7xx_ll_usb.c ****   uint32_t epnum = (uint32_t)ep->num;
 2631              		.loc 1 1057 3 view .LVU861
ARM GAS  C:\Users\gigig\AppData\Local\Temp\ccBJNrpK.s 			page 86


1058:../../Drivers/STM32H7xx_HAL_Driver/Src/stm32h7xx_ll_usb.c **** 
 2632              		.loc 1 1058 3 view .LVU862
1058:../../Drivers/STM32H7xx_HAL_Driver/Src/stm32h7xx_ll_usb.c **** 
 2633              		.loc 1 1058 32 is_stmt 0 view .LVU863
 2634 0000 0B78     		ldrb	r3, [r1]	@ zero_extendqisi2
 2635              	.LVL197:
1060:../../Drivers/STM32H7xx_HAL_Driver/Src/stm32h7xx_ll_usb.c ****   {
 2636              		.loc 1 1060 3 is_stmt 1 view .LVU864
1060:../../Drivers/STM32H7xx_HAL_Driver/Src/stm32h7xx_ll_usb.c ****   {
 2637              		.loc 1 1060 9 is_stmt 0 view .LVU865
 2638 0002 4A78     		ldrb	r2, [r1, #1]	@ zero_extendqisi2
1060:../../Drivers/STM32H7xx_HAL_Driver/Src/stm32h7xx_ll_usb.c ****   {
 2639              		.loc 1 1060 6 view .LVU866
 2640 0004 012A     		cmp	r2, #1
 2641 0006 14D0     		beq	.L188
1070:../../Drivers/STM32H7xx_HAL_Driver/Src/stm32h7xx_ll_usb.c ****     {
 2642              		.loc 1 1070 5 is_stmt 1 view .LVU867
1070:../../Drivers/STM32H7xx_HAL_Driver/Src/stm32h7xx_ll_usb.c ****     {
 2643              		.loc 1 1070 11 is_stmt 0 view .LVU868
 2644 0008 00EB4310 		add	r0, r0, r3, lsl #5
 2645              	.LVL198:
1070:../../Drivers/STM32H7xx_HAL_Driver/Src/stm32h7xx_ll_usb.c ****     {
 2646              		.loc 1 1070 28 view .LVU869
 2647 000c D0F8002B 		ldr	r2, [r0, #2816]
1070:../../Drivers/STM32H7xx_HAL_Driver/Src/stm32h7xx_ll_usb.c ****     {
 2648              		.loc 1 1070 8 view .LVU870
 2649 0010 002A     		cmp	r2, #0
 2650 0012 06DB     		blt	.L187
1070:../../Drivers/STM32H7xx_HAL_Driver/Src/stm32h7xx_ll_usb.c ****     {
 2651              		.loc 1 1070 70 discriminator 1 view .LVU871
 2652 0014 2BB1     		cbz	r3, .L187
1072:../../Drivers/STM32H7xx_HAL_Driver/Src/stm32h7xx_ll_usb.c ****     }
 2653              		.loc 1 1072 7 is_stmt 1 view .LVU872
1072:../../Drivers/STM32H7xx_HAL_Driver/Src/stm32h7xx_ll_usb.c ****     }
 2654              		.loc 1 1072 34 is_stmt 0 view .LVU873
 2655 0016 D0F8003B 		ldr	r3, [r0, #2816]
 2656              	.LVL199:
1072:../../Drivers/STM32H7xx_HAL_Driver/Src/stm32h7xx_ll_usb.c ****     }
 2657              		.loc 1 1072 34 view .LVU874
 2658 001a 23F08043 		bic	r3, r3, #1073741824
 2659 001e C0F8003B 		str	r3, [r0, #2816]
 2660              	.LVL200:
 2661              	.L187:
1074:../../Drivers/STM32H7xx_HAL_Driver/Src/stm32h7xx_ll_usb.c ****   }
 2662              		.loc 1 1074 5 is_stmt 1 view .LVU875
1074:../../Drivers/STM32H7xx_HAL_Driver/Src/stm32h7xx_ll_usb.c ****   }
 2663              		.loc 1 1074 32 is_stmt 0 view .LVU876
 2664 0022 D0F8003B 		ldr	r3, [r0, #2816]
 2665 0026 43F40013 		orr	r3, r3, #2097152
 2666 002a C0F8003B 		str	r3, [r0, #2816]
 2667              	.L186:
1077:../../Drivers/STM32H7xx_HAL_Driver/Src/stm32h7xx_ll_usb.c **** }
 2668              		.loc 1 1077 3 is_stmt 1 view .LVU877
1078:../../Drivers/STM32H7xx_HAL_Driver/Src/stm32h7xx_ll_usb.c **** 
 2669              		.loc 1 1078 1 is_stmt 0 view .LVU878
 2670 002e 0020     		movs	r0, #0
 2671 0030 7047     		bx	lr
ARM GAS  C:\Users\gigig\AppData\Local\Temp\ccBJNrpK.s 			page 87


 2672              	.LVL201:
 2673              	.L188:
1062:../../Drivers/STM32H7xx_HAL_Driver/Src/stm32h7xx_ll_usb.c ****     {
 2674              		.loc 1 1062 5 is_stmt 1 view .LVU879
1062:../../Drivers/STM32H7xx_HAL_Driver/Src/stm32h7xx_ll_usb.c ****     {
 2675              		.loc 1 1062 11 is_stmt 0 view .LVU880
 2676 0032 00EB4310 		add	r0, r0, r3, lsl #5
 2677              	.LVL202:
1062:../../Drivers/STM32H7xx_HAL_Driver/Src/stm32h7xx_ll_usb.c ****     {
 2678              		.loc 1 1062 27 view .LVU881
 2679 0036 D0F80029 		ldr	r2, [r0, #2304]
1062:../../Drivers/STM32H7xx_HAL_Driver/Src/stm32h7xx_ll_usb.c ****     {
 2680              		.loc 1 1062 8 view .LVU882
 2681 003a 002A     		cmp	r2, #0
 2682 003c 06DB     		blt	.L185
1062:../../Drivers/STM32H7xx_HAL_Driver/Src/stm32h7xx_ll_usb.c ****     {
 2683              		.loc 1 1062 69 discriminator 1 view .LVU883
 2684 003e 2BB1     		cbz	r3, .L185
1064:../../Drivers/STM32H7xx_HAL_Driver/Src/stm32h7xx_ll_usb.c ****     }
 2685              		.loc 1 1064 7 is_stmt 1 view .LVU884
1064:../../Drivers/STM32H7xx_HAL_Driver/Src/stm32h7xx_ll_usb.c ****     }
 2686              		.loc 1 1064 33 is_stmt 0 view .LVU885
 2687 0040 D0F80039 		ldr	r3, [r0, #2304]
 2688              	.LVL203:
1064:../../Drivers/STM32H7xx_HAL_Driver/Src/stm32h7xx_ll_usb.c ****     }
 2689              		.loc 1 1064 33 view .LVU886
 2690 0044 23F08043 		bic	r3, r3, #1073741824
 2691 0048 C0F80039 		str	r3, [r0, #2304]
 2692              	.LVL204:
 2693              	.L185:
1066:../../Drivers/STM32H7xx_HAL_Driver/Src/stm32h7xx_ll_usb.c ****   }
 2694              		.loc 1 1066 5 is_stmt 1 view .LVU887
1066:../../Drivers/STM32H7xx_HAL_Driver/Src/stm32h7xx_ll_usb.c ****   }
 2695              		.loc 1 1066 31 is_stmt 0 view .LVU888
 2696 004c D0F80039 		ldr	r3, [r0, #2304]
 2697 0050 43F40013 		orr	r3, r3, #2097152
 2698 0054 C0F80039 		str	r3, [r0, #2304]
 2699 0058 E9E7     		b	.L186
 2700              		.cfi_endproc
 2701              	.LFE162:
 2703              		.section	.text.USB_EPClearStall,"ax",%progbits
 2704              		.align	1
 2705              		.global	USB_EPClearStall
 2706              		.syntax unified
 2707              		.thumb
 2708              		.thumb_func
 2710              	USB_EPClearStall:
 2711              	.LVL205:
 2712              	.LFB163:
1087:../../Drivers/STM32H7xx_HAL_Driver/Src/stm32h7xx_ll_usb.c ****   uint32_t USBx_BASE = (uint32_t)USBx;
 2713              		.loc 1 1087 1 is_stmt 1 view -0
 2714              		.cfi_startproc
 2715              		@ args = 0, pretend = 0, frame = 0
 2716              		@ frame_needed = 0, uses_anonymous_args = 0
 2717              		@ link register save eliminated.
1088:../../Drivers/STM32H7xx_HAL_Driver/Src/stm32h7xx_ll_usb.c ****   uint32_t epnum = (uint32_t)ep->num;
 2718              		.loc 1 1088 3 view .LVU890
ARM GAS  C:\Users\gigig\AppData\Local\Temp\ccBJNrpK.s 			page 88


1089:../../Drivers/STM32H7xx_HAL_Driver/Src/stm32h7xx_ll_usb.c **** 
 2719              		.loc 1 1089 3 view .LVU891
1089:../../Drivers/STM32H7xx_HAL_Driver/Src/stm32h7xx_ll_usb.c **** 
 2720              		.loc 1 1089 32 is_stmt 0 view .LVU892
 2721 0000 0B78     		ldrb	r3, [r1]	@ zero_extendqisi2
 2722              	.LVL206:
1091:../../Drivers/STM32H7xx_HAL_Driver/Src/stm32h7xx_ll_usb.c ****   {
 2723              		.loc 1 1091 3 is_stmt 1 view .LVU893
1091:../../Drivers/STM32H7xx_HAL_Driver/Src/stm32h7xx_ll_usb.c ****   {
 2724              		.loc 1 1091 9 is_stmt 0 view .LVU894
 2725 0002 4A78     		ldrb	r2, [r1, #1]	@ zero_extendqisi2
1091:../../Drivers/STM32H7xx_HAL_Driver/Src/stm32h7xx_ll_usb.c ****   {
 2726              		.loc 1 1091 6 view .LVU895
 2727 0004 012A     		cmp	r2, #1
 2728 0006 0ED0     		beq	.L192
1101:../../Drivers/STM32H7xx_HAL_Driver/Src/stm32h7xx_ll_usb.c ****     if ((ep->type == EP_TYPE_INTR) || (ep->type == EP_TYPE_BULK))
 2729              		.loc 1 1101 5 is_stmt 1 view .LVU896
1101:../../Drivers/STM32H7xx_HAL_Driver/Src/stm32h7xx_ll_usb.c ****     if ((ep->type == EP_TYPE_INTR) || (ep->type == EP_TYPE_BULK))
 2730              		.loc 1 1101 32 is_stmt 0 view .LVU897
 2731 0008 00EB4310 		add	r0, r0, r3, lsl #5
 2732              	.LVL207:
1101:../../Drivers/STM32H7xx_HAL_Driver/Src/stm32h7xx_ll_usb.c ****     if ((ep->type == EP_TYPE_INTR) || (ep->type == EP_TYPE_BULK))
 2733              		.loc 1 1101 32 view .LVU898
 2734 000c D0F8003B 		ldr	r3, [r0, #2816]
 2735              	.LVL208:
1101:../../Drivers/STM32H7xx_HAL_Driver/Src/stm32h7xx_ll_usb.c ****     if ((ep->type == EP_TYPE_INTR) || (ep->type == EP_TYPE_BULK))
 2736              		.loc 1 1101 32 view .LVU899
 2737 0010 23F40013 		bic	r3, r3, #2097152
 2738 0014 C0F8003B 		str	r3, [r0, #2816]
 2739              	.LVL209:
1102:../../Drivers/STM32H7xx_HAL_Driver/Src/stm32h7xx_ll_usb.c ****     {
 2740              		.loc 1 1102 5 is_stmt 1 view .LVU900
1102:../../Drivers/STM32H7xx_HAL_Driver/Src/stm32h7xx_ll_usb.c ****     {
 2741              		.loc 1 1102 12 is_stmt 0 view .LVU901
 2742 0018 0B79     		ldrb	r3, [r1, #4]	@ zero_extendqisi2
1102:../../Drivers/STM32H7xx_HAL_Driver/Src/stm32h7xx_ll_usb.c ****     {
 2743              		.loc 1 1102 36 view .LVU902
 2744 001a 023B     		subs	r3, r3, #2
 2745 001c DBB2     		uxtb	r3, r3
1102:../../Drivers/STM32H7xx_HAL_Driver/Src/stm32h7xx_ll_usb.c ****     {
 2746              		.loc 1 1102 8 view .LVU903
 2747 001e 012B     		cmp	r3, #1
 2748 0020 15D9     		bls	.L193
 2749              	.L191:
1107:../../Drivers/STM32H7xx_HAL_Driver/Src/stm32h7xx_ll_usb.c **** }
 2750              		.loc 1 1107 3 is_stmt 1 view .LVU904
1108:../../Drivers/STM32H7xx_HAL_Driver/Src/stm32h7xx_ll_usb.c **** 
 2751              		.loc 1 1108 1 is_stmt 0 view .LVU905
 2752 0022 0020     		movs	r0, #0
 2753 0024 7047     		bx	lr
 2754              	.LVL210:
 2755              	.L192:
1093:../../Drivers/STM32H7xx_HAL_Driver/Src/stm32h7xx_ll_usb.c ****     if ((ep->type == EP_TYPE_INTR) || (ep->type == EP_TYPE_BULK))
 2756              		.loc 1 1093 5 is_stmt 1 view .LVU906
1093:../../Drivers/STM32H7xx_HAL_Driver/Src/stm32h7xx_ll_usb.c ****     if ((ep->type == EP_TYPE_INTR) || (ep->type == EP_TYPE_BULK))
 2757              		.loc 1 1093 31 is_stmt 0 view .LVU907
 2758 0026 00EB4310 		add	r0, r0, r3, lsl #5
ARM GAS  C:\Users\gigig\AppData\Local\Temp\ccBJNrpK.s 			page 89


 2759              	.LVL211:
1093:../../Drivers/STM32H7xx_HAL_Driver/Src/stm32h7xx_ll_usb.c ****     if ((ep->type == EP_TYPE_INTR) || (ep->type == EP_TYPE_BULK))
 2760              		.loc 1 1093 31 view .LVU908
 2761 002a D0F80039 		ldr	r3, [r0, #2304]
 2762              	.LVL212:
1093:../../Drivers/STM32H7xx_HAL_Driver/Src/stm32h7xx_ll_usb.c ****     if ((ep->type == EP_TYPE_INTR) || (ep->type == EP_TYPE_BULK))
 2763              		.loc 1 1093 31 view .LVU909
 2764 002e 23F40013 		bic	r3, r3, #2097152
 2765 0032 C0F80039 		str	r3, [r0, #2304]
 2766              	.LVL213:
1094:../../Drivers/STM32H7xx_HAL_Driver/Src/stm32h7xx_ll_usb.c ****     {
 2767              		.loc 1 1094 5 is_stmt 1 view .LVU910
1094:../../Drivers/STM32H7xx_HAL_Driver/Src/stm32h7xx_ll_usb.c ****     {
 2768              		.loc 1 1094 12 is_stmt 0 view .LVU911
 2769 0036 0B79     		ldrb	r3, [r1, #4]	@ zero_extendqisi2
1094:../../Drivers/STM32H7xx_HAL_Driver/Src/stm32h7xx_ll_usb.c ****     {
 2770              		.loc 1 1094 36 view .LVU912
 2771 0038 023B     		subs	r3, r3, #2
 2772 003a DBB2     		uxtb	r3, r3
1094:../../Drivers/STM32H7xx_HAL_Driver/Src/stm32h7xx_ll_usb.c ****     {
 2773              		.loc 1 1094 8 view .LVU913
 2774 003c 012B     		cmp	r3, #1
 2775 003e F0D8     		bhi	.L191
1096:../../Drivers/STM32H7xx_HAL_Driver/Src/stm32h7xx_ll_usb.c ****     }
 2776              		.loc 1 1096 7 is_stmt 1 view .LVU914
1096:../../Drivers/STM32H7xx_HAL_Driver/Src/stm32h7xx_ll_usb.c ****     }
 2777              		.loc 1 1096 33 is_stmt 0 view .LVU915
 2778 0040 D0F80039 		ldr	r3, [r0, #2304]
 2779 0044 43F08053 		orr	r3, r3, #268435456
 2780 0048 C0F80039 		str	r3, [r0, #2304]
 2781 004c E9E7     		b	.L191
 2782              	.L193:
1104:../../Drivers/STM32H7xx_HAL_Driver/Src/stm32h7xx_ll_usb.c ****     }
 2783              		.loc 1 1104 7 is_stmt 1 view .LVU916
1104:../../Drivers/STM32H7xx_HAL_Driver/Src/stm32h7xx_ll_usb.c ****     }
 2784              		.loc 1 1104 34 is_stmt 0 view .LVU917
 2785 004e D0F8003B 		ldr	r3, [r0, #2816]
 2786 0052 43F08053 		orr	r3, r3, #268435456
 2787 0056 C0F8003B 		str	r3, [r0, #2816]
 2788 005a E2E7     		b	.L191
 2789              		.cfi_endproc
 2790              	.LFE163:
 2792              		.section	.text.USB_StopDevice,"ax",%progbits
 2793              		.align	1
 2794              		.global	USB_StopDevice
 2795              		.syntax unified
 2796              		.thumb
 2797              		.thumb_func
 2799              	USB_StopDevice:
 2800              	.LVL214:
 2801              	.LFB164:
1116:../../Drivers/STM32H7xx_HAL_Driver/Src/stm32h7xx_ll_usb.c ****   HAL_StatusTypeDef ret;
 2802              		.loc 1 1116 1 is_stmt 1 view -0
 2803              		.cfi_startproc
 2804              		@ args = 0, pretend = 0, frame = 0
 2805              		@ frame_needed = 0, uses_anonymous_args = 0
1116:../../Drivers/STM32H7xx_HAL_Driver/Src/stm32h7xx_ll_usb.c ****   HAL_StatusTypeDef ret;
ARM GAS  C:\Users\gigig\AppData\Local\Temp\ccBJNrpK.s 			page 90


 2806              		.loc 1 1116 1 is_stmt 0 view .LVU919
 2807 0000 10B5     		push	{r4, lr}
 2808              	.LCFI39:
 2809              		.cfi_def_cfa_offset 8
 2810              		.cfi_offset 4, -8
 2811              		.cfi_offset 14, -4
 2812 0002 0446     		mov	r4, r0
1117:../../Drivers/STM32H7xx_HAL_Driver/Src/stm32h7xx_ll_usb.c ****   uint32_t USBx_BASE = (uint32_t)USBx;
 2813              		.loc 1 1117 3 is_stmt 1 view .LVU920
1118:../../Drivers/STM32H7xx_HAL_Driver/Src/stm32h7xx_ll_usb.c ****   uint32_t i;
 2814              		.loc 1 1118 3 view .LVU921
 2815              	.LVL215:
1119:../../Drivers/STM32H7xx_HAL_Driver/Src/stm32h7xx_ll_usb.c **** 
 2816              		.loc 1 1119 3 view .LVU922
1122:../../Drivers/STM32H7xx_HAL_Driver/Src/stm32h7xx_ll_usb.c ****   {
 2817              		.loc 1 1122 3 view .LVU923
1122:../../Drivers/STM32H7xx_HAL_Driver/Src/stm32h7xx_ll_usb.c ****   {
 2818              		.loc 1 1122 10 is_stmt 0 view .LVU924
 2819 0004 0022     		movs	r2, #0
1122:../../Drivers/STM32H7xx_HAL_Driver/Src/stm32h7xx_ll_usb.c ****   {
 2820              		.loc 1 1122 3 view .LVU925
 2821 0006 08E0     		b	.L195
 2822              	.LVL216:
 2823              	.L196:
1124:../../Drivers/STM32H7xx_HAL_Driver/Src/stm32h7xx_ll_usb.c ****     USBx_OUTEP(i)->DOEPINT = 0xFB7FU;
 2824              		.loc 1 1124 5 is_stmt 1 discriminator 3 view .LVU926
 2825 0008 04EB4213 		add	r3, r4, r2, lsl #5
1124:../../Drivers/STM32H7xx_HAL_Driver/Src/stm32h7xx_ll_usb.c ****     USBx_OUTEP(i)->DOEPINT = 0xFB7FU;
 2826              		.loc 1 1124 27 is_stmt 0 discriminator 3 view .LVU927
 2827 000c 4FF67F31 		movw	r1, #64383
 2828 0010 C3F80819 		str	r1, [r3, #2312]
1125:../../Drivers/STM32H7xx_HAL_Driver/Src/stm32h7xx_ll_usb.c ****   }
 2829              		.loc 1 1125 5 is_stmt 1 discriminator 3 view .LVU928
1125:../../Drivers/STM32H7xx_HAL_Driver/Src/stm32h7xx_ll_usb.c ****   }
 2830              		.loc 1 1125 28 is_stmt 0 discriminator 3 view .LVU929
 2831 0014 C3F8081B 		str	r1, [r3, #2824]
1122:../../Drivers/STM32H7xx_HAL_Driver/Src/stm32h7xx_ll_usb.c ****   {
 2832              		.loc 1 1122 25 is_stmt 1 discriminator 3 view .LVU930
1122:../../Drivers/STM32H7xx_HAL_Driver/Src/stm32h7xx_ll_usb.c ****   {
 2833              		.loc 1 1122 26 is_stmt 0 discriminator 3 view .LVU931
 2834 0018 0132     		adds	r2, r2, #1
 2835              	.LVL217:
 2836              	.L195:
1122:../../Drivers/STM32H7xx_HAL_Driver/Src/stm32h7xx_ll_usb.c ****   {
 2837              		.loc 1 1122 16 is_stmt 1 discriminator 1 view .LVU932
1122:../../Drivers/STM32H7xx_HAL_Driver/Src/stm32h7xx_ll_usb.c ****   {
 2838              		.loc 1 1122 3 is_stmt 0 discriminator 1 view .LVU933
 2839 001a 0E2A     		cmp	r2, #14
 2840 001c F4D9     		bls	.L196
1129:../../Drivers/STM32H7xx_HAL_Driver/Src/stm32h7xx_ll_usb.c ****   USBx_DEVICE->DOEPMSK  = 0U;
 2841              		.loc 1 1129 3 is_stmt 1 view .LVU934
1129:../../Drivers/STM32H7xx_HAL_Driver/Src/stm32h7xx_ll_usb.c ****   USBx_DEVICE->DOEPMSK  = 0U;
 2842              		.loc 1 1129 25 is_stmt 0 view .LVU935
 2843 001e 0022     		movs	r2, #0
 2844              	.LVL218:
1129:../../Drivers/STM32H7xx_HAL_Driver/Src/stm32h7xx_ll_usb.c ****   USBx_DEVICE->DOEPMSK  = 0U;
 2845              		.loc 1 1129 25 view .LVU936
ARM GAS  C:\Users\gigig\AppData\Local\Temp\ccBJNrpK.s 			page 91


 2846 0020 C4F81028 		str	r2, [r4, #2064]
1130:../../Drivers/STM32H7xx_HAL_Driver/Src/stm32h7xx_ll_usb.c ****   USBx_DEVICE->DAINTMSK = 0U;
 2847              		.loc 1 1130 3 is_stmt 1 view .LVU937
1130:../../Drivers/STM32H7xx_HAL_Driver/Src/stm32h7xx_ll_usb.c ****   USBx_DEVICE->DAINTMSK = 0U;
 2848              		.loc 1 1130 25 is_stmt 0 view .LVU938
 2849 0024 C4F81428 		str	r2, [r4, #2068]
1131:../../Drivers/STM32H7xx_HAL_Driver/Src/stm32h7xx_ll_usb.c **** 
 2850              		.loc 1 1131 3 is_stmt 1 view .LVU939
1131:../../Drivers/STM32H7xx_HAL_Driver/Src/stm32h7xx_ll_usb.c **** 
 2851              		.loc 1 1131 25 is_stmt 0 view .LVU940
 2852 0028 C4F81C28 		str	r2, [r4, #2076]
1134:../../Drivers/STM32H7xx_HAL_Driver/Src/stm32h7xx_ll_usb.c ****   if (ret != HAL_OK)
 2853              		.loc 1 1134 3 is_stmt 1 view .LVU941
1134:../../Drivers/STM32H7xx_HAL_Driver/Src/stm32h7xx_ll_usb.c ****   if (ret != HAL_OK)
 2854              		.loc 1 1134 9 is_stmt 0 view .LVU942
 2855 002c 2046     		mov	r0, r4
 2856              	.LVL219:
1134:../../Drivers/STM32H7xx_HAL_Driver/Src/stm32h7xx_ll_usb.c ****   if (ret != HAL_OK)
 2857              		.loc 1 1134 9 view .LVU943
 2858 002e FFF7FEFF 		bl	USB_FlushRxFifo
 2859              	.LVL220:
1135:../../Drivers/STM32H7xx_HAL_Driver/Src/stm32h7xx_ll_usb.c ****   {
 2860              		.loc 1 1135 3 is_stmt 1 view .LVU944
1135:../../Drivers/STM32H7xx_HAL_Driver/Src/stm32h7xx_ll_usb.c ****   {
 2861              		.loc 1 1135 6 is_stmt 0 view .LVU945
 2862 0032 00B1     		cbz	r0, .L199
 2863              	.L197:
1147:../../Drivers/STM32H7xx_HAL_Driver/Src/stm32h7xx_ll_usb.c **** 
 2864              		.loc 1 1147 1 view .LVU946
 2865 0034 10BD     		pop	{r4, pc}
 2866              	.LVL221:
 2867              	.L199:
1140:../../Drivers/STM32H7xx_HAL_Driver/Src/stm32h7xx_ll_usb.c ****   if (ret != HAL_OK)
 2868              		.loc 1 1140 3 is_stmt 1 view .LVU947
1140:../../Drivers/STM32H7xx_HAL_Driver/Src/stm32h7xx_ll_usb.c ****   if (ret != HAL_OK)
 2869              		.loc 1 1140 9 is_stmt 0 view .LVU948
 2870 0036 1021     		movs	r1, #16
 2871 0038 2046     		mov	r0, r4
 2872              	.LVL222:
1140:../../Drivers/STM32H7xx_HAL_Driver/Src/stm32h7xx_ll_usb.c ****   if (ret != HAL_OK)
 2873              		.loc 1 1140 9 view .LVU949
 2874 003a FFF7FEFF 		bl	USB_FlushTxFifo
 2875              	.LVL223:
1141:../../Drivers/STM32H7xx_HAL_Driver/Src/stm32h7xx_ll_usb.c ****   {
 2876              		.loc 1 1141 3 is_stmt 1 view .LVU950
 2877 003e F9E7     		b	.L197
 2878              		.cfi_endproc
 2879              	.LFE164:
 2881              		.section	.text.USB_SetDevAddress,"ax",%progbits
 2882              		.align	1
 2883              		.global	USB_SetDevAddress
 2884              		.syntax unified
 2885              		.thumb
 2886              		.thumb_func
 2888              	USB_SetDevAddress:
 2889              	.LVL224:
 2890              	.LFB165:
ARM GAS  C:\Users\gigig\AppData\Local\Temp\ccBJNrpK.s 			page 92


1157:../../Drivers/STM32H7xx_HAL_Driver/Src/stm32h7xx_ll_usb.c ****   uint32_t USBx_BASE = (uint32_t)USBx;
 2891              		.loc 1 1157 1 view -0
 2892              		.cfi_startproc
 2893              		@ args = 0, pretend = 0, frame = 0
 2894              		@ frame_needed = 0, uses_anonymous_args = 0
 2895              		@ link register save eliminated.
1158:../../Drivers/STM32H7xx_HAL_Driver/Src/stm32h7xx_ll_usb.c **** 
 2896              		.loc 1 1158 3 view .LVU952
1160:../../Drivers/STM32H7xx_HAL_Driver/Src/stm32h7xx_ll_usb.c ****   USBx_DEVICE->DCFG |= ((uint32_t)address << 4) & USB_OTG_DCFG_DAD;
 2897              		.loc 1 1160 3 view .LVU953
1160:../../Drivers/STM32H7xx_HAL_Driver/Src/stm32h7xx_ll_usb.c ****   USBx_DEVICE->DCFG |= ((uint32_t)address << 4) & USB_OTG_DCFG_DAD;
 2898              		.loc 1 1160 21 is_stmt 0 view .LVU954
 2899 0000 D0F80038 		ldr	r3, [r0, #2048]
 2900 0004 23F4FE63 		bic	r3, r3, #2032
 2901 0008 C0F80038 		str	r3, [r0, #2048]
1161:../../Drivers/STM32H7xx_HAL_Driver/Src/stm32h7xx_ll_usb.c **** 
 2902              		.loc 1 1161 3 is_stmt 1 view .LVU955
1161:../../Drivers/STM32H7xx_HAL_Driver/Src/stm32h7xx_ll_usb.c **** 
 2903              		.loc 1 1161 21 is_stmt 0 view .LVU956
 2904 000c D0F80038 		ldr	r3, [r0, #2048]
1161:../../Drivers/STM32H7xx_HAL_Driver/Src/stm32h7xx_ll_usb.c **** 
 2905              		.loc 1 1161 43 view .LVU957
 2906 0010 0901     		lsls	r1, r1, #4
 2907              	.LVL225:
1161:../../Drivers/STM32H7xx_HAL_Driver/Src/stm32h7xx_ll_usb.c **** 
 2908              		.loc 1 1161 49 view .LVU958
 2909 0012 01F4FE61 		and	r1, r1, #2032
1161:../../Drivers/STM32H7xx_HAL_Driver/Src/stm32h7xx_ll_usb.c **** 
 2910              		.loc 1 1161 21 view .LVU959
 2911 0016 1943     		orrs	r1, r1, r3
 2912 0018 C0F80018 		str	r1, [r0, #2048]
1163:../../Drivers/STM32H7xx_HAL_Driver/Src/stm32h7xx_ll_usb.c **** }
 2913              		.loc 1 1163 3 is_stmt 1 view .LVU960
1164:../../Drivers/STM32H7xx_HAL_Driver/Src/stm32h7xx_ll_usb.c **** 
 2914              		.loc 1 1164 1 is_stmt 0 view .LVU961
 2915 001c 0020     		movs	r0, #0
 2916              	.LVL226:
1164:../../Drivers/STM32H7xx_HAL_Driver/Src/stm32h7xx_ll_usb.c **** 
 2917              		.loc 1 1164 1 view .LVU962
 2918 001e 7047     		bx	lr
 2919              		.cfi_endproc
 2920              	.LFE165:
 2922              		.section	.text.USB_DevConnect,"ax",%progbits
 2923              		.align	1
 2924              		.global	USB_DevConnect
 2925              		.syntax unified
 2926              		.thumb
 2927              		.thumb_func
 2929              	USB_DevConnect:
 2930              	.LVL227:
 2931              	.LFB166:
1172:../../Drivers/STM32H7xx_HAL_Driver/Src/stm32h7xx_ll_usb.c ****   uint32_t USBx_BASE = (uint32_t)USBx;
 2932              		.loc 1 1172 1 is_stmt 1 view -0
 2933              		.cfi_startproc
 2934              		@ args = 0, pretend = 0, frame = 0
 2935              		@ frame_needed = 0, uses_anonymous_args = 0
 2936              		@ link register save eliminated.
ARM GAS  C:\Users\gigig\AppData\Local\Temp\ccBJNrpK.s 			page 93


1173:../../Drivers/STM32H7xx_HAL_Driver/Src/stm32h7xx_ll_usb.c **** 
 2937              		.loc 1 1173 3 view .LVU964
1176:../../Drivers/STM32H7xx_HAL_Driver/Src/stm32h7xx_ll_usb.c **** 
 2938              		.loc 1 1176 3 view .LVU965
1176:../../Drivers/STM32H7xx_HAL_Driver/Src/stm32h7xx_ll_usb.c **** 
 2939              		.loc 1 1176 16 is_stmt 0 view .LVU966
 2940 0000 D0F8003E 		ldr	r3, [r0, #3584]
 2941 0004 23F00303 		bic	r3, r3, #3
 2942 0008 C0F8003E 		str	r3, [r0, #3584]
1178:../../Drivers/STM32H7xx_HAL_Driver/Src/stm32h7xx_ll_usb.c **** 
 2943              		.loc 1 1178 3 is_stmt 1 view .LVU967
1178:../../Drivers/STM32H7xx_HAL_Driver/Src/stm32h7xx_ll_usb.c **** 
 2944              		.loc 1 1178 21 is_stmt 0 view .LVU968
 2945 000c D0F80438 		ldr	r3, [r0, #2052]
 2946 0010 23F00203 		bic	r3, r3, #2
 2947 0014 C0F80438 		str	r3, [r0, #2052]
1180:../../Drivers/STM32H7xx_HAL_Driver/Src/stm32h7xx_ll_usb.c **** }
 2948              		.loc 1 1180 3 is_stmt 1 view .LVU969
1181:../../Drivers/STM32H7xx_HAL_Driver/Src/stm32h7xx_ll_usb.c **** 
 2949              		.loc 1 1181 1 is_stmt 0 view .LVU970
 2950 0018 0020     		movs	r0, #0
 2951              	.LVL228:
1181:../../Drivers/STM32H7xx_HAL_Driver/Src/stm32h7xx_ll_usb.c **** 
 2952              		.loc 1 1181 1 view .LVU971
 2953 001a 7047     		bx	lr
 2954              		.cfi_endproc
 2955              	.LFE166:
 2957              		.section	.text.USB_DevDisconnect,"ax",%progbits
 2958              		.align	1
 2959              		.global	USB_DevDisconnect
 2960              		.syntax unified
 2961              		.thumb
 2962              		.thumb_func
 2964              	USB_DevDisconnect:
 2965              	.LVL229:
 2966              	.LFB167:
1189:../../Drivers/STM32H7xx_HAL_Driver/Src/stm32h7xx_ll_usb.c ****   uint32_t USBx_BASE = (uint32_t)USBx;
 2967              		.loc 1 1189 1 is_stmt 1 view -0
 2968              		.cfi_startproc
 2969              		@ args = 0, pretend = 0, frame = 0
 2970              		@ frame_needed = 0, uses_anonymous_args = 0
 2971              		@ link register save eliminated.
1190:../../Drivers/STM32H7xx_HAL_Driver/Src/stm32h7xx_ll_usb.c **** 
 2972              		.loc 1 1190 3 view .LVU973
1193:../../Drivers/STM32H7xx_HAL_Driver/Src/stm32h7xx_ll_usb.c **** 
 2973              		.loc 1 1193 3 view .LVU974
1193:../../Drivers/STM32H7xx_HAL_Driver/Src/stm32h7xx_ll_usb.c **** 
 2974              		.loc 1 1193 16 is_stmt 0 view .LVU975
 2975 0000 D0F8003E 		ldr	r3, [r0, #3584]
 2976 0004 23F00303 		bic	r3, r3, #3
 2977 0008 C0F8003E 		str	r3, [r0, #3584]
1195:../../Drivers/STM32H7xx_HAL_Driver/Src/stm32h7xx_ll_usb.c **** 
 2978              		.loc 1 1195 3 is_stmt 1 view .LVU976
1195:../../Drivers/STM32H7xx_HAL_Driver/Src/stm32h7xx_ll_usb.c **** 
 2979              		.loc 1 1195 21 is_stmt 0 view .LVU977
 2980 000c D0F80438 		ldr	r3, [r0, #2052]
 2981 0010 43F00203 		orr	r3, r3, #2
ARM GAS  C:\Users\gigig\AppData\Local\Temp\ccBJNrpK.s 			page 94


 2982 0014 C0F80438 		str	r3, [r0, #2052]
1197:../../Drivers/STM32H7xx_HAL_Driver/Src/stm32h7xx_ll_usb.c **** }
 2983              		.loc 1 1197 3 is_stmt 1 view .LVU978
1198:../../Drivers/STM32H7xx_HAL_Driver/Src/stm32h7xx_ll_usb.c **** 
 2984              		.loc 1 1198 1 is_stmt 0 view .LVU979
 2985 0018 0020     		movs	r0, #0
 2986              	.LVL230:
1198:../../Drivers/STM32H7xx_HAL_Driver/Src/stm32h7xx_ll_usb.c **** 
 2987              		.loc 1 1198 1 view .LVU980
 2988 001a 7047     		bx	lr
 2989              		.cfi_endproc
 2990              	.LFE167:
 2992              		.section	.text.USB_ReadInterrupts,"ax",%progbits
 2993              		.align	1
 2994              		.global	USB_ReadInterrupts
 2995              		.syntax unified
 2996              		.thumb
 2997              		.thumb_func
 2999              	USB_ReadInterrupts:
 3000              	.LVL231:
 3001              	.LFB168:
1206:../../Drivers/STM32H7xx_HAL_Driver/Src/stm32h7xx_ll_usb.c ****   uint32_t tmpreg;
 3002              		.loc 1 1206 1 is_stmt 1 view -0
 3003              		.cfi_startproc
 3004              		@ args = 0, pretend = 0, frame = 0
 3005              		@ frame_needed = 0, uses_anonymous_args = 0
 3006              		@ link register save eliminated.
1207:../../Drivers/STM32H7xx_HAL_Driver/Src/stm32h7xx_ll_usb.c **** 
 3007              		.loc 1 1207 3 view .LVU982
1209:../../Drivers/STM32H7xx_HAL_Driver/Src/stm32h7xx_ll_usb.c ****   tmpreg &= USBx->GINTMSK;
 3008              		.loc 1 1209 3 view .LVU983
1209:../../Drivers/STM32H7xx_HAL_Driver/Src/stm32h7xx_ll_usb.c ****   tmpreg &= USBx->GINTMSK;
 3009              		.loc 1 1209 10 is_stmt 0 view .LVU984
 3010 0000 4269     		ldr	r2, [r0, #20]
 3011              	.LVL232:
1210:../../Drivers/STM32H7xx_HAL_Driver/Src/stm32h7xx_ll_usb.c **** 
 3012              		.loc 1 1210 3 is_stmt 1 view .LVU985
1210:../../Drivers/STM32H7xx_HAL_Driver/Src/stm32h7xx_ll_usb.c **** 
 3013              		.loc 1 1210 17 is_stmt 0 view .LVU986
 3014 0002 8069     		ldr	r0, [r0, #24]
 3015              	.LVL233:
1212:../../Drivers/STM32H7xx_HAL_Driver/Src/stm32h7xx_ll_usb.c **** }
 3016              		.loc 1 1212 3 is_stmt 1 view .LVU987
1213:../../Drivers/STM32H7xx_HAL_Driver/Src/stm32h7xx_ll_usb.c **** 
 3017              		.loc 1 1213 1 is_stmt 0 view .LVU988
 3018 0004 1040     		ands	r0, r0, r2
 3019              	.LVL234:
1213:../../Drivers/STM32H7xx_HAL_Driver/Src/stm32h7xx_ll_usb.c **** 
 3020              		.loc 1 1213 1 view .LVU989
 3021 0006 7047     		bx	lr
 3022              		.cfi_endproc
 3023              	.LFE168:
 3025              		.section	.text.USB_ReadChInterrupts,"ax",%progbits
 3026              		.align	1
 3027              		.global	USB_ReadChInterrupts
 3028              		.syntax unified
 3029              		.thumb
ARM GAS  C:\Users\gigig\AppData\Local\Temp\ccBJNrpK.s 			page 95


 3030              		.thumb_func
 3032              	USB_ReadChInterrupts:
 3033              	.LVL235:
 3034              	.LFB169:
1222:../../Drivers/STM32H7xx_HAL_Driver/Src/stm32h7xx_ll_usb.c ****   uint32_t USBx_BASE = (uint32_t)USBx;
 3035              		.loc 1 1222 1 is_stmt 1 view -0
 3036              		.cfi_startproc
 3037              		@ args = 0, pretend = 0, frame = 0
 3038              		@ frame_needed = 0, uses_anonymous_args = 0
 3039              		@ link register save eliminated.
1223:../../Drivers/STM32H7xx_HAL_Driver/Src/stm32h7xx_ll_usb.c ****   uint32_t tmpreg;
 3040              		.loc 1 1223 3 view .LVU991
1224:../../Drivers/STM32H7xx_HAL_Driver/Src/stm32h7xx_ll_usb.c **** 
 3041              		.loc 1 1224 3 view .LVU992
1226:../../Drivers/STM32H7xx_HAL_Driver/Src/stm32h7xx_ll_usb.c ****   tmpreg &= USBx_HC(chnum)->HCINTMSK;
 3042              		.loc 1 1226 3 view .LVU993
1226:../../Drivers/STM32H7xx_HAL_Driver/Src/stm32h7xx_ll_usb.c ****   tmpreg &= USBx_HC(chnum)->HCINTMSK;
 3043              		.loc 1 1226 12 is_stmt 0 view .LVU994
 3044 0000 00EB4111 		add	r1, r0, r1, lsl #5
 3045              	.LVL236:
1226:../../Drivers/STM32H7xx_HAL_Driver/Src/stm32h7xx_ll_usb.c ****   tmpreg &= USBx_HC(chnum)->HCINTMSK;
 3046              		.loc 1 1226 10 view .LVU995
 3047 0004 D1F80805 		ldr	r0, [r1, #1288]
 3048              	.LVL237:
1227:../../Drivers/STM32H7xx_HAL_Driver/Src/stm32h7xx_ll_usb.c **** 
 3049              		.loc 1 1227 3 is_stmt 1 view .LVU996
1227:../../Drivers/STM32H7xx_HAL_Driver/Src/stm32h7xx_ll_usb.c **** 
 3050              		.loc 1 1227 27 is_stmt 0 view .LVU997
 3051 0008 D1F80C35 		ldr	r3, [r1, #1292]
 3052              	.LVL238:
1229:../../Drivers/STM32H7xx_HAL_Driver/Src/stm32h7xx_ll_usb.c **** }
 3053              		.loc 1 1229 3 is_stmt 1 view .LVU998
1230:../../Drivers/STM32H7xx_HAL_Driver/Src/stm32h7xx_ll_usb.c **** 
 3054              		.loc 1 1230 1 is_stmt 0 view .LVU999
 3055 000c 1840     		ands	r0, r0, r3
 3056              	.LVL239:
1230:../../Drivers/STM32H7xx_HAL_Driver/Src/stm32h7xx_ll_usb.c **** 
 3057              		.loc 1 1230 1 view .LVU1000
 3058 000e 7047     		bx	lr
 3059              		.cfi_endproc
 3060              	.LFE169:
 3062              		.section	.text.USB_ReadDevAllOutEpInterrupt,"ax",%progbits
 3063              		.align	1
 3064              		.global	USB_ReadDevAllOutEpInterrupt
 3065              		.syntax unified
 3066              		.thumb
 3067              		.thumb_func
 3069              	USB_ReadDevAllOutEpInterrupt:
 3070              	.LVL240:
 3071              	.LFB170:
1238:../../Drivers/STM32H7xx_HAL_Driver/Src/stm32h7xx_ll_usb.c ****   uint32_t USBx_BASE = (uint32_t)USBx;
 3072              		.loc 1 1238 1 is_stmt 1 view -0
 3073              		.cfi_startproc
 3074              		@ args = 0, pretend = 0, frame = 0
 3075              		@ frame_needed = 0, uses_anonymous_args = 0
 3076              		@ link register save eliminated.
1239:../../Drivers/STM32H7xx_HAL_Driver/Src/stm32h7xx_ll_usb.c ****   uint32_t tmpreg;
ARM GAS  C:\Users\gigig\AppData\Local\Temp\ccBJNrpK.s 			page 96


 3077              		.loc 1 1239 3 view .LVU1002
1240:../../Drivers/STM32H7xx_HAL_Driver/Src/stm32h7xx_ll_usb.c **** 
 3078              		.loc 1 1240 3 view .LVU1003
1242:../../Drivers/STM32H7xx_HAL_Driver/Src/stm32h7xx_ll_usb.c ****   tmpreg &= USBx_DEVICE->DAINTMSK;
 3079              		.loc 1 1242 3 view .LVU1004
1242:../../Drivers/STM32H7xx_HAL_Driver/Src/stm32h7xx_ll_usb.c ****   tmpreg &= USBx_DEVICE->DAINTMSK;
 3080              		.loc 1 1242 11 is_stmt 0 view .LVU1005
 3081 0000 D0F81838 		ldr	r3, [r0, #2072]
1242:../../Drivers/STM32H7xx_HAL_Driver/Src/stm32h7xx_ll_usb.c ****   tmpreg &= USBx_DEVICE->DAINTMSK;
 3082              		.loc 1 1242 13 view .LVU1006
 3083 0004 00F50060 		add	r0, r0, #2048
 3084              	.LVL241:
1243:../../Drivers/STM32H7xx_HAL_Driver/Src/stm32h7xx_ll_usb.c **** 
 3085              		.loc 1 1243 3 is_stmt 1 view .LVU1007
1243:../../Drivers/STM32H7xx_HAL_Driver/Src/stm32h7xx_ll_usb.c **** 
 3086              		.loc 1 1243 24 is_stmt 0 view .LVU1008
 3087 0008 C069     		ldr	r0, [r0, #28]
 3088              	.LVL242:
1243:../../Drivers/STM32H7xx_HAL_Driver/Src/stm32h7xx_ll_usb.c **** 
 3089              		.loc 1 1243 10 view .LVU1009
 3090 000a 1840     		ands	r0, r0, r3
 3091              	.LVL243:
1245:../../Drivers/STM32H7xx_HAL_Driver/Src/stm32h7xx_ll_usb.c **** }
 3092              		.loc 1 1245 3 is_stmt 1 view .LVU1010
1246:../../Drivers/STM32H7xx_HAL_Driver/Src/stm32h7xx_ll_usb.c **** 
 3093              		.loc 1 1246 1 is_stmt 0 view .LVU1011
 3094 000c 000C     		lsrs	r0, r0, #16
 3095              	.LVL244:
1246:../../Drivers/STM32H7xx_HAL_Driver/Src/stm32h7xx_ll_usb.c **** 
 3096              		.loc 1 1246 1 view .LVU1012
 3097 000e 7047     		bx	lr
 3098              		.cfi_endproc
 3099              	.LFE170:
 3101              		.section	.text.USB_ReadDevAllInEpInterrupt,"ax",%progbits
 3102              		.align	1
 3103              		.global	USB_ReadDevAllInEpInterrupt
 3104              		.syntax unified
 3105              		.thumb
 3106              		.thumb_func
 3108              	USB_ReadDevAllInEpInterrupt:
 3109              	.LVL245:
 3110              	.LFB171:
1254:../../Drivers/STM32H7xx_HAL_Driver/Src/stm32h7xx_ll_usb.c ****   uint32_t USBx_BASE = (uint32_t)USBx;
 3111              		.loc 1 1254 1 is_stmt 1 view -0
 3112              		.cfi_startproc
 3113              		@ args = 0, pretend = 0, frame = 0
 3114              		@ frame_needed = 0, uses_anonymous_args = 0
 3115              		@ link register save eliminated.
1255:../../Drivers/STM32H7xx_HAL_Driver/Src/stm32h7xx_ll_usb.c ****   uint32_t tmpreg;
 3116              		.loc 1 1255 3 view .LVU1014
1256:../../Drivers/STM32H7xx_HAL_Driver/Src/stm32h7xx_ll_usb.c **** 
 3117              		.loc 1 1256 3 view .LVU1015
1258:../../Drivers/STM32H7xx_HAL_Driver/Src/stm32h7xx_ll_usb.c ****   tmpreg &= USBx_DEVICE->DAINTMSK;
 3118              		.loc 1 1258 3 view .LVU1016
1258:../../Drivers/STM32H7xx_HAL_Driver/Src/stm32h7xx_ll_usb.c ****   tmpreg &= USBx_DEVICE->DAINTMSK;
 3119              		.loc 1 1258 11 is_stmt 0 view .LVU1017
 3120 0000 D0F81838 		ldr	r3, [r0, #2072]
ARM GAS  C:\Users\gigig\AppData\Local\Temp\ccBJNrpK.s 			page 97


1258:../../Drivers/STM32H7xx_HAL_Driver/Src/stm32h7xx_ll_usb.c ****   tmpreg &= USBx_DEVICE->DAINTMSK;
 3121              		.loc 1 1258 13 view .LVU1018
 3122 0004 00F50060 		add	r0, r0, #2048
 3123              	.LVL246:
1259:../../Drivers/STM32H7xx_HAL_Driver/Src/stm32h7xx_ll_usb.c **** 
 3124              		.loc 1 1259 3 is_stmt 1 view .LVU1019
1259:../../Drivers/STM32H7xx_HAL_Driver/Src/stm32h7xx_ll_usb.c **** 
 3125              		.loc 1 1259 24 is_stmt 0 view .LVU1020
 3126 0008 C069     		ldr	r0, [r0, #28]
 3127              	.LVL247:
1259:../../Drivers/STM32H7xx_HAL_Driver/Src/stm32h7xx_ll_usb.c **** 
 3128              		.loc 1 1259 10 view .LVU1021
 3129 000a 1840     		ands	r0, r0, r3
 3130              	.LVL248:
1261:../../Drivers/STM32H7xx_HAL_Driver/Src/stm32h7xx_ll_usb.c **** }
 3131              		.loc 1 1261 3 is_stmt 1 view .LVU1022
1262:../../Drivers/STM32H7xx_HAL_Driver/Src/stm32h7xx_ll_usb.c **** 
 3132              		.loc 1 1262 1 is_stmt 0 view .LVU1023
 3133 000c 80B2     		uxth	r0, r0
 3134              	.LVL249:
1262:../../Drivers/STM32H7xx_HAL_Driver/Src/stm32h7xx_ll_usb.c **** 
 3135              		.loc 1 1262 1 view .LVU1024
 3136 000e 7047     		bx	lr
 3137              		.cfi_endproc
 3138              	.LFE171:
 3140              		.section	.text.USB_ReadDevOutEPInterrupt,"ax",%progbits
 3141              		.align	1
 3142              		.global	USB_ReadDevOutEPInterrupt
 3143              		.syntax unified
 3144              		.thumb
 3145              		.thumb_func
 3147              	USB_ReadDevOutEPInterrupt:
 3148              	.LVL250:
 3149              	.LFB172:
1272:../../Drivers/STM32H7xx_HAL_Driver/Src/stm32h7xx_ll_usb.c ****   uint32_t USBx_BASE = (uint32_t)USBx;
 3150              		.loc 1 1272 1 is_stmt 1 view -0
 3151              		.cfi_startproc
 3152              		@ args = 0, pretend = 0, frame = 0
 3153              		@ frame_needed = 0, uses_anonymous_args = 0
 3154              		@ link register save eliminated.
1273:../../Drivers/STM32H7xx_HAL_Driver/Src/stm32h7xx_ll_usb.c ****   uint32_t tmpreg;
 3155              		.loc 1 1273 3 view .LVU1026
1274:../../Drivers/STM32H7xx_HAL_Driver/Src/stm32h7xx_ll_usb.c **** 
 3156              		.loc 1 1274 3 view .LVU1027
1276:../../Drivers/STM32H7xx_HAL_Driver/Src/stm32h7xx_ll_usb.c ****   tmpreg &= USBx_DEVICE->DOEPMSK;
 3157              		.loc 1 1276 3 view .LVU1028
1276:../../Drivers/STM32H7xx_HAL_Driver/Src/stm32h7xx_ll_usb.c ****   tmpreg &= USBx_DEVICE->DOEPMSK;
 3158              		.loc 1 1276 13 is_stmt 0 view .LVU1029
 3159 0000 00EB4111 		add	r1, r0, r1, lsl #5
 3160              	.LVL251:
1276:../../Drivers/STM32H7xx_HAL_Driver/Src/stm32h7xx_ll_usb.c ****   tmpreg &= USBx_DEVICE->DOEPMSK;
 3161              		.loc 1 1276 11 view .LVU1030
 3162 0004 D1F8082B 		ldr	r2, [r1, #2824]
 3163              	.LVL252:
1277:../../Drivers/STM32H7xx_HAL_Driver/Src/stm32h7xx_ll_usb.c **** 
 3164              		.loc 1 1277 3 is_stmt 1 view .LVU1031
1277:../../Drivers/STM32H7xx_HAL_Driver/Src/stm32h7xx_ll_usb.c **** 
ARM GAS  C:\Users\gigig\AppData\Local\Temp\ccBJNrpK.s 			page 98


 3165              		.loc 1 1277 13 is_stmt 0 view .LVU1032
 3166 0008 00F50060 		add	r0, r0, #2048
 3167              	.LVL253:
1277:../../Drivers/STM32H7xx_HAL_Driver/Src/stm32h7xx_ll_usb.c **** 
 3168              		.loc 1 1277 24 view .LVU1033
 3169 000c 4069     		ldr	r0, [r0, #20]
 3170              	.LVL254:
1279:../../Drivers/STM32H7xx_HAL_Driver/Src/stm32h7xx_ll_usb.c **** }
 3171              		.loc 1 1279 3 is_stmt 1 view .LVU1034
1280:../../Drivers/STM32H7xx_HAL_Driver/Src/stm32h7xx_ll_usb.c **** 
 3172              		.loc 1 1280 1 is_stmt 0 view .LVU1035
 3173 000e 1040     		ands	r0, r0, r2
 3174              	.LVL255:
1280:../../Drivers/STM32H7xx_HAL_Driver/Src/stm32h7xx_ll_usb.c **** 
 3175              		.loc 1 1280 1 view .LVU1036
 3176 0010 7047     		bx	lr
 3177              		.cfi_endproc
 3178              	.LFE172:
 3180              		.section	.text.USB_ReadDevInEPInterrupt,"ax",%progbits
 3181              		.align	1
 3182              		.global	USB_ReadDevInEPInterrupt
 3183              		.syntax unified
 3184              		.thumb
 3185              		.thumb_func
 3187              	USB_ReadDevInEPInterrupt:
 3188              	.LVL256:
 3189              	.LFB173:
1290:../../Drivers/STM32H7xx_HAL_Driver/Src/stm32h7xx_ll_usb.c ****   uint32_t USBx_BASE = (uint32_t)USBx;
 3190              		.loc 1 1290 1 is_stmt 1 view -0
 3191              		.cfi_startproc
 3192              		@ args = 0, pretend = 0, frame = 0
 3193              		@ frame_needed = 0, uses_anonymous_args = 0
 3194              		@ link register save eliminated.
1290:../../Drivers/STM32H7xx_HAL_Driver/Src/stm32h7xx_ll_usb.c ****   uint32_t USBx_BASE = (uint32_t)USBx;
 3195              		.loc 1 1290 1 is_stmt 0 view .LVU1038
 3196 0000 10B4     		push	{r4}
 3197              	.LCFI40:
 3198              		.cfi_def_cfa_offset 4
 3199              		.cfi_offset 4, -4
1291:../../Drivers/STM32H7xx_HAL_Driver/Src/stm32h7xx_ll_usb.c ****   uint32_t tmpreg;
 3200              		.loc 1 1291 3 is_stmt 1 view .LVU1039
 3201              	.LVL257:
1292:../../Drivers/STM32H7xx_HAL_Driver/Src/stm32h7xx_ll_usb.c ****   uint32_t msk;
 3202              		.loc 1 1292 3 view .LVU1040
1293:../../Drivers/STM32H7xx_HAL_Driver/Src/stm32h7xx_ll_usb.c ****   uint32_t emp;
 3203              		.loc 1 1293 3 view .LVU1041
1294:../../Drivers/STM32H7xx_HAL_Driver/Src/stm32h7xx_ll_usb.c **** 
 3204              		.loc 1 1294 3 view .LVU1042
1296:../../Drivers/STM32H7xx_HAL_Driver/Src/stm32h7xx_ll_usb.c ****   emp = USBx_DEVICE->DIEPEMPMSK;
 3205              		.loc 1 1296 3 view .LVU1043
1296:../../Drivers/STM32H7xx_HAL_Driver/Src/stm32h7xx_ll_usb.c ****   emp = USBx_DEVICE->DIEPEMPMSK;
 3206              		.loc 1 1296 7 is_stmt 0 view .LVU1044
 3207 0002 D0F81048 		ldr	r4, [r0, #2064]
 3208              	.LVL258:
1297:../../Drivers/STM32H7xx_HAL_Driver/Src/stm32h7xx_ll_usb.c ****   msk |= ((emp >> (epnum & EP_ADDR_MSK)) & 0x1U) << 7;
 3209              		.loc 1 1297 3 is_stmt 1 view .LVU1045
1297:../../Drivers/STM32H7xx_HAL_Driver/Src/stm32h7xx_ll_usb.c ****   msk |= ((emp >> (epnum & EP_ADDR_MSK)) & 0x1U) << 7;
ARM GAS  C:\Users\gigig\AppData\Local\Temp\ccBJNrpK.s 			page 99


 3210              		.loc 1 1297 7 is_stmt 0 view .LVU1046
 3211 0006 D0F83438 		ldr	r3, [r0, #2100]
 3212              	.LVL259:
1298:../../Drivers/STM32H7xx_HAL_Driver/Src/stm32h7xx_ll_usb.c ****   tmpreg = USBx_INEP((uint32_t)epnum)->DIEPINT & msk;
 3213              		.loc 1 1298 3 is_stmt 1 view .LVU1047
1298:../../Drivers/STM32H7xx_HAL_Driver/Src/stm32h7xx_ll_usb.c ****   tmpreg = USBx_INEP((uint32_t)epnum)->DIEPINT & msk;
 3214              		.loc 1 1298 26 is_stmt 0 view .LVU1048
 3215 000a 01F00F02 		and	r2, r1, #15
1298:../../Drivers/STM32H7xx_HAL_Driver/Src/stm32h7xx_ll_usb.c ****   tmpreg = USBx_INEP((uint32_t)epnum)->DIEPINT & msk;
 3216              		.loc 1 1298 16 view .LVU1049
 3217 000e D340     		lsrs	r3, r3, r2
 3218              	.LVL260:
1298:../../Drivers/STM32H7xx_HAL_Driver/Src/stm32h7xx_ll_usb.c ****   tmpreg = USBx_INEP((uint32_t)epnum)->DIEPINT & msk;
 3219              		.loc 1 1298 50 view .LVU1050
 3220 0010 DB01     		lsls	r3, r3, #7
 3221 0012 DBB2     		uxtb	r3, r3
1298:../../Drivers/STM32H7xx_HAL_Driver/Src/stm32h7xx_ll_usb.c ****   tmpreg = USBx_INEP((uint32_t)epnum)->DIEPINT & msk;
 3222              		.loc 1 1298 7 view .LVU1051
 3223 0014 2343     		orrs	r3, r3, r4
 3224              	.LVL261:
1299:../../Drivers/STM32H7xx_HAL_Driver/Src/stm32h7xx_ll_usb.c **** 
 3225              		.loc 1 1299 3 is_stmt 1 view .LVU1052
1299:../../Drivers/STM32H7xx_HAL_Driver/Src/stm32h7xx_ll_usb.c **** 
 3226              		.loc 1 1299 12 is_stmt 0 view .LVU1053
 3227 0016 00EB4110 		add	r0, r0, r1, lsl #5
 3228              	.LVL262:
1299:../../Drivers/STM32H7xx_HAL_Driver/Src/stm32h7xx_ll_usb.c **** 
 3229              		.loc 1 1299 12 view .LVU1054
 3230 001a 00F51060 		add	r0, r0, #2304
1299:../../Drivers/STM32H7xx_HAL_Driver/Src/stm32h7xx_ll_usb.c **** 
 3231              		.loc 1 1299 38 view .LVU1055
 3232 001e 8068     		ldr	r0, [r0, #8]
 3233              	.LVL263:
1301:../../Drivers/STM32H7xx_HAL_Driver/Src/stm32h7xx_ll_usb.c **** }
 3234              		.loc 1 1301 3 is_stmt 1 view .LVU1056
1302:../../Drivers/STM32H7xx_HAL_Driver/Src/stm32h7xx_ll_usb.c **** 
 3235              		.loc 1 1302 1 is_stmt 0 view .LVU1057
 3236 0020 1840     		ands	r0, r0, r3
 3237              	.LVL264:
1302:../../Drivers/STM32H7xx_HAL_Driver/Src/stm32h7xx_ll_usb.c **** 
 3238              		.loc 1 1302 1 view .LVU1058
 3239 0022 5DF8044B 		ldr	r4, [sp], #4
 3240              	.LCFI41:
 3241              		.cfi_restore 4
 3242              		.cfi_def_cfa_offset 0
 3243 0026 7047     		bx	lr
 3244              		.cfi_endproc
 3245              	.LFE173:
 3247              		.section	.text.USB_ClearInterrupts,"ax",%progbits
 3248              		.align	1
 3249              		.global	USB_ClearInterrupts
 3250              		.syntax unified
 3251              		.thumb
 3252              		.thumb_func
 3254              	USB_ClearInterrupts:
 3255              	.LVL265:
 3256              	.LFB174:
ARM GAS  C:\Users\gigig\AppData\Local\Temp\ccBJNrpK.s 			page 100


1311:../../Drivers/STM32H7xx_HAL_Driver/Src/stm32h7xx_ll_usb.c ****   USBx->GINTSTS |= interrupt;
 3257              		.loc 1 1311 1 is_stmt 1 view -0
 3258              		.cfi_startproc
 3259              		@ args = 0, pretend = 0, frame = 0
 3260              		@ frame_needed = 0, uses_anonymous_args = 0
 3261              		@ link register save eliminated.
1312:../../Drivers/STM32H7xx_HAL_Driver/Src/stm32h7xx_ll_usb.c **** }
 3262              		.loc 1 1312 3 view .LVU1060
1312:../../Drivers/STM32H7xx_HAL_Driver/Src/stm32h7xx_ll_usb.c **** }
 3263              		.loc 1 1312 17 is_stmt 0 view .LVU1061
 3264 0000 4369     		ldr	r3, [r0, #20]
 3265 0002 0B43     		orrs	r3, r3, r1
 3266 0004 4361     		str	r3, [r0, #20]
1313:../../Drivers/STM32H7xx_HAL_Driver/Src/stm32h7xx_ll_usb.c **** 
 3267              		.loc 1 1313 1 view .LVU1062
 3268 0006 7047     		bx	lr
 3269              		.cfi_endproc
 3270              	.LFE174:
 3272              		.section	.text.USB_GetMode,"ax",%progbits
 3273              		.align	1
 3274              		.global	USB_GetMode
 3275              		.syntax unified
 3276              		.thumb
 3277              		.thumb_func
 3279              	USB_GetMode:
 3280              	.LVL266:
 3281              	.LFB175:
1324:../../Drivers/STM32H7xx_HAL_Driver/Src/stm32h7xx_ll_usb.c ****   return ((USBx->GINTSTS) & 0x1U);
 3282              		.loc 1 1324 1 is_stmt 1 view -0
 3283              		.cfi_startproc
 3284              		@ args = 0, pretend = 0, frame = 0
 3285              		@ frame_needed = 0, uses_anonymous_args = 0
 3286              		@ link register save eliminated.
1325:../../Drivers/STM32H7xx_HAL_Driver/Src/stm32h7xx_ll_usb.c **** }
 3287              		.loc 1 1325 3 view .LVU1064
1325:../../Drivers/STM32H7xx_HAL_Driver/Src/stm32h7xx_ll_usb.c **** }
 3288              		.loc 1 1325 16 is_stmt 0 view .LVU1065
 3289 0000 4069     		ldr	r0, [r0, #20]
 3290              	.LVL267:
1326:../../Drivers/STM32H7xx_HAL_Driver/Src/stm32h7xx_ll_usb.c **** 
 3291              		.loc 1 1326 1 view .LVU1066
 3292 0002 00F00100 		and	r0, r0, #1
 3293 0006 7047     		bx	lr
 3294              		.cfi_endproc
 3295              	.LFE175:
 3297              		.section	.text.USB_SetCurrentMode,"ax",%progbits
 3298              		.align	1
 3299              		.global	USB_SetCurrentMode
 3300              		.syntax unified
 3301              		.thumb
 3302              		.thumb_func
 3304              	USB_SetCurrentMode:
 3305              	.LVL268:
 3306              	.LFB148:
 254:../../Drivers/STM32H7xx_HAL_Driver/Src/stm32h7xx_ll_usb.c ****   uint32_t ms = 0U;
 3307              		.loc 1 254 1 is_stmt 1 view -0
 3308              		.cfi_startproc
ARM GAS  C:\Users\gigig\AppData\Local\Temp\ccBJNrpK.s 			page 101


 3309              		@ args = 0, pretend = 0, frame = 0
 3310              		@ frame_needed = 0, uses_anonymous_args = 0
 254:../../Drivers/STM32H7xx_HAL_Driver/Src/stm32h7xx_ll_usb.c ****   uint32_t ms = 0U;
 3311              		.loc 1 254 1 is_stmt 0 view .LVU1068
 3312 0000 38B5     		push	{r3, r4, r5, lr}
 3313              	.LCFI42:
 3314              		.cfi_def_cfa_offset 16
 3315              		.cfi_offset 3, -16
 3316              		.cfi_offset 4, -12
 3317              		.cfi_offset 5, -8
 3318              		.cfi_offset 14, -4
 3319 0002 0546     		mov	r5, r0
 255:../../Drivers/STM32H7xx_HAL_Driver/Src/stm32h7xx_ll_usb.c **** 
 3320              		.loc 1 255 3 is_stmt 1 view .LVU1069
 3321              	.LVL269:
 257:../../Drivers/STM32H7xx_HAL_Driver/Src/stm32h7xx_ll_usb.c **** 
 3322              		.loc 1 257 3 view .LVU1070
 257:../../Drivers/STM32H7xx_HAL_Driver/Src/stm32h7xx_ll_usb.c **** 
 3323              		.loc 1 257 17 is_stmt 0 view .LVU1071
 3324 0004 C368     		ldr	r3, [r0, #12]
 3325 0006 23F0C043 		bic	r3, r3, #1610612736
 3326 000a C360     		str	r3, [r0, #12]
 259:../../Drivers/STM32H7xx_HAL_Driver/Src/stm32h7xx_ll_usb.c ****   {
 3327              		.loc 1 259 3 is_stmt 1 view .LVU1072
 259:../../Drivers/STM32H7xx_HAL_Driver/Src/stm32h7xx_ll_usb.c ****   {
 3328              		.loc 1 259 6 is_stmt 0 view .LVU1073
 3329 000c 0129     		cmp	r1, #1
 3330 000e 13D0     		beq	.L221
 269:../../Drivers/STM32H7xx_HAL_Driver/Src/stm32h7xx_ll_usb.c ****   {
 3331              		.loc 1 269 8 is_stmt 1 view .LVU1074
 269:../../Drivers/STM32H7xx_HAL_Driver/Src/stm32h7xx_ll_usb.c ****   {
 3332              		.loc 1 269 11 is_stmt 0 view .LVU1075
 3333 0010 19BB     		cbnz	r1, .L218
 271:../../Drivers/STM32H7xx_HAL_Driver/Src/stm32h7xx_ll_usb.c **** 
 3334              		.loc 1 271 5 is_stmt 1 view .LVU1076
 271:../../Drivers/STM32H7xx_HAL_Driver/Src/stm32h7xx_ll_usb.c **** 
 3335              		.loc 1 271 19 is_stmt 0 view .LVU1077
 3336 0012 C368     		ldr	r3, [r0, #12]
 3337 0014 43F08043 		orr	r3, r3, #1073741824
 3338 0018 C360     		str	r3, [r0, #12]
 255:../../Drivers/STM32H7xx_HAL_Driver/Src/stm32h7xx_ll_usb.c **** 
 3339              		.loc 1 255 12 view .LVU1078
 3340 001a 0024     		movs	r4, #0
 3341              	.LVL270:
 3342              	.L217:
 273:../../Drivers/STM32H7xx_HAL_Driver/Src/stm32h7xx_ll_usb.c ****     {
 3343              		.loc 1 273 5 is_stmt 1 discriminator 2 view .LVU1079
 275:../../Drivers/STM32H7xx_HAL_Driver/Src/stm32h7xx_ll_usb.c ****       ms++;
 3344              		.loc 1 275 7 discriminator 2 view .LVU1080
 3345 001c 0120     		movs	r0, #1
 3346 001e FFF7FEFF 		bl	HAL_Delay
 3347              	.LVL271:
 276:../../Drivers/STM32H7xx_HAL_Driver/Src/stm32h7xx_ll_usb.c ****     } while ((USB_GetMode(USBx) != (uint32_t)USB_DEVICE_MODE) && (ms < 50U));
 3348              		.loc 1 276 7 discriminator 2 view .LVU1081
 276:../../Drivers/STM32H7xx_HAL_Driver/Src/stm32h7xx_ll_usb.c ****     } while ((USB_GetMode(USBx) != (uint32_t)USB_DEVICE_MODE) && (ms < 50U));
 3349              		.loc 1 276 9 is_stmt 0 discriminator 2 view .LVU1082
 3350 0022 0134     		adds	r4, r4, #1
ARM GAS  C:\Users\gigig\AppData\Local\Temp\ccBJNrpK.s 			page 102


 3351              	.LVL272:
 277:../../Drivers/STM32H7xx_HAL_Driver/Src/stm32h7xx_ll_usb.c ****   }
 3352              		.loc 1 277 13 is_stmt 1 discriminator 2 view .LVU1083
 277:../../Drivers/STM32H7xx_HAL_Driver/Src/stm32h7xx_ll_usb.c ****   }
 3353              		.loc 1 277 15 is_stmt 0 discriminator 2 view .LVU1084
 3354 0024 2846     		mov	r0, r5
 3355 0026 FFF7FEFF 		bl	USB_GetMode
 3356              	.LVL273:
 277:../../Drivers/STM32H7xx_HAL_Driver/Src/stm32h7xx_ll_usb.c ****   }
 3357              		.loc 1 277 5 discriminator 2 view .LVU1085
 3358 002a 08B1     		cbz	r0, .L214
 277:../../Drivers/STM32H7xx_HAL_Driver/Src/stm32h7xx_ll_usb.c ****   }
 3359              		.loc 1 277 63 discriminator 1 view .LVU1086
 3360 002c 312C     		cmp	r4, #49
 3361 002e F5D9     		bls	.L217
 3362              	.L214:
 284:../../Drivers/STM32H7xx_HAL_Driver/Src/stm32h7xx_ll_usb.c ****   {
 3363              		.loc 1 284 3 is_stmt 1 view .LVU1087
 284:../../Drivers/STM32H7xx_HAL_Driver/Src/stm32h7xx_ll_usb.c ****   {
 3364              		.loc 1 284 6 is_stmt 0 view .LVU1088
 3365 0030 322C     		cmp	r4, #50
 3366 0032 14D0     		beq	.L219
 289:../../Drivers/STM32H7xx_HAL_Driver/Src/stm32h7xx_ll_usb.c **** }
 3367              		.loc 1 289 10 view .LVU1089
 3368 0034 0020     		movs	r0, #0
 3369              	.LVL274:
 3370              	.L216:
 290:../../Drivers/STM32H7xx_HAL_Driver/Src/stm32h7xx_ll_usb.c **** 
 3371              		.loc 1 290 1 view .LVU1090
 3372 0036 38BD     		pop	{r3, r4, r5, pc}
 3373              	.LVL275:
 3374              	.L221:
 261:../../Drivers/STM32H7xx_HAL_Driver/Src/stm32h7xx_ll_usb.c **** 
 3375              		.loc 1 261 5 is_stmt 1 view .LVU1091
 261:../../Drivers/STM32H7xx_HAL_Driver/Src/stm32h7xx_ll_usb.c **** 
 3376              		.loc 1 261 19 is_stmt 0 view .LVU1092
 3377 0038 C368     		ldr	r3, [r0, #12]
 3378 003a 43F00053 		orr	r3, r3, #536870912
 3379 003e C360     		str	r3, [r0, #12]
 255:../../Drivers/STM32H7xx_HAL_Driver/Src/stm32h7xx_ll_usb.c **** 
 3380              		.loc 1 255 12 view .LVU1093
 3381 0040 0024     		movs	r4, #0
 3382              	.LVL276:
 3383              	.L215:
 263:../../Drivers/STM32H7xx_HAL_Driver/Src/stm32h7xx_ll_usb.c ****     {
 3384              		.loc 1 263 5 is_stmt 1 discriminator 2 view .LVU1094
 265:../../Drivers/STM32H7xx_HAL_Driver/Src/stm32h7xx_ll_usb.c ****       ms++;
 3385              		.loc 1 265 7 discriminator 2 view .LVU1095
 3386 0042 0120     		movs	r0, #1
 3387 0044 FFF7FEFF 		bl	HAL_Delay
 3388              	.LVL277:
 266:../../Drivers/STM32H7xx_HAL_Driver/Src/stm32h7xx_ll_usb.c ****     } while ((USB_GetMode(USBx) != (uint32_t)USB_HOST_MODE) && (ms < 50U));
 3389              		.loc 1 266 7 discriminator 2 view .LVU1096
 266:../../Drivers/STM32H7xx_HAL_Driver/Src/stm32h7xx_ll_usb.c ****     } while ((USB_GetMode(USBx) != (uint32_t)USB_HOST_MODE) && (ms < 50U));
 3390              		.loc 1 266 9 is_stmt 0 discriminator 2 view .LVU1097
 3391 0048 0134     		adds	r4, r4, #1
 3392              	.LVL278:
ARM GAS  C:\Users\gigig\AppData\Local\Temp\ccBJNrpK.s 			page 103


 267:../../Drivers/STM32H7xx_HAL_Driver/Src/stm32h7xx_ll_usb.c ****   }
 3393              		.loc 1 267 13 is_stmt 1 discriminator 2 view .LVU1098
 267:../../Drivers/STM32H7xx_HAL_Driver/Src/stm32h7xx_ll_usb.c ****   }
 3394              		.loc 1 267 15 is_stmt 0 discriminator 2 view .LVU1099
 3395 004a 2846     		mov	r0, r5
 3396 004c FFF7FEFF 		bl	USB_GetMode
 3397              	.LVL279:
 267:../../Drivers/STM32H7xx_HAL_Driver/Src/stm32h7xx_ll_usb.c ****   }
 3398              		.loc 1 267 5 discriminator 2 view .LVU1100
 3399 0050 0128     		cmp	r0, #1
 3400 0052 EDD0     		beq	.L214
 267:../../Drivers/STM32H7xx_HAL_Driver/Src/stm32h7xx_ll_usb.c ****   }
 3401              		.loc 1 267 61 discriminator 1 view .LVU1101
 3402 0054 312C     		cmp	r4, #49
 3403 0056 F4D9     		bls	.L215
 3404 0058 EAE7     		b	.L214
 3405              	.LVL280:
 3406              	.L218:
 281:../../Drivers/STM32H7xx_HAL_Driver/Src/stm32h7xx_ll_usb.c ****   }
 3407              		.loc 1 281 12 view .LVU1102
 3408 005a 0120     		movs	r0, #1
 3409              	.LVL281:
 281:../../Drivers/STM32H7xx_HAL_Driver/Src/stm32h7xx_ll_usb.c ****   }
 3410              		.loc 1 281 12 view .LVU1103
 3411 005c EBE7     		b	.L216
 3412              	.LVL282:
 3413              	.L219:
 286:../../Drivers/STM32H7xx_HAL_Driver/Src/stm32h7xx_ll_usb.c ****   }
 3414              		.loc 1 286 12 view .LVU1104
 3415 005e 0120     		movs	r0, #1
 3416 0060 E9E7     		b	.L216
 3417              		.cfi_endproc
 3418              	.LFE148:
 3420              		.section	.text.USB_ActivateSetup,"ax",%progbits
 3421              		.align	1
 3422              		.global	USB_ActivateSetup
 3423              		.syntax unified
 3424              		.thumb
 3425              		.thumb_func
 3427              	USB_ActivateSetup:
 3428              	.LVL283:
 3429              	.LFB176:
1334:../../Drivers/STM32H7xx_HAL_Driver/Src/stm32h7xx_ll_usb.c ****   uint32_t USBx_BASE = (uint32_t)USBx;
 3430              		.loc 1 1334 1 is_stmt 1 view -0
 3431              		.cfi_startproc
 3432              		@ args = 0, pretend = 0, frame = 0
 3433              		@ frame_needed = 0, uses_anonymous_args = 0
 3434              		@ link register save eliminated.
1335:../../Drivers/STM32H7xx_HAL_Driver/Src/stm32h7xx_ll_usb.c **** 
 3435              		.loc 1 1335 3 view .LVU1106
1338:../../Drivers/STM32H7xx_HAL_Driver/Src/stm32h7xx_ll_usb.c **** 
 3436              		.loc 1 1338 3 view .LVU1107
1338:../../Drivers/STM32H7xx_HAL_Driver/Src/stm32h7xx_ll_usb.c **** 
 3437              		.loc 1 1338 26 is_stmt 0 view .LVU1108
 3438 0000 D0F80029 		ldr	r2, [r0, #2304]
 3439 0004 054B     		ldr	r3, .L223
 3440 0006 1340     		ands	r3, r3, r2
ARM GAS  C:\Users\gigig\AppData\Local\Temp\ccBJNrpK.s 			page 104


 3441 0008 C0F80039 		str	r3, [r0, #2304]
1340:../../Drivers/STM32H7xx_HAL_Driver/Src/stm32h7xx_ll_usb.c **** 
 3442              		.loc 1 1340 3 is_stmt 1 view .LVU1109
1340:../../Drivers/STM32H7xx_HAL_Driver/Src/stm32h7xx_ll_usb.c **** 
 3443              		.loc 1 1340 21 is_stmt 0 view .LVU1110
 3444 000c D0F80438 		ldr	r3, [r0, #2052]
 3445 0010 43F48073 		orr	r3, r3, #256
 3446 0014 C0F80438 		str	r3, [r0, #2052]
1342:../../Drivers/STM32H7xx_HAL_Driver/Src/stm32h7xx_ll_usb.c **** }
 3447              		.loc 1 1342 3 is_stmt 1 view .LVU1111
1343:../../Drivers/STM32H7xx_HAL_Driver/Src/stm32h7xx_ll_usb.c **** 
 3448              		.loc 1 1343 1 is_stmt 0 view .LVU1112
 3449 0018 0020     		movs	r0, #0
 3450              	.LVL284:
1343:../../Drivers/STM32H7xx_HAL_Driver/Src/stm32h7xx_ll_usb.c **** 
 3451              		.loc 1 1343 1 view .LVU1113
 3452 001a 7047     		bx	lr
 3453              	.L224:
 3454              		.align	2
 3455              	.L223:
 3456 001c 00F8FFFF 		.word	-2048
 3457              		.cfi_endproc
 3458              	.LFE176:
 3460              		.section	.text.USB_EP0_OutStart,"ax",%progbits
 3461              		.align	1
 3462              		.global	USB_EP0_OutStart
 3463              		.syntax unified
 3464              		.thumb
 3465              		.thumb_func
 3467              	USB_EP0_OutStart:
 3468              	.LVL285:
 3469              	.LFB177:
1356:../../Drivers/STM32H7xx_HAL_Driver/Src/stm32h7xx_ll_usb.c ****   uint32_t USBx_BASE = (uint32_t)USBx;
 3470              		.loc 1 1356 1 is_stmt 1 view -0
 3471              		.cfi_startproc
 3472              		@ args = 0, pretend = 0, frame = 0
 3473              		@ frame_needed = 0, uses_anonymous_args = 0
 3474              		@ link register save eliminated.
1356:../../Drivers/STM32H7xx_HAL_Driver/Src/stm32h7xx_ll_usb.c ****   uint32_t USBx_BASE = (uint32_t)USBx;
 3475              		.loc 1 1356 1 is_stmt 0 view .LVU1115
 3476 0000 10B4     		push	{r4}
 3477              	.LCFI43:
 3478              		.cfi_def_cfa_offset 4
 3479              		.cfi_offset 4, -4
1357:../../Drivers/STM32H7xx_HAL_Driver/Src/stm32h7xx_ll_usb.c ****   uint32_t gSNPSiD = *(__IO uint32_t *)(&USBx->CID + 0x1U);
 3480              		.loc 1 1357 3 is_stmt 1 view .LVU1116
 3481              	.LVL286:
1358:../../Drivers/STM32H7xx_HAL_Driver/Src/stm32h7xx_ll_usb.c **** 
 3482              		.loc 1 1358 3 view .LVU1117
1358:../../Drivers/STM32H7xx_HAL_Driver/Src/stm32h7xx_ll_usb.c **** 
 3483              		.loc 1 1358 12 is_stmt 0 view .LVU1118
 3484 0002 046C     		ldr	r4, [r0, #64]
 3485              	.LVL287:
1360:../../Drivers/STM32H7xx_HAL_Driver/Src/stm32h7xx_ll_usb.c ****   {
 3486              		.loc 1 1360 3 is_stmt 1 view .LVU1119
1360:../../Drivers/STM32H7xx_HAL_Driver/Src/stm32h7xx_ll_usb.c ****   {
 3487              		.loc 1 1360 6 is_stmt 0 view .LVU1120
ARM GAS  C:\Users\gigig\AppData\Local\Temp\ccBJNrpK.s 			page 105


 3488 0004 154B     		ldr	r3, .L230
 3489 0006 9C42     		cmp	r4, r3
 3490 0008 03D9     		bls	.L226
1362:../../Drivers/STM32H7xx_HAL_Driver/Src/stm32h7xx_ll_usb.c ****     {
 3491              		.loc 1 1362 5 is_stmt 1 view .LVU1121
1362:../../Drivers/STM32H7xx_HAL_Driver/Src/stm32h7xx_ll_usb.c ****     {
 3492              		.loc 1 1362 24 is_stmt 0 view .LVU1122
 3493 000a D0F8003B 		ldr	r3, [r0, #2816]
1362:../../Drivers/STM32H7xx_HAL_Driver/Src/stm32h7xx_ll_usb.c ****     {
 3494              		.loc 1 1362 8 view .LVU1123
 3495 000e 002B     		cmp	r3, #0
 3496 0010 16DB     		blt	.L227
 3497              	.L226:
1368:../../Drivers/STM32H7xx_HAL_Driver/Src/stm32h7xx_ll_usb.c ****   USBx_OUTEP(0U)->DOEPTSIZ |= (USB_OTG_DOEPTSIZ_PKTCNT & (1U << 19));
 3498              		.loc 1 1368 3 is_stmt 1 view .LVU1124
1368:../../Drivers/STM32H7xx_HAL_Driver/Src/stm32h7xx_ll_usb.c ****   USBx_OUTEP(0U)->DOEPTSIZ |= (USB_OTG_DOEPTSIZ_PKTCNT & (1U << 19));
 3499              		.loc 1 1368 28 is_stmt 0 view .LVU1125
 3500 0012 0024     		movs	r4, #0
 3501              	.LVL288:
1368:../../Drivers/STM32H7xx_HAL_Driver/Src/stm32h7xx_ll_usb.c ****   USBx_OUTEP(0U)->DOEPTSIZ |= (USB_OTG_DOEPTSIZ_PKTCNT & (1U << 19));
 3502              		.loc 1 1368 28 view .LVU1126
 3503 0014 C0F8104B 		str	r4, [r0, #2832]
1369:../../Drivers/STM32H7xx_HAL_Driver/Src/stm32h7xx_ll_usb.c ****   USBx_OUTEP(0U)->DOEPTSIZ |= (3U * 8U);
 3504              		.loc 1 1369 3 is_stmt 1 view .LVU1127
1369:../../Drivers/STM32H7xx_HAL_Driver/Src/stm32h7xx_ll_usb.c ****   USBx_OUTEP(0U)->DOEPTSIZ |= (3U * 8U);
 3505              		.loc 1 1369 28 is_stmt 0 view .LVU1128
 3506 0018 D0F8104B 		ldr	r4, [r0, #2832]
 3507 001c 44F40024 		orr	r4, r4, #524288
 3508 0020 C0F8104B 		str	r4, [r0, #2832]
1370:../../Drivers/STM32H7xx_HAL_Driver/Src/stm32h7xx_ll_usb.c ****   USBx_OUTEP(0U)->DOEPTSIZ |=  USB_OTG_DOEPTSIZ_STUPCNT;
 3509              		.loc 1 1370 3 is_stmt 1 view .LVU1129
1370:../../Drivers/STM32H7xx_HAL_Driver/Src/stm32h7xx_ll_usb.c ****   USBx_OUTEP(0U)->DOEPTSIZ |=  USB_OTG_DOEPTSIZ_STUPCNT;
 3510              		.loc 1 1370 28 is_stmt 0 view .LVU1130
 3511 0024 D0F8104B 		ldr	r4, [r0, #2832]
 3512 0028 44F01804 		orr	r4, r4, #24
 3513 002c C0F8104B 		str	r4, [r0, #2832]
1371:../../Drivers/STM32H7xx_HAL_Driver/Src/stm32h7xx_ll_usb.c **** 
 3514              		.loc 1 1371 3 is_stmt 1 view .LVU1131
1371:../../Drivers/STM32H7xx_HAL_Driver/Src/stm32h7xx_ll_usb.c **** 
 3515              		.loc 1 1371 28 is_stmt 0 view .LVU1132
 3516 0030 D0F8104B 		ldr	r4, [r0, #2832]
 3517 0034 44F0C044 		orr	r4, r4, #1610612736
 3518 0038 C0F8104B 		str	r4, [r0, #2832]
1373:../../Drivers/STM32H7xx_HAL_Driver/Src/stm32h7xx_ll_usb.c ****   {
 3519              		.loc 1 1373 3 is_stmt 1 view .LVU1133
1373:../../Drivers/STM32H7xx_HAL_Driver/Src/stm32h7xx_ll_usb.c ****   {
 3520              		.loc 1 1373 6 is_stmt 0 view .LVU1134
 3521 003c 0129     		cmp	r1, #1
 3522 003e 03D0     		beq	.L229
 3523              	.L227:
1381:../../Drivers/STM32H7xx_HAL_Driver/Src/stm32h7xx_ll_usb.c **** 
 3524              		.loc 1 1381 1 view .LVU1135
 3525 0040 0020     		movs	r0, #0
 3526              	.LVL289:
1381:../../Drivers/STM32H7xx_HAL_Driver/Src/stm32h7xx_ll_usb.c **** 
 3527              		.loc 1 1381 1 view .LVU1136
 3528 0042 5DF8044B 		ldr	r4, [sp], #4
ARM GAS  C:\Users\gigig\AppData\Local\Temp\ccBJNrpK.s 			page 106


 3529              	.LCFI44:
 3530              		.cfi_remember_state
 3531              		.cfi_restore 4
 3532              		.cfi_def_cfa_offset 0
 3533 0046 7047     		bx	lr
 3534              	.LVL290:
 3535              	.L229:
 3536              	.LCFI45:
 3537              		.cfi_restore_state
1375:../../Drivers/STM32H7xx_HAL_Driver/Src/stm32h7xx_ll_usb.c ****     /* EP enable */
 3538              		.loc 1 1375 5 is_stmt 1 view .LVU1137
1375:../../Drivers/STM32H7xx_HAL_Driver/Src/stm32h7xx_ll_usb.c ****     /* EP enable */
 3539              		.loc 1 1375 29 is_stmt 0 view .LVU1138
 3540 0048 C0F8142B 		str	r2, [r0, #2836]
1377:../../Drivers/STM32H7xx_HAL_Driver/Src/stm32h7xx_ll_usb.c ****   }
 3541              		.loc 1 1377 5 is_stmt 1 view .LVU1139
1377:../../Drivers/STM32H7xx_HAL_Driver/Src/stm32h7xx_ll_usb.c ****   }
 3542              		.loc 1 1377 29 is_stmt 0 view .LVU1140
 3543 004c D0F8003B 		ldr	r3, [r0, #2816]
 3544 0050 43F08023 		orr	r3, r3, #-2147450880
 3545 0054 C0F8003B 		str	r3, [r0, #2816]
 3546 0058 F2E7     		b	.L227
 3547              	.L231:
 3548 005a 00BF     		.align	2
 3549              	.L230:
 3550 005c 0A30544F 		.word	1330917386
 3551              		.cfi_endproc
 3552              	.LFE177:
 3554              		.section	.text.USB_HostInit,"ax",%progbits
 3555              		.align	1
 3556              		.global	USB_HostInit
 3557              		.syntax unified
 3558              		.thumb
 3559              		.thumb_func
 3561              	USB_HostInit:
 3562              	.LVL291:
 3563              	.LFB179:
1419:../../Drivers/STM32H7xx_HAL_Driver/Src/stm32h7xx_ll_usb.c **** 
1420:../../Drivers/STM32H7xx_HAL_Driver/Src/stm32h7xx_ll_usb.c **** /**
1421:../../Drivers/STM32H7xx_HAL_Driver/Src/stm32h7xx_ll_usb.c ****   * @brief  USB_HostInit : Initializes the USB OTG controller registers
1422:../../Drivers/STM32H7xx_HAL_Driver/Src/stm32h7xx_ll_usb.c ****   *         for Host mode
1423:../../Drivers/STM32H7xx_HAL_Driver/Src/stm32h7xx_ll_usb.c ****   * @param  USBx  Selected device
1424:../../Drivers/STM32H7xx_HAL_Driver/Src/stm32h7xx_ll_usb.c ****   * @param  cfg   pointer to a USB_OTG_CfgTypeDef structure that contains
1425:../../Drivers/STM32H7xx_HAL_Driver/Src/stm32h7xx_ll_usb.c ****   *         the configuration information for the specified USBx peripheral.
1426:../../Drivers/STM32H7xx_HAL_Driver/Src/stm32h7xx_ll_usb.c ****   * @retval HAL status
1427:../../Drivers/STM32H7xx_HAL_Driver/Src/stm32h7xx_ll_usb.c ****   */
1428:../../Drivers/STM32H7xx_HAL_Driver/Src/stm32h7xx_ll_usb.c **** HAL_StatusTypeDef USB_HostInit(USB_OTG_GlobalTypeDef *USBx, USB_OTG_CfgTypeDef cfg)
1429:../../Drivers/STM32H7xx_HAL_Driver/Src/stm32h7xx_ll_usb.c **** {
 3564              		.loc 1 1429 1 is_stmt 1 view -0
 3565              		.cfi_startproc
 3566              		@ args = 56, pretend = 16, frame = 0
 3567              		@ frame_needed = 0, uses_anonymous_args = 0
 3568              		.loc 1 1429 1 is_stmt 0 view .LVU1142
 3569 0000 84B0     		sub	sp, sp, #16
 3570              	.LCFI46:
 3571              		.cfi_def_cfa_offset 16
 3572 0002 38B5     		push	{r3, r4, r5, lr}
ARM GAS  C:\Users\gigig\AppData\Local\Temp\ccBJNrpK.s 			page 107


 3573              	.LCFI47:
 3574              		.cfi_def_cfa_offset 32
 3575              		.cfi_offset 3, -32
 3576              		.cfi_offset 4, -28
 3577              		.cfi_offset 5, -24
 3578              		.cfi_offset 14, -20
 3579 0004 0446     		mov	r4, r0
 3580 0006 05A8     		add	r0, sp, #20
 3581 0008 80E80E00 		stm	r0, {r1, r2, r3}
1430:../../Drivers/STM32H7xx_HAL_Driver/Src/stm32h7xx_ll_usb.c ****   HAL_StatusTypeDef ret = HAL_OK;
 3582              		.loc 1 1430 3 is_stmt 1 view .LVU1143
 3583              	.LVL292:
1431:../../Drivers/STM32H7xx_HAL_Driver/Src/stm32h7xx_ll_usb.c ****   uint32_t USBx_BASE = (uint32_t)USBx;
 3584              		.loc 1 1431 3 view .LVU1144
1432:../../Drivers/STM32H7xx_HAL_Driver/Src/stm32h7xx_ll_usb.c ****   uint32_t i;
 3585              		.loc 1 1432 3 view .LVU1145
1433:../../Drivers/STM32H7xx_HAL_Driver/Src/stm32h7xx_ll_usb.c **** 
1434:../../Drivers/STM32H7xx_HAL_Driver/Src/stm32h7xx_ll_usb.c ****   /* Restart the Phy Clock */
1435:../../Drivers/STM32H7xx_HAL_Driver/Src/stm32h7xx_ll_usb.c ****   USBx_PCGCCTL = 0U;
 3586              		.loc 1 1435 3 view .LVU1146
 3587              		.loc 1 1435 16 is_stmt 0 view .LVU1147
 3588 000c 0023     		movs	r3, #0
 3589 000e C4F8003E 		str	r3, [r4, #3584]
1436:../../Drivers/STM32H7xx_HAL_Driver/Src/stm32h7xx_ll_usb.c **** 
1437:../../Drivers/STM32H7xx_HAL_Driver/Src/stm32h7xx_ll_usb.c ****   /* Disable VBUS sensing */
1438:../../Drivers/STM32H7xx_HAL_Driver/Src/stm32h7xx_ll_usb.c ****   USBx->GCCFG &= ~(USB_OTG_GCCFG_VBDEN);
 3590              		.loc 1 1438 3 is_stmt 1 view .LVU1148
 3591              		.loc 1 1438 15 is_stmt 0 view .LVU1149
 3592 0012 A36B     		ldr	r3, [r4, #56]
 3593 0014 23F40013 		bic	r3, r3, #2097152
 3594 0018 A363     		str	r3, [r4, #56]
1439:../../Drivers/STM32H7xx_HAL_Driver/Src/stm32h7xx_ll_usb.c **** 
1440:../../Drivers/STM32H7xx_HAL_Driver/Src/stm32h7xx_ll_usb.c ****   /* Disable Battery chargin detector */
1441:../../Drivers/STM32H7xx_HAL_Driver/Src/stm32h7xx_ll_usb.c ****   USBx->GCCFG &= ~(USB_OTG_GCCFG_BCDEN);
 3595              		.loc 1 1441 3 is_stmt 1 view .LVU1150
 3596              		.loc 1 1441 15 is_stmt 0 view .LVU1151
 3597 001a A36B     		ldr	r3, [r4, #56]
 3598 001c 23F40033 		bic	r3, r3, #131072
 3599 0020 A363     		str	r3, [r4, #56]
1442:../../Drivers/STM32H7xx_HAL_Driver/Src/stm32h7xx_ll_usb.c **** 
1443:../../Drivers/STM32H7xx_HAL_Driver/Src/stm32h7xx_ll_usb.c **** 
1444:../../Drivers/STM32H7xx_HAL_Driver/Src/stm32h7xx_ll_usb.c ****   if ((USBx->CID & (0x1U << 8)) != 0U)
 3600              		.loc 1 1444 3 is_stmt 1 view .LVU1152
 3601              		.loc 1 1444 12 is_stmt 0 view .LVU1153
 3602 0022 E36B     		ldr	r3, [r4, #60]
 3603              		.loc 1 1444 6 view .LVU1154
 3604 0024 13F4807F 		tst	r3, #256
 3605 0028 10D0     		beq	.L233
1445:../../Drivers/STM32H7xx_HAL_Driver/Src/stm32h7xx_ll_usb.c ****   {
1446:../../Drivers/STM32H7xx_HAL_Driver/Src/stm32h7xx_ll_usb.c ****     if (cfg.speed == USBH_FSLS_SPEED)
 3606              		.loc 1 1446 5 is_stmt 1 view .LVU1155
 3607              		.loc 1 1446 12 is_stmt 0 view .LVU1156
 3608 002a 089B     		ldr	r3, [sp, #32]
 3609              		.loc 1 1446 8 view .LVU1157
 3610 002c 012B     		cmp	r3, #1
 3611 002e 06D0     		beq	.L246
1447:../../Drivers/STM32H7xx_HAL_Driver/Src/stm32h7xx_ll_usb.c ****     {
ARM GAS  C:\Users\gigig\AppData\Local\Temp\ccBJNrpK.s 			page 108


1448:../../Drivers/STM32H7xx_HAL_Driver/Src/stm32h7xx_ll_usb.c ****       /* Force Device Enumeration to FS/LS mode only */
1449:../../Drivers/STM32H7xx_HAL_Driver/Src/stm32h7xx_ll_usb.c ****       USBx_HOST->HCFG |= USB_OTG_HCFG_FSLSS;
1450:../../Drivers/STM32H7xx_HAL_Driver/Src/stm32h7xx_ll_usb.c ****     }
1451:../../Drivers/STM32H7xx_HAL_Driver/Src/stm32h7xx_ll_usb.c ****     else
1452:../../Drivers/STM32H7xx_HAL_Driver/Src/stm32h7xx_ll_usb.c ****     {
1453:../../Drivers/STM32H7xx_HAL_Driver/Src/stm32h7xx_ll_usb.c ****       /* Set default Max speed support */
1454:../../Drivers/STM32H7xx_HAL_Driver/Src/stm32h7xx_ll_usb.c ****       USBx_HOST->HCFG &= ~(USB_OTG_HCFG_FSLSS);
 3612              		.loc 1 1454 7 is_stmt 1 view .LVU1158
 3613              		.loc 1 1454 23 is_stmt 0 view .LVU1159
 3614 0030 D4F80034 		ldr	r3, [r4, #1024]
 3615 0034 23F00403 		bic	r3, r3, #4
 3616 0038 C4F80034 		str	r3, [r4, #1024]
 3617 003c 0CE0     		b	.L235
 3618              	.L246:
1449:../../Drivers/STM32H7xx_HAL_Driver/Src/stm32h7xx_ll_usb.c ****     }
 3619              		.loc 1 1449 7 is_stmt 1 view .LVU1160
1449:../../Drivers/STM32H7xx_HAL_Driver/Src/stm32h7xx_ll_usb.c ****     }
 3620              		.loc 1 1449 23 is_stmt 0 view .LVU1161
 3621 003e D4F80034 		ldr	r3, [r4, #1024]
 3622 0042 43F00403 		orr	r3, r3, #4
 3623 0046 C4F80034 		str	r3, [r4, #1024]
 3624 004a 05E0     		b	.L235
 3625              	.L233:
1455:../../Drivers/STM32H7xx_HAL_Driver/Src/stm32h7xx_ll_usb.c ****     }
1456:../../Drivers/STM32H7xx_HAL_Driver/Src/stm32h7xx_ll_usb.c ****   }
1457:../../Drivers/STM32H7xx_HAL_Driver/Src/stm32h7xx_ll_usb.c ****   else
1458:../../Drivers/STM32H7xx_HAL_Driver/Src/stm32h7xx_ll_usb.c ****   {
1459:../../Drivers/STM32H7xx_HAL_Driver/Src/stm32h7xx_ll_usb.c ****     /* Set default Max speed support */
1460:../../Drivers/STM32H7xx_HAL_Driver/Src/stm32h7xx_ll_usb.c ****     USBx_HOST->HCFG &= ~(USB_OTG_HCFG_FSLSS);
 3626              		.loc 1 1460 5 is_stmt 1 view .LVU1162
 3627              		.loc 1 1460 21 is_stmt 0 view .LVU1163
 3628 004c D4F80034 		ldr	r3, [r4, #1024]
 3629 0050 23F00403 		bic	r3, r3, #4
 3630 0054 C4F80034 		str	r3, [r4, #1024]
 3631              	.L235:
1461:../../Drivers/STM32H7xx_HAL_Driver/Src/stm32h7xx_ll_usb.c ****   }
1462:../../Drivers/STM32H7xx_HAL_Driver/Src/stm32h7xx_ll_usb.c **** 
1463:../../Drivers/STM32H7xx_HAL_Driver/Src/stm32h7xx_ll_usb.c ****   /* Make sure the FIFOs are flushed. */
1464:../../Drivers/STM32H7xx_HAL_Driver/Src/stm32h7xx_ll_usb.c ****   if (USB_FlushTxFifo(USBx, 0x10U) != HAL_OK) /* all Tx FIFOs */
 3632              		.loc 1 1464 3 is_stmt 1 view .LVU1164
 3633              		.loc 1 1464 7 is_stmt 0 view .LVU1165
 3634 0058 1021     		movs	r1, #16
 3635 005a 2046     		mov	r0, r4
 3636              	.LVL293:
 3637              		.loc 1 1464 7 view .LVU1166
 3638 005c FFF7FEFF 		bl	USB_FlushTxFifo
 3639              	.LVL294:
 3640              		.loc 1 1464 6 view .LVU1167
 3641 0060 0546     		mov	r5, r0
 3642 0062 00B1     		cbz	r0, .L236
1465:../../Drivers/STM32H7xx_HAL_Driver/Src/stm32h7xx_ll_usb.c ****   {
1466:../../Drivers/STM32H7xx_HAL_Driver/Src/stm32h7xx_ll_usb.c ****     ret = HAL_ERROR;
 3643              		.loc 1 1466 9 view .LVU1168
 3644 0064 0125     		movs	r5, #1
 3645              	.L236:
 3646              	.LVL295:
1467:../../Drivers/STM32H7xx_HAL_Driver/Src/stm32h7xx_ll_usb.c ****   }
ARM GAS  C:\Users\gigig\AppData\Local\Temp\ccBJNrpK.s 			page 109


1468:../../Drivers/STM32H7xx_HAL_Driver/Src/stm32h7xx_ll_usb.c **** 
1469:../../Drivers/STM32H7xx_HAL_Driver/Src/stm32h7xx_ll_usb.c ****   if (USB_FlushRxFifo(USBx) != HAL_OK)
 3647              		.loc 1 1469 3 is_stmt 1 view .LVU1169
 3648              		.loc 1 1469 7 is_stmt 0 view .LVU1170
 3649 0066 2046     		mov	r0, r4
 3650 0068 FFF7FEFF 		bl	USB_FlushRxFifo
 3651              	.LVL296:
 3652              		.loc 1 1469 6 view .LVU1171
 3653 006c 00B1     		cbz	r0, .L237
1470:../../Drivers/STM32H7xx_HAL_Driver/Src/stm32h7xx_ll_usb.c ****   {
1471:../../Drivers/STM32H7xx_HAL_Driver/Src/stm32h7xx_ll_usb.c ****     ret = HAL_ERROR;
 3654              		.loc 1 1471 9 view .LVU1172
 3655 006e 0125     		movs	r5, #1
 3656              	.LVL297:
 3657              	.L237:
1472:../../Drivers/STM32H7xx_HAL_Driver/Src/stm32h7xx_ll_usb.c ****   }
1473:../../Drivers/STM32H7xx_HAL_Driver/Src/stm32h7xx_ll_usb.c **** 
1474:../../Drivers/STM32H7xx_HAL_Driver/Src/stm32h7xx_ll_usb.c ****   /* Clear all pending HC Interrupts */
1475:../../Drivers/STM32H7xx_HAL_Driver/Src/stm32h7xx_ll_usb.c ****   for (i = 0U; i < cfg.Host_channels; i++)
 3658              		.loc 1 1475 3 is_stmt 1 view .LVU1173
 3659              		.loc 1 1475 10 is_stmt 0 view .LVU1174
 3660 0070 0022     		movs	r2, #0
 3661              		.loc 1 1475 3 view .LVU1175
 3662 0072 09E0     		b	.L238
 3663              	.LVL298:
 3664              	.L239:
1476:../../Drivers/STM32H7xx_HAL_Driver/Src/stm32h7xx_ll_usb.c ****   {
1477:../../Drivers/STM32H7xx_HAL_Driver/Src/stm32h7xx_ll_usb.c ****     USBx_HC(i)->HCINT = CLEAR_INTERRUPT_MASK;
 3665              		.loc 1 1477 5 is_stmt 1 discriminator 3 view .LVU1176
 3666 0074 04EB4213 		add	r3, r4, r2, lsl #5
 3667              		.loc 1 1477 23 is_stmt 0 discriminator 3 view .LVU1177
 3668 0078 4FF0FF31 		mov	r1, #-1
 3669 007c C3F80815 		str	r1, [r3, #1288]
1478:../../Drivers/STM32H7xx_HAL_Driver/Src/stm32h7xx_ll_usb.c ****     USBx_HC(i)->HCINTMSK = 0U;
 3670              		.loc 1 1478 5 is_stmt 1 discriminator 3 view .LVU1178
 3671              		.loc 1 1478 26 is_stmt 0 discriminator 3 view .LVU1179
 3672 0080 0021     		movs	r1, #0
 3673 0082 C3F80C15 		str	r1, [r3, #1292]
1475:../../Drivers/STM32H7xx_HAL_Driver/Src/stm32h7xx_ll_usb.c ****   {
 3674              		.loc 1 1475 39 is_stmt 1 discriminator 3 view .LVU1180
1475:../../Drivers/STM32H7xx_HAL_Driver/Src/stm32h7xx_ll_usb.c ****   {
 3675              		.loc 1 1475 40 is_stmt 0 discriminator 3 view .LVU1181
 3676 0086 0132     		adds	r2, r2, #1
 3677              	.LVL299:
 3678              	.L238:
1475:../../Drivers/STM32H7xx_HAL_Driver/Src/stm32h7xx_ll_usb.c ****   {
 3679              		.loc 1 1475 16 is_stmt 1 discriminator 1 view .LVU1182
1475:../../Drivers/STM32H7xx_HAL_Driver/Src/stm32h7xx_ll_usb.c ****   {
 3680              		.loc 1 1475 23 is_stmt 0 discriminator 1 view .LVU1183
 3681 0088 069B     		ldr	r3, [sp, #24]
1475:../../Drivers/STM32H7xx_HAL_Driver/Src/stm32h7xx_ll_usb.c ****   {
 3682              		.loc 1 1475 3 discriminator 1 view .LVU1184
 3683 008a 9342     		cmp	r3, r2
 3684 008c F2D8     		bhi	.L239
1479:../../Drivers/STM32H7xx_HAL_Driver/Src/stm32h7xx_ll_usb.c ****   }
1480:../../Drivers/STM32H7xx_HAL_Driver/Src/stm32h7xx_ll_usb.c **** 
1481:../../Drivers/STM32H7xx_HAL_Driver/Src/stm32h7xx_ll_usb.c ****   /* Disable all interrupts. */
ARM GAS  C:\Users\gigig\AppData\Local\Temp\ccBJNrpK.s 			page 110


1482:../../Drivers/STM32H7xx_HAL_Driver/Src/stm32h7xx_ll_usb.c ****   USBx->GINTMSK = 0U;
 3685              		.loc 1 1482 3 is_stmt 1 view .LVU1185
 3686              		.loc 1 1482 17 is_stmt 0 view .LVU1186
 3687 008e 0023     		movs	r3, #0
 3688 0090 A361     		str	r3, [r4, #24]
1483:../../Drivers/STM32H7xx_HAL_Driver/Src/stm32h7xx_ll_usb.c **** 
1484:../../Drivers/STM32H7xx_HAL_Driver/Src/stm32h7xx_ll_usb.c ****   /* Clear any pending interrupts */
1485:../../Drivers/STM32H7xx_HAL_Driver/Src/stm32h7xx_ll_usb.c ****   USBx->GINTSTS = CLEAR_INTERRUPT_MASK;
 3689              		.loc 1 1485 3 is_stmt 1 view .LVU1187
 3690              		.loc 1 1485 17 is_stmt 0 view .LVU1188
 3691 0092 4FF0FF33 		mov	r3, #-1
 3692 0096 6361     		str	r3, [r4, #20]
1486:../../Drivers/STM32H7xx_HAL_Driver/Src/stm32h7xx_ll_usb.c **** 
1487:../../Drivers/STM32H7xx_HAL_Driver/Src/stm32h7xx_ll_usb.c ****   if ((USBx->CID & (0x1U << 8)) != 0U)
 3693              		.loc 1 1487 3 is_stmt 1 view .LVU1189
 3694              		.loc 1 1487 12 is_stmt 0 view .LVU1190
 3695 0098 E36B     		ldr	r3, [r4, #60]
 3696              		.loc 1 1487 6 view .LVU1191
 3697 009a 13F4807F 		tst	r3, #256
 3698 009e 17D0     		beq	.L240
1488:../../Drivers/STM32H7xx_HAL_Driver/Src/stm32h7xx_ll_usb.c ****   {
1489:../../Drivers/STM32H7xx_HAL_Driver/Src/stm32h7xx_ll_usb.c ****     /* set Rx FIFO size */
1490:../../Drivers/STM32H7xx_HAL_Driver/Src/stm32h7xx_ll_usb.c ****     USBx->GRXFSIZ  = 0x200U;
 3699              		.loc 1 1490 5 is_stmt 1 view .LVU1192
 3700              		.loc 1 1490 20 is_stmt 0 view .LVU1193
 3701 00a0 4FF40073 		mov	r3, #512
 3702 00a4 6362     		str	r3, [r4, #36]
1491:../../Drivers/STM32H7xx_HAL_Driver/Src/stm32h7xx_ll_usb.c ****     USBx->DIEPTXF0_HNPTXFSIZ = (uint32_t)(((0x100U << 16) & USB_OTG_NPTXFD) | 0x200U);
 3703              		.loc 1 1491 5 is_stmt 1 view .LVU1194
 3704              		.loc 1 1491 30 is_stmt 0 view .LVU1195
 3705 00a6 03F18073 		add	r3, r3, #16777216
 3706 00aa A362     		str	r3, [r4, #40]
1492:../../Drivers/STM32H7xx_HAL_Driver/Src/stm32h7xx_ll_usb.c ****     USBx->HPTXFSIZ = (uint32_t)(((0xE0U << 16) & USB_OTG_HPTXFSIZ_PTXFD) | 0x300U);
 3707              		.loc 1 1492 5 is_stmt 1 view .LVU1196
 3708              		.loc 1 1492 20 is_stmt 0 view .LVU1197
 3709 00ac 0D4B     		ldr	r3, .L247
 3710 00ae C4F80031 		str	r3, [r4, #256]
 3711              	.L241:
1493:../../Drivers/STM32H7xx_HAL_Driver/Src/stm32h7xx_ll_usb.c ****   }
1494:../../Drivers/STM32H7xx_HAL_Driver/Src/stm32h7xx_ll_usb.c ****   else
1495:../../Drivers/STM32H7xx_HAL_Driver/Src/stm32h7xx_ll_usb.c ****   {
1496:../../Drivers/STM32H7xx_HAL_Driver/Src/stm32h7xx_ll_usb.c ****     /* set Rx FIFO size */
1497:../../Drivers/STM32H7xx_HAL_Driver/Src/stm32h7xx_ll_usb.c ****     USBx->GRXFSIZ  = 0x80U;
1498:../../Drivers/STM32H7xx_HAL_Driver/Src/stm32h7xx_ll_usb.c ****     USBx->DIEPTXF0_HNPTXFSIZ = (uint32_t)(((0x60U << 16) & USB_OTG_NPTXFD) | 0x80U);
1499:../../Drivers/STM32H7xx_HAL_Driver/Src/stm32h7xx_ll_usb.c ****     USBx->HPTXFSIZ = (uint32_t)(((0x40U << 16)& USB_OTG_HPTXFSIZ_PTXFD) | 0xE0U);
1500:../../Drivers/STM32H7xx_HAL_Driver/Src/stm32h7xx_ll_usb.c ****   }
1501:../../Drivers/STM32H7xx_HAL_Driver/Src/stm32h7xx_ll_usb.c **** 
1502:../../Drivers/STM32H7xx_HAL_Driver/Src/stm32h7xx_ll_usb.c ****   /* Enable the common interrupts */
1503:../../Drivers/STM32H7xx_HAL_Driver/Src/stm32h7xx_ll_usb.c ****   if (cfg.dma_enable == 0U)
 3712              		.loc 1 1503 3 is_stmt 1 view .LVU1198
 3713              		.loc 1 1503 10 is_stmt 0 view .LVU1199
 3714 00b2 079B     		ldr	r3, [sp, #28]
 3715              		.loc 1 1503 6 view .LVU1200
 3716 00b4 1BB9     		cbnz	r3, .L242
1504:../../Drivers/STM32H7xx_HAL_Driver/Src/stm32h7xx_ll_usb.c ****   {
1505:../../Drivers/STM32H7xx_HAL_Driver/Src/stm32h7xx_ll_usb.c ****     USBx->GINTMSK |= USB_OTG_GINTMSK_RXFLVLM;
 3717              		.loc 1 1505 5 is_stmt 1 view .LVU1201
ARM GAS  C:\Users\gigig\AppData\Local\Temp\ccBJNrpK.s 			page 111


 3718              		.loc 1 1505 19 is_stmt 0 view .LVU1202
 3719 00b6 A369     		ldr	r3, [r4, #24]
 3720 00b8 43F01003 		orr	r3, r3, #16
 3721 00bc A361     		str	r3, [r4, #24]
 3722              	.L242:
1506:../../Drivers/STM32H7xx_HAL_Driver/Src/stm32h7xx_ll_usb.c ****   }
1507:../../Drivers/STM32H7xx_HAL_Driver/Src/stm32h7xx_ll_usb.c **** 
1508:../../Drivers/STM32H7xx_HAL_Driver/Src/stm32h7xx_ll_usb.c ****   /* Enable interrupts matching to the Host mode ONLY */
1509:../../Drivers/STM32H7xx_HAL_Driver/Src/stm32h7xx_ll_usb.c ****   USBx->GINTMSK |= (USB_OTG_GINTMSK_PRTIM            | USB_OTG_GINTMSK_HCIM | \
 3723              		.loc 1 1509 3 is_stmt 1 view .LVU1203
 3724              		.loc 1 1509 17 is_stmt 0 view .LVU1204
 3725 00be A269     		ldr	r2, [r4, #24]
 3726              	.LVL300:
 3727              		.loc 1 1509 17 view .LVU1205
 3728 00c0 094B     		ldr	r3, .L247+4
 3729 00c2 1343     		orrs	r3, r3, r2
 3730 00c4 A361     		str	r3, [r4, #24]
1510:../../Drivers/STM32H7xx_HAL_Driver/Src/stm32h7xx_ll_usb.c ****                     USB_OTG_GINTMSK_SOFM             | USB_OTG_GINTSTS_DISCINT | \
1511:../../Drivers/STM32H7xx_HAL_Driver/Src/stm32h7xx_ll_usb.c ****                     USB_OTG_GINTMSK_PXFRM_IISOOXFRM  | USB_OTG_GINTMSK_WUIM);
1512:../../Drivers/STM32H7xx_HAL_Driver/Src/stm32h7xx_ll_usb.c **** 
1513:../../Drivers/STM32H7xx_HAL_Driver/Src/stm32h7xx_ll_usb.c ****   return ret;
 3731              		.loc 1 1513 3 is_stmt 1 view .LVU1206
1514:../../Drivers/STM32H7xx_HAL_Driver/Src/stm32h7xx_ll_usb.c **** }
 3732              		.loc 1 1514 1 is_stmt 0 view .LVU1207
 3733 00c6 2846     		mov	r0, r5
 3734 00c8 BDE83840 		pop	{r3, r4, r5, lr}
 3735              	.LCFI48:
 3736              		.cfi_remember_state
 3737              		.cfi_restore 14
 3738              		.cfi_restore 5
 3739              		.cfi_restore 4
 3740              		.cfi_restore 3
 3741              		.cfi_def_cfa_offset 16
 3742              	.LVL301:
 3743              		.loc 1 1514 1 view .LVU1208
 3744 00cc 04B0     		add	sp, sp, #16
 3745              	.LCFI49:
 3746              		.cfi_def_cfa_offset 0
 3747 00ce 7047     		bx	lr
 3748              	.LVL302:
 3749              	.L240:
 3750              	.LCFI50:
 3751              		.cfi_restore_state
1497:../../Drivers/STM32H7xx_HAL_Driver/Src/stm32h7xx_ll_usb.c ****     USBx->DIEPTXF0_HNPTXFSIZ = (uint32_t)(((0x60U << 16) & USB_OTG_NPTXFD) | 0x80U);
 3752              		.loc 1 1497 5 is_stmt 1 view .LVU1209
1497:../../Drivers/STM32H7xx_HAL_Driver/Src/stm32h7xx_ll_usb.c ****     USBx->DIEPTXF0_HNPTXFSIZ = (uint32_t)(((0x60U << 16) & USB_OTG_NPTXFD) | 0x80U);
 3753              		.loc 1 1497 20 is_stmt 0 view .LVU1210
 3754 00d0 8023     		movs	r3, #128
 3755 00d2 6362     		str	r3, [r4, #36]
1498:../../Drivers/STM32H7xx_HAL_Driver/Src/stm32h7xx_ll_usb.c ****     USBx->HPTXFSIZ = (uint32_t)(((0x40U << 16)& USB_OTG_HPTXFSIZ_PTXFD) | 0xE0U);
 3756              		.loc 1 1498 5 is_stmt 1 view .LVU1211
1498:../../Drivers/STM32H7xx_HAL_Driver/Src/stm32h7xx_ll_usb.c ****     USBx->HPTXFSIZ = (uint32_t)(((0x40U << 16)& USB_OTG_HPTXFSIZ_PTXFD) | 0xE0U);
 3757              		.loc 1 1498 30 is_stmt 0 view .LVU1212
 3758 00d4 03F5C003 		add	r3, r3, #6291456
 3759 00d8 A362     		str	r3, [r4, #40]
1499:../../Drivers/STM32H7xx_HAL_Driver/Src/stm32h7xx_ll_usb.c ****   }
 3760              		.loc 1 1499 5 is_stmt 1 view .LVU1213
ARM GAS  C:\Users\gigig\AppData\Local\Temp\ccBJNrpK.s 			page 112


1499:../../Drivers/STM32H7xx_HAL_Driver/Src/stm32h7xx_ll_usb.c ****   }
 3761              		.loc 1 1499 20 is_stmt 0 view .LVU1214
 3762 00da 044B     		ldr	r3, .L247+8
 3763 00dc C4F80031 		str	r3, [r4, #256]
 3764 00e0 E7E7     		b	.L241
 3765              	.L248:
 3766 00e2 00BF     		.align	2
 3767              	.L247:
 3768 00e4 0003E000 		.word	14680832
 3769 00e8 080020A3 		.word	-1558183928
 3770 00ec E0004000 		.word	4194528
 3771              		.cfi_endproc
 3772              	.LFE179:
 3774              		.section	.text.USB_InitFSLSPClkSel,"ax",%progbits
 3775              		.align	1
 3776              		.global	USB_InitFSLSPClkSel
 3777              		.syntax unified
 3778              		.thumb
 3779              		.thumb_func
 3781              	USB_InitFSLSPClkSel:
 3782              	.LVL303:
 3783              	.LFB180:
1515:../../Drivers/STM32H7xx_HAL_Driver/Src/stm32h7xx_ll_usb.c **** 
1516:../../Drivers/STM32H7xx_HAL_Driver/Src/stm32h7xx_ll_usb.c **** /**
1517:../../Drivers/STM32H7xx_HAL_Driver/Src/stm32h7xx_ll_usb.c ****   * @brief  USB_InitFSLSPClkSel : Initializes the FSLSPClkSel field of the
1518:../../Drivers/STM32H7xx_HAL_Driver/Src/stm32h7xx_ll_usb.c ****   *         HCFG register on the PHY type and set the right frame interval
1519:../../Drivers/STM32H7xx_HAL_Driver/Src/stm32h7xx_ll_usb.c ****   * @param  USBx  Selected device
1520:../../Drivers/STM32H7xx_HAL_Driver/Src/stm32h7xx_ll_usb.c ****   * @param  freq  clock frequency
1521:../../Drivers/STM32H7xx_HAL_Driver/Src/stm32h7xx_ll_usb.c ****   *          This parameter can be one of these values:
1522:../../Drivers/STM32H7xx_HAL_Driver/Src/stm32h7xx_ll_usb.c ****   *           HCFG_48_MHZ : Full Speed 48 MHz Clock
1523:../../Drivers/STM32H7xx_HAL_Driver/Src/stm32h7xx_ll_usb.c ****   *           HCFG_6_MHZ : Low Speed 6 MHz Clock
1524:../../Drivers/STM32H7xx_HAL_Driver/Src/stm32h7xx_ll_usb.c ****   * @retval HAL status
1525:../../Drivers/STM32H7xx_HAL_Driver/Src/stm32h7xx_ll_usb.c ****   */
1526:../../Drivers/STM32H7xx_HAL_Driver/Src/stm32h7xx_ll_usb.c **** HAL_StatusTypeDef USB_InitFSLSPClkSel(USB_OTG_GlobalTypeDef *USBx, uint8_t freq)
1527:../../Drivers/STM32H7xx_HAL_Driver/Src/stm32h7xx_ll_usb.c **** {
 3784              		.loc 1 1527 1 is_stmt 1 view -0
 3785              		.cfi_startproc
 3786              		@ args = 0, pretend = 0, frame = 0
 3787              		@ frame_needed = 0, uses_anonymous_args = 0
 3788              		@ link register save eliminated.
1528:../../Drivers/STM32H7xx_HAL_Driver/Src/stm32h7xx_ll_usb.c ****   uint32_t USBx_BASE = (uint32_t)USBx;
 3789              		.loc 1 1528 3 view .LVU1216
1529:../../Drivers/STM32H7xx_HAL_Driver/Src/stm32h7xx_ll_usb.c **** 
1530:../../Drivers/STM32H7xx_HAL_Driver/Src/stm32h7xx_ll_usb.c ****   USBx_HOST->HCFG &= ~(USB_OTG_HCFG_FSLSPCS);
 3790              		.loc 1 1530 3 view .LVU1217
 3791              		.loc 1 1530 19 is_stmt 0 view .LVU1218
 3792 0000 00F5806C 		add	ip, r0, #1024
 3793 0004 D0F80034 		ldr	r3, [r0, #1024]
 3794 0008 23F00303 		bic	r3, r3, #3
 3795 000c C0F80034 		str	r3, [r0, #1024]
1531:../../Drivers/STM32H7xx_HAL_Driver/Src/stm32h7xx_ll_usb.c ****   USBx_HOST->HCFG |= (uint32_t)freq & USB_OTG_HCFG_FSLSPCS;
 3796              		.loc 1 1531 3 is_stmt 1 view .LVU1219
 3797              		.loc 1 1531 19 is_stmt 0 view .LVU1220
 3798 0010 D0F80034 		ldr	r3, [r0, #1024]
 3799              		.loc 1 1531 37 view .LVU1221
 3800 0014 01F00302 		and	r2, r1, #3
 3801              		.loc 1 1531 19 view .LVU1222
ARM GAS  C:\Users\gigig\AppData\Local\Temp\ccBJNrpK.s 			page 113


 3802 0018 1343     		orrs	r3, r3, r2
 3803 001a C0F80034 		str	r3, [r0, #1024]
1532:../../Drivers/STM32H7xx_HAL_Driver/Src/stm32h7xx_ll_usb.c **** 
1533:../../Drivers/STM32H7xx_HAL_Driver/Src/stm32h7xx_ll_usb.c ****   if (freq == HCFG_48_MHZ)
 3804              		.loc 1 1533 3 is_stmt 1 view .LVU1223
 3805              		.loc 1 1533 6 is_stmt 0 view .LVU1224
 3806 001e 0129     		cmp	r1, #1
 3807 0020 07D0     		beq	.L253
1534:../../Drivers/STM32H7xx_HAL_Driver/Src/stm32h7xx_ll_usb.c ****   {
1535:../../Drivers/STM32H7xx_HAL_Driver/Src/stm32h7xx_ll_usb.c ****     USBx_HOST->HFIR = HFIR_48_MHZ;
1536:../../Drivers/STM32H7xx_HAL_Driver/Src/stm32h7xx_ll_usb.c ****   }
1537:../../Drivers/STM32H7xx_HAL_Driver/Src/stm32h7xx_ll_usb.c ****   else if (freq == HCFG_6_MHZ)
 3808              		.loc 1 1537 8 is_stmt 1 view .LVU1225
 3809              		.loc 1 1537 11 is_stmt 0 view .LVU1226
 3810 0022 0229     		cmp	r1, #2
 3811 0024 0BD1     		bne	.L252
1538:../../Drivers/STM32H7xx_HAL_Driver/Src/stm32h7xx_ll_usb.c ****   {
1539:../../Drivers/STM32H7xx_HAL_Driver/Src/stm32h7xx_ll_usb.c ****     USBx_HOST->HFIR = HFIR_6_MHZ;
 3812              		.loc 1 1539 5 is_stmt 1 view .LVU1227
 3813              		.loc 1 1539 21 is_stmt 0 view .LVU1228
 3814 0026 41F27073 		movw	r3, #6000
 3815 002a CCF80430 		str	r3, [ip, #4]
1540:../../Drivers/STM32H7xx_HAL_Driver/Src/stm32h7xx_ll_usb.c ****   }
1541:../../Drivers/STM32H7xx_HAL_Driver/Src/stm32h7xx_ll_usb.c ****   else
1542:../../Drivers/STM32H7xx_HAL_Driver/Src/stm32h7xx_ll_usb.c ****   {
1543:../../Drivers/STM32H7xx_HAL_Driver/Src/stm32h7xx_ll_usb.c ****     return HAL_ERROR;
1544:../../Drivers/STM32H7xx_HAL_Driver/Src/stm32h7xx_ll_usb.c ****   }
1545:../../Drivers/STM32H7xx_HAL_Driver/Src/stm32h7xx_ll_usb.c **** 
1546:../../Drivers/STM32H7xx_HAL_Driver/Src/stm32h7xx_ll_usb.c ****   return HAL_OK;
 3816              		.loc 1 1546 10 view .LVU1229
 3817 002e 0020     		movs	r0, #0
 3818              	.LVL304:
 3819              		.loc 1 1546 10 view .LVU1230
 3820 0030 7047     		bx	lr
 3821              	.LVL305:
 3822              	.L253:
1535:../../Drivers/STM32H7xx_HAL_Driver/Src/stm32h7xx_ll_usb.c ****   }
 3823              		.loc 1 1535 5 is_stmt 1 view .LVU1231
1535:../../Drivers/STM32H7xx_HAL_Driver/Src/stm32h7xx_ll_usb.c ****   }
 3824              		.loc 1 1535 21 is_stmt 0 view .LVU1232
 3825 0032 4BF68033 		movw	r3, #48000
 3826 0036 CCF80430 		str	r3, [ip, #4]
 3827              		.loc 1 1546 10 view .LVU1233
 3828 003a 0020     		movs	r0, #0
 3829              	.LVL306:
 3830              		.loc 1 1546 10 view .LVU1234
 3831 003c 7047     		bx	lr
 3832              	.LVL307:
 3833              	.L252:
1543:../../Drivers/STM32H7xx_HAL_Driver/Src/stm32h7xx_ll_usb.c ****   }
 3834              		.loc 1 1543 12 view .LVU1235
 3835 003e 0120     		movs	r0, #1
 3836              	.LVL308:
1547:../../Drivers/STM32H7xx_HAL_Driver/Src/stm32h7xx_ll_usb.c **** }
 3837              		.loc 1 1547 1 view .LVU1236
 3838 0040 7047     		bx	lr
 3839              		.cfi_endproc
ARM GAS  C:\Users\gigig\AppData\Local\Temp\ccBJNrpK.s 			page 114


 3840              	.LFE180:
 3842              		.section	.text.USB_ResetPort,"ax",%progbits
 3843              		.align	1
 3844              		.global	USB_ResetPort
 3845              		.syntax unified
 3846              		.thumb
 3847              		.thumb_func
 3849              	USB_ResetPort:
 3850              	.LVL309:
 3851              	.LFB181:
1548:../../Drivers/STM32H7xx_HAL_Driver/Src/stm32h7xx_ll_usb.c **** 
1549:../../Drivers/STM32H7xx_HAL_Driver/Src/stm32h7xx_ll_usb.c **** /**
1550:../../Drivers/STM32H7xx_HAL_Driver/Src/stm32h7xx_ll_usb.c ****   * @brief  USB_OTG_ResetPort : Reset Host Port
1551:../../Drivers/STM32H7xx_HAL_Driver/Src/stm32h7xx_ll_usb.c ****   * @param  USBx  Selected device
1552:../../Drivers/STM32H7xx_HAL_Driver/Src/stm32h7xx_ll_usb.c ****   * @retval HAL status
1553:../../Drivers/STM32H7xx_HAL_Driver/Src/stm32h7xx_ll_usb.c ****   * @note (1)The application must wait at least 10 ms
1554:../../Drivers/STM32H7xx_HAL_Driver/Src/stm32h7xx_ll_usb.c ****   *   before clearing the reset bit.
1555:../../Drivers/STM32H7xx_HAL_Driver/Src/stm32h7xx_ll_usb.c ****   */
1556:../../Drivers/STM32H7xx_HAL_Driver/Src/stm32h7xx_ll_usb.c **** HAL_StatusTypeDef USB_ResetPort(USB_OTG_GlobalTypeDef *USBx)
1557:../../Drivers/STM32H7xx_HAL_Driver/Src/stm32h7xx_ll_usb.c **** {
 3852              		.loc 1 1557 1 is_stmt 1 view -0
 3853              		.cfi_startproc
 3854              		@ args = 0, pretend = 0, frame = 8
 3855              		@ frame_needed = 0, uses_anonymous_args = 0
 3856              		.loc 1 1557 1 is_stmt 0 view .LVU1238
 3857 0000 30B5     		push	{r4, r5, lr}
 3858              	.LCFI51:
 3859              		.cfi_def_cfa_offset 12
 3860              		.cfi_offset 4, -12
 3861              		.cfi_offset 5, -8
 3862              		.cfi_offset 14, -4
 3863 0002 83B0     		sub	sp, sp, #12
 3864              	.LCFI52:
 3865              		.cfi_def_cfa_offset 24
 3866 0004 0446     		mov	r4, r0
1558:../../Drivers/STM32H7xx_HAL_Driver/Src/stm32h7xx_ll_usb.c ****   uint32_t USBx_BASE = (uint32_t)USBx;
 3867              		.loc 1 1558 3 is_stmt 1 view .LVU1239
 3868              	.LVL310:
1559:../../Drivers/STM32H7xx_HAL_Driver/Src/stm32h7xx_ll_usb.c **** 
1560:../../Drivers/STM32H7xx_HAL_Driver/Src/stm32h7xx_ll_usb.c ****   __IO uint32_t hprt0 = 0U;
 3869              		.loc 1 1560 3 view .LVU1240
 3870              		.loc 1 1560 17 is_stmt 0 view .LVU1241
 3871 0006 0025     		movs	r5, #0
 3872 0008 0195     		str	r5, [sp, #4]
1561:../../Drivers/STM32H7xx_HAL_Driver/Src/stm32h7xx_ll_usb.c **** 
1562:../../Drivers/STM32H7xx_HAL_Driver/Src/stm32h7xx_ll_usb.c ****   hprt0 = USBx_HPRT0;
 3873              		.loc 1 1562 3 is_stmt 1 view .LVU1242
 3874              		.loc 1 1562 11 is_stmt 0 view .LVU1243
 3875 000a D0F84034 		ldr	r3, [r0, #1088]
 3876              		.loc 1 1562 9 view .LVU1244
 3877 000e 0193     		str	r3, [sp, #4]
1563:../../Drivers/STM32H7xx_HAL_Driver/Src/stm32h7xx_ll_usb.c **** 
1564:../../Drivers/STM32H7xx_HAL_Driver/Src/stm32h7xx_ll_usb.c ****   hprt0 &= ~(USB_OTG_HPRT_PENA | USB_OTG_HPRT_PCDET |
 3878              		.loc 1 1564 3 is_stmt 1 view .LVU1245
 3879              		.loc 1 1564 9 is_stmt 0 view .LVU1246
 3880 0010 019B     		ldr	r3, [sp, #4]
 3881 0012 23F02E03 		bic	r3, r3, #46
ARM GAS  C:\Users\gigig\AppData\Local\Temp\ccBJNrpK.s 			page 115


 3882 0016 0193     		str	r3, [sp, #4]
1565:../../Drivers/STM32H7xx_HAL_Driver/Src/stm32h7xx_ll_usb.c ****              USB_OTG_HPRT_PENCHNG | USB_OTG_HPRT_POCCHNG);
1566:../../Drivers/STM32H7xx_HAL_Driver/Src/stm32h7xx_ll_usb.c **** 
1567:../../Drivers/STM32H7xx_HAL_Driver/Src/stm32h7xx_ll_usb.c ****   USBx_HPRT0 = (USB_OTG_HPRT_PRST | hprt0);
 3883              		.loc 1 1567 3 is_stmt 1 view .LVU1247
 3884              		.loc 1 1567 35 is_stmt 0 view .LVU1248
 3885 0018 019B     		ldr	r3, [sp, #4]
 3886 001a 43F48073 		orr	r3, r3, #256
 3887              		.loc 1 1567 14 view .LVU1249
 3888 001e C0F84034 		str	r3, [r0, #1088]
1568:../../Drivers/STM32H7xx_HAL_Driver/Src/stm32h7xx_ll_usb.c ****   HAL_Delay(100U);                                 /* See Note #1 */
 3889              		.loc 1 1568 3 is_stmt 1 view .LVU1250
 3890 0022 6420     		movs	r0, #100
 3891              	.LVL311:
 3892              		.loc 1 1568 3 is_stmt 0 view .LVU1251
 3893 0024 FFF7FEFF 		bl	HAL_Delay
 3894              	.LVL312:
1569:../../Drivers/STM32H7xx_HAL_Driver/Src/stm32h7xx_ll_usb.c ****   USBx_HPRT0 = ((~USB_OTG_HPRT_PRST) & hprt0);
 3895              		.loc 1 1569 3 is_stmt 1 view .LVU1252
 3896              		.loc 1 1569 38 is_stmt 0 view .LVU1253
 3897 0028 019B     		ldr	r3, [sp, #4]
 3898 002a 23F48073 		bic	r3, r3, #256
 3899              		.loc 1 1569 14 view .LVU1254
 3900 002e C4F84034 		str	r3, [r4, #1088]
1570:../../Drivers/STM32H7xx_HAL_Driver/Src/stm32h7xx_ll_usb.c ****   HAL_Delay(10U);
 3901              		.loc 1 1570 3 is_stmt 1 view .LVU1255
 3902 0032 0A20     		movs	r0, #10
 3903 0034 FFF7FEFF 		bl	HAL_Delay
 3904              	.LVL313:
1571:../../Drivers/STM32H7xx_HAL_Driver/Src/stm32h7xx_ll_usb.c **** 
1572:../../Drivers/STM32H7xx_HAL_Driver/Src/stm32h7xx_ll_usb.c ****   return HAL_OK;
 3905              		.loc 1 1572 3 view .LVU1256
1573:../../Drivers/STM32H7xx_HAL_Driver/Src/stm32h7xx_ll_usb.c **** }
 3906              		.loc 1 1573 1 is_stmt 0 view .LVU1257
 3907 0038 2846     		mov	r0, r5
 3908 003a 03B0     		add	sp, sp, #12
 3909              	.LCFI53:
 3910              		.cfi_def_cfa_offset 12
 3911              		@ sp needed
 3912 003c 30BD     		pop	{r4, r5, pc}
 3913              		.loc 1 1573 1 view .LVU1258
 3914              		.cfi_endproc
 3915              	.LFE181:
 3917              		.section	.text.USB_DriveVbus,"ax",%progbits
 3918              		.align	1
 3919              		.global	USB_DriveVbus
 3920              		.syntax unified
 3921              		.thumb
 3922              		.thumb_func
 3924              	USB_DriveVbus:
 3925              	.LVL314:
 3926              	.LFB182:
1574:../../Drivers/STM32H7xx_HAL_Driver/Src/stm32h7xx_ll_usb.c **** 
1575:../../Drivers/STM32H7xx_HAL_Driver/Src/stm32h7xx_ll_usb.c **** /**
1576:../../Drivers/STM32H7xx_HAL_Driver/Src/stm32h7xx_ll_usb.c ****   * @brief  USB_DriveVbus : activate or de-activate vbus
1577:../../Drivers/STM32H7xx_HAL_Driver/Src/stm32h7xx_ll_usb.c ****   * @param  state  VBUS state
1578:../../Drivers/STM32H7xx_HAL_Driver/Src/stm32h7xx_ll_usb.c ****   *          This parameter can be one of these values:
ARM GAS  C:\Users\gigig\AppData\Local\Temp\ccBJNrpK.s 			page 116


1579:../../Drivers/STM32H7xx_HAL_Driver/Src/stm32h7xx_ll_usb.c ****   *           0 : Deactivate VBUS
1580:../../Drivers/STM32H7xx_HAL_Driver/Src/stm32h7xx_ll_usb.c ****   *           1 : Activate VBUS
1581:../../Drivers/STM32H7xx_HAL_Driver/Src/stm32h7xx_ll_usb.c ****   * @retval HAL status
1582:../../Drivers/STM32H7xx_HAL_Driver/Src/stm32h7xx_ll_usb.c ****   */
1583:../../Drivers/STM32H7xx_HAL_Driver/Src/stm32h7xx_ll_usb.c **** HAL_StatusTypeDef USB_DriveVbus(USB_OTG_GlobalTypeDef *USBx, uint8_t state)
1584:../../Drivers/STM32H7xx_HAL_Driver/Src/stm32h7xx_ll_usb.c **** {
 3927              		.loc 1 1584 1 is_stmt 1 view -0
 3928              		.cfi_startproc
 3929              		@ args = 0, pretend = 0, frame = 8
 3930              		@ frame_needed = 0, uses_anonymous_args = 0
 3931              		@ link register save eliminated.
 3932              		.loc 1 1584 1 is_stmt 0 view .LVU1260
 3933 0000 82B0     		sub	sp, sp, #8
 3934              	.LCFI54:
 3935              		.cfi_def_cfa_offset 8
1585:../../Drivers/STM32H7xx_HAL_Driver/Src/stm32h7xx_ll_usb.c ****   uint32_t USBx_BASE = (uint32_t)USBx;
 3936              		.loc 1 1585 3 is_stmt 1 view .LVU1261
 3937              	.LVL315:
1586:../../Drivers/STM32H7xx_HAL_Driver/Src/stm32h7xx_ll_usb.c ****   __IO uint32_t hprt0 = 0U;
 3938              		.loc 1 1586 3 view .LVU1262
 3939              		.loc 1 1586 17 is_stmt 0 view .LVU1263
 3940 0002 0023     		movs	r3, #0
 3941 0004 0193     		str	r3, [sp, #4]
1587:../../Drivers/STM32H7xx_HAL_Driver/Src/stm32h7xx_ll_usb.c **** 
1588:../../Drivers/STM32H7xx_HAL_Driver/Src/stm32h7xx_ll_usb.c ****   hprt0 = USBx_HPRT0;
 3942              		.loc 1 1588 3 is_stmt 1 view .LVU1264
 3943              		.loc 1 1588 11 is_stmt 0 view .LVU1265
 3944 0006 D0F84034 		ldr	r3, [r0, #1088]
 3945              		.loc 1 1588 9 view .LVU1266
 3946 000a 0193     		str	r3, [sp, #4]
1589:../../Drivers/STM32H7xx_HAL_Driver/Src/stm32h7xx_ll_usb.c **** 
1590:../../Drivers/STM32H7xx_HAL_Driver/Src/stm32h7xx_ll_usb.c ****   hprt0 &= ~(USB_OTG_HPRT_PENA | USB_OTG_HPRT_PCDET |
 3947              		.loc 1 1590 3 is_stmt 1 view .LVU1267
 3948              		.loc 1 1590 9 is_stmt 0 view .LVU1268
 3949 000c 019B     		ldr	r3, [sp, #4]
 3950 000e 23F02E03 		bic	r3, r3, #46
 3951 0012 0193     		str	r3, [sp, #4]
1591:../../Drivers/STM32H7xx_HAL_Driver/Src/stm32h7xx_ll_usb.c ****              USB_OTG_HPRT_PENCHNG | USB_OTG_HPRT_POCCHNG);
1592:../../Drivers/STM32H7xx_HAL_Driver/Src/stm32h7xx_ll_usb.c **** 
1593:../../Drivers/STM32H7xx_HAL_Driver/Src/stm32h7xx_ll_usb.c ****   if (((hprt0 & USB_OTG_HPRT_PPWR) == 0U) && (state == 1U))
 3952              		.loc 1 1593 3 is_stmt 1 view .LVU1269
 3953              		.loc 1 1593 15 is_stmt 0 view .LVU1270
 3954 0014 019B     		ldr	r3, [sp, #4]
 3955              		.loc 1 1593 6 view .LVU1271
 3956 0016 13F4805F 		tst	r3, #4096
 3957 001a 01D1     		bne	.L257
 3958              		.loc 1 1593 43 discriminator 1 view .LVU1272
 3959 001c 0129     		cmp	r1, #1
 3960 001e 0CD0     		beq	.L260
 3961              	.L257:
1594:../../Drivers/STM32H7xx_HAL_Driver/Src/stm32h7xx_ll_usb.c ****   {
1595:../../Drivers/STM32H7xx_HAL_Driver/Src/stm32h7xx_ll_usb.c ****     USBx_HPRT0 = (USB_OTG_HPRT_PPWR | hprt0);
1596:../../Drivers/STM32H7xx_HAL_Driver/Src/stm32h7xx_ll_usb.c ****   }
1597:../../Drivers/STM32H7xx_HAL_Driver/Src/stm32h7xx_ll_usb.c ****   if (((hprt0 & USB_OTG_HPRT_PPWR) == USB_OTG_HPRT_PPWR) && (state == 0U))
 3962              		.loc 1 1597 3 is_stmt 1 view .LVU1273
 3963              		.loc 1 1597 15 is_stmt 0 view .LVU1274
 3964 0020 019B     		ldr	r3, [sp, #4]
ARM GAS  C:\Users\gigig\AppData\Local\Temp\ccBJNrpK.s 			page 117


 3965              		.loc 1 1597 6 view .LVU1275
 3966 0022 13F4805F 		tst	r3, #4096
 3967 0026 05D0     		beq	.L258
 3968              		.loc 1 1597 58 discriminator 1 view .LVU1276
 3969 0028 21B9     		cbnz	r1, .L258
1598:../../Drivers/STM32H7xx_HAL_Driver/Src/stm32h7xx_ll_usb.c ****   {
1599:../../Drivers/STM32H7xx_HAL_Driver/Src/stm32h7xx_ll_usb.c ****     USBx_HPRT0 = ((~USB_OTG_HPRT_PPWR) & hprt0);
 3970              		.loc 1 1599 5 is_stmt 1 view .LVU1277
 3971              		.loc 1 1599 40 is_stmt 0 view .LVU1278
 3972 002a 019B     		ldr	r3, [sp, #4]
 3973 002c 23F48053 		bic	r3, r3, #4096
 3974              		.loc 1 1599 16 view .LVU1279
 3975 0030 C0F84034 		str	r3, [r0, #1088]
 3976              	.L258:
1600:../../Drivers/STM32H7xx_HAL_Driver/Src/stm32h7xx_ll_usb.c ****   }
1601:../../Drivers/STM32H7xx_HAL_Driver/Src/stm32h7xx_ll_usb.c ****   return HAL_OK;
 3977              		.loc 1 1601 3 is_stmt 1 view .LVU1280
1602:../../Drivers/STM32H7xx_HAL_Driver/Src/stm32h7xx_ll_usb.c **** }
 3978              		.loc 1 1602 1 is_stmt 0 view .LVU1281
 3979 0034 0020     		movs	r0, #0
 3980              	.LVL316:
 3981              		.loc 1 1602 1 view .LVU1282
 3982 0036 02B0     		add	sp, sp, #8
 3983              	.LCFI55:
 3984              		.cfi_remember_state
 3985              		.cfi_def_cfa_offset 0
 3986              		@ sp needed
 3987 0038 7047     		bx	lr
 3988              	.LVL317:
 3989              	.L260:
 3990              	.LCFI56:
 3991              		.cfi_restore_state
1595:../../Drivers/STM32H7xx_HAL_Driver/Src/stm32h7xx_ll_usb.c ****   }
 3992              		.loc 1 1595 5 is_stmt 1 view .LVU1283
1595:../../Drivers/STM32H7xx_HAL_Driver/Src/stm32h7xx_ll_usb.c ****   }
 3993              		.loc 1 1595 37 is_stmt 0 view .LVU1284
 3994 003a 019B     		ldr	r3, [sp, #4]
 3995 003c 43F48053 		orr	r3, r3, #4096
1595:../../Drivers/STM32H7xx_HAL_Driver/Src/stm32h7xx_ll_usb.c ****   }
 3996              		.loc 1 1595 16 view .LVU1285
 3997 0040 C0F84034 		str	r3, [r0, #1088]
 3998 0044 ECE7     		b	.L257
 3999              		.cfi_endproc
 4000              	.LFE182:
 4002              		.section	.text.USB_GetHostSpeed,"ax",%progbits
 4003              		.align	1
 4004              		.global	USB_GetHostSpeed
 4005              		.syntax unified
 4006              		.thumb
 4007              		.thumb_func
 4009              	USB_GetHostSpeed:
 4010              	.LVL318:
 4011              	.LFB183:
1603:../../Drivers/STM32H7xx_HAL_Driver/Src/stm32h7xx_ll_usb.c **** 
1604:../../Drivers/STM32H7xx_HAL_Driver/Src/stm32h7xx_ll_usb.c **** /**
1605:../../Drivers/STM32H7xx_HAL_Driver/Src/stm32h7xx_ll_usb.c ****   * @brief  Return Host Core speed
1606:../../Drivers/STM32H7xx_HAL_Driver/Src/stm32h7xx_ll_usb.c ****   * @param  USBx  Selected device
ARM GAS  C:\Users\gigig\AppData\Local\Temp\ccBJNrpK.s 			page 118


1607:../../Drivers/STM32H7xx_HAL_Driver/Src/stm32h7xx_ll_usb.c ****   * @retval speed : Host speed
1608:../../Drivers/STM32H7xx_HAL_Driver/Src/stm32h7xx_ll_usb.c ****   *          This parameter can be one of these values:
1609:../../Drivers/STM32H7xx_HAL_Driver/Src/stm32h7xx_ll_usb.c ****   *            @arg HCD_SPEED_HIGH: High speed mode
1610:../../Drivers/STM32H7xx_HAL_Driver/Src/stm32h7xx_ll_usb.c ****   *            @arg HCD_SPEED_FULL: Full speed mode
1611:../../Drivers/STM32H7xx_HAL_Driver/Src/stm32h7xx_ll_usb.c ****   *            @arg HCD_SPEED_LOW: Low speed mode
1612:../../Drivers/STM32H7xx_HAL_Driver/Src/stm32h7xx_ll_usb.c ****   */
1613:../../Drivers/STM32H7xx_HAL_Driver/Src/stm32h7xx_ll_usb.c **** uint32_t USB_GetHostSpeed(USB_OTG_GlobalTypeDef *USBx)
1614:../../Drivers/STM32H7xx_HAL_Driver/Src/stm32h7xx_ll_usb.c **** {
 4012              		.loc 1 1614 1 is_stmt 1 view -0
 4013              		.cfi_startproc
 4014              		@ args = 0, pretend = 0, frame = 8
 4015              		@ frame_needed = 0, uses_anonymous_args = 0
 4016              		@ link register save eliminated.
 4017              		.loc 1 1614 1 is_stmt 0 view .LVU1287
 4018 0000 82B0     		sub	sp, sp, #8
 4019              	.LCFI57:
 4020              		.cfi_def_cfa_offset 8
1615:../../Drivers/STM32H7xx_HAL_Driver/Src/stm32h7xx_ll_usb.c ****   uint32_t USBx_BASE = (uint32_t)USBx;
 4021              		.loc 1 1615 3 is_stmt 1 view .LVU1288
 4022              	.LVL319:
1616:../../Drivers/STM32H7xx_HAL_Driver/Src/stm32h7xx_ll_usb.c ****   __IO uint32_t hprt0 = 0U;
 4023              		.loc 1 1616 3 view .LVU1289
 4024              		.loc 1 1616 17 is_stmt 0 view .LVU1290
 4025 0002 0023     		movs	r3, #0
 4026 0004 0193     		str	r3, [sp, #4]
1617:../../Drivers/STM32H7xx_HAL_Driver/Src/stm32h7xx_ll_usb.c **** 
1618:../../Drivers/STM32H7xx_HAL_Driver/Src/stm32h7xx_ll_usb.c ****   hprt0 = USBx_HPRT0;
 4027              		.loc 1 1618 3 is_stmt 1 view .LVU1291
 4028              		.loc 1 1618 11 is_stmt 0 view .LVU1292
 4029 0006 D0F84034 		ldr	r3, [r0, #1088]
 4030              		.loc 1 1618 9 view .LVU1293
 4031 000a 0193     		str	r3, [sp, #4]
1619:../../Drivers/STM32H7xx_HAL_Driver/Src/stm32h7xx_ll_usb.c ****   return ((hprt0 & USB_OTG_HPRT_PSPD) >> 17);
 4032              		.loc 1 1619 3 is_stmt 1 view .LVU1294
 4033              		.loc 1 1619 39 is_stmt 0 view .LVU1295
 4034 000c 0198     		ldr	r0, [sp, #4]
 4035              	.LVL320:
1620:../../Drivers/STM32H7xx_HAL_Driver/Src/stm32h7xx_ll_usb.c **** }
 4036              		.loc 1 1620 1 view .LVU1296
 4037 000e C0F34140 		ubfx	r0, r0, #17, #2
 4038 0012 02B0     		add	sp, sp, #8
 4039              	.LCFI58:
 4040              		.cfi_def_cfa_offset 0
 4041              		@ sp needed
 4042 0014 7047     		bx	lr
 4043              		.cfi_endproc
 4044              	.LFE183:
 4046              		.section	.text.USB_GetCurrentFrame,"ax",%progbits
 4047              		.align	1
 4048              		.global	USB_GetCurrentFrame
 4049              		.syntax unified
 4050              		.thumb
 4051              		.thumb_func
 4053              	USB_GetCurrentFrame:
 4054              	.LVL321:
 4055              	.LFB184:
1621:../../Drivers/STM32H7xx_HAL_Driver/Src/stm32h7xx_ll_usb.c **** 
ARM GAS  C:\Users\gigig\AppData\Local\Temp\ccBJNrpK.s 			page 119


1622:../../Drivers/STM32H7xx_HAL_Driver/Src/stm32h7xx_ll_usb.c **** /**
1623:../../Drivers/STM32H7xx_HAL_Driver/Src/stm32h7xx_ll_usb.c ****   * @brief  Return Host Current Frame number
1624:../../Drivers/STM32H7xx_HAL_Driver/Src/stm32h7xx_ll_usb.c ****   * @param  USBx  Selected device
1625:../../Drivers/STM32H7xx_HAL_Driver/Src/stm32h7xx_ll_usb.c ****   * @retval current frame number
1626:../../Drivers/STM32H7xx_HAL_Driver/Src/stm32h7xx_ll_usb.c ****   */
1627:../../Drivers/STM32H7xx_HAL_Driver/Src/stm32h7xx_ll_usb.c **** uint32_t USB_GetCurrentFrame(USB_OTG_GlobalTypeDef *USBx)
1628:../../Drivers/STM32H7xx_HAL_Driver/Src/stm32h7xx_ll_usb.c **** {
 4056              		.loc 1 1628 1 is_stmt 1 view -0
 4057              		.cfi_startproc
 4058              		@ args = 0, pretend = 0, frame = 0
 4059              		@ frame_needed = 0, uses_anonymous_args = 0
 4060              		@ link register save eliminated.
1629:../../Drivers/STM32H7xx_HAL_Driver/Src/stm32h7xx_ll_usb.c ****   uint32_t USBx_BASE = (uint32_t)USBx;
 4061              		.loc 1 1629 3 view .LVU1298
1630:../../Drivers/STM32H7xx_HAL_Driver/Src/stm32h7xx_ll_usb.c **** 
1631:../../Drivers/STM32H7xx_HAL_Driver/Src/stm32h7xx_ll_usb.c ****   return (USBx_HOST->HFNUM & USB_OTG_HFNUM_FRNUM);
 4062              		.loc 1 1631 3 view .LVU1299
 4063              		.loc 1 1631 11 is_stmt 0 view .LVU1300
 4064 0000 00F58060 		add	r0, r0, #1024
 4065              	.LVL322:
 4066              		.loc 1 1631 20 view .LVU1301
 4067 0004 8068     		ldr	r0, [r0, #8]
 4068              	.LVL323:
1632:../../Drivers/STM32H7xx_HAL_Driver/Src/stm32h7xx_ll_usb.c **** }
 4069              		.loc 1 1632 1 view .LVU1302
 4070 0006 80B2     		uxth	r0, r0
 4071 0008 7047     		bx	lr
 4072              		.cfi_endproc
 4073              	.LFE184:
 4075              		.section	.text.USB_HC_Init,"ax",%progbits
 4076              		.align	1
 4077              		.global	USB_HC_Init
 4078              		.syntax unified
 4079              		.thumb
 4080              		.thumb_func
 4082              	USB_HC_Init:
 4083              	.LVL324:
 4084              	.LFB185:
1633:../../Drivers/STM32H7xx_HAL_Driver/Src/stm32h7xx_ll_usb.c **** 
1634:../../Drivers/STM32H7xx_HAL_Driver/Src/stm32h7xx_ll_usb.c **** /**
1635:../../Drivers/STM32H7xx_HAL_Driver/Src/stm32h7xx_ll_usb.c ****   * @brief  Initialize a host channel
1636:../../Drivers/STM32H7xx_HAL_Driver/Src/stm32h7xx_ll_usb.c ****   * @param  USBx  Selected device
1637:../../Drivers/STM32H7xx_HAL_Driver/Src/stm32h7xx_ll_usb.c ****   * @param  ch_num  Channel number
1638:../../Drivers/STM32H7xx_HAL_Driver/Src/stm32h7xx_ll_usb.c ****   *         This parameter can be a value from 1 to 15
1639:../../Drivers/STM32H7xx_HAL_Driver/Src/stm32h7xx_ll_usb.c ****   * @param  epnum  Endpoint number
1640:../../Drivers/STM32H7xx_HAL_Driver/Src/stm32h7xx_ll_usb.c ****   *          This parameter can be a value from 1 to 15
1641:../../Drivers/STM32H7xx_HAL_Driver/Src/stm32h7xx_ll_usb.c ****   * @param  dev_address  Current device address
1642:../../Drivers/STM32H7xx_HAL_Driver/Src/stm32h7xx_ll_usb.c ****   *          This parameter can be a value from 0 to 255
1643:../../Drivers/STM32H7xx_HAL_Driver/Src/stm32h7xx_ll_usb.c ****   * @param  speed  Current device speed
1644:../../Drivers/STM32H7xx_HAL_Driver/Src/stm32h7xx_ll_usb.c ****   *          This parameter can be one of these values:
1645:../../Drivers/STM32H7xx_HAL_Driver/Src/stm32h7xx_ll_usb.c ****   *            @arg USB_OTG_SPEED_HIGH: High speed mode
1646:../../Drivers/STM32H7xx_HAL_Driver/Src/stm32h7xx_ll_usb.c ****   *            @arg USB_OTG_SPEED_FULL: Full speed mode
1647:../../Drivers/STM32H7xx_HAL_Driver/Src/stm32h7xx_ll_usb.c ****   *            @arg USB_OTG_SPEED_LOW: Low speed mode
1648:../../Drivers/STM32H7xx_HAL_Driver/Src/stm32h7xx_ll_usb.c ****   * @param  ep_type  Endpoint Type
1649:../../Drivers/STM32H7xx_HAL_Driver/Src/stm32h7xx_ll_usb.c ****   *          This parameter can be one of these values:
1650:../../Drivers/STM32H7xx_HAL_Driver/Src/stm32h7xx_ll_usb.c ****   *            @arg EP_TYPE_CTRL: Control type
1651:../../Drivers/STM32H7xx_HAL_Driver/Src/stm32h7xx_ll_usb.c ****   *            @arg EP_TYPE_ISOC: Isochronous type
ARM GAS  C:\Users\gigig\AppData\Local\Temp\ccBJNrpK.s 			page 120


1652:../../Drivers/STM32H7xx_HAL_Driver/Src/stm32h7xx_ll_usb.c ****   *            @arg EP_TYPE_BULK: Bulk type
1653:../../Drivers/STM32H7xx_HAL_Driver/Src/stm32h7xx_ll_usb.c ****   *            @arg EP_TYPE_INTR: Interrupt type
1654:../../Drivers/STM32H7xx_HAL_Driver/Src/stm32h7xx_ll_usb.c ****   * @param  mps  Max Packet Size
1655:../../Drivers/STM32H7xx_HAL_Driver/Src/stm32h7xx_ll_usb.c ****   *          This parameter can be a value from 0 to 32K
1656:../../Drivers/STM32H7xx_HAL_Driver/Src/stm32h7xx_ll_usb.c ****   * @retval HAL state
1657:../../Drivers/STM32H7xx_HAL_Driver/Src/stm32h7xx_ll_usb.c ****   */
1658:../../Drivers/STM32H7xx_HAL_Driver/Src/stm32h7xx_ll_usb.c **** HAL_StatusTypeDef USB_HC_Init(USB_OTG_GlobalTypeDef *USBx, uint8_t ch_num,
1659:../../Drivers/STM32H7xx_HAL_Driver/Src/stm32h7xx_ll_usb.c ****                               uint8_t epnum, uint8_t dev_address, uint8_t speed,
1660:../../Drivers/STM32H7xx_HAL_Driver/Src/stm32h7xx_ll_usb.c ****                               uint8_t ep_type, uint16_t mps)
1661:../../Drivers/STM32H7xx_HAL_Driver/Src/stm32h7xx_ll_usb.c **** {
 4085              		.loc 1 1661 1 is_stmt 1 view -0
 4086              		.cfi_startproc
 4087              		@ args = 12, pretend = 0, frame = 0
 4088              		@ frame_needed = 0, uses_anonymous_args = 0
 4089              		.loc 1 1661 1 is_stmt 0 view .LVU1304
 4090 0000 2DE9F843 		push	{r3, r4, r5, r6, r7, r8, r9, lr}
 4091              	.LCFI59:
 4092              		.cfi_def_cfa_offset 32
 4093              		.cfi_offset 3, -32
 4094              		.cfi_offset 4, -28
 4095              		.cfi_offset 5, -24
 4096              		.cfi_offset 6, -20
 4097              		.cfi_offset 7, -16
 4098              		.cfi_offset 8, -12
 4099              		.cfi_offset 9, -8
 4100              		.cfi_offset 14, -4
 4101 0004 9146     		mov	r9, r2
 4102 0006 1C46     		mov	r4, r3
 4103 0008 9DF82450 		ldrb	r5, [sp, #36]	@ zero_extendqisi2
1662:../../Drivers/STM32H7xx_HAL_Driver/Src/stm32h7xx_ll_usb.c ****   HAL_StatusTypeDef ret = HAL_OK;
 4104              		.loc 1 1662 3 is_stmt 1 view .LVU1305
 4105              	.LVL325:
1663:../../Drivers/STM32H7xx_HAL_Driver/Src/stm32h7xx_ll_usb.c ****   uint32_t USBx_BASE = (uint32_t)USBx;
 4106              		.loc 1 1663 3 view .LVU1306
1664:../../Drivers/STM32H7xx_HAL_Driver/Src/stm32h7xx_ll_usb.c ****   uint32_t HCcharEpDir;
 4107              		.loc 1 1664 3 view .LVU1307
1665:../../Drivers/STM32H7xx_HAL_Driver/Src/stm32h7xx_ll_usb.c ****   uint32_t HCcharLowSpeed;
 4108              		.loc 1 1665 3 view .LVU1308
1666:../../Drivers/STM32H7xx_HAL_Driver/Src/stm32h7xx_ll_usb.c ****   uint32_t HostCoreSpeed;
 4109              		.loc 1 1666 3 view .LVU1309
1667:../../Drivers/STM32H7xx_HAL_Driver/Src/stm32h7xx_ll_usb.c **** 
1668:../../Drivers/STM32H7xx_HAL_Driver/Src/stm32h7xx_ll_usb.c ****   /* Clear old interrupt conditions for this host channel. */
1669:../../Drivers/STM32H7xx_HAL_Driver/Src/stm32h7xx_ll_usb.c ****   USBx_HC((uint32_t)ch_num)->HCINT = CLEAR_INTERRUPT_MASK;
 4110              		.loc 1 1669 3 view .LVU1310
 4111 000c 00EB4116 		add	r6, r0, r1, lsl #5
 4112 0010 06F5A063 		add	r3, r6, #1280
 4113              	.LVL326:
 4114              		.loc 1 1669 36 is_stmt 0 view .LVU1311
 4115 0014 4FF0FF32 		mov	r2, #-1
 4116              	.LVL327:
 4117              		.loc 1 1669 36 view .LVU1312
 4118 0018 9A60     		str	r2, [r3, #8]
1670:../../Drivers/STM32H7xx_HAL_Driver/Src/stm32h7xx_ll_usb.c **** 
1671:../../Drivers/STM32H7xx_HAL_Driver/Src/stm32h7xx_ll_usb.c ****   /* Enable channel interrupts required for this transfer. */
1672:../../Drivers/STM32H7xx_HAL_Driver/Src/stm32h7xx_ll_usb.c ****   switch (ep_type)
 4119              		.loc 1 1672 3 is_stmt 1 view .LVU1313
 4120 001a 032D     		cmp	r5, #3
ARM GAS  C:\Users\gigig\AppData\Local\Temp\ccBJNrpK.s 			page 121


 4121 001c 00F28180 		bhi	.L274
 4122 0020 DFE805F0 		tbb	[pc, r5]
 4123              	.L267:
 4124 0024 02       		.byte	(.L268-.L267)/2
 4125 0025 71       		.byte	(.L269-.L267)/2
 4126 0026 02       		.byte	(.L268-.L267)/2
 4127 0027 18       		.byte	(.L266-.L267)/2
 4128              		.p2align 1
 4129              	.L268:
1673:../../Drivers/STM32H7xx_HAL_Driver/Src/stm32h7xx_ll_usb.c ****   {
1674:../../Drivers/STM32H7xx_HAL_Driver/Src/stm32h7xx_ll_usb.c ****     case EP_TYPE_CTRL:
1675:../../Drivers/STM32H7xx_HAL_Driver/Src/stm32h7xx_ll_usb.c ****     case EP_TYPE_BULK:
1676:../../Drivers/STM32H7xx_HAL_Driver/Src/stm32h7xx_ll_usb.c ****       USBx_HC((uint32_t)ch_num)->HCINTMSK = USB_OTG_HCINTMSK_XFRCM  |
 4130              		.loc 1 1676 7 view .LVU1314
 4131              		.loc 1 1676 43 is_stmt 0 view .LVU1315
 4132 0028 40F29D42 		movw	r2, #1181
 4133 002c DA60     		str	r2, [r3, #12]
1677:../../Drivers/STM32H7xx_HAL_Driver/Src/stm32h7xx_ll_usb.c ****                                             USB_OTG_HCINTMSK_STALLM |
1678:../../Drivers/STM32H7xx_HAL_Driver/Src/stm32h7xx_ll_usb.c ****                                             USB_OTG_HCINTMSK_TXERRM |
1679:../../Drivers/STM32H7xx_HAL_Driver/Src/stm32h7xx_ll_usb.c ****                                             USB_OTG_HCINTMSK_DTERRM |
1680:../../Drivers/STM32H7xx_HAL_Driver/Src/stm32h7xx_ll_usb.c ****                                             USB_OTG_HCINTMSK_AHBERR |
1681:../../Drivers/STM32H7xx_HAL_Driver/Src/stm32h7xx_ll_usb.c ****                                             USB_OTG_HCINTMSK_NAKM;
1682:../../Drivers/STM32H7xx_HAL_Driver/Src/stm32h7xx_ll_usb.c **** 
1683:../../Drivers/STM32H7xx_HAL_Driver/Src/stm32h7xx_ll_usb.c ****       if ((epnum & 0x80U) == 0x80U)
 4134              		.loc 1 1683 7 is_stmt 1 view .LVU1316
 4135              		.loc 1 1683 10 is_stmt 0 view .LVU1317
 4136 002e 19F0800F 		tst	r9, #128
 4137 0032 09D1     		bne	.L281
1684:../../Drivers/STM32H7xx_HAL_Driver/Src/stm32h7xx_ll_usb.c ****       {
1685:../../Drivers/STM32H7xx_HAL_Driver/Src/stm32h7xx_ll_usb.c ****         USBx_HC((uint32_t)ch_num)->HCINTMSK |= USB_OTG_HCINTMSK_BBERRM;
1686:../../Drivers/STM32H7xx_HAL_Driver/Src/stm32h7xx_ll_usb.c ****       }
1687:../../Drivers/STM32H7xx_HAL_Driver/Src/stm32h7xx_ll_usb.c ****       else
1688:../../Drivers/STM32H7xx_HAL_Driver/Src/stm32h7xx_ll_usb.c ****       {
1689:../../Drivers/STM32H7xx_HAL_Driver/Src/stm32h7xx_ll_usb.c ****         if ((USBx->CID & (0x1U << 8)) != 0U)
 4138              		.loc 1 1689 9 is_stmt 1 view .LVU1318
 4139              		.loc 1 1689 18 is_stmt 0 view .LVU1319
 4140 0034 C26B     		ldr	r2, [r0, #60]
 4141              		.loc 1 1689 12 view .LVU1320
 4142 0036 12F4807F 		tst	r2, #256
 4143 003a 74D0     		beq	.L275
1690:../../Drivers/STM32H7xx_HAL_Driver/Src/stm32h7xx_ll_usb.c ****         {
1691:../../Drivers/STM32H7xx_HAL_Driver/Src/stm32h7xx_ll_usb.c ****           USBx_HC((uint32_t)ch_num)->HCINTMSK |= USB_OTG_HCINTMSK_NYET |
 4144              		.loc 1 1691 11 is_stmt 1 view .LVU1321
 4145              		.loc 1 1691 47 is_stmt 0 view .LVU1322
 4146 003c DA68     		ldr	r2, [r3, #12]
 4147 003e 42F06002 		orr	r2, r2, #96
 4148 0042 DA60     		str	r2, [r3, #12]
1662:../../Drivers/STM32H7xx_HAL_Driver/Src/stm32h7xx_ll_usb.c ****   uint32_t USBx_BASE = (uint32_t)USBx;
 4149              		.loc 1 1662 21 view .LVU1323
 4150 0044 0027     		movs	r7, #0
 4151 0046 0CE0     		b	.L265
 4152              	.L281:
1685:../../Drivers/STM32H7xx_HAL_Driver/Src/stm32h7xx_ll_usb.c ****       }
 4153              		.loc 1 1685 9 is_stmt 1 view .LVU1324
1685:../../Drivers/STM32H7xx_HAL_Driver/Src/stm32h7xx_ll_usb.c ****       }
 4154              		.loc 1 1685 45 is_stmt 0 view .LVU1325
 4155 0048 DA68     		ldr	r2, [r3, #12]
ARM GAS  C:\Users\gigig\AppData\Local\Temp\ccBJNrpK.s 			page 122


 4156 004a 42F48072 		orr	r2, r2, #256
 4157 004e DA60     		str	r2, [r3, #12]
1662:../../Drivers/STM32H7xx_HAL_Driver/Src/stm32h7xx_ll_usb.c ****   uint32_t USBx_BASE = (uint32_t)USBx;
 4158              		.loc 1 1662 21 view .LVU1326
 4159 0050 0027     		movs	r7, #0
 4160 0052 06E0     		b	.L265
 4161              	.L266:
1692:../../Drivers/STM32H7xx_HAL_Driver/Src/stm32h7xx_ll_usb.c ****                                                  USB_OTG_HCINTMSK_ACKM;
1693:../../Drivers/STM32H7xx_HAL_Driver/Src/stm32h7xx_ll_usb.c ****         }
1694:../../Drivers/STM32H7xx_HAL_Driver/Src/stm32h7xx_ll_usb.c ****       }
1695:../../Drivers/STM32H7xx_HAL_Driver/Src/stm32h7xx_ll_usb.c ****       break;
1696:../../Drivers/STM32H7xx_HAL_Driver/Src/stm32h7xx_ll_usb.c **** 
1697:../../Drivers/STM32H7xx_HAL_Driver/Src/stm32h7xx_ll_usb.c ****     case EP_TYPE_INTR:
1698:../../Drivers/STM32H7xx_HAL_Driver/Src/stm32h7xx_ll_usb.c ****       USBx_HC((uint32_t)ch_num)->HCINTMSK = USB_OTG_HCINTMSK_XFRCM  |
 4162              		.loc 1 1698 7 is_stmt 1 view .LVU1327
 4163              		.loc 1 1698 43 is_stmt 0 view .LVU1328
 4164 0054 40F29D62 		movw	r2, #1693
 4165 0058 DA60     		str	r2, [r3, #12]
1699:../../Drivers/STM32H7xx_HAL_Driver/Src/stm32h7xx_ll_usb.c ****                                             USB_OTG_HCINTMSK_STALLM |
1700:../../Drivers/STM32H7xx_HAL_Driver/Src/stm32h7xx_ll_usb.c ****                                             USB_OTG_HCINTMSK_TXERRM |
1701:../../Drivers/STM32H7xx_HAL_Driver/Src/stm32h7xx_ll_usb.c ****                                             USB_OTG_HCINTMSK_DTERRM |
1702:../../Drivers/STM32H7xx_HAL_Driver/Src/stm32h7xx_ll_usb.c ****                                             USB_OTG_HCINTMSK_NAKM   |
1703:../../Drivers/STM32H7xx_HAL_Driver/Src/stm32h7xx_ll_usb.c ****                                             USB_OTG_HCINTMSK_AHBERR |
1704:../../Drivers/STM32H7xx_HAL_Driver/Src/stm32h7xx_ll_usb.c ****                                             USB_OTG_HCINTMSK_FRMORM;
1705:../../Drivers/STM32H7xx_HAL_Driver/Src/stm32h7xx_ll_usb.c **** 
1706:../../Drivers/STM32H7xx_HAL_Driver/Src/stm32h7xx_ll_usb.c ****       if ((epnum & 0x80U) == 0x80U)
 4166              		.loc 1 1706 7 is_stmt 1 view .LVU1329
 4167              		.loc 1 1706 10 is_stmt 0 view .LVU1330
 4168 005a 19F0800F 		tst	r9, #128
 4169 005e 4CD1     		bne	.L282
1662:../../Drivers/STM32H7xx_HAL_Driver/Src/stm32h7xx_ll_usb.c ****   uint32_t USBx_BASE = (uint32_t)USBx;
 4170              		.loc 1 1662 21 view .LVU1331
 4171 0060 0027     		movs	r7, #0
 4172              	.L265:
 4173              	.LVL328:
1707:../../Drivers/STM32H7xx_HAL_Driver/Src/stm32h7xx_ll_usb.c ****       {
1708:../../Drivers/STM32H7xx_HAL_Driver/Src/stm32h7xx_ll_usb.c ****         USBx_HC((uint32_t)ch_num)->HCINTMSK |= USB_OTG_HCINTMSK_BBERRM;
1709:../../Drivers/STM32H7xx_HAL_Driver/Src/stm32h7xx_ll_usb.c ****       }
1710:../../Drivers/STM32H7xx_HAL_Driver/Src/stm32h7xx_ll_usb.c **** 
1711:../../Drivers/STM32H7xx_HAL_Driver/Src/stm32h7xx_ll_usb.c ****       break;
1712:../../Drivers/STM32H7xx_HAL_Driver/Src/stm32h7xx_ll_usb.c **** 
1713:../../Drivers/STM32H7xx_HAL_Driver/Src/stm32h7xx_ll_usb.c ****     case EP_TYPE_ISOC:
1714:../../Drivers/STM32H7xx_HAL_Driver/Src/stm32h7xx_ll_usb.c ****       USBx_HC((uint32_t)ch_num)->HCINTMSK = USB_OTG_HCINTMSK_XFRCM  |
1715:../../Drivers/STM32H7xx_HAL_Driver/Src/stm32h7xx_ll_usb.c ****                                             USB_OTG_HCINTMSK_ACKM   |
1716:../../Drivers/STM32H7xx_HAL_Driver/Src/stm32h7xx_ll_usb.c ****                                             USB_OTG_HCINTMSK_AHBERR |
1717:../../Drivers/STM32H7xx_HAL_Driver/Src/stm32h7xx_ll_usb.c ****                                             USB_OTG_HCINTMSK_FRMORM;
1718:../../Drivers/STM32H7xx_HAL_Driver/Src/stm32h7xx_ll_usb.c **** 
1719:../../Drivers/STM32H7xx_HAL_Driver/Src/stm32h7xx_ll_usb.c ****       if ((epnum & 0x80U) == 0x80U)
1720:../../Drivers/STM32H7xx_HAL_Driver/Src/stm32h7xx_ll_usb.c ****       {
1721:../../Drivers/STM32H7xx_HAL_Driver/Src/stm32h7xx_ll_usb.c ****         USBx_HC((uint32_t)ch_num)->HCINTMSK |= (USB_OTG_HCINTMSK_TXERRM | USB_OTG_HCINTMSK_BBERRM);
1722:../../Drivers/STM32H7xx_HAL_Driver/Src/stm32h7xx_ll_usb.c ****       }
1723:../../Drivers/STM32H7xx_HAL_Driver/Src/stm32h7xx_ll_usb.c ****       break;
1724:../../Drivers/STM32H7xx_HAL_Driver/Src/stm32h7xx_ll_usb.c **** 
1725:../../Drivers/STM32H7xx_HAL_Driver/Src/stm32h7xx_ll_usb.c ****     default:
1726:../../Drivers/STM32H7xx_HAL_Driver/Src/stm32h7xx_ll_usb.c ****       ret = HAL_ERROR;
1727:../../Drivers/STM32H7xx_HAL_Driver/Src/stm32h7xx_ll_usb.c ****       break;
1728:../../Drivers/STM32H7xx_HAL_Driver/Src/stm32h7xx_ll_usb.c ****   }
ARM GAS  C:\Users\gigig\AppData\Local\Temp\ccBJNrpK.s 			page 123


1729:../../Drivers/STM32H7xx_HAL_Driver/Src/stm32h7xx_ll_usb.c **** 
1730:../../Drivers/STM32H7xx_HAL_Driver/Src/stm32h7xx_ll_usb.c ****   /* Enable host channel Halt interrupt */
1731:../../Drivers/STM32H7xx_HAL_Driver/Src/stm32h7xx_ll_usb.c ****   USBx_HC((uint32_t)ch_num)->HCINTMSK |= USB_OTG_HCINTMSK_CHHM;
 4174              		.loc 1 1731 3 is_stmt 1 view .LVU1332
 4175              		.loc 1 1731 39 is_stmt 0 view .LVU1333
 4176 0062 DA68     		ldr	r2, [r3, #12]
 4177 0064 42F00202 		orr	r2, r2, #2
 4178 0068 DA60     		str	r2, [r3, #12]
1732:../../Drivers/STM32H7xx_HAL_Driver/Src/stm32h7xx_ll_usb.c **** 
1733:../../Drivers/STM32H7xx_HAL_Driver/Src/stm32h7xx_ll_usb.c ****   /* Enable the top level host channel interrupt. */
1734:../../Drivers/STM32H7xx_HAL_Driver/Src/stm32h7xx_ll_usb.c ****   USBx_HOST->HAINTMSK |= 1UL << (ch_num & 0xFU);
 4179              		.loc 1 1734 3 is_stmt 1 view .LVU1334
 4180              		.loc 1 1734 23 is_stmt 0 view .LVU1335
 4181 006a D0F81834 		ldr	r3, [r0, #1048]
 4182              		.loc 1 1734 41 view .LVU1336
 4183 006e 01F00F01 		and	r1, r1, #15
 4184              	.LVL329:
 4185              		.loc 1 1734 30 view .LVU1337
 4186 0072 0122     		movs	r2, #1
 4187 0074 02FA01F1 		lsl	r1, r2, r1
 4188              		.loc 1 1734 23 view .LVU1338
 4189 0078 1943     		orrs	r1, r1, r3
 4190 007a C0F81814 		str	r1, [r0, #1048]
1735:../../Drivers/STM32H7xx_HAL_Driver/Src/stm32h7xx_ll_usb.c **** 
1736:../../Drivers/STM32H7xx_HAL_Driver/Src/stm32h7xx_ll_usb.c ****   /* Make sure host channel interrupts are enabled. */
1737:../../Drivers/STM32H7xx_HAL_Driver/Src/stm32h7xx_ll_usb.c ****   USBx->GINTMSK |= USB_OTG_GINTMSK_HCIM;
 4191              		.loc 1 1737 3 is_stmt 1 view .LVU1339
 4192              		.loc 1 1737 17 is_stmt 0 view .LVU1340
 4193 007e 8369     		ldr	r3, [r0, #24]
 4194 0080 43F00073 		orr	r3, r3, #33554432
 4195 0084 8361     		str	r3, [r0, #24]
1738:../../Drivers/STM32H7xx_HAL_Driver/Src/stm32h7xx_ll_usb.c **** 
1739:../../Drivers/STM32H7xx_HAL_Driver/Src/stm32h7xx_ll_usb.c ****   /* Program the HCCHAR register */
1740:../../Drivers/STM32H7xx_HAL_Driver/Src/stm32h7xx_ll_usb.c ****   if ((epnum & 0x80U) == 0x80U)
 4196              		.loc 1 1740 3 is_stmt 1 view .LVU1341
 4197              		.loc 1 1740 6 is_stmt 0 view .LVU1342
 4198 0086 19F0800F 		tst	r9, #128
 4199 008a 4ED1     		bne	.L283
1741:../../Drivers/STM32H7xx_HAL_Driver/Src/stm32h7xx_ll_usb.c ****   {
1742:../../Drivers/STM32H7xx_HAL_Driver/Src/stm32h7xx_ll_usb.c ****     HCcharEpDir = (0x1U << 15) & USB_OTG_HCCHAR_EPDIR;
1743:../../Drivers/STM32H7xx_HAL_Driver/Src/stm32h7xx_ll_usb.c ****   }
1744:../../Drivers/STM32H7xx_HAL_Driver/Src/stm32h7xx_ll_usb.c ****   else
1745:../../Drivers/STM32H7xx_HAL_Driver/Src/stm32h7xx_ll_usb.c ****   {
1746:../../Drivers/STM32H7xx_HAL_Driver/Src/stm32h7xx_ll_usb.c ****     HCcharEpDir = 0U;
 4200              		.loc 1 1746 17 view .LVU1343
 4201 008c 4FF00008 		mov	r8, #0
 4202              	.L271:
 4203              	.LVL330:
1747:../../Drivers/STM32H7xx_HAL_Driver/Src/stm32h7xx_ll_usb.c ****   }
1748:../../Drivers/STM32H7xx_HAL_Driver/Src/stm32h7xx_ll_usb.c **** 
1749:../../Drivers/STM32H7xx_HAL_Driver/Src/stm32h7xx_ll_usb.c ****   HostCoreSpeed = USB_GetHostSpeed(USBx);
 4204              		.loc 1 1749 3 is_stmt 1 view .LVU1344
 4205              		.loc 1 1749 19 is_stmt 0 view .LVU1345
 4206 0090 FFF7FEFF 		bl	USB_GetHostSpeed
 4207              	.LVL331:
1750:../../Drivers/STM32H7xx_HAL_Driver/Src/stm32h7xx_ll_usb.c **** 
1751:../../Drivers/STM32H7xx_HAL_Driver/Src/stm32h7xx_ll_usb.c ****   /* LS device plugged to HUB */
ARM GAS  C:\Users\gigig\AppData\Local\Temp\ccBJNrpK.s 			page 124


1752:../../Drivers/STM32H7xx_HAL_Driver/Src/stm32h7xx_ll_usb.c ****   if ((speed == HPRT0_PRTSPD_LOW_SPEED) && (HostCoreSpeed != HPRT0_PRTSPD_LOW_SPEED))
 4208              		.loc 1 1752 3 is_stmt 1 view .LVU1346
 4209              		.loc 1 1752 41 is_stmt 0 view .LVU1347
 4210 0094 9DF82030 		ldrb	r3, [sp, #32]	@ zero_extendqisi2
 4211 0098 022B     		cmp	r3, #2
 4212 009a 14BF     		ite	ne
 4213 009c 0023     		movne	r3, #0
 4214 009e 0123     		moveq	r3, #1
 4215 00a0 0228     		cmp	r0, #2
 4216 00a2 08BF     		it	eq
 4217 00a4 0023     		moveq	r3, #0
 4218              		.loc 1 1752 6 view .LVU1348
 4219 00a6 002B     		cmp	r3, #0
 4220 00a8 42D0     		beq	.L279
1753:../../Drivers/STM32H7xx_HAL_Driver/Src/stm32h7xx_ll_usb.c ****   {
1754:../../Drivers/STM32H7xx_HAL_Driver/Src/stm32h7xx_ll_usb.c ****     HCcharLowSpeed = (0x1U << 17) & USB_OTG_HCCHAR_LSDEV;
 4221              		.loc 1 1754 20 view .LVU1349
 4222 00aa 4FF40031 		mov	r1, #131072
 4223              	.L272:
 4224              	.LVL332:
1755:../../Drivers/STM32H7xx_HAL_Driver/Src/stm32h7xx_ll_usb.c ****   }
1756:../../Drivers/STM32H7xx_HAL_Driver/Src/stm32h7xx_ll_usb.c ****   else
1757:../../Drivers/STM32H7xx_HAL_Driver/Src/stm32h7xx_ll_usb.c ****   {
1758:../../Drivers/STM32H7xx_HAL_Driver/Src/stm32h7xx_ll_usb.c ****     HCcharLowSpeed = 0U;
1759:../../Drivers/STM32H7xx_HAL_Driver/Src/stm32h7xx_ll_usb.c ****   }
1760:../../Drivers/STM32H7xx_HAL_Driver/Src/stm32h7xx_ll_usb.c **** 
1761:../../Drivers/STM32H7xx_HAL_Driver/Src/stm32h7xx_ll_usb.c ****   USBx_HC((uint32_t)ch_num)->HCCHAR = (((uint32_t)dev_address << 22) & USB_OTG_HCCHAR_DAD) |
 4225              		.loc 1 1761 3 is_stmt 1 view .LVU1350
 4226              		.loc 1 1761 63 is_stmt 0 view .LVU1351
 4227 00ae A305     		lsls	r3, r4, #22
 4228              		.loc 1 1761 70 view .LVU1352
 4229 00b0 03F0FE53 		and	r3, r3, #532676608
1762:../../Drivers/STM32H7xx_HAL_Driver/Src/stm32h7xx_ll_usb.c ****                                       ((((uint32_t)epnum & 0x7FU) << 11) & USB_OTG_HCCHAR_EPNUM) |
 4230              		.loc 1 1762 67 view .LVU1353
 4231 00b4 4FEAC929 		lsl	r9, r9, #11
 4232              		.loc 1 1762 74 view .LVU1354
 4233 00b8 09F4F049 		and	r9, r9, #30720
1761:../../Drivers/STM32H7xx_HAL_Driver/Src/stm32h7xx_ll_usb.c ****                                       ((((uint32_t)epnum & 0x7FU) << 11) & USB_OTG_HCCHAR_EPNUM) |
 4234              		.loc 1 1761 92 view .LVU1355
 4235 00bc 43EA0903 		orr	r3, r3, r9
1763:../../Drivers/STM32H7xx_HAL_Driver/Src/stm32h7xx_ll_usb.c ****                                       (((uint32_t)ep_type << 18) & USB_OTG_HCCHAR_EPTYP) |
 4236              		.loc 1 1763 59 view .LVU1356
 4237 00c0 AC04     		lsls	r4, r5, #18
 4238              		.loc 1 1763 66 view .LVU1357
 4239 00c2 04F44024 		and	r4, r4, #786432
1762:../../Drivers/STM32H7xx_HAL_Driver/Src/stm32h7xx_ll_usb.c ****                                       ((((uint32_t)epnum & 0x7FU) << 11) & USB_OTG_HCCHAR_EPNUM) |
 4240              		.loc 1 1762 98 view .LVU1358
 4241 00c6 2343     		orrs	r3, r3, r4
1764:../../Drivers/STM32H7xx_HAL_Driver/Src/stm32h7xx_ll_usb.c ****                                       ((uint32_t)mps & USB_OTG_HCCHAR_MPSIZ) |
 4242              		.loc 1 1764 54 view .LVU1359
 4243 00c8 BDF82820 		ldrh	r2, [sp, #40]
 4244 00cc C2F30A02 		ubfx	r2, r2, #0, #11
1763:../../Drivers/STM32H7xx_HAL_Driver/Src/stm32h7xx_ll_usb.c ****                                       (((uint32_t)ep_type << 18) & USB_OTG_HCCHAR_EPTYP) |
 4245              		.loc 1 1763 90 view .LVU1360
 4246 00d0 1343     		orrs	r3, r3, r2
1765:../../Drivers/STM32H7xx_HAL_Driver/Src/stm32h7xx_ll_usb.c ****                                       USB_OTG_HCCHAR_MC_0 | HCcharEpDir | HCcharLowSpeed;
 4247              		.loc 1 1765 59 view .LVU1361
ARM GAS  C:\Users\gigig\AppData\Local\Temp\ccBJNrpK.s 			page 125


 4248 00d2 43EA0803 		orr	r3, r3, r8
 4249              		.loc 1 1765 73 view .LVU1362
 4250 00d6 0B43     		orrs	r3, r3, r1
 4251 00d8 43F48013 		orr	r3, r3, #1048576
1761:../../Drivers/STM32H7xx_HAL_Driver/Src/stm32h7xx_ll_usb.c ****                                       ((((uint32_t)epnum & 0x7FU) << 11) & USB_OTG_HCCHAR_EPNUM) |
 4252              		.loc 1 1761 37 view .LVU1363
 4253 00dc C6F80035 		str	r3, [r6, #1280]
1766:../../Drivers/STM32H7xx_HAL_Driver/Src/stm32h7xx_ll_usb.c **** 
1767:../../Drivers/STM32H7xx_HAL_Driver/Src/stm32h7xx_ll_usb.c ****   if ((ep_type == EP_TYPE_INTR) || (ep_type == EP_TYPE_ISOC))
 4254              		.loc 1 1767 3 is_stmt 1 view .LVU1364
 4255              		.loc 1 1767 6 is_stmt 0 view .LVU1365
 4256 00e0 012D     		cmp	r5, #1
 4257 00e2 18BF     		it	ne
 4258 00e4 032D     		cmpne	r5, #3
 4259 00e6 05D1     		bne	.L273
1768:../../Drivers/STM32H7xx_HAL_Driver/Src/stm32h7xx_ll_usb.c ****   {
1769:../../Drivers/STM32H7xx_HAL_Driver/Src/stm32h7xx_ll_usb.c ****     USBx_HC((uint32_t)ch_num)->HCCHAR |= USB_OTG_HCCHAR_ODDFRM;
 4260              		.loc 1 1769 5 is_stmt 1 view .LVU1366
 4261              		.loc 1 1769 39 is_stmt 0 view .LVU1367
 4262 00e8 D6F80035 		ldr	r3, [r6, #1280]
 4263 00ec 43F00053 		orr	r3, r3, #536870912
 4264 00f0 C6F80035 		str	r3, [r6, #1280]
 4265              	.L273:
1770:../../Drivers/STM32H7xx_HAL_Driver/Src/stm32h7xx_ll_usb.c ****   }
1771:../../Drivers/STM32H7xx_HAL_Driver/Src/stm32h7xx_ll_usb.c **** 
1772:../../Drivers/STM32H7xx_HAL_Driver/Src/stm32h7xx_ll_usb.c ****   return ret;
 4266              		.loc 1 1772 3 is_stmt 1 view .LVU1368
1773:../../Drivers/STM32H7xx_HAL_Driver/Src/stm32h7xx_ll_usb.c **** }
 4267              		.loc 1 1773 1 is_stmt 0 view .LVU1369
 4268 00f4 3846     		mov	r0, r7
 4269              	.LVL333:
 4270              		.loc 1 1773 1 view .LVU1370
 4271 00f6 BDE8F883 		pop	{r3, r4, r5, r6, r7, r8, r9, pc}
 4272              	.LVL334:
 4273              	.L282:
1708:../../Drivers/STM32H7xx_HAL_Driver/Src/stm32h7xx_ll_usb.c ****       }
 4274              		.loc 1 1708 9 is_stmt 1 view .LVU1371
1708:../../Drivers/STM32H7xx_HAL_Driver/Src/stm32h7xx_ll_usb.c ****       }
 4275              		.loc 1 1708 45 is_stmt 0 view .LVU1372
 4276 00fa DA68     		ldr	r2, [r3, #12]
 4277 00fc 42F48072 		orr	r2, r2, #256
 4278 0100 DA60     		str	r2, [r3, #12]
1662:../../Drivers/STM32H7xx_HAL_Driver/Src/stm32h7xx_ll_usb.c ****   uint32_t USBx_BASE = (uint32_t)USBx;
 4279              		.loc 1 1662 21 view .LVU1373
 4280 0102 0027     		movs	r7, #0
 4281 0104 ADE7     		b	.L265
 4282              	.L269:
1714:../../Drivers/STM32H7xx_HAL_Driver/Src/stm32h7xx_ll_usb.c ****                                             USB_OTG_HCINTMSK_ACKM   |
 4283              		.loc 1 1714 7 is_stmt 1 view .LVU1374
1714:../../Drivers/STM32H7xx_HAL_Driver/Src/stm32h7xx_ll_usb.c ****                                             USB_OTG_HCINTMSK_ACKM   |
 4284              		.loc 1 1714 43 is_stmt 0 view .LVU1375
 4285 0106 40F22522 		movw	r2, #549
 4286 010a DA60     		str	r2, [r3, #12]
1719:../../Drivers/STM32H7xx_HAL_Driver/Src/stm32h7xx_ll_usb.c ****       {
 4287              		.loc 1 1719 7 is_stmt 1 view .LVU1376
1719:../../Drivers/STM32H7xx_HAL_Driver/Src/stm32h7xx_ll_usb.c ****       {
 4288              		.loc 1 1719 10 is_stmt 0 view .LVU1377
ARM GAS  C:\Users\gigig\AppData\Local\Temp\ccBJNrpK.s 			page 126


 4289 010c 19F0800F 		tst	r9, #128
 4290 0110 01D1     		bne	.L284
1662:../../Drivers/STM32H7xx_HAL_Driver/Src/stm32h7xx_ll_usb.c ****   uint32_t USBx_BASE = (uint32_t)USBx;
 4291              		.loc 1 1662 21 view .LVU1378
 4292 0112 0027     		movs	r7, #0
 4293 0114 A5E7     		b	.L265
 4294              	.L284:
1721:../../Drivers/STM32H7xx_HAL_Driver/Src/stm32h7xx_ll_usb.c ****       }
 4295              		.loc 1 1721 9 is_stmt 1 view .LVU1379
1721:../../Drivers/STM32H7xx_HAL_Driver/Src/stm32h7xx_ll_usb.c ****       }
 4296              		.loc 1 1721 45 is_stmt 0 view .LVU1380
 4297 0116 DA68     		ldr	r2, [r3, #12]
 4298 0118 42F4C072 		orr	r2, r2, #384
 4299 011c DA60     		str	r2, [r3, #12]
1662:../../Drivers/STM32H7xx_HAL_Driver/Src/stm32h7xx_ll_usb.c ****   uint32_t USBx_BASE = (uint32_t)USBx;
 4300              		.loc 1 1662 21 view .LVU1381
 4301 011e 0027     		movs	r7, #0
 4302 0120 9FE7     		b	.L265
 4303              	.L274:
1672:../../Drivers/STM32H7xx_HAL_Driver/Src/stm32h7xx_ll_usb.c ****   {
 4304              		.loc 1 1672 3 view .LVU1382
 4305 0122 0127     		movs	r7, #1
 4306 0124 9DE7     		b	.L265
 4307              	.L275:
1662:../../Drivers/STM32H7xx_HAL_Driver/Src/stm32h7xx_ll_usb.c ****   uint32_t USBx_BASE = (uint32_t)USBx;
 4308              		.loc 1 1662 21 view .LVU1383
 4309 0126 0027     		movs	r7, #0
 4310 0128 9BE7     		b	.L265
 4311              	.LVL335:
 4312              	.L283:
1742:../../Drivers/STM32H7xx_HAL_Driver/Src/stm32h7xx_ll_usb.c ****   }
 4313              		.loc 1 1742 17 view .LVU1384
 4314 012a 4FF40048 		mov	r8, #32768
 4315 012e AFE7     		b	.L271
 4316              	.LVL336:
 4317              	.L279:
1758:../../Drivers/STM32H7xx_HAL_Driver/Src/stm32h7xx_ll_usb.c ****   }
 4318              		.loc 1 1758 20 view .LVU1385
 4319 0130 0021     		movs	r1, #0
 4320 0132 BCE7     		b	.L272
 4321              		.cfi_endproc
 4322              	.LFE185:
 4324              		.section	.text.USB_HC_ReadInterrupt,"ax",%progbits
 4325              		.align	1
 4326              		.global	USB_HC_ReadInterrupt
 4327              		.syntax unified
 4328              		.thumb
 4329              		.thumb_func
 4331              	USB_HC_ReadInterrupt:
 4332              	.LVL337:
 4333              	.LFB187:
1774:../../Drivers/STM32H7xx_HAL_Driver/Src/stm32h7xx_ll_usb.c **** 
1775:../../Drivers/STM32H7xx_HAL_Driver/Src/stm32h7xx_ll_usb.c **** /**
1776:../../Drivers/STM32H7xx_HAL_Driver/Src/stm32h7xx_ll_usb.c ****   * @brief  Start a transfer over a host channel
1777:../../Drivers/STM32H7xx_HAL_Driver/Src/stm32h7xx_ll_usb.c ****   * @param  USBx  Selected device
1778:../../Drivers/STM32H7xx_HAL_Driver/Src/stm32h7xx_ll_usb.c ****   * @param  hc  pointer to host channel structure
1779:../../Drivers/STM32H7xx_HAL_Driver/Src/stm32h7xx_ll_usb.c ****   * @param  dma USB dma enabled or disabled
ARM GAS  C:\Users\gigig\AppData\Local\Temp\ccBJNrpK.s 			page 127


1780:../../Drivers/STM32H7xx_HAL_Driver/Src/stm32h7xx_ll_usb.c ****   *          This parameter can be one of these values:
1781:../../Drivers/STM32H7xx_HAL_Driver/Src/stm32h7xx_ll_usb.c ****   *           0 : DMA feature not used
1782:../../Drivers/STM32H7xx_HAL_Driver/Src/stm32h7xx_ll_usb.c ****   *           1 : DMA feature used
1783:../../Drivers/STM32H7xx_HAL_Driver/Src/stm32h7xx_ll_usb.c ****   * @retval HAL state
1784:../../Drivers/STM32H7xx_HAL_Driver/Src/stm32h7xx_ll_usb.c ****   */
1785:../../Drivers/STM32H7xx_HAL_Driver/Src/stm32h7xx_ll_usb.c **** HAL_StatusTypeDef USB_HC_StartXfer(USB_OTG_GlobalTypeDef *USBx, USB_OTG_HCTypeDef *hc, uint8_t dma)
1786:../../Drivers/STM32H7xx_HAL_Driver/Src/stm32h7xx_ll_usb.c **** {
1787:../../Drivers/STM32H7xx_HAL_Driver/Src/stm32h7xx_ll_usb.c ****   uint32_t USBx_BASE = (uint32_t)USBx;
1788:../../Drivers/STM32H7xx_HAL_Driver/Src/stm32h7xx_ll_usb.c ****   uint32_t ch_num = (uint32_t)hc->ch_num;
1789:../../Drivers/STM32H7xx_HAL_Driver/Src/stm32h7xx_ll_usb.c ****   __IO uint32_t tmpreg;
1790:../../Drivers/STM32H7xx_HAL_Driver/Src/stm32h7xx_ll_usb.c ****   uint8_t  is_oddframe;
1791:../../Drivers/STM32H7xx_HAL_Driver/Src/stm32h7xx_ll_usb.c ****   uint16_t len_words;
1792:../../Drivers/STM32H7xx_HAL_Driver/Src/stm32h7xx_ll_usb.c ****   uint16_t num_packets;
1793:../../Drivers/STM32H7xx_HAL_Driver/Src/stm32h7xx_ll_usb.c ****   uint16_t max_hc_pkt_count = HC_MAX_PKT_CNT;
1794:../../Drivers/STM32H7xx_HAL_Driver/Src/stm32h7xx_ll_usb.c **** 
1795:../../Drivers/STM32H7xx_HAL_Driver/Src/stm32h7xx_ll_usb.c ****   if (((USBx->CID & (0x1U << 8)) != 0U) && (hc->speed == USBH_HS_SPEED))
1796:../../Drivers/STM32H7xx_HAL_Driver/Src/stm32h7xx_ll_usb.c ****   {
1797:../../Drivers/STM32H7xx_HAL_Driver/Src/stm32h7xx_ll_usb.c ****     /* in DMA mode host Core automatically issues ping  in case of NYET/NAK */
1798:../../Drivers/STM32H7xx_HAL_Driver/Src/stm32h7xx_ll_usb.c ****     if ((dma == 1U) && ((hc->ep_type == EP_TYPE_CTRL) || (hc->ep_type == EP_TYPE_BULK)))
1799:../../Drivers/STM32H7xx_HAL_Driver/Src/stm32h7xx_ll_usb.c ****     {
1800:../../Drivers/STM32H7xx_HAL_Driver/Src/stm32h7xx_ll_usb.c ****       USBx_HC((uint32_t)ch_num)->HCINTMSK &= ~(USB_OTG_HCINTMSK_NYET |
1801:../../Drivers/STM32H7xx_HAL_Driver/Src/stm32h7xx_ll_usb.c ****                                                USB_OTG_HCINTMSK_ACKM |
1802:../../Drivers/STM32H7xx_HAL_Driver/Src/stm32h7xx_ll_usb.c ****                                                USB_OTG_HCINTMSK_NAKM);
1803:../../Drivers/STM32H7xx_HAL_Driver/Src/stm32h7xx_ll_usb.c ****     }
1804:../../Drivers/STM32H7xx_HAL_Driver/Src/stm32h7xx_ll_usb.c **** 
1805:../../Drivers/STM32H7xx_HAL_Driver/Src/stm32h7xx_ll_usb.c ****     if ((dma == 0U) && (hc->do_ping == 1U))
1806:../../Drivers/STM32H7xx_HAL_Driver/Src/stm32h7xx_ll_usb.c ****     {
1807:../../Drivers/STM32H7xx_HAL_Driver/Src/stm32h7xx_ll_usb.c ****       (void)USB_DoPing(USBx, hc->ch_num);
1808:../../Drivers/STM32H7xx_HAL_Driver/Src/stm32h7xx_ll_usb.c ****       return HAL_OK;
1809:../../Drivers/STM32H7xx_HAL_Driver/Src/stm32h7xx_ll_usb.c ****     }
1810:../../Drivers/STM32H7xx_HAL_Driver/Src/stm32h7xx_ll_usb.c **** 
1811:../../Drivers/STM32H7xx_HAL_Driver/Src/stm32h7xx_ll_usb.c ****   }
1812:../../Drivers/STM32H7xx_HAL_Driver/Src/stm32h7xx_ll_usb.c **** 
1813:../../Drivers/STM32H7xx_HAL_Driver/Src/stm32h7xx_ll_usb.c ****   /* Compute the expected number of packets associated to the transfer */
1814:../../Drivers/STM32H7xx_HAL_Driver/Src/stm32h7xx_ll_usb.c ****   if (hc->xfer_len > 0U)
1815:../../Drivers/STM32H7xx_HAL_Driver/Src/stm32h7xx_ll_usb.c ****   {
1816:../../Drivers/STM32H7xx_HAL_Driver/Src/stm32h7xx_ll_usb.c ****     num_packets = (uint16_t)((hc->xfer_len + hc->max_packet - 1U) / hc->max_packet);
1817:../../Drivers/STM32H7xx_HAL_Driver/Src/stm32h7xx_ll_usb.c **** 
1818:../../Drivers/STM32H7xx_HAL_Driver/Src/stm32h7xx_ll_usb.c ****     if (num_packets > max_hc_pkt_count)
1819:../../Drivers/STM32H7xx_HAL_Driver/Src/stm32h7xx_ll_usb.c ****     {
1820:../../Drivers/STM32H7xx_HAL_Driver/Src/stm32h7xx_ll_usb.c ****       num_packets = max_hc_pkt_count;
1821:../../Drivers/STM32H7xx_HAL_Driver/Src/stm32h7xx_ll_usb.c ****       hc->XferSize = (uint32_t)num_packets * hc->max_packet;
1822:../../Drivers/STM32H7xx_HAL_Driver/Src/stm32h7xx_ll_usb.c ****     }
1823:../../Drivers/STM32H7xx_HAL_Driver/Src/stm32h7xx_ll_usb.c ****   }
1824:../../Drivers/STM32H7xx_HAL_Driver/Src/stm32h7xx_ll_usb.c ****   else
1825:../../Drivers/STM32H7xx_HAL_Driver/Src/stm32h7xx_ll_usb.c ****   {
1826:../../Drivers/STM32H7xx_HAL_Driver/Src/stm32h7xx_ll_usb.c ****     num_packets = 1U;
1827:../../Drivers/STM32H7xx_HAL_Driver/Src/stm32h7xx_ll_usb.c ****   }
1828:../../Drivers/STM32H7xx_HAL_Driver/Src/stm32h7xx_ll_usb.c **** 
1829:../../Drivers/STM32H7xx_HAL_Driver/Src/stm32h7xx_ll_usb.c ****   /*
1830:../../Drivers/STM32H7xx_HAL_Driver/Src/stm32h7xx_ll_usb.c ****    * For IN channel HCTSIZ.XferSize is expected to be an integer multiple of
1831:../../Drivers/STM32H7xx_HAL_Driver/Src/stm32h7xx_ll_usb.c ****    * max_packet size.
1832:../../Drivers/STM32H7xx_HAL_Driver/Src/stm32h7xx_ll_usb.c ****    */
1833:../../Drivers/STM32H7xx_HAL_Driver/Src/stm32h7xx_ll_usb.c ****   if (hc->ep_is_in != 0U)
1834:../../Drivers/STM32H7xx_HAL_Driver/Src/stm32h7xx_ll_usb.c ****   {
1835:../../Drivers/STM32H7xx_HAL_Driver/Src/stm32h7xx_ll_usb.c ****     hc->XferSize = (uint32_t)num_packets * hc->max_packet;
1836:../../Drivers/STM32H7xx_HAL_Driver/Src/stm32h7xx_ll_usb.c ****   }
ARM GAS  C:\Users\gigig\AppData\Local\Temp\ccBJNrpK.s 			page 128


1837:../../Drivers/STM32H7xx_HAL_Driver/Src/stm32h7xx_ll_usb.c ****   else
1838:../../Drivers/STM32H7xx_HAL_Driver/Src/stm32h7xx_ll_usb.c ****   {
1839:../../Drivers/STM32H7xx_HAL_Driver/Src/stm32h7xx_ll_usb.c ****     hc->XferSize = hc->xfer_len;
1840:../../Drivers/STM32H7xx_HAL_Driver/Src/stm32h7xx_ll_usb.c ****   }
1841:../../Drivers/STM32H7xx_HAL_Driver/Src/stm32h7xx_ll_usb.c **** 
1842:../../Drivers/STM32H7xx_HAL_Driver/Src/stm32h7xx_ll_usb.c ****   /* Initialize the HCTSIZn register */
1843:../../Drivers/STM32H7xx_HAL_Driver/Src/stm32h7xx_ll_usb.c ****   USBx_HC(ch_num)->HCTSIZ = (hc->XferSize & USB_OTG_HCTSIZ_XFRSIZ) |
1844:../../Drivers/STM32H7xx_HAL_Driver/Src/stm32h7xx_ll_usb.c ****                             (((uint32_t)num_packets << 19) & USB_OTG_HCTSIZ_PKTCNT) |
1845:../../Drivers/STM32H7xx_HAL_Driver/Src/stm32h7xx_ll_usb.c ****                             (((uint32_t)hc->data_pid << 29) & USB_OTG_HCTSIZ_DPID);
1846:../../Drivers/STM32H7xx_HAL_Driver/Src/stm32h7xx_ll_usb.c **** 
1847:../../Drivers/STM32H7xx_HAL_Driver/Src/stm32h7xx_ll_usb.c ****   if (dma != 0U)
1848:../../Drivers/STM32H7xx_HAL_Driver/Src/stm32h7xx_ll_usb.c ****   {
1849:../../Drivers/STM32H7xx_HAL_Driver/Src/stm32h7xx_ll_usb.c ****     /* xfer_buff MUST be 32-bits aligned */
1850:../../Drivers/STM32H7xx_HAL_Driver/Src/stm32h7xx_ll_usb.c ****     USBx_HC(ch_num)->HCDMA = (uint32_t)hc->xfer_buff;
1851:../../Drivers/STM32H7xx_HAL_Driver/Src/stm32h7xx_ll_usb.c ****   }
1852:../../Drivers/STM32H7xx_HAL_Driver/Src/stm32h7xx_ll_usb.c **** 
1853:../../Drivers/STM32H7xx_HAL_Driver/Src/stm32h7xx_ll_usb.c ****   is_oddframe = (((uint32_t)USBx_HOST->HFNUM & 0x01U) != 0U) ? 0U : 1U;
1854:../../Drivers/STM32H7xx_HAL_Driver/Src/stm32h7xx_ll_usb.c ****   USBx_HC(ch_num)->HCCHAR &= ~USB_OTG_HCCHAR_ODDFRM;
1855:../../Drivers/STM32H7xx_HAL_Driver/Src/stm32h7xx_ll_usb.c ****   USBx_HC(ch_num)->HCCHAR |= (uint32_t)is_oddframe << 29;
1856:../../Drivers/STM32H7xx_HAL_Driver/Src/stm32h7xx_ll_usb.c **** 
1857:../../Drivers/STM32H7xx_HAL_Driver/Src/stm32h7xx_ll_usb.c ****   /* Set host channel enable */
1858:../../Drivers/STM32H7xx_HAL_Driver/Src/stm32h7xx_ll_usb.c ****   tmpreg = USBx_HC(ch_num)->HCCHAR;
1859:../../Drivers/STM32H7xx_HAL_Driver/Src/stm32h7xx_ll_usb.c ****   tmpreg &= ~USB_OTG_HCCHAR_CHDIS;
1860:../../Drivers/STM32H7xx_HAL_Driver/Src/stm32h7xx_ll_usb.c **** 
1861:../../Drivers/STM32H7xx_HAL_Driver/Src/stm32h7xx_ll_usb.c ****   /* make sure to set the correct ep direction */
1862:../../Drivers/STM32H7xx_HAL_Driver/Src/stm32h7xx_ll_usb.c ****   if (hc->ep_is_in != 0U)
1863:../../Drivers/STM32H7xx_HAL_Driver/Src/stm32h7xx_ll_usb.c ****   {
1864:../../Drivers/STM32H7xx_HAL_Driver/Src/stm32h7xx_ll_usb.c ****     tmpreg |= USB_OTG_HCCHAR_EPDIR;
1865:../../Drivers/STM32H7xx_HAL_Driver/Src/stm32h7xx_ll_usb.c ****   }
1866:../../Drivers/STM32H7xx_HAL_Driver/Src/stm32h7xx_ll_usb.c ****   else
1867:../../Drivers/STM32H7xx_HAL_Driver/Src/stm32h7xx_ll_usb.c ****   {
1868:../../Drivers/STM32H7xx_HAL_Driver/Src/stm32h7xx_ll_usb.c ****     tmpreg &= ~USB_OTG_HCCHAR_EPDIR;
1869:../../Drivers/STM32H7xx_HAL_Driver/Src/stm32h7xx_ll_usb.c ****   }
1870:../../Drivers/STM32H7xx_HAL_Driver/Src/stm32h7xx_ll_usb.c ****   tmpreg |= USB_OTG_HCCHAR_CHENA;
1871:../../Drivers/STM32H7xx_HAL_Driver/Src/stm32h7xx_ll_usb.c ****   USBx_HC(ch_num)->HCCHAR = tmpreg;
1872:../../Drivers/STM32H7xx_HAL_Driver/Src/stm32h7xx_ll_usb.c **** 
1873:../../Drivers/STM32H7xx_HAL_Driver/Src/stm32h7xx_ll_usb.c ****   if (dma != 0U) /* dma mode */
1874:../../Drivers/STM32H7xx_HAL_Driver/Src/stm32h7xx_ll_usb.c ****   {
1875:../../Drivers/STM32H7xx_HAL_Driver/Src/stm32h7xx_ll_usb.c ****     return HAL_OK;
1876:../../Drivers/STM32H7xx_HAL_Driver/Src/stm32h7xx_ll_usb.c ****   }
1877:../../Drivers/STM32H7xx_HAL_Driver/Src/stm32h7xx_ll_usb.c **** 
1878:../../Drivers/STM32H7xx_HAL_Driver/Src/stm32h7xx_ll_usb.c ****   if ((hc->ep_is_in == 0U) && (hc->xfer_len > 0U))
1879:../../Drivers/STM32H7xx_HAL_Driver/Src/stm32h7xx_ll_usb.c ****   {
1880:../../Drivers/STM32H7xx_HAL_Driver/Src/stm32h7xx_ll_usb.c ****     switch (hc->ep_type)
1881:../../Drivers/STM32H7xx_HAL_Driver/Src/stm32h7xx_ll_usb.c ****     {
1882:../../Drivers/STM32H7xx_HAL_Driver/Src/stm32h7xx_ll_usb.c ****       /* Non periodic transfer */
1883:../../Drivers/STM32H7xx_HAL_Driver/Src/stm32h7xx_ll_usb.c ****       case EP_TYPE_CTRL:
1884:../../Drivers/STM32H7xx_HAL_Driver/Src/stm32h7xx_ll_usb.c ****       case EP_TYPE_BULK:
1885:../../Drivers/STM32H7xx_HAL_Driver/Src/stm32h7xx_ll_usb.c **** 
1886:../../Drivers/STM32H7xx_HAL_Driver/Src/stm32h7xx_ll_usb.c ****         len_words = (uint16_t)((hc->xfer_len + 3U) / 4U);
1887:../../Drivers/STM32H7xx_HAL_Driver/Src/stm32h7xx_ll_usb.c **** 
1888:../../Drivers/STM32H7xx_HAL_Driver/Src/stm32h7xx_ll_usb.c ****         /* check if there is enough space in FIFO space */
1889:../../Drivers/STM32H7xx_HAL_Driver/Src/stm32h7xx_ll_usb.c ****         if (len_words > (USBx->HNPTXSTS & 0xFFFFU))
1890:../../Drivers/STM32H7xx_HAL_Driver/Src/stm32h7xx_ll_usb.c ****         {
1891:../../Drivers/STM32H7xx_HAL_Driver/Src/stm32h7xx_ll_usb.c ****           /* need to process data in nptxfempty interrupt */
1892:../../Drivers/STM32H7xx_HAL_Driver/Src/stm32h7xx_ll_usb.c ****           USBx->GINTMSK |= USB_OTG_GINTMSK_NPTXFEM;
1893:../../Drivers/STM32H7xx_HAL_Driver/Src/stm32h7xx_ll_usb.c ****         }
ARM GAS  C:\Users\gigig\AppData\Local\Temp\ccBJNrpK.s 			page 129


1894:../../Drivers/STM32H7xx_HAL_Driver/Src/stm32h7xx_ll_usb.c ****         break;
1895:../../Drivers/STM32H7xx_HAL_Driver/Src/stm32h7xx_ll_usb.c **** 
1896:../../Drivers/STM32H7xx_HAL_Driver/Src/stm32h7xx_ll_usb.c ****       /* Periodic transfer */
1897:../../Drivers/STM32H7xx_HAL_Driver/Src/stm32h7xx_ll_usb.c ****       case EP_TYPE_INTR:
1898:../../Drivers/STM32H7xx_HAL_Driver/Src/stm32h7xx_ll_usb.c ****       case EP_TYPE_ISOC:
1899:../../Drivers/STM32H7xx_HAL_Driver/Src/stm32h7xx_ll_usb.c ****         len_words = (uint16_t)((hc->xfer_len + 3U) / 4U);
1900:../../Drivers/STM32H7xx_HAL_Driver/Src/stm32h7xx_ll_usb.c ****         /* check if there is enough space in FIFO space */
1901:../../Drivers/STM32H7xx_HAL_Driver/Src/stm32h7xx_ll_usb.c ****         if (len_words > (USBx_HOST->HPTXSTS & 0xFFFFU)) /* split the transfer */
1902:../../Drivers/STM32H7xx_HAL_Driver/Src/stm32h7xx_ll_usb.c ****         {
1903:../../Drivers/STM32H7xx_HAL_Driver/Src/stm32h7xx_ll_usb.c ****           /* need to process data in ptxfempty interrupt */
1904:../../Drivers/STM32H7xx_HAL_Driver/Src/stm32h7xx_ll_usb.c ****           USBx->GINTMSK |= USB_OTG_GINTMSK_PTXFEM;
1905:../../Drivers/STM32H7xx_HAL_Driver/Src/stm32h7xx_ll_usb.c ****         }
1906:../../Drivers/STM32H7xx_HAL_Driver/Src/stm32h7xx_ll_usb.c ****         break;
1907:../../Drivers/STM32H7xx_HAL_Driver/Src/stm32h7xx_ll_usb.c **** 
1908:../../Drivers/STM32H7xx_HAL_Driver/Src/stm32h7xx_ll_usb.c ****       default:
1909:../../Drivers/STM32H7xx_HAL_Driver/Src/stm32h7xx_ll_usb.c ****         break;
1910:../../Drivers/STM32H7xx_HAL_Driver/Src/stm32h7xx_ll_usb.c ****     }
1911:../../Drivers/STM32H7xx_HAL_Driver/Src/stm32h7xx_ll_usb.c **** 
1912:../../Drivers/STM32H7xx_HAL_Driver/Src/stm32h7xx_ll_usb.c ****     /* Write packet into the Tx FIFO. */
1913:../../Drivers/STM32H7xx_HAL_Driver/Src/stm32h7xx_ll_usb.c ****     (void)USB_WritePacket(USBx, hc->xfer_buff, hc->ch_num, (uint16_t)hc->xfer_len, 0);
1914:../../Drivers/STM32H7xx_HAL_Driver/Src/stm32h7xx_ll_usb.c ****   }
1915:../../Drivers/STM32H7xx_HAL_Driver/Src/stm32h7xx_ll_usb.c **** 
1916:../../Drivers/STM32H7xx_HAL_Driver/Src/stm32h7xx_ll_usb.c ****   return HAL_OK;
1917:../../Drivers/STM32H7xx_HAL_Driver/Src/stm32h7xx_ll_usb.c **** }
1918:../../Drivers/STM32H7xx_HAL_Driver/Src/stm32h7xx_ll_usb.c **** 
1919:../../Drivers/STM32H7xx_HAL_Driver/Src/stm32h7xx_ll_usb.c **** /**
1920:../../Drivers/STM32H7xx_HAL_Driver/Src/stm32h7xx_ll_usb.c ****   * @brief Read all host channel interrupts status
1921:../../Drivers/STM32H7xx_HAL_Driver/Src/stm32h7xx_ll_usb.c ****   * @param  USBx  Selected device
1922:../../Drivers/STM32H7xx_HAL_Driver/Src/stm32h7xx_ll_usb.c ****   * @retval HAL state
1923:../../Drivers/STM32H7xx_HAL_Driver/Src/stm32h7xx_ll_usb.c ****   */
1924:../../Drivers/STM32H7xx_HAL_Driver/Src/stm32h7xx_ll_usb.c **** uint32_t USB_HC_ReadInterrupt(USB_OTG_GlobalTypeDef *USBx)
1925:../../Drivers/STM32H7xx_HAL_Driver/Src/stm32h7xx_ll_usb.c **** {
 4334              		.loc 1 1925 1 is_stmt 1 view -0
 4335              		.cfi_startproc
 4336              		@ args = 0, pretend = 0, frame = 0
 4337              		@ frame_needed = 0, uses_anonymous_args = 0
 4338              		@ link register save eliminated.
1926:../../Drivers/STM32H7xx_HAL_Driver/Src/stm32h7xx_ll_usb.c ****   uint32_t USBx_BASE = (uint32_t)USBx;
 4339              		.loc 1 1926 3 view .LVU1387
1927:../../Drivers/STM32H7xx_HAL_Driver/Src/stm32h7xx_ll_usb.c **** 
1928:../../Drivers/STM32H7xx_HAL_Driver/Src/stm32h7xx_ll_usb.c ****   return ((USBx_HOST->HAINT) & 0xFFFFU);
 4340              		.loc 1 1928 3 view .LVU1388
 4341              		.loc 1 1928 12 is_stmt 0 view .LVU1389
 4342 0000 00F58060 		add	r0, r0, #1024
 4343              	.LVL338:
 4344              		.loc 1 1928 21 view .LVU1390
 4345 0004 4069     		ldr	r0, [r0, #20]
 4346              	.LVL339:
1929:../../Drivers/STM32H7xx_HAL_Driver/Src/stm32h7xx_ll_usb.c **** }
 4347              		.loc 1 1929 1 view .LVU1391
 4348 0006 80B2     		uxth	r0, r0
 4349 0008 7047     		bx	lr
 4350              		.cfi_endproc
 4351              	.LFE187:
 4353              		.section	.text.USB_HC_Halt,"ax",%progbits
 4354              		.align	1
 4355              		.global	USB_HC_Halt
ARM GAS  C:\Users\gigig\AppData\Local\Temp\ccBJNrpK.s 			page 130


 4356              		.syntax unified
 4357              		.thumb
 4358              		.thumb_func
 4360              	USB_HC_Halt:
 4361              	.LVL340:
 4362              	.LFB188:
1930:../../Drivers/STM32H7xx_HAL_Driver/Src/stm32h7xx_ll_usb.c **** 
1931:../../Drivers/STM32H7xx_HAL_Driver/Src/stm32h7xx_ll_usb.c **** /**
1932:../../Drivers/STM32H7xx_HAL_Driver/Src/stm32h7xx_ll_usb.c ****   * @brief  Halt a host channel
1933:../../Drivers/STM32H7xx_HAL_Driver/Src/stm32h7xx_ll_usb.c ****   * @param  USBx  Selected device
1934:../../Drivers/STM32H7xx_HAL_Driver/Src/stm32h7xx_ll_usb.c ****   * @param  hc_num  Host Channel number
1935:../../Drivers/STM32H7xx_HAL_Driver/Src/stm32h7xx_ll_usb.c ****   *         This parameter can be a value from 1 to 15
1936:../../Drivers/STM32H7xx_HAL_Driver/Src/stm32h7xx_ll_usb.c ****   * @retval HAL state
1937:../../Drivers/STM32H7xx_HAL_Driver/Src/stm32h7xx_ll_usb.c ****   */
1938:../../Drivers/STM32H7xx_HAL_Driver/Src/stm32h7xx_ll_usb.c **** HAL_StatusTypeDef USB_HC_Halt(USB_OTG_GlobalTypeDef *USBx, uint8_t hc_num)
1939:../../Drivers/STM32H7xx_HAL_Driver/Src/stm32h7xx_ll_usb.c **** {
 4363              		.loc 1 1939 1 is_stmt 1 view -0
 4364              		.cfi_startproc
 4365              		@ args = 0, pretend = 0, frame = 8
 4366              		@ frame_needed = 0, uses_anonymous_args = 0
 4367              		@ link register save eliminated.
 4368              		.loc 1 1939 1 is_stmt 0 view .LVU1393
 4369 0000 10B4     		push	{r4}
 4370              	.LCFI60:
 4371              		.cfi_def_cfa_offset 4
 4372              		.cfi_offset 4, -4
 4373 0002 83B0     		sub	sp, sp, #12
 4374              	.LCFI61:
 4375              		.cfi_def_cfa_offset 16
1940:../../Drivers/STM32H7xx_HAL_Driver/Src/stm32h7xx_ll_usb.c ****   uint32_t USBx_BASE = (uint32_t)USBx;
 4376              		.loc 1 1940 3 is_stmt 1 view .LVU1394
 4377              	.LVL341:
1941:../../Drivers/STM32H7xx_HAL_Driver/Src/stm32h7xx_ll_usb.c ****   uint32_t hcnum = (uint32_t)hc_num;
 4378              		.loc 1 1941 3 view .LVU1395
1942:../../Drivers/STM32H7xx_HAL_Driver/Src/stm32h7xx_ll_usb.c ****   __IO uint32_t count = 0U;
 4379              		.loc 1 1942 3 view .LVU1396
 4380              		.loc 1 1942 17 is_stmt 0 view .LVU1397
 4381 0004 0023     		movs	r3, #0
 4382 0006 0193     		str	r3, [sp, #4]
1943:../../Drivers/STM32H7xx_HAL_Driver/Src/stm32h7xx_ll_usb.c ****   uint32_t HcEpType = (USBx_HC(hcnum)->HCCHAR & USB_OTG_HCCHAR_EPTYP) >> 18;
 4383              		.loc 1 1943 3 is_stmt 1 view .LVU1398
 4384              		.loc 1 1943 24 is_stmt 0 view .LVU1399
 4385 0008 00EB4111 		add	r1, r0, r1, lsl #5
 4386              	.LVL342:
 4387              		.loc 1 1943 24 view .LVU1400
 4388 000c 01F5A06C 		add	ip, r1, #1280
 4389              		.loc 1 1943 38 view .LVU1401
 4390 0010 D1F80035 		ldr	r3, [r1, #1280]
 4391              		.loc 1 1943 12 view .LVU1402
 4392 0014 C3F38143 		ubfx	r3, r3, #18, #2
 4393              	.LVL343:
1944:../../Drivers/STM32H7xx_HAL_Driver/Src/stm32h7xx_ll_usb.c ****   uint32_t ChannelEna = (USBx_HC(hcnum)->HCCHAR & USB_OTG_HCCHAR_CHENA) >> 31;
 4394              		.loc 1 1944 3 is_stmt 1 view .LVU1403
 4395              		.loc 1 1944 40 is_stmt 0 view .LVU1404
 4396 0018 D1F80025 		ldr	r2, [r1, #1280]
 4397              	.LVL344:
1945:../../Drivers/STM32H7xx_HAL_Driver/Src/stm32h7xx_ll_usb.c **** 
ARM GAS  C:\Users\gigig\AppData\Local\Temp\ccBJNrpK.s 			page 131


1946:../../Drivers/STM32H7xx_HAL_Driver/Src/stm32h7xx_ll_usb.c ****   if (((USBx->GAHBCFG & USB_OTG_GAHBCFG_DMAEN) == USB_OTG_GAHBCFG_DMAEN) &&
 4398              		.loc 1 1946 3 is_stmt 1 view .LVU1405
 4399              		.loc 1 1946 13 is_stmt 0 view .LVU1406
 4400 001c 8468     		ldr	r4, [r0, #8]
 4401              		.loc 1 1946 6 view .LVU1407
 4402 001e 14F0200F 		tst	r4, #32
 4403 0022 02D0     		beq	.L287
 4404 0024 D20F     		lsrs	r2, r2, #31
 4405              	.LVL345:
 4406              		.loc 1 1946 74 discriminator 1 view .LVU1408
 4407 0026 002A     		cmp	r2, #0
 4408 0028 59D0     		beq	.L288
 4409              	.LVL346:
 4410              	.L287:
1947:../../Drivers/STM32H7xx_HAL_Driver/Src/stm32h7xx_ll_usb.c ****       (ChannelEna == 0U))
1948:../../Drivers/STM32H7xx_HAL_Driver/Src/stm32h7xx_ll_usb.c ****   {
1949:../../Drivers/STM32H7xx_HAL_Driver/Src/stm32h7xx_ll_usb.c ****     return HAL_OK;
1950:../../Drivers/STM32H7xx_HAL_Driver/Src/stm32h7xx_ll_usb.c ****   }
1951:../../Drivers/STM32H7xx_HAL_Driver/Src/stm32h7xx_ll_usb.c **** 
1952:../../Drivers/STM32H7xx_HAL_Driver/Src/stm32h7xx_ll_usb.c ****   /* Check for space in the request queue to issue the halt. */
1953:../../Drivers/STM32H7xx_HAL_Driver/Src/stm32h7xx_ll_usb.c ****   if ((HcEpType == HCCHAR_CTRL) || (HcEpType == HCCHAR_BULK))
 4411              		.loc 1 1953 3 is_stmt 1 view .LVU1409
 4412              		.loc 1 1953 6 is_stmt 0 view .LVU1410
 4413 002a 022B     		cmp	r3, #2
 4414 002c 18BF     		it	ne
 4415 002e 002B     		cmpne	r3, #0
 4416 0030 2CD1     		bne	.L289
1954:../../Drivers/STM32H7xx_HAL_Driver/Src/stm32h7xx_ll_usb.c ****   {
1955:../../Drivers/STM32H7xx_HAL_Driver/Src/stm32h7xx_ll_usb.c ****     USBx_HC(hcnum)->HCCHAR |= USB_OTG_HCCHAR_CHDIS;
 4417              		.loc 1 1955 5 is_stmt 1 view .LVU1411
 4418              		.loc 1 1955 28 is_stmt 0 view .LVU1412
 4419 0032 D1F80035 		ldr	r3, [r1, #1280]
 4420              	.LVL347:
 4421              		.loc 1 1955 28 view .LVU1413
 4422 0036 43F08043 		orr	r3, r3, #1073741824
 4423 003a C1F80035 		str	r3, [r1, #1280]
1956:../../Drivers/STM32H7xx_HAL_Driver/Src/stm32h7xx_ll_usb.c **** 
1957:../../Drivers/STM32H7xx_HAL_Driver/Src/stm32h7xx_ll_usb.c ****     if ((USBx->GAHBCFG & USB_OTG_GAHBCFG_DMAEN) == 0U)
 4424              		.loc 1 1957 5 is_stmt 1 view .LVU1414
 4425              		.loc 1 1957 14 is_stmt 0 view .LVU1415
 4426 003e 8368     		ldr	r3, [r0, #8]
 4427              		.loc 1 1957 8 view .LVU1416
 4428 0040 13F0200F 		tst	r3, #32
 4429 0044 4BD1     		bne	.L288
1958:../../Drivers/STM32H7xx_HAL_Driver/Src/stm32h7xx_ll_usb.c ****     {
1959:../../Drivers/STM32H7xx_HAL_Driver/Src/stm32h7xx_ll_usb.c ****       if ((USBx->HNPTXSTS & (0xFFU << 16)) == 0U)
 4430              		.loc 1 1959 7 is_stmt 1 view .LVU1417
 4431              		.loc 1 1959 16 is_stmt 0 view .LVU1418
 4432 0046 C36A     		ldr	r3, [r0, #44]
 4433              		.loc 1 1959 10 view .LVU1419
 4434 0048 13F47F0F 		tst	r3, #16711680
 4435 004c 17D1     		bne	.L290
1960:../../Drivers/STM32H7xx_HAL_Driver/Src/stm32h7xx_ll_usb.c ****       {
1961:../../Drivers/STM32H7xx_HAL_Driver/Src/stm32h7xx_ll_usb.c ****         USBx_HC(hcnum)->HCCHAR &= ~USB_OTG_HCCHAR_CHENA;
 4436              		.loc 1 1961 9 is_stmt 1 view .LVU1420
 4437              		.loc 1 1961 32 is_stmt 0 view .LVU1421
 4438 004e D1F80035 		ldr	r3, [r1, #1280]
ARM GAS  C:\Users\gigig\AppData\Local\Temp\ccBJNrpK.s 			page 132


 4439 0052 23F00043 		bic	r3, r3, #-2147483648
 4440 0056 C1F80035 		str	r3, [r1, #1280]
1962:../../Drivers/STM32H7xx_HAL_Driver/Src/stm32h7xx_ll_usb.c ****         USBx_HC(hcnum)->HCCHAR |= USB_OTG_HCCHAR_CHENA;
 4441              		.loc 1 1962 9 is_stmt 1 view .LVU1422
 4442              		.loc 1 1962 32 is_stmt 0 view .LVU1423
 4443 005a D1F80035 		ldr	r3, [r1, #1280]
 4444 005e 43F00043 		orr	r3, r3, #-2147483648
 4445 0062 C1F80035 		str	r3, [r1, #1280]
 4446              	.L291:
1963:../../Drivers/STM32H7xx_HAL_Driver/Src/stm32h7xx_ll_usb.c ****         do
 4447              		.loc 1 1963 9 is_stmt 1 view .LVU1424
1964:../../Drivers/STM32H7xx_HAL_Driver/Src/stm32h7xx_ll_usb.c ****         {
1965:../../Drivers/STM32H7xx_HAL_Driver/Src/stm32h7xx_ll_usb.c ****           count++;
 4448              		.loc 1 1965 11 view .LVU1425
 4449              		.loc 1 1965 16 is_stmt 0 view .LVU1426
 4450 0066 019B     		ldr	r3, [sp, #4]
 4451 0068 0133     		adds	r3, r3, #1
 4452 006a 0193     		str	r3, [sp, #4]
1966:../../Drivers/STM32H7xx_HAL_Driver/Src/stm32h7xx_ll_usb.c **** 
1967:../../Drivers/STM32H7xx_HAL_Driver/Src/stm32h7xx_ll_usb.c ****           if (count > 1000U)
 4453              		.loc 1 1967 11 is_stmt 1 view .LVU1427
 4454              		.loc 1 1967 21 is_stmt 0 view .LVU1428
 4455 006c 019B     		ldr	r3, [sp, #4]
 4456              		.loc 1 1967 14 view .LVU1429
 4457 006e B3F57A7F 		cmp	r3, #1000
 4458 0072 34D8     		bhi	.L288
1968:../../Drivers/STM32H7xx_HAL_Driver/Src/stm32h7xx_ll_usb.c ****           {
1969:../../Drivers/STM32H7xx_HAL_Driver/Src/stm32h7xx_ll_usb.c ****             break;
1970:../../Drivers/STM32H7xx_HAL_Driver/Src/stm32h7xx_ll_usb.c ****           }
1971:../../Drivers/STM32H7xx_HAL_Driver/Src/stm32h7xx_ll_usb.c ****         } while ((USBx_HC(hcnum)->HCCHAR & USB_OTG_HCCHAR_CHENA) == USB_OTG_HCCHAR_CHENA);
 4459              		.loc 1 1971 17 is_stmt 1 view .LVU1430
 4460              		.loc 1 1971 33 is_stmt 0 view .LVU1431
 4461 0074 DCF80030 		ldr	r3, [ip]
 4462              		.loc 1 1971 9 view .LVU1432
 4463 0078 002B     		cmp	r3, #0
 4464 007a F4DB     		blt	.L291
 4465 007c 2FE0     		b	.L288
 4466              	.L290:
1972:../../Drivers/STM32H7xx_HAL_Driver/Src/stm32h7xx_ll_usb.c ****       }
1973:../../Drivers/STM32H7xx_HAL_Driver/Src/stm32h7xx_ll_usb.c ****       else
1974:../../Drivers/STM32H7xx_HAL_Driver/Src/stm32h7xx_ll_usb.c ****       {
1975:../../Drivers/STM32H7xx_HAL_Driver/Src/stm32h7xx_ll_usb.c ****         USBx_HC(hcnum)->HCCHAR |= USB_OTG_HCCHAR_CHENA;
 4467              		.loc 1 1975 9 is_stmt 1 view .LVU1433
 4468              		.loc 1 1975 32 is_stmt 0 view .LVU1434
 4469 007e D1F80035 		ldr	r3, [r1, #1280]
 4470 0082 43F00043 		orr	r3, r3, #-2147483648
 4471 0086 C1F80035 		str	r3, [r1, #1280]
 4472 008a 28E0     		b	.L288
 4473              	.LVL348:
 4474              	.L289:
1976:../../Drivers/STM32H7xx_HAL_Driver/Src/stm32h7xx_ll_usb.c ****       }
1977:../../Drivers/STM32H7xx_HAL_Driver/Src/stm32h7xx_ll_usb.c ****     }
1978:../../Drivers/STM32H7xx_HAL_Driver/Src/stm32h7xx_ll_usb.c ****   }
1979:../../Drivers/STM32H7xx_HAL_Driver/Src/stm32h7xx_ll_usb.c ****   else
1980:../../Drivers/STM32H7xx_HAL_Driver/Src/stm32h7xx_ll_usb.c ****   {
1981:../../Drivers/STM32H7xx_HAL_Driver/Src/stm32h7xx_ll_usb.c ****     USBx_HC(hcnum)->HCCHAR |= USB_OTG_HCCHAR_CHDIS;
 4475              		.loc 1 1981 5 is_stmt 1 view .LVU1435
ARM GAS  C:\Users\gigig\AppData\Local\Temp\ccBJNrpK.s 			page 133


 4476              		.loc 1 1981 28 is_stmt 0 view .LVU1436
 4477 008c D1F80035 		ldr	r3, [r1, #1280]
 4478              	.LVL349:
 4479              		.loc 1 1981 28 view .LVU1437
 4480 0090 43F08043 		orr	r3, r3, #1073741824
 4481 0094 C1F80035 		str	r3, [r1, #1280]
1982:../../Drivers/STM32H7xx_HAL_Driver/Src/stm32h7xx_ll_usb.c **** 
1983:../../Drivers/STM32H7xx_HAL_Driver/Src/stm32h7xx_ll_usb.c ****     if ((USBx_HOST->HPTXSTS & (0xFFU << 16)) == 0U)
 4482              		.loc 1 1983 5 is_stmt 1 view .LVU1438
 4483              		.loc 1 1983 19 is_stmt 0 view .LVU1439
 4484 0098 D0F81034 		ldr	r3, [r0, #1040]
 4485              		.loc 1 1983 8 view .LVU1440
 4486 009c 13F47F0F 		tst	r3, #16711680
 4487 00a0 17D1     		bne	.L292
1984:../../Drivers/STM32H7xx_HAL_Driver/Src/stm32h7xx_ll_usb.c ****     {
1985:../../Drivers/STM32H7xx_HAL_Driver/Src/stm32h7xx_ll_usb.c ****       USBx_HC(hcnum)->HCCHAR &= ~USB_OTG_HCCHAR_CHENA;
 4488              		.loc 1 1985 7 is_stmt 1 view .LVU1441
 4489              		.loc 1 1985 30 is_stmt 0 view .LVU1442
 4490 00a2 D1F80035 		ldr	r3, [r1, #1280]
 4491 00a6 23F00043 		bic	r3, r3, #-2147483648
 4492 00aa C1F80035 		str	r3, [r1, #1280]
1986:../../Drivers/STM32H7xx_HAL_Driver/Src/stm32h7xx_ll_usb.c ****       USBx_HC(hcnum)->HCCHAR |= USB_OTG_HCCHAR_CHENA;
 4493              		.loc 1 1986 7 is_stmt 1 view .LVU1443
 4494              		.loc 1 1986 30 is_stmt 0 view .LVU1444
 4495 00ae D1F80035 		ldr	r3, [r1, #1280]
 4496 00b2 43F00043 		orr	r3, r3, #-2147483648
 4497 00b6 C1F80035 		str	r3, [r1, #1280]
 4498              	.L293:
1987:../../Drivers/STM32H7xx_HAL_Driver/Src/stm32h7xx_ll_usb.c ****       do
 4499              		.loc 1 1987 7 is_stmt 1 view .LVU1445
1988:../../Drivers/STM32H7xx_HAL_Driver/Src/stm32h7xx_ll_usb.c ****       {
1989:../../Drivers/STM32H7xx_HAL_Driver/Src/stm32h7xx_ll_usb.c ****         count++;
 4500              		.loc 1 1989 9 view .LVU1446
 4501              		.loc 1 1989 14 is_stmt 0 view .LVU1447
 4502 00ba 019B     		ldr	r3, [sp, #4]
 4503 00bc 0133     		adds	r3, r3, #1
 4504 00be 0193     		str	r3, [sp, #4]
1990:../../Drivers/STM32H7xx_HAL_Driver/Src/stm32h7xx_ll_usb.c **** 
1991:../../Drivers/STM32H7xx_HAL_Driver/Src/stm32h7xx_ll_usb.c ****         if (count > 1000U)
 4505              		.loc 1 1991 9 is_stmt 1 view .LVU1448
 4506              		.loc 1 1991 19 is_stmt 0 view .LVU1449
 4507 00c0 019B     		ldr	r3, [sp, #4]
 4508              		.loc 1 1991 12 view .LVU1450
 4509 00c2 B3F57A7F 		cmp	r3, #1000
 4510 00c6 0AD8     		bhi	.L288
1992:../../Drivers/STM32H7xx_HAL_Driver/Src/stm32h7xx_ll_usb.c ****         {
1993:../../Drivers/STM32H7xx_HAL_Driver/Src/stm32h7xx_ll_usb.c ****           break;
1994:../../Drivers/STM32H7xx_HAL_Driver/Src/stm32h7xx_ll_usb.c ****         }
1995:../../Drivers/STM32H7xx_HAL_Driver/Src/stm32h7xx_ll_usb.c ****       } while ((USBx_HC(hcnum)->HCCHAR & USB_OTG_HCCHAR_CHENA) == USB_OTG_HCCHAR_CHENA);
 4511              		.loc 1 1995 15 is_stmt 1 view .LVU1451
 4512              		.loc 1 1995 31 is_stmt 0 view .LVU1452
 4513 00c8 DCF80030 		ldr	r3, [ip]
 4514              		.loc 1 1995 7 view .LVU1453
 4515 00cc 002B     		cmp	r3, #0
 4516 00ce F4DB     		blt	.L293
 4517 00d0 05E0     		b	.L288
 4518              	.L292:
ARM GAS  C:\Users\gigig\AppData\Local\Temp\ccBJNrpK.s 			page 134


1996:../../Drivers/STM32H7xx_HAL_Driver/Src/stm32h7xx_ll_usb.c ****     }
1997:../../Drivers/STM32H7xx_HAL_Driver/Src/stm32h7xx_ll_usb.c ****     else
1998:../../Drivers/STM32H7xx_HAL_Driver/Src/stm32h7xx_ll_usb.c ****     {
1999:../../Drivers/STM32H7xx_HAL_Driver/Src/stm32h7xx_ll_usb.c ****       USBx_HC(hcnum)->HCCHAR |= USB_OTG_HCCHAR_CHENA;
 4519              		.loc 1 1999 7 is_stmt 1 view .LVU1454
 4520              		.loc 1 1999 30 is_stmt 0 view .LVU1455
 4521 00d2 D1F80035 		ldr	r3, [r1, #1280]
 4522 00d6 43F00043 		orr	r3, r3, #-2147483648
 4523 00da C1F80035 		str	r3, [r1, #1280]
 4524              	.L288:
2000:../../Drivers/STM32H7xx_HAL_Driver/Src/stm32h7xx_ll_usb.c ****     }
2001:../../Drivers/STM32H7xx_HAL_Driver/Src/stm32h7xx_ll_usb.c ****   }
2002:../../Drivers/STM32H7xx_HAL_Driver/Src/stm32h7xx_ll_usb.c **** 
2003:../../Drivers/STM32H7xx_HAL_Driver/Src/stm32h7xx_ll_usb.c ****   return HAL_OK;
2004:../../Drivers/STM32H7xx_HAL_Driver/Src/stm32h7xx_ll_usb.c **** }
 4525              		.loc 1 2004 1 view .LVU1456
 4526 00de 0020     		movs	r0, #0
 4527              	.LVL350:
 4528              		.loc 1 2004 1 view .LVU1457
 4529 00e0 03B0     		add	sp, sp, #12
 4530              	.LCFI62:
 4531              		.cfi_def_cfa_offset 4
 4532              		@ sp needed
 4533 00e2 5DF8044B 		ldr	r4, [sp], #4
 4534              	.LCFI63:
 4535              		.cfi_restore 4
 4536              		.cfi_def_cfa_offset 0
 4537 00e6 7047     		bx	lr
 4538              		.cfi_endproc
 4539              	.LFE188:
 4541              		.section	.text.USB_DoPing,"ax",%progbits
 4542              		.align	1
 4543              		.global	USB_DoPing
 4544              		.syntax unified
 4545              		.thumb
 4546              		.thumb_func
 4548              	USB_DoPing:
 4549              	.LVL351:
 4550              	.LFB189:
2005:../../Drivers/STM32H7xx_HAL_Driver/Src/stm32h7xx_ll_usb.c **** 
2006:../../Drivers/STM32H7xx_HAL_Driver/Src/stm32h7xx_ll_usb.c **** /**
2007:../../Drivers/STM32H7xx_HAL_Driver/Src/stm32h7xx_ll_usb.c ****   * @brief  Initiate Do Ping protocol
2008:../../Drivers/STM32H7xx_HAL_Driver/Src/stm32h7xx_ll_usb.c ****   * @param  USBx  Selected device
2009:../../Drivers/STM32H7xx_HAL_Driver/Src/stm32h7xx_ll_usb.c ****   * @param  hc_num  Host Channel number
2010:../../Drivers/STM32H7xx_HAL_Driver/Src/stm32h7xx_ll_usb.c ****   *         This parameter can be a value from 1 to 15
2011:../../Drivers/STM32H7xx_HAL_Driver/Src/stm32h7xx_ll_usb.c ****   * @retval HAL state
2012:../../Drivers/STM32H7xx_HAL_Driver/Src/stm32h7xx_ll_usb.c ****   */
2013:../../Drivers/STM32H7xx_HAL_Driver/Src/stm32h7xx_ll_usb.c **** HAL_StatusTypeDef USB_DoPing(USB_OTG_GlobalTypeDef *USBx, uint8_t ch_num)
2014:../../Drivers/STM32H7xx_HAL_Driver/Src/stm32h7xx_ll_usb.c **** {
 4551              		.loc 1 2014 1 is_stmt 1 view -0
 4552              		.cfi_startproc
 4553              		@ args = 0, pretend = 0, frame = 0
 4554              		@ frame_needed = 0, uses_anonymous_args = 0
 4555              		@ link register save eliminated.
2015:../../Drivers/STM32H7xx_HAL_Driver/Src/stm32h7xx_ll_usb.c ****   uint32_t USBx_BASE = (uint32_t)USBx;
 4556              		.loc 1 2015 3 view .LVU1459
2016:../../Drivers/STM32H7xx_HAL_Driver/Src/stm32h7xx_ll_usb.c ****   uint32_t chnum = (uint32_t)ch_num;
ARM GAS  C:\Users\gigig\AppData\Local\Temp\ccBJNrpK.s 			page 135


 4557              		.loc 1 2016 3 view .LVU1460
2017:../../Drivers/STM32H7xx_HAL_Driver/Src/stm32h7xx_ll_usb.c ****   uint32_t num_packets = 1U;
 4558              		.loc 1 2017 3 view .LVU1461
2018:../../Drivers/STM32H7xx_HAL_Driver/Src/stm32h7xx_ll_usb.c ****   uint32_t tmpreg;
 4559              		.loc 1 2018 3 view .LVU1462
2019:../../Drivers/STM32H7xx_HAL_Driver/Src/stm32h7xx_ll_usb.c **** 
2020:../../Drivers/STM32H7xx_HAL_Driver/Src/stm32h7xx_ll_usb.c ****   USBx_HC(chnum)->HCTSIZ = ((num_packets << 19) & USB_OTG_HCTSIZ_PKTCNT) |
 4560              		.loc 1 2020 3 view .LVU1463
 4561 0000 00EB4111 		add	r1, r0, r1, lsl #5
 4562              	.LVL352:
 4563              		.loc 1 2020 26 is_stmt 0 view .LVU1464
 4564 0004 064A     		ldr	r2, .L296
 4565 0006 C1F81025 		str	r2, [r1, #1296]
2021:../../Drivers/STM32H7xx_HAL_Driver/Src/stm32h7xx_ll_usb.c ****                            USB_OTG_HCTSIZ_DOPING;
2022:../../Drivers/STM32H7xx_HAL_Driver/Src/stm32h7xx_ll_usb.c **** 
2023:../../Drivers/STM32H7xx_HAL_Driver/Src/stm32h7xx_ll_usb.c ****   /* Set host channel enable */
2024:../../Drivers/STM32H7xx_HAL_Driver/Src/stm32h7xx_ll_usb.c ****   tmpreg = USBx_HC(chnum)->HCCHAR;
 4566              		.loc 1 2024 3 is_stmt 1 view .LVU1465
 4567              		.loc 1 2024 10 is_stmt 0 view .LVU1466
 4568 000a D1F80035 		ldr	r3, [r1, #1280]
 4569              	.LVL353:
2025:../../Drivers/STM32H7xx_HAL_Driver/Src/stm32h7xx_ll_usb.c ****   tmpreg &= ~USB_OTG_HCCHAR_CHDIS;
 4570              		.loc 1 2025 3 is_stmt 1 view .LVU1467
 4571              		.loc 1 2025 10 is_stmt 0 view .LVU1468
 4572 000e 23F08043 		bic	r3, r3, #1073741824
 4573              	.LVL354:
2026:../../Drivers/STM32H7xx_HAL_Driver/Src/stm32h7xx_ll_usb.c ****   tmpreg |= USB_OTG_HCCHAR_CHENA;
 4574              		.loc 1 2026 3 is_stmt 1 view .LVU1469
 4575              		.loc 1 2026 10 is_stmt 0 view .LVU1470
 4576 0012 43F00043 		orr	r3, r3, #-2147483648
 4577              	.LVL355:
2027:../../Drivers/STM32H7xx_HAL_Driver/Src/stm32h7xx_ll_usb.c ****   USBx_HC(chnum)->HCCHAR = tmpreg;
 4578              		.loc 1 2027 3 is_stmt 1 view .LVU1471
 4579              		.loc 1 2027 26 is_stmt 0 view .LVU1472
 4580 0016 C1F80035 		str	r3, [r1, #1280]
2028:../../Drivers/STM32H7xx_HAL_Driver/Src/stm32h7xx_ll_usb.c **** 
2029:../../Drivers/STM32H7xx_HAL_Driver/Src/stm32h7xx_ll_usb.c ****   return HAL_OK;
 4581              		.loc 1 2029 3 is_stmt 1 view .LVU1473
2030:../../Drivers/STM32H7xx_HAL_Driver/Src/stm32h7xx_ll_usb.c **** }
 4582              		.loc 1 2030 1 is_stmt 0 view .LVU1474
 4583 001a 0020     		movs	r0, #0
 4584              	.LVL356:
 4585              		.loc 1 2030 1 view .LVU1475
 4586 001c 7047     		bx	lr
 4587              	.L297:
 4588 001e 00BF     		.align	2
 4589              	.L296:
 4590 0020 00000880 		.word	-2146959360
 4591              		.cfi_endproc
 4592              	.LFE189:
 4594              		.section	.text.USB_HC_StartXfer,"ax",%progbits
 4595              		.align	1
 4596              		.global	USB_HC_StartXfer
 4597              		.syntax unified
 4598              		.thumb
 4599              		.thumb_func
 4601              	USB_HC_StartXfer:
ARM GAS  C:\Users\gigig\AppData\Local\Temp\ccBJNrpK.s 			page 136


 4602              	.LVL357:
 4603              	.LFB186:
1786:../../Drivers/STM32H7xx_HAL_Driver/Src/stm32h7xx_ll_usb.c ****   uint32_t USBx_BASE = (uint32_t)USBx;
 4604              		.loc 1 1786 1 is_stmt 1 view -0
 4605              		.cfi_startproc
 4606              		@ args = 0, pretend = 0, frame = 8
 4607              		@ frame_needed = 0, uses_anonymous_args = 0
1786:../../Drivers/STM32H7xx_HAL_Driver/Src/stm32h7xx_ll_usb.c ****   uint32_t USBx_BASE = (uint32_t)USBx;
 4608              		.loc 1 1786 1 is_stmt 0 view .LVU1477
 4609 0000 30B5     		push	{r4, r5, lr}
 4610              	.LCFI64:
 4611              		.cfi_def_cfa_offset 12
 4612              		.cfi_offset 4, -12
 4613              		.cfi_offset 5, -8
 4614              		.cfi_offset 14, -4
 4615 0002 85B0     		sub	sp, sp, #20
 4616              	.LCFI65:
 4617              		.cfi_def_cfa_offset 32
1787:../../Drivers/STM32H7xx_HAL_Driver/Src/stm32h7xx_ll_usb.c ****   uint32_t ch_num = (uint32_t)hc->ch_num;
 4618              		.loc 1 1787 3 is_stmt 1 view .LVU1478
 4619              	.LVL358:
1788:../../Drivers/STM32H7xx_HAL_Driver/Src/stm32h7xx_ll_usb.c ****   __IO uint32_t tmpreg;
 4620              		.loc 1 1788 3 view .LVU1479
1788:../../Drivers/STM32H7xx_HAL_Driver/Src/stm32h7xx_ll_usb.c ****   __IO uint32_t tmpreg;
 4621              		.loc 1 1788 33 is_stmt 0 view .LVU1480
 4622 0004 4B78     		ldrb	r3, [r1, #1]	@ zero_extendqisi2
 4623              	.LVL359:
1789:../../Drivers/STM32H7xx_HAL_Driver/Src/stm32h7xx_ll_usb.c ****   uint8_t  is_oddframe;
 4624              		.loc 1 1789 3 is_stmt 1 view .LVU1481
1790:../../Drivers/STM32H7xx_HAL_Driver/Src/stm32h7xx_ll_usb.c ****   uint16_t len_words;
 4625              		.loc 1 1790 3 view .LVU1482
1791:../../Drivers/STM32H7xx_HAL_Driver/Src/stm32h7xx_ll_usb.c ****   uint16_t num_packets;
 4626              		.loc 1 1791 3 view .LVU1483
1792:../../Drivers/STM32H7xx_HAL_Driver/Src/stm32h7xx_ll_usb.c ****   uint16_t max_hc_pkt_count = HC_MAX_PKT_CNT;
 4627              		.loc 1 1792 3 view .LVU1484
1793:../../Drivers/STM32H7xx_HAL_Driver/Src/stm32h7xx_ll_usb.c **** 
 4628              		.loc 1 1793 3 view .LVU1485
1795:../../Drivers/STM32H7xx_HAL_Driver/Src/stm32h7xx_ll_usb.c ****   {
 4629              		.loc 1 1795 3 view .LVU1486
1795:../../Drivers/STM32H7xx_HAL_Driver/Src/stm32h7xx_ll_usb.c ****   {
 4630              		.loc 1 1795 13 is_stmt 0 view .LVU1487
 4631 0006 C46B     		ldr	r4, [r0, #60]
1795:../../Drivers/STM32H7xx_HAL_Driver/Src/stm32h7xx_ll_usb.c ****   {
 4632              		.loc 1 1795 6 view .LVU1488
 4633 0008 14F4807F 		tst	r4, #256
 4634 000c 07D0     		beq	.L299
1795:../../Drivers/STM32H7xx_HAL_Driver/Src/stm32h7xx_ll_usb.c ****   {
 4635              		.loc 1 1795 47 discriminator 1 view .LVU1489
 4636 000e 0C79     		ldrb	r4, [r1, #4]	@ zero_extendqisi2
1795:../../Drivers/STM32H7xx_HAL_Driver/Src/stm32h7xx_ll_usb.c ****   {
 4637              		.loc 1 1795 41 discriminator 1 view .LVU1490
 4638 0010 2CB9     		cbnz	r4, .L299
1798:../../Drivers/STM32H7xx_HAL_Driver/Src/stm32h7xx_ll_usb.c ****     {
 4639              		.loc 1 1798 5 is_stmt 1 view .LVU1491
1798:../../Drivers/STM32H7xx_HAL_Driver/Src/stm32h7xx_ll_usb.c ****     {
 4640              		.loc 1 1798 8 is_stmt 0 view .LVU1492
 4641 0012 012A     		cmp	r2, #1
ARM GAS  C:\Users\gigig\AppData\Local\Temp\ccBJNrpK.s 			page 137


 4642 0014 16D0     		beq	.L314
 4643              	.L300:
1805:../../Drivers/STM32H7xx_HAL_Driver/Src/stm32h7xx_ll_usb.c ****     {
 4644              		.loc 1 1805 5 is_stmt 1 view .LVU1493
1805:../../Drivers/STM32H7xx_HAL_Driver/Src/stm32h7xx_ll_usb.c ****     {
 4645              		.loc 1 1805 8 is_stmt 0 view .LVU1494
 4646 0016 12B9     		cbnz	r2, .L299
1805:../../Drivers/STM32H7xx_HAL_Driver/Src/stm32h7xx_ll_usb.c ****     {
 4647              		.loc 1 1805 27 discriminator 1 view .LVU1495
 4648 0018 4C79     		ldrb	r4, [r1, #5]	@ zero_extendqisi2
1805:../../Drivers/STM32H7xx_HAL_Driver/Src/stm32h7xx_ll_usb.c ****     {
 4649              		.loc 1 1805 21 discriminator 1 view .LVU1496
 4650 001a 012C     		cmp	r4, #1
 4651 001c 20D0     		beq	.L315
 4652              	.L299:
1814:../../Drivers/STM32H7xx_HAL_Driver/Src/stm32h7xx_ll_usb.c ****   {
 4653              		.loc 1 1814 3 is_stmt 1 view .LVU1497
1814:../../Drivers/STM32H7xx_HAL_Driver/Src/stm32h7xx_ll_usb.c ****   {
 4654              		.loc 1 1814 9 is_stmt 0 view .LVU1498
 4655 001e 4C69     		ldr	r4, [r1, #20]
1814:../../Drivers/STM32H7xx_HAL_Driver/Src/stm32h7xx_ll_usb.c ****   {
 4656              		.loc 1 1814 6 view .LVU1499
 4657 0020 14B3     		cbz	r4, .L312
1816:../../Drivers/STM32H7xx_HAL_Driver/Src/stm32h7xx_ll_usb.c **** 
 4658              		.loc 1 1816 5 is_stmt 1 view .LVU1500
1816:../../Drivers/STM32H7xx_HAL_Driver/Src/stm32h7xx_ll_usb.c **** 
 4659              		.loc 1 1816 48 is_stmt 0 view .LVU1501
 4660 0022 0D89     		ldrh	r5, [r1, #8]
1816:../../Drivers/STM32H7xx_HAL_Driver/Src/stm32h7xx_ll_usb.c **** 
 4661              		.loc 1 1816 44 view .LVU1502
 4662 0024 04EB050C 		add	ip, r4, r5
1816:../../Drivers/STM32H7xx_HAL_Driver/Src/stm32h7xx_ll_usb.c **** 
 4663              		.loc 1 1816 61 view .LVU1503
 4664 0028 0CF1FF3C 		add	ip, ip, #-1
1816:../../Drivers/STM32H7xx_HAL_Driver/Src/stm32h7xx_ll_usb.c **** 
 4665              		.loc 1 1816 67 view .LVU1504
 4666 002c BCFBF5FC 		udiv	ip, ip, r5
1816:../../Drivers/STM32H7xx_HAL_Driver/Src/stm32h7xx_ll_usb.c **** 
 4667              		.loc 1 1816 17 view .LVU1505
 4668 0030 1FFA8CFC 		uxth	ip, ip
 4669              	.LVL360:
1818:../../Drivers/STM32H7xx_HAL_Driver/Src/stm32h7xx_ll_usb.c ****     {
 4670              		.loc 1 1818 5 is_stmt 1 view .LVU1506
1818:../../Drivers/STM32H7xx_HAL_Driver/Src/stm32h7xx_ll_usb.c ****     {
 4671              		.loc 1 1818 8 is_stmt 0 view .LVU1507
 4672 0034 BCF5807F 		cmp	ip, #256
 4673 0038 18D9     		bls	.L302
1820:../../Drivers/STM32H7xx_HAL_Driver/Src/stm32h7xx_ll_usb.c ****       hc->XferSize = (uint32_t)num_packets * hc->max_packet;
 4674              		.loc 1 1820 7 is_stmt 1 view .LVU1508
 4675              	.LVL361:
1821:../../Drivers/STM32H7xx_HAL_Driver/Src/stm32h7xx_ll_usb.c ****     }
 4676              		.loc 1 1821 7 view .LVU1509
1821:../../Drivers/STM32H7xx_HAL_Driver/Src/stm32h7xx_ll_usb.c ****     }
 4677              		.loc 1 1821 44 is_stmt 0 view .LVU1510
 4678 003a 2D02     		lsls	r5, r5, #8
1821:../../Drivers/STM32H7xx_HAL_Driver/Src/stm32h7xx_ll_usb.c ****     }
 4679              		.loc 1 1821 20 view .LVU1511
ARM GAS  C:\Users\gigig\AppData\Local\Temp\ccBJNrpK.s 			page 138


 4680 003c 0D61     		str	r5, [r1, #16]
1820:../../Drivers/STM32H7xx_HAL_Driver/Src/stm32h7xx_ll_usb.c ****       hc->XferSize = (uint32_t)num_packets * hc->max_packet;
 4681              		.loc 1 1820 19 view .LVU1512
 4682 003e 4FF4807C 		mov	ip, #256
 4683 0042 13E0     		b	.L302
 4684              	.LVL362:
 4685              	.L314:
1798:../../Drivers/STM32H7xx_HAL_Driver/Src/stm32h7xx_ll_usb.c ****     {
 4686              		.loc 1 1798 28 discriminator 1 view .LVU1513
 4687 0044 CC79     		ldrb	r4, [r1, #7]	@ zero_extendqisi2
1798:../../Drivers/STM32H7xx_HAL_Driver/Src/stm32h7xx_ll_usb.c ****     {
 4688              		.loc 1 1798 21 discriminator 1 view .LVU1514
 4689 0046 022C     		cmp	r4, #2
 4690 0048 18BF     		it	ne
 4691 004a 002C     		cmpne	r4, #0
 4692 004c E3D1     		bne	.L300
1800:../../Drivers/STM32H7xx_HAL_Driver/Src/stm32h7xx_ll_usb.c ****                                                USB_OTG_HCINTMSK_ACKM |
 4693              		.loc 1 1800 7 is_stmt 1 view .LVU1515
1800:../../Drivers/STM32H7xx_HAL_Driver/Src/stm32h7xx_ll_usb.c ****                                                USB_OTG_HCINTMSK_ACKM |
 4694              		.loc 1 1800 43 is_stmt 0 view .LVU1516
 4695 004e 00EB4314 		add	r4, r0, r3, lsl #5
 4696 0052 D4F80C55 		ldr	r5, [r4, #1292]
 4697 0056 25F07005 		bic	r5, r5, #112
 4698 005a C4F80C55 		str	r5, [r4, #1292]
 4699 005e DAE7     		b	.L300
 4700              	.L315:
1807:../../Drivers/STM32H7xx_HAL_Driver/Src/stm32h7xx_ll_usb.c ****       return HAL_OK;
 4701              		.loc 1 1807 7 is_stmt 1 view .LVU1517
1807:../../Drivers/STM32H7xx_HAL_Driver/Src/stm32h7xx_ll_usb.c ****       return HAL_OK;
 4702              		.loc 1 1807 13 is_stmt 0 view .LVU1518
 4703 0060 4978     		ldrb	r1, [r1, #1]	@ zero_extendqisi2
 4704              	.LVL363:
1807:../../Drivers/STM32H7xx_HAL_Driver/Src/stm32h7xx_ll_usb.c ****       return HAL_OK;
 4705              		.loc 1 1807 13 view .LVU1519
 4706 0062 FFF7FEFF 		bl	USB_DoPing
 4707              	.LVL364:
1808:../../Drivers/STM32H7xx_HAL_Driver/Src/stm32h7xx_ll_usb.c ****     }
 4708              		.loc 1 1808 7 is_stmt 1 view .LVU1520
1808:../../Drivers/STM32H7xx_HAL_Driver/Src/stm32h7xx_ll_usb.c ****     }
 4709              		.loc 1 1808 14 is_stmt 0 view .LVU1521
 4710 0066 70E0     		b	.L301
 4711              	.LVL365:
 4712              	.L312:
1826:../../Drivers/STM32H7xx_HAL_Driver/Src/stm32h7xx_ll_usb.c ****   }
 4713              		.loc 1 1826 17 view .LVU1522
 4714 0068 4FF0010C 		mov	ip, #1
 4715              	.L302:
 4716              	.LVL366:
1833:../../Drivers/STM32H7xx_HAL_Driver/Src/stm32h7xx_ll_usb.c ****   {
 4717              		.loc 1 1833 3 is_stmt 1 view .LVU1523
1833:../../Drivers/STM32H7xx_HAL_Driver/Src/stm32h7xx_ll_usb.c ****   {
 4718              		.loc 1 1833 9 is_stmt 0 view .LVU1524
 4719 006c CD78     		ldrb	r5, [r1, #3]	@ zero_extendqisi2
1833:../../Drivers/STM32H7xx_HAL_Driver/Src/stm32h7xx_ll_usb.c ****   {
 4720              		.loc 1 1833 6 view .LVU1525
 4721 006e 002D     		cmp	r5, #0
 4722 0070 52D0     		beq	.L303
ARM GAS  C:\Users\gigig\AppData\Local\Temp\ccBJNrpK.s 			page 139


1835:../../Drivers/STM32H7xx_HAL_Driver/Src/stm32h7xx_ll_usb.c ****   }
 4723              		.loc 1 1835 5 is_stmt 1 view .LVU1526
1835:../../Drivers/STM32H7xx_HAL_Driver/Src/stm32h7xx_ll_usb.c ****   }
 4724              		.loc 1 1835 46 is_stmt 0 view .LVU1527
 4725 0072 0C89     		ldrh	r4, [r1, #8]
1835:../../Drivers/STM32H7xx_HAL_Driver/Src/stm32h7xx_ll_usb.c ****   }
 4726              		.loc 1 1835 42 view .LVU1528
 4727 0074 04FB0CF4 		mul	r4, r4, ip
1835:../../Drivers/STM32H7xx_HAL_Driver/Src/stm32h7xx_ll_usb.c ****   }
 4728              		.loc 1 1835 18 view .LVU1529
 4729 0078 0C61     		str	r4, [r1, #16]
 4730              	.L304:
1843:../../Drivers/STM32H7xx_HAL_Driver/Src/stm32h7xx_ll_usb.c ****                             (((uint32_t)num_packets << 19) & USB_OTG_HCTSIZ_PKTCNT) |
 4731              		.loc 1 1843 3 is_stmt 1 view .LVU1530
1843:../../Drivers/STM32H7xx_HAL_Driver/Src/stm32h7xx_ll_usb.c ****                             (((uint32_t)num_packets << 19) & USB_OTG_HCTSIZ_PKTCNT) |
 4732              		.loc 1 1843 32 is_stmt 0 view .LVU1531
 4733 007a 0C69     		ldr	r4, [r1, #16]
1843:../../Drivers/STM32H7xx_HAL_Driver/Src/stm32h7xx_ll_usb.c ****                             (((uint32_t)num_packets << 19) & USB_OTG_HCTSIZ_PKTCNT) |
 4734              		.loc 1 1843 43 view .LVU1532
 4735 007c C4F31204 		ubfx	r4, r4, #0, #19
1844:../../Drivers/STM32H7xx_HAL_Driver/Src/stm32h7xx_ll_usb.c ****                             (((uint32_t)hc->data_pid << 29) & USB_OTG_HCTSIZ_DPID);
 4736              		.loc 1 1844 60 view .LVU1533
 4737 0080 3A4D     		ldr	r5, .L316
 4738 0082 05EACC4C 		and	ip, r5, ip, lsl #19
 4739              	.LVL367:
1843:../../Drivers/STM32H7xx_HAL_Driver/Src/stm32h7xx_ll_usb.c ****                             (((uint32_t)num_packets << 19) & USB_OTG_HCTSIZ_PKTCNT) |
 4740              		.loc 1 1843 68 view .LVU1534
 4741 0086 44EA0C04 		orr	r4, r4, ip
1845:../../Drivers/STM32H7xx_HAL_Driver/Src/stm32h7xx_ll_usb.c **** 
 4742              		.loc 1 1845 43 view .LVU1535
 4743 008a 91F80AC0 		ldrb	ip, [r1, #10]	@ zero_extendqisi2
1845:../../Drivers/STM32H7xx_HAL_Driver/Src/stm32h7xx_ll_usb.c **** 
 4744              		.loc 1 1845 54 view .LVU1536
 4745 008e 4FEA4C7C 		lsl	ip, ip, #29
1845:../../Drivers/STM32H7xx_HAL_Driver/Src/stm32h7xx_ll_usb.c **** 
 4746              		.loc 1 1845 61 view .LVU1537
 4747 0092 0CF0C04C 		and	ip, ip, #1610612736
1843:../../Drivers/STM32H7xx_HAL_Driver/Src/stm32h7xx_ll_usb.c ****                             (((uint32_t)num_packets << 19) & USB_OTG_HCTSIZ_PKTCNT) |
 4748              		.loc 1 1843 3 view .LVU1538
 4749 0096 00EB4313 		add	r3, r0, r3, lsl #5
 4750              	.LVL368:
1844:../../Drivers/STM32H7xx_HAL_Driver/Src/stm32h7xx_ll_usb.c ****                             (((uint32_t)hc->data_pid << 29) & USB_OTG_HCTSIZ_DPID);
 4751              		.loc 1 1844 85 view .LVU1539
 4752 009a 44EA0C04 		orr	r4, r4, ip
1843:../../Drivers/STM32H7xx_HAL_Driver/Src/stm32h7xx_ll_usb.c ****                             (((uint32_t)num_packets << 19) & USB_OTG_HCTSIZ_PKTCNT) |
 4753              		.loc 1 1843 27 view .LVU1540
 4754 009e C3F81045 		str	r4, [r3, #1296]
1847:../../Drivers/STM32H7xx_HAL_Driver/Src/stm32h7xx_ll_usb.c ****   {
 4755              		.loc 1 1847 3 is_stmt 1 view .LVU1541
1847:../../Drivers/STM32H7xx_HAL_Driver/Src/stm32h7xx_ll_usb.c ****   {
 4756              		.loc 1 1847 6 is_stmt 0 view .LVU1542
 4757 00a2 12B1     		cbz	r2, .L305
1850:../../Drivers/STM32H7xx_HAL_Driver/Src/stm32h7xx_ll_usb.c ****   }
 4758              		.loc 1 1850 5 is_stmt 1 view .LVU1543
1850:../../Drivers/STM32H7xx_HAL_Driver/Src/stm32h7xx_ll_usb.c ****   }
 4759              		.loc 1 1850 42 is_stmt 0 view .LVU1544
 4760 00a4 CC68     		ldr	r4, [r1, #12]
ARM GAS  C:\Users\gigig\AppData\Local\Temp\ccBJNrpK.s 			page 140


1850:../../Drivers/STM32H7xx_HAL_Driver/Src/stm32h7xx_ll_usb.c ****   }
 4761              		.loc 1 1850 28 view .LVU1545
 4762 00a6 C3F81445 		str	r4, [r3, #1300]
 4763              	.L305:
1853:../../Drivers/STM32H7xx_HAL_Driver/Src/stm32h7xx_ll_usb.c ****   USBx_HC(ch_num)->HCCHAR &= ~USB_OTG_HCCHAR_ODDFRM;
 4764              		.loc 1 1853 3 is_stmt 1 view .LVU1546
1853:../../Drivers/STM32H7xx_HAL_Driver/Src/stm32h7xx_ll_usb.c ****   USBx_HC(ch_num)->HCCHAR &= ~USB_OTG_HCCHAR_ODDFRM;
 4765              		.loc 1 1853 29 is_stmt 0 view .LVU1547
 4766 00aa 00F5806C 		add	ip, r0, #1024
1853:../../Drivers/STM32H7xx_HAL_Driver/Src/stm32h7xx_ll_usb.c ****   USBx_HC(ch_num)->HCCHAR &= ~USB_OTG_HCCHAR_ODDFRM;
 4767              		.loc 1 1853 38 view .LVU1548
 4768 00ae DCF80840 		ldr	r4, [ip, #8]
1853:../../Drivers/STM32H7xx_HAL_Driver/Src/stm32h7xx_ll_usb.c ****   USBx_HC(ch_num)->HCCHAR &= ~USB_OTG_HCCHAR_ODDFRM;
 4769              		.loc 1 1853 67 view .LVU1549
 4770 00b2 14F0010F 		tst	r4, #1
 4771 00b6 0CBF     		ite	eq
 4772 00b8 4FF0010E 		moveq	lr, #1
 4773 00bc 4FF0000E 		movne	lr, #0
 4774              	.LVL369:
1854:../../Drivers/STM32H7xx_HAL_Driver/Src/stm32h7xx_ll_usb.c ****   USBx_HC(ch_num)->HCCHAR |= (uint32_t)is_oddframe << 29;
 4775              		.loc 1 1854 3 is_stmt 1 view .LVU1550
1854:../../Drivers/STM32H7xx_HAL_Driver/Src/stm32h7xx_ll_usb.c ****   USBx_HC(ch_num)->HCCHAR |= (uint32_t)is_oddframe << 29;
 4776              		.loc 1 1854 27 is_stmt 0 view .LVU1551
 4777 00c0 D3F80055 		ldr	r5, [r3, #1280]
 4778 00c4 25F00055 		bic	r5, r5, #536870912
 4779 00c8 C3F80055 		str	r5, [r3, #1280]
1855:../../Drivers/STM32H7xx_HAL_Driver/Src/stm32h7xx_ll_usb.c **** 
 4780              		.loc 1 1855 3 is_stmt 1 view .LVU1552
1855:../../Drivers/STM32H7xx_HAL_Driver/Src/stm32h7xx_ll_usb.c **** 
 4781              		.loc 1 1855 27 is_stmt 0 view .LVU1553
 4782 00cc D3F80045 		ldr	r4, [r3, #1280]
 4783 00d0 44EA4E74 		orr	r4, r4, lr, lsl #29
 4784 00d4 C3F80045 		str	r4, [r3, #1280]
1858:../../Drivers/STM32H7xx_HAL_Driver/Src/stm32h7xx_ll_usb.c ****   tmpreg &= ~USB_OTG_HCCHAR_CHDIS;
 4785              		.loc 1 1858 3 is_stmt 1 view .LVU1554
1858:../../Drivers/STM32H7xx_HAL_Driver/Src/stm32h7xx_ll_usb.c ****   tmpreg &= ~USB_OTG_HCCHAR_CHDIS;
 4786              		.loc 1 1858 27 is_stmt 0 view .LVU1555
 4787 00d8 D3F80045 		ldr	r4, [r3, #1280]
1858:../../Drivers/STM32H7xx_HAL_Driver/Src/stm32h7xx_ll_usb.c ****   tmpreg &= ~USB_OTG_HCCHAR_CHDIS;
 4788              		.loc 1 1858 10 view .LVU1556
 4789 00dc 0394     		str	r4, [sp, #12]
1859:../../Drivers/STM32H7xx_HAL_Driver/Src/stm32h7xx_ll_usb.c **** 
 4790              		.loc 1 1859 3 is_stmt 1 view .LVU1557
1859:../../Drivers/STM32H7xx_HAL_Driver/Src/stm32h7xx_ll_usb.c **** 
 4791              		.loc 1 1859 10 is_stmt 0 view .LVU1558
 4792 00de 039C     		ldr	r4, [sp, #12]
 4793 00e0 24F08044 		bic	r4, r4, #1073741824
 4794 00e4 0394     		str	r4, [sp, #12]
1862:../../Drivers/STM32H7xx_HAL_Driver/Src/stm32h7xx_ll_usb.c ****   {
 4795              		.loc 1 1862 3 is_stmt 1 view .LVU1559
1862:../../Drivers/STM32H7xx_HAL_Driver/Src/stm32h7xx_ll_usb.c ****   {
 4796              		.loc 1 1862 9 is_stmt 0 view .LVU1560
 4797 00e6 CC78     		ldrb	r4, [r1, #3]	@ zero_extendqisi2
1862:../../Drivers/STM32H7xx_HAL_Driver/Src/stm32h7xx_ll_usb.c ****   {
 4798              		.loc 1 1862 6 view .LVU1561
 4799 00e8 C4B1     		cbz	r4, .L306
1864:../../Drivers/STM32H7xx_HAL_Driver/Src/stm32h7xx_ll_usb.c ****   }
ARM GAS  C:\Users\gigig\AppData\Local\Temp\ccBJNrpK.s 			page 141


 4800              		.loc 1 1864 5 is_stmt 1 view .LVU1562
1864:../../Drivers/STM32H7xx_HAL_Driver/Src/stm32h7xx_ll_usb.c ****   }
 4801              		.loc 1 1864 12 is_stmt 0 view .LVU1563
 4802 00ea 039C     		ldr	r4, [sp, #12]
 4803 00ec 44F40044 		orr	r4, r4, #32768
 4804 00f0 0394     		str	r4, [sp, #12]
 4805              	.L307:
1870:../../Drivers/STM32H7xx_HAL_Driver/Src/stm32h7xx_ll_usb.c ****   USBx_HC(ch_num)->HCCHAR = tmpreg;
 4806              		.loc 1 1870 3 is_stmt 1 view .LVU1564
1870:../../Drivers/STM32H7xx_HAL_Driver/Src/stm32h7xx_ll_usb.c ****   USBx_HC(ch_num)->HCCHAR = tmpreg;
 4807              		.loc 1 1870 10 is_stmt 0 view .LVU1565
 4808 00f2 039C     		ldr	r4, [sp, #12]
 4809 00f4 44F00044 		orr	r4, r4, #-2147483648
 4810 00f8 0394     		str	r4, [sp, #12]
1871:../../Drivers/STM32H7xx_HAL_Driver/Src/stm32h7xx_ll_usb.c **** 
 4811              		.loc 1 1871 3 is_stmt 1 view .LVU1566
1871:../../Drivers/STM32H7xx_HAL_Driver/Src/stm32h7xx_ll_usb.c **** 
 4812              		.loc 1 1871 27 is_stmt 0 view .LVU1567
 4813 00fa 039C     		ldr	r4, [sp, #12]
 4814 00fc C3F80045 		str	r4, [r3, #1280]
1873:../../Drivers/STM32H7xx_HAL_Driver/Src/stm32h7xx_ll_usb.c ****   {
 4815              		.loc 1 1873 3 is_stmt 1 view .LVU1568
1873:../../Drivers/STM32H7xx_HAL_Driver/Src/stm32h7xx_ll_usb.c ****   {
 4816              		.loc 1 1873 6 is_stmt 0 view .LVU1569
 4817 0100 1ABB     		cbnz	r2, .L301
1878:../../Drivers/STM32H7xx_HAL_Driver/Src/stm32h7xx_ll_usb.c ****   {
 4818              		.loc 1 1878 3 is_stmt 1 view .LVU1570
1878:../../Drivers/STM32H7xx_HAL_Driver/Src/stm32h7xx_ll_usb.c ****   {
 4819              		.loc 1 1878 10 is_stmt 0 view .LVU1571
 4820 0102 CB78     		ldrb	r3, [r1, #3]	@ zero_extendqisi2
1878:../../Drivers/STM32H7xx_HAL_Driver/Src/stm32h7xx_ll_usb.c ****   {
 4821              		.loc 1 1878 6 view .LVU1572
 4822 0104 0BBB     		cbnz	r3, .L301
1878:../../Drivers/STM32H7xx_HAL_Driver/Src/stm32h7xx_ll_usb.c ****   {
 4823              		.loc 1 1878 34 discriminator 1 view .LVU1573
 4824 0106 4B69     		ldr	r3, [r1, #20]
1878:../../Drivers/STM32H7xx_HAL_Driver/Src/stm32h7xx_ll_usb.c ****   {
 4825              		.loc 1 1878 28 discriminator 1 view .LVU1574
 4826 0108 FBB1     		cbz	r3, .L301
1880:../../Drivers/STM32H7xx_HAL_Driver/Src/stm32h7xx_ll_usb.c ****     {
 4827              		.loc 1 1880 5 is_stmt 1 view .LVU1575
1880:../../Drivers/STM32H7xx_HAL_Driver/Src/stm32h7xx_ll_usb.c ****     {
 4828              		.loc 1 1880 15 is_stmt 0 view .LVU1576
 4829 010a CA79     		ldrb	r2, [r1, #7]	@ zero_extendqisi2
 4830              	.LVL370:
1880:../../Drivers/STM32H7xx_HAL_Driver/Src/stm32h7xx_ll_usb.c ****     {
 4831              		.loc 1 1880 5 view .LVU1577
 4832 010c 032A     		cmp	r2, #3
 4833 010e 15D8     		bhi	.L308
 4834 0110 DFE802F0 		tbb	[pc, r2]
 4835              	.L310:
 4836 0114 09       		.byte	(.L311-.L310)/2
 4837 0115 1E       		.byte	(.L309-.L310)/2
 4838 0116 09       		.byte	(.L311-.L310)/2
 4839 0117 1E       		.byte	(.L309-.L310)/2
 4840              	.LVL371:
 4841              		.p2align 1
ARM GAS  C:\Users\gigig\AppData\Local\Temp\ccBJNrpK.s 			page 142


 4842              	.L303:
1839:../../Drivers/STM32H7xx_HAL_Driver/Src/stm32h7xx_ll_usb.c ****   }
 4843              		.loc 1 1839 5 is_stmt 1 view .LVU1578
1839:../../Drivers/STM32H7xx_HAL_Driver/Src/stm32h7xx_ll_usb.c ****   }
 4844              		.loc 1 1839 18 is_stmt 0 view .LVU1579
 4845 0118 0C61     		str	r4, [r1, #16]
 4846 011a AEE7     		b	.L304
 4847              	.LVL372:
 4848              	.L306:
1868:../../Drivers/STM32H7xx_HAL_Driver/Src/stm32h7xx_ll_usb.c ****   }
 4849              		.loc 1 1868 5 is_stmt 1 view .LVU1580
1868:../../Drivers/STM32H7xx_HAL_Driver/Src/stm32h7xx_ll_usb.c ****   }
 4850              		.loc 1 1868 12 is_stmt 0 view .LVU1581
 4851 011c 039C     		ldr	r4, [sp, #12]
 4852 011e 24F40044 		bic	r4, r4, #32768
 4853 0122 0394     		str	r4, [sp, #12]
 4854 0124 E5E7     		b	.L307
 4855              	.LVL373:
 4856              	.L311:
1886:../../Drivers/STM32H7xx_HAL_Driver/Src/stm32h7xx_ll_usb.c **** 
 4857              		.loc 1 1886 9 is_stmt 1 view .LVU1582
1886:../../Drivers/STM32H7xx_HAL_Driver/Src/stm32h7xx_ll_usb.c **** 
 4858              		.loc 1 1886 46 is_stmt 0 view .LVU1583
 4859 0126 0333     		adds	r3, r3, #3
 4860              	.LVL374:
1889:../../Drivers/STM32H7xx_HAL_Driver/Src/stm32h7xx_ll_usb.c ****         {
 4861              		.loc 1 1889 9 is_stmt 1 view .LVU1584
1889:../../Drivers/STM32H7xx_HAL_Driver/Src/stm32h7xx_ll_usb.c ****         {
 4862              		.loc 1 1889 30 is_stmt 0 view .LVU1585
 4863 0128 C26A     		ldr	r2, [r0, #44]
1889:../../Drivers/STM32H7xx_HAL_Driver/Src/stm32h7xx_ll_usb.c ****         {
 4864              		.loc 1 1889 41 view .LVU1586
 4865 012a 92B2     		uxth	r2, r2
1889:../../Drivers/STM32H7xx_HAL_Driver/Src/stm32h7xx_ll_usb.c ****         {
 4866              		.loc 1 1889 12 view .LVU1587
 4867 012c C3F38F03 		ubfx	r3, r3, #2, #16
 4868              	.LVL375:
1889:../../Drivers/STM32H7xx_HAL_Driver/Src/stm32h7xx_ll_usb.c ****         {
 4869              		.loc 1 1889 12 view .LVU1588
 4870 0130 9A42     		cmp	r2, r3
 4871 0132 03D2     		bcs	.L308
1892:../../Drivers/STM32H7xx_HAL_Driver/Src/stm32h7xx_ll_usb.c ****         }
 4872              		.loc 1 1892 11 is_stmt 1 view .LVU1589
1892:../../Drivers/STM32H7xx_HAL_Driver/Src/stm32h7xx_ll_usb.c ****         }
 4873              		.loc 1 1892 25 is_stmt 0 view .LVU1590
 4874 0134 8369     		ldr	r3, [r0, #24]
 4875 0136 43F02003 		orr	r3, r3, #32
 4876 013a 8361     		str	r3, [r0, #24]
 4877              	.LVL376:
 4878              	.L308:
1913:../../Drivers/STM32H7xx_HAL_Driver/Src/stm32h7xx_ll_usb.c ****   }
 4879              		.loc 1 1913 5 is_stmt 1 view .LVU1591
1913:../../Drivers/STM32H7xx_HAL_Driver/Src/stm32h7xx_ll_usb.c ****   }
 4880              		.loc 1 1913 11 is_stmt 0 view .LVU1592
 4881 013c 0023     		movs	r3, #0
 4882 013e 0093     		str	r3, [sp]
 4883 0140 8B8A     		ldrh	r3, [r1, #20]
ARM GAS  C:\Users\gigig\AppData\Local\Temp\ccBJNrpK.s 			page 143


 4884 0142 4A78     		ldrb	r2, [r1, #1]	@ zero_extendqisi2
 4885 0144 C968     		ldr	r1, [r1, #12]
 4886              	.LVL377:
1913:../../Drivers/STM32H7xx_HAL_Driver/Src/stm32h7xx_ll_usb.c ****   }
 4887              		.loc 1 1913 11 view .LVU1593
 4888 0146 FFF7FEFF 		bl	USB_WritePacket
 4889              	.LVL378:
 4890              	.L301:
1917:../../Drivers/STM32H7xx_HAL_Driver/Src/stm32h7xx_ll_usb.c **** 
 4891              		.loc 1 1917 1 view .LVU1594
 4892 014a 0020     		movs	r0, #0
 4893 014c 05B0     		add	sp, sp, #20
 4894              	.LCFI66:
 4895              		.cfi_remember_state
 4896              		.cfi_def_cfa_offset 12
 4897              		@ sp needed
 4898 014e 30BD     		pop	{r4, r5, pc}
 4899              	.LVL379:
 4900              	.L309:
 4901              	.LCFI67:
 4902              		.cfi_restore_state
1899:../../Drivers/STM32H7xx_HAL_Driver/Src/stm32h7xx_ll_usb.c ****         /* check if there is enough space in FIFO space */
 4903              		.loc 1 1899 9 is_stmt 1 view .LVU1595
1899:../../Drivers/STM32H7xx_HAL_Driver/Src/stm32h7xx_ll_usb.c ****         /* check if there is enough space in FIFO space */
 4904              		.loc 1 1899 46 is_stmt 0 view .LVU1596
 4905 0150 0333     		adds	r3, r3, #3
 4906              	.LVL380:
1901:../../Drivers/STM32H7xx_HAL_Driver/Src/stm32h7xx_ll_usb.c ****         {
 4907              		.loc 1 1901 9 is_stmt 1 view .LVU1597
1901:../../Drivers/STM32H7xx_HAL_Driver/Src/stm32h7xx_ll_usb.c ****         {
 4908              		.loc 1 1901 35 is_stmt 0 view .LVU1598
 4909 0152 DCF81020 		ldr	r2, [ip, #16]
1901:../../Drivers/STM32H7xx_HAL_Driver/Src/stm32h7xx_ll_usb.c ****         {
 4910              		.loc 1 1901 45 view .LVU1599
 4911 0156 92B2     		uxth	r2, r2
1901:../../Drivers/STM32H7xx_HAL_Driver/Src/stm32h7xx_ll_usb.c ****         {
 4912              		.loc 1 1901 12 view .LVU1600
 4913 0158 C3F38F03 		ubfx	r3, r3, #2, #16
 4914              	.LVL381:
1901:../../Drivers/STM32H7xx_HAL_Driver/Src/stm32h7xx_ll_usb.c ****         {
 4915              		.loc 1 1901 12 view .LVU1601
 4916 015c 9A42     		cmp	r2, r3
 4917 015e EDD2     		bcs	.L308
1904:../../Drivers/STM32H7xx_HAL_Driver/Src/stm32h7xx_ll_usb.c ****         }
 4918              		.loc 1 1904 11 is_stmt 1 view .LVU1602
1904:../../Drivers/STM32H7xx_HAL_Driver/Src/stm32h7xx_ll_usb.c ****         }
 4919              		.loc 1 1904 25 is_stmt 0 view .LVU1603
 4920 0160 8369     		ldr	r3, [r0, #24]
 4921 0162 43F08063 		orr	r3, r3, #67108864
 4922 0166 8361     		str	r3, [r0, #24]
 4923              	.LVL382:
1904:../../Drivers/STM32H7xx_HAL_Driver/Src/stm32h7xx_ll_usb.c ****         }
 4924              		.loc 1 1904 25 view .LVU1604
 4925 0168 E8E7     		b	.L308
 4926              	.L317:
 4927 016a 00BF     		.align	2
 4928              	.L316:
ARM GAS  C:\Users\gigig\AppData\Local\Temp\ccBJNrpK.s 			page 144


 4929 016c 0000F81F 		.word	536346624
 4930              		.cfi_endproc
 4931              	.LFE186:
 4933              		.section	.text.USB_StopHost,"ax",%progbits
 4934              		.align	1
 4935              		.global	USB_StopHost
 4936              		.syntax unified
 4937              		.thumb
 4938              		.thumb_func
 4940              	USB_StopHost:
 4941              	.LVL383:
 4942              	.LFB190:
2031:../../Drivers/STM32H7xx_HAL_Driver/Src/stm32h7xx_ll_usb.c **** 
2032:../../Drivers/STM32H7xx_HAL_Driver/Src/stm32h7xx_ll_usb.c **** /**
2033:../../Drivers/STM32H7xx_HAL_Driver/Src/stm32h7xx_ll_usb.c ****   * @brief  Stop Host Core
2034:../../Drivers/STM32H7xx_HAL_Driver/Src/stm32h7xx_ll_usb.c ****   * @param  USBx  Selected device
2035:../../Drivers/STM32H7xx_HAL_Driver/Src/stm32h7xx_ll_usb.c ****   * @retval HAL state
2036:../../Drivers/STM32H7xx_HAL_Driver/Src/stm32h7xx_ll_usb.c ****   */
2037:../../Drivers/STM32H7xx_HAL_Driver/Src/stm32h7xx_ll_usb.c **** HAL_StatusTypeDef USB_StopHost(USB_OTG_GlobalTypeDef *USBx)
2038:../../Drivers/STM32H7xx_HAL_Driver/Src/stm32h7xx_ll_usb.c **** {
 4943              		.loc 1 2038 1 is_stmt 1 view -0
 4944              		.cfi_startproc
 4945              		@ args = 0, pretend = 0, frame = 8
 4946              		@ frame_needed = 0, uses_anonymous_args = 0
 4947              		.loc 1 2038 1 is_stmt 0 view .LVU1606
 4948 0000 30B5     		push	{r4, r5, lr}
 4949              	.LCFI68:
 4950              		.cfi_def_cfa_offset 12
 4951              		.cfi_offset 4, -12
 4952              		.cfi_offset 5, -8
 4953              		.cfi_offset 14, -4
 4954 0002 83B0     		sub	sp, sp, #12
 4955              	.LCFI69:
 4956              		.cfi_def_cfa_offset 24
 4957 0004 0446     		mov	r4, r0
2039:../../Drivers/STM32H7xx_HAL_Driver/Src/stm32h7xx_ll_usb.c ****   HAL_StatusTypeDef ret = HAL_OK;
 4958              		.loc 1 2039 3 is_stmt 1 view .LVU1607
 4959              	.LVL384:
2040:../../Drivers/STM32H7xx_HAL_Driver/Src/stm32h7xx_ll_usb.c ****   uint32_t USBx_BASE = (uint32_t)USBx;
 4960              		.loc 1 2040 3 view .LVU1608
2041:../../Drivers/STM32H7xx_HAL_Driver/Src/stm32h7xx_ll_usb.c ****   __IO uint32_t count = 0U;
 4961              		.loc 1 2041 3 view .LVU1609
 4962              		.loc 1 2041 17 is_stmt 0 view .LVU1610
 4963 0006 0023     		movs	r3, #0
 4964 0008 0193     		str	r3, [sp, #4]
2042:../../Drivers/STM32H7xx_HAL_Driver/Src/stm32h7xx_ll_usb.c ****   uint32_t value;
 4965              		.loc 1 2042 3 is_stmt 1 view .LVU1611
2043:../../Drivers/STM32H7xx_HAL_Driver/Src/stm32h7xx_ll_usb.c ****   uint32_t i;
 4966              		.loc 1 2043 3 view .LVU1612
2044:../../Drivers/STM32H7xx_HAL_Driver/Src/stm32h7xx_ll_usb.c **** 
2045:../../Drivers/STM32H7xx_HAL_Driver/Src/stm32h7xx_ll_usb.c ****   (void)USB_DisableGlobalInt(USBx);
 4967              		.loc 1 2045 3 view .LVU1613
 4968              		.loc 1 2045 9 is_stmt 0 view .LVU1614
 4969 000a FFF7FEFF 		bl	USB_DisableGlobalInt
 4970              	.LVL385:
2046:../../Drivers/STM32H7xx_HAL_Driver/Src/stm32h7xx_ll_usb.c **** 
2047:../../Drivers/STM32H7xx_HAL_Driver/Src/stm32h7xx_ll_usb.c ****   /* Flush USB FIFO */
ARM GAS  C:\Users\gigig\AppData\Local\Temp\ccBJNrpK.s 			page 145


2048:../../Drivers/STM32H7xx_HAL_Driver/Src/stm32h7xx_ll_usb.c ****   if (USB_FlushTxFifo(USBx, 0x10U) != HAL_OK) /* all Tx FIFOs */
 4971              		.loc 1 2048 3 is_stmt 1 view .LVU1615
 4972              		.loc 1 2048 7 is_stmt 0 view .LVU1616
 4973 000e 1021     		movs	r1, #16
 4974 0010 2046     		mov	r0, r4
 4975 0012 FFF7FEFF 		bl	USB_FlushTxFifo
 4976              	.LVL386:
 4977              		.loc 1 2048 6 view .LVU1617
 4978 0016 0546     		mov	r5, r0
 4979 0018 00B1     		cbz	r0, .L319
2049:../../Drivers/STM32H7xx_HAL_Driver/Src/stm32h7xx_ll_usb.c ****   {
2050:../../Drivers/STM32H7xx_HAL_Driver/Src/stm32h7xx_ll_usb.c ****     ret = HAL_ERROR;
 4980              		.loc 1 2050 9 view .LVU1618
 4981 001a 0125     		movs	r5, #1
 4982              	.L319:
 4983              	.LVL387:
2051:../../Drivers/STM32H7xx_HAL_Driver/Src/stm32h7xx_ll_usb.c ****   }
2052:../../Drivers/STM32H7xx_HAL_Driver/Src/stm32h7xx_ll_usb.c **** 
2053:../../Drivers/STM32H7xx_HAL_Driver/Src/stm32h7xx_ll_usb.c ****   if (USB_FlushRxFifo(USBx) != HAL_OK)
 4984              		.loc 1 2053 3 is_stmt 1 view .LVU1619
 4985              		.loc 1 2053 7 is_stmt 0 view .LVU1620
 4986 001c 2046     		mov	r0, r4
 4987 001e FFF7FEFF 		bl	USB_FlushRxFifo
 4988              	.LVL388:
 4989              		.loc 1 2053 6 view .LVU1621
 4990 0022 00B1     		cbz	r0, .L320
2054:../../Drivers/STM32H7xx_HAL_Driver/Src/stm32h7xx_ll_usb.c ****   {
2055:../../Drivers/STM32H7xx_HAL_Driver/Src/stm32h7xx_ll_usb.c ****     ret = HAL_ERROR;
 4991              		.loc 1 2055 9 view .LVU1622
 4992 0024 0125     		movs	r5, #1
 4993              	.LVL389:
 4994              	.L320:
2056:../../Drivers/STM32H7xx_HAL_Driver/Src/stm32h7xx_ll_usb.c ****   }
2057:../../Drivers/STM32H7xx_HAL_Driver/Src/stm32h7xx_ll_usb.c **** 
2058:../../Drivers/STM32H7xx_HAL_Driver/Src/stm32h7xx_ll_usb.c ****   /* Flush out any leftover queued requests. */
2059:../../Drivers/STM32H7xx_HAL_Driver/Src/stm32h7xx_ll_usb.c ****   for (i = 0U; i <= 15U; i++)
 4995              		.loc 1 2059 3 is_stmt 1 view .LVU1623
 4996              		.loc 1 2059 10 is_stmt 0 view .LVU1624
 4997 0026 0022     		movs	r2, #0
 4998              		.loc 1 2059 3 view .LVU1625
 4999 0028 0AE0     		b	.L321
 5000              	.LVL390:
 5001              	.L322:
2060:../../Drivers/STM32H7xx_HAL_Driver/Src/stm32h7xx_ll_usb.c ****   {
2061:../../Drivers/STM32H7xx_HAL_Driver/Src/stm32h7xx_ll_usb.c ****     value = USBx_HC(i)->HCCHAR;
 5002              		.loc 1 2061 5 is_stmt 1 discriminator 3 view .LVU1626
 5003              		.loc 1 2061 13 is_stmt 0 discriminator 3 view .LVU1627
 5004 002a 04EB4211 		add	r1, r4, r2, lsl #5
 5005              		.loc 1 2061 11 discriminator 3 view .LVU1628
 5006 002e D1F80035 		ldr	r3, [r1, #1280]
 5007              	.LVL391:
2062:../../Drivers/STM32H7xx_HAL_Driver/Src/stm32h7xx_ll_usb.c ****     value |=  USB_OTG_HCCHAR_CHDIS;
 5008              		.loc 1 2062 5 is_stmt 1 discriminator 3 view .LVU1629
2063:../../Drivers/STM32H7xx_HAL_Driver/Src/stm32h7xx_ll_usb.c ****     value &= ~USB_OTG_HCCHAR_CHENA;
 5009              		.loc 1 2063 5 discriminator 3 view .LVU1630
2064:../../Drivers/STM32H7xx_HAL_Driver/Src/stm32h7xx_ll_usb.c ****     value &= ~USB_OTG_HCCHAR_EPDIR;
 5010              		.loc 1 2064 5 discriminator 3 view .LVU1631
ARM GAS  C:\Users\gigig\AppData\Local\Temp\ccBJNrpK.s 			page 146


 5011 0032 23F08023 		bic	r3, r3, #-2147450880
 5012              	.LVL392:
 5013              		.loc 1 2064 11 is_stmt 0 discriminator 3 view .LVU1632
 5014 0036 43F08043 		orr	r3, r3, #1073741824
 5015              	.LVL393:
2065:../../Drivers/STM32H7xx_HAL_Driver/Src/stm32h7xx_ll_usb.c ****     USBx_HC(i)->HCCHAR = value;
 5016              		.loc 1 2065 5 is_stmt 1 discriminator 3 view .LVU1633
 5017              		.loc 1 2065 24 is_stmt 0 discriminator 3 view .LVU1634
 5018 003a C1F80035 		str	r3, [r1, #1280]
2059:../../Drivers/STM32H7xx_HAL_Driver/Src/stm32h7xx_ll_usb.c ****   {
 5019              		.loc 1 2059 26 is_stmt 1 discriminator 3 view .LVU1635
2059:../../Drivers/STM32H7xx_HAL_Driver/Src/stm32h7xx_ll_usb.c ****   {
 5020              		.loc 1 2059 27 is_stmt 0 discriminator 3 view .LVU1636
 5021 003e 0132     		adds	r2, r2, #1
 5022              	.LVL394:
 5023              	.L321:
2059:../../Drivers/STM32H7xx_HAL_Driver/Src/stm32h7xx_ll_usb.c ****   {
 5024              		.loc 1 2059 16 is_stmt 1 discriminator 1 view .LVU1637
2059:../../Drivers/STM32H7xx_HAL_Driver/Src/stm32h7xx_ll_usb.c ****   {
 5025              		.loc 1 2059 3 is_stmt 0 discriminator 1 view .LVU1638
 5026 0040 0F2A     		cmp	r2, #15
 5027 0042 F2D9     		bls	.L322
2066:../../Drivers/STM32H7xx_HAL_Driver/Src/stm32h7xx_ll_usb.c ****   }
2067:../../Drivers/STM32H7xx_HAL_Driver/Src/stm32h7xx_ll_usb.c **** 
2068:../../Drivers/STM32H7xx_HAL_Driver/Src/stm32h7xx_ll_usb.c ****   /* Halt all channels to put them into a known state. */
2069:../../Drivers/STM32H7xx_HAL_Driver/Src/stm32h7xx_ll_usb.c ****   for (i = 0U; i <= 15U; i++)
 5028              		.loc 1 2069 10 view .LVU1639
 5029 0044 0021     		movs	r1, #0
 5030 0046 00E0     		b	.L323
 5031              	.LVL395:
 5032              	.L324:
 5033              		.loc 1 2069 26 is_stmt 1 discriminator 2 view .LVU1640
 5034              		.loc 1 2069 27 is_stmt 0 discriminator 2 view .LVU1641
 5035 0048 0131     		adds	r1, r1, #1
 5036              	.LVL396:
 5037              	.L323:
 5038              		.loc 1 2069 16 is_stmt 1 discriminator 1 view .LVU1642
 5039              		.loc 1 2069 3 is_stmt 0 discriminator 1 view .LVU1643
 5040 004a 0F29     		cmp	r1, #15
 5041 004c 16D8     		bhi	.L330
2070:../../Drivers/STM32H7xx_HAL_Driver/Src/stm32h7xx_ll_usb.c ****   {
2071:../../Drivers/STM32H7xx_HAL_Driver/Src/stm32h7xx_ll_usb.c ****     value = USBx_HC(i)->HCCHAR;
 5042              		.loc 1 2071 5 is_stmt 1 view .LVU1644
 5043              		.loc 1 2071 13 is_stmt 0 view .LVU1645
 5044 004e 04EB4110 		add	r0, r4, r1, lsl #5
 5045 0052 00F5A062 		add	r2, r0, #1280
 5046              		.loc 1 2071 11 view .LVU1646
 5047 0056 D0F80035 		ldr	r3, [r0, #1280]
 5048              	.LVL397:
2072:../../Drivers/STM32H7xx_HAL_Driver/Src/stm32h7xx_ll_usb.c ****     value |= USB_OTG_HCCHAR_CHDIS;
 5049              		.loc 1 2072 5 is_stmt 1 view .LVU1647
2073:../../Drivers/STM32H7xx_HAL_Driver/Src/stm32h7xx_ll_usb.c ****     value |= USB_OTG_HCCHAR_CHENA;
 5050              		.loc 1 2073 5 view .LVU1648
2074:../../Drivers/STM32H7xx_HAL_Driver/Src/stm32h7xx_ll_usb.c ****     value &= ~USB_OTG_HCCHAR_EPDIR;
 5051              		.loc 1 2074 5 view .LVU1649
 5052 005a 23F40043 		bic	r3, r3, #32768
 5053              	.LVL398:
ARM GAS  C:\Users\gigig\AppData\Local\Temp\ccBJNrpK.s 			page 147


 5054              		.loc 1 2074 11 is_stmt 0 view .LVU1650
 5055 005e 43F04043 		orr	r3, r3, #-1073741824
 5056              	.LVL399:
2075:../../Drivers/STM32H7xx_HAL_Driver/Src/stm32h7xx_ll_usb.c ****     USBx_HC(i)->HCCHAR = value;
 5057              		.loc 1 2075 5 is_stmt 1 view .LVU1651
 5058              		.loc 1 2075 24 is_stmt 0 view .LVU1652
 5059 0062 C0F80035 		str	r3, [r0, #1280]
 5060              	.LVL400:
 5061              	.L325:
2076:../../Drivers/STM32H7xx_HAL_Driver/Src/stm32h7xx_ll_usb.c **** 
2077:../../Drivers/STM32H7xx_HAL_Driver/Src/stm32h7xx_ll_usb.c ****     do
 5062              		.loc 1 2077 5 is_stmt 1 view .LVU1653
2078:../../Drivers/STM32H7xx_HAL_Driver/Src/stm32h7xx_ll_usb.c ****     {
2079:../../Drivers/STM32H7xx_HAL_Driver/Src/stm32h7xx_ll_usb.c ****       count++;
 5063              		.loc 1 2079 7 view .LVU1654
 5064              		.loc 1 2079 12 is_stmt 0 view .LVU1655
 5065 0066 019B     		ldr	r3, [sp, #4]
 5066 0068 0133     		adds	r3, r3, #1
 5067 006a 0193     		str	r3, [sp, #4]
2080:../../Drivers/STM32H7xx_HAL_Driver/Src/stm32h7xx_ll_usb.c **** 
2081:../../Drivers/STM32H7xx_HAL_Driver/Src/stm32h7xx_ll_usb.c ****       if (count > 1000U)
 5068              		.loc 1 2081 7 is_stmt 1 view .LVU1656
 5069              		.loc 1 2081 17 is_stmt 0 view .LVU1657
 5070 006c 019B     		ldr	r3, [sp, #4]
 5071              		.loc 1 2081 10 view .LVU1658
 5072 006e B3F57A7F 		cmp	r3, #1000
 5073 0072 E9D8     		bhi	.L324
2082:../../Drivers/STM32H7xx_HAL_Driver/Src/stm32h7xx_ll_usb.c ****       {
2083:../../Drivers/STM32H7xx_HAL_Driver/Src/stm32h7xx_ll_usb.c ****         break;
2084:../../Drivers/STM32H7xx_HAL_Driver/Src/stm32h7xx_ll_usb.c ****       }
2085:../../Drivers/STM32H7xx_HAL_Driver/Src/stm32h7xx_ll_usb.c ****     } while ((USBx_HC(i)->HCCHAR & USB_OTG_HCCHAR_CHENA) == USB_OTG_HCCHAR_CHENA);
 5074              		.loc 1 2085 13 is_stmt 1 view .LVU1659
 5075              		.loc 1 2085 25 is_stmt 0 view .LVU1660
 5076 0074 1368     		ldr	r3, [r2]
 5077              		.loc 1 2085 5 view .LVU1661
 5078 0076 002B     		cmp	r3, #0
 5079 0078 F5DB     		blt	.L325
 5080 007a E5E7     		b	.L324
 5081              	.L330:
2086:../../Drivers/STM32H7xx_HAL_Driver/Src/stm32h7xx_ll_usb.c ****   }
2087:../../Drivers/STM32H7xx_HAL_Driver/Src/stm32h7xx_ll_usb.c **** 
2088:../../Drivers/STM32H7xx_HAL_Driver/Src/stm32h7xx_ll_usb.c ****   /* Clear any pending Host interrupts */
2089:../../Drivers/STM32H7xx_HAL_Driver/Src/stm32h7xx_ll_usb.c ****   USBx_HOST->HAINT = CLEAR_INTERRUPT_MASK;
 5082              		.loc 1 2089 3 is_stmt 1 view .LVU1662
 5083              		.loc 1 2089 20 is_stmt 0 view .LVU1663
 5084 007c 4FF0FF33 		mov	r3, #-1
 5085 0080 C4F81434 		str	r3, [r4, #1044]
2090:../../Drivers/STM32H7xx_HAL_Driver/Src/stm32h7xx_ll_usb.c ****   USBx->GINTSTS = CLEAR_INTERRUPT_MASK;
 5086              		.loc 1 2090 3 is_stmt 1 view .LVU1664
 5087              		.loc 1 2090 17 is_stmt 0 view .LVU1665
 5088 0084 6361     		str	r3, [r4, #20]
2091:../../Drivers/STM32H7xx_HAL_Driver/Src/stm32h7xx_ll_usb.c **** 
2092:../../Drivers/STM32H7xx_HAL_Driver/Src/stm32h7xx_ll_usb.c ****   (void)USB_EnableGlobalInt(USBx);
 5089              		.loc 1 2092 3 is_stmt 1 view .LVU1666
 5090              		.loc 1 2092 9 is_stmt 0 view .LVU1667
 5091 0086 2046     		mov	r0, r4
 5092 0088 FFF7FEFF 		bl	USB_EnableGlobalInt
ARM GAS  C:\Users\gigig\AppData\Local\Temp\ccBJNrpK.s 			page 148


 5093              	.LVL401:
2093:../../Drivers/STM32H7xx_HAL_Driver/Src/stm32h7xx_ll_usb.c **** 
2094:../../Drivers/STM32H7xx_HAL_Driver/Src/stm32h7xx_ll_usb.c ****   return ret;
 5094              		.loc 1 2094 3 is_stmt 1 view .LVU1668
2095:../../Drivers/STM32H7xx_HAL_Driver/Src/stm32h7xx_ll_usb.c **** }
 5095              		.loc 1 2095 1 is_stmt 0 view .LVU1669
 5096 008c 2846     		mov	r0, r5
 5097 008e 03B0     		add	sp, sp, #12
 5098              	.LCFI70:
 5099              		.cfi_def_cfa_offset 12
 5100              		@ sp needed
 5101 0090 30BD     		pop	{r4, r5, pc}
 5102              		.loc 1 2095 1 view .LVU1670
 5103              		.cfi_endproc
 5104              	.LFE190:
 5106              		.section	.text.USB_ActivateRemoteWakeup,"ax",%progbits
 5107              		.align	1
 5108              		.global	USB_ActivateRemoteWakeup
 5109              		.syntax unified
 5110              		.thumb
 5111              		.thumb_func
 5113              	USB_ActivateRemoteWakeup:
 5114              	.LVL402:
 5115              	.LFB191:
2096:../../Drivers/STM32H7xx_HAL_Driver/Src/stm32h7xx_ll_usb.c **** 
2097:../../Drivers/STM32H7xx_HAL_Driver/Src/stm32h7xx_ll_usb.c **** /**
2098:../../Drivers/STM32H7xx_HAL_Driver/Src/stm32h7xx_ll_usb.c ****   * @brief  USB_ActivateRemoteWakeup active remote wakeup signalling
2099:../../Drivers/STM32H7xx_HAL_Driver/Src/stm32h7xx_ll_usb.c ****   * @param  USBx Selected device
2100:../../Drivers/STM32H7xx_HAL_Driver/Src/stm32h7xx_ll_usb.c ****   * @retval HAL status
2101:../../Drivers/STM32H7xx_HAL_Driver/Src/stm32h7xx_ll_usb.c ****   */
2102:../../Drivers/STM32H7xx_HAL_Driver/Src/stm32h7xx_ll_usb.c **** HAL_StatusTypeDef USB_ActivateRemoteWakeup(USB_OTG_GlobalTypeDef *USBx)
2103:../../Drivers/STM32H7xx_HAL_Driver/Src/stm32h7xx_ll_usb.c **** {
 5116              		.loc 1 2103 1 is_stmt 1 view -0
 5117              		.cfi_startproc
 5118              		@ args = 0, pretend = 0, frame = 0
 5119              		@ frame_needed = 0, uses_anonymous_args = 0
 5120              		@ link register save eliminated.
2104:../../Drivers/STM32H7xx_HAL_Driver/Src/stm32h7xx_ll_usb.c ****   uint32_t USBx_BASE = (uint32_t)USBx;
 5121              		.loc 1 2104 3 view .LVU1672
2105:../../Drivers/STM32H7xx_HAL_Driver/Src/stm32h7xx_ll_usb.c **** 
2106:../../Drivers/STM32H7xx_HAL_Driver/Src/stm32h7xx_ll_usb.c ****   if ((USBx_DEVICE->DSTS & USB_OTG_DSTS_SUSPSTS) == USB_OTG_DSTS_SUSPSTS)
 5122              		.loc 1 2106 3 view .LVU1673
 5123              		.loc 1 2106 19 is_stmt 0 view .LVU1674
 5124 0000 D0F80838 		ldr	r3, [r0, #2056]
 5125              		.loc 1 2106 8 view .LVU1675
 5126 0004 00F50060 		add	r0, r0, #2048
 5127              	.LVL403:
 5128              		.loc 1 2106 6 view .LVU1676
 5129 0008 13F0010F 		tst	r3, #1
 5130 000c 03D0     		beq	.L332
2107:../../Drivers/STM32H7xx_HAL_Driver/Src/stm32h7xx_ll_usb.c ****   {
2108:../../Drivers/STM32H7xx_HAL_Driver/Src/stm32h7xx_ll_usb.c ****     /* active Remote wakeup signalling */
2109:../../Drivers/STM32H7xx_HAL_Driver/Src/stm32h7xx_ll_usb.c ****     USBx_DEVICE->DCTL |= USB_OTG_DCTL_RWUSIG;
 5131              		.loc 1 2109 5 is_stmt 1 view .LVU1677
 5132              		.loc 1 2109 23 is_stmt 0 view .LVU1678
 5133 000e 4368     		ldr	r3, [r0, #4]
 5134 0010 43F00103 		orr	r3, r3, #1
ARM GAS  C:\Users\gigig\AppData\Local\Temp\ccBJNrpK.s 			page 149


 5135 0014 4360     		str	r3, [r0, #4]
 5136              	.L332:
2110:../../Drivers/STM32H7xx_HAL_Driver/Src/stm32h7xx_ll_usb.c ****   }
2111:../../Drivers/STM32H7xx_HAL_Driver/Src/stm32h7xx_ll_usb.c **** 
2112:../../Drivers/STM32H7xx_HAL_Driver/Src/stm32h7xx_ll_usb.c ****   return HAL_OK;
 5137              		.loc 1 2112 3 is_stmt 1 view .LVU1679
2113:../../Drivers/STM32H7xx_HAL_Driver/Src/stm32h7xx_ll_usb.c **** }
 5138              		.loc 1 2113 1 is_stmt 0 view .LVU1680
 5139 0016 0020     		movs	r0, #0
 5140              	.LVL404:
 5141              		.loc 1 2113 1 view .LVU1681
 5142 0018 7047     		bx	lr
 5143              		.cfi_endproc
 5144              	.LFE191:
 5146              		.section	.text.USB_DeActivateRemoteWakeup,"ax",%progbits
 5147              		.align	1
 5148              		.global	USB_DeActivateRemoteWakeup
 5149              		.syntax unified
 5150              		.thumb
 5151              		.thumb_func
 5153              	USB_DeActivateRemoteWakeup:
 5154              	.LVL405:
 5155              	.LFB192:
2114:../../Drivers/STM32H7xx_HAL_Driver/Src/stm32h7xx_ll_usb.c **** 
2115:../../Drivers/STM32H7xx_HAL_Driver/Src/stm32h7xx_ll_usb.c **** /**
2116:../../Drivers/STM32H7xx_HAL_Driver/Src/stm32h7xx_ll_usb.c ****   * @brief  USB_DeActivateRemoteWakeup de-active remote wakeup signalling
2117:../../Drivers/STM32H7xx_HAL_Driver/Src/stm32h7xx_ll_usb.c ****   * @param  USBx Selected device
2118:../../Drivers/STM32H7xx_HAL_Driver/Src/stm32h7xx_ll_usb.c ****   * @retval HAL status
2119:../../Drivers/STM32H7xx_HAL_Driver/Src/stm32h7xx_ll_usb.c ****   */
2120:../../Drivers/STM32H7xx_HAL_Driver/Src/stm32h7xx_ll_usb.c **** HAL_StatusTypeDef USB_DeActivateRemoteWakeup(USB_OTG_GlobalTypeDef *USBx)
2121:../../Drivers/STM32H7xx_HAL_Driver/Src/stm32h7xx_ll_usb.c **** {
 5156              		.loc 1 2121 1 is_stmt 1 view -0
 5157              		.cfi_startproc
 5158              		@ args = 0, pretend = 0, frame = 0
 5159              		@ frame_needed = 0, uses_anonymous_args = 0
 5160              		@ link register save eliminated.
2122:../../Drivers/STM32H7xx_HAL_Driver/Src/stm32h7xx_ll_usb.c ****   uint32_t USBx_BASE = (uint32_t)USBx;
 5161              		.loc 1 2122 3 view .LVU1683
2123:../../Drivers/STM32H7xx_HAL_Driver/Src/stm32h7xx_ll_usb.c **** 
2124:../../Drivers/STM32H7xx_HAL_Driver/Src/stm32h7xx_ll_usb.c ****   /* active Remote wakeup signalling */
2125:../../Drivers/STM32H7xx_HAL_Driver/Src/stm32h7xx_ll_usb.c ****   USBx_DEVICE->DCTL &= ~(USB_OTG_DCTL_RWUSIG);
 5162              		.loc 1 2125 3 view .LVU1684
 5163              		.loc 1 2125 21 is_stmt 0 view .LVU1685
 5164 0000 D0F80438 		ldr	r3, [r0, #2052]
 5165 0004 23F00103 		bic	r3, r3, #1
 5166 0008 C0F80438 		str	r3, [r0, #2052]
2126:../../Drivers/STM32H7xx_HAL_Driver/Src/stm32h7xx_ll_usb.c **** 
2127:../../Drivers/STM32H7xx_HAL_Driver/Src/stm32h7xx_ll_usb.c ****   return HAL_OK;
 5167              		.loc 1 2127 3 is_stmt 1 view .LVU1686
2128:../../Drivers/STM32H7xx_HAL_Driver/Src/stm32h7xx_ll_usb.c **** }
 5168              		.loc 1 2128 1 is_stmt 0 view .LVU1687
 5169 000c 0020     		movs	r0, #0
 5170              	.LVL406:
 5171              		.loc 1 2128 1 view .LVU1688
 5172 000e 7047     		bx	lr
 5173              		.cfi_endproc
 5174              	.LFE192:
ARM GAS  C:\Users\gigig\AppData\Local\Temp\ccBJNrpK.s 			page 150


 5176              		.text
 5177              	.Letext0:
 5178              		.file 2 "c:\\program files (x86)\\gnu arm embedded toolchain\\10 2021.10\\arm-none-eabi\\include\\
 5179              		.file 3 "c:\\program files (x86)\\gnu arm embedded toolchain\\10 2021.10\\arm-none-eabi\\include\\
 5180              		.file 4 "../../Drivers/CMSIS/Include/cmsis_gcc.h"
 5181              		.file 5 "../../Drivers/CMSIS/Device/ST/STM32H7xx/Include/stm32h755xx.h"
 5182              		.file 6 "../../Drivers/STM32H7xx_HAL_Driver/Inc/stm32h7xx_hal_def.h"
 5183              		.file 7 "../../Drivers/STM32H7xx_HAL_Driver/Inc/stm32h7xx_ll_usb.h"
 5184              		.file 8 "../../Drivers/STM32H7xx_HAL_Driver/Inc/stm32h7xx_hal.h"
ARM GAS  C:\Users\gigig\AppData\Local\Temp\ccBJNrpK.s 			page 151


DEFINED SYMBOLS
                            *ABS*:00000000 stm32h7xx_ll_usb.c
C:\Users\gigig\AppData\Local\Temp\ccBJNrpK.s:19     .text.USB_CoreReset:00000000 $t
C:\Users\gigig\AppData\Local\Temp\ccBJNrpK.s:24     .text.USB_CoreReset:00000000 USB_CoreReset
C:\Users\gigig\AppData\Local\Temp\ccBJNrpK.s:120    .text.USB_CoreReset:0000004c $d
C:\Users\gigig\AppData\Local\Temp\ccBJNrpK.s:125    .text.USB_CoreInit:00000000 $t
C:\Users\gigig\AppData\Local\Temp\ccBJNrpK.s:131    .text.USB_CoreInit:00000000 USB_CoreInit
C:\Users\gigig\AppData\Local\Temp\ccBJNrpK.s:276    .text.USB_CoreInit:00000094 $d
C:\Users\gigig\AppData\Local\Temp\ccBJNrpK.s:282    .text.USB_SetTurnaroundTime:00000000 $t
C:\Users\gigig\AppData\Local\Temp\ccBJNrpK.s:288    .text.USB_SetTurnaroundTime:00000000 USB_SetTurnaroundTime
C:\Users\gigig\AppData\Local\Temp\ccBJNrpK.s:468    .text.USB_SetTurnaroundTime:0000009c $d
C:\Users\gigig\AppData\Local\Temp\ccBJNrpK.s:490    .text.USB_EnableGlobalInt:00000000 $t
C:\Users\gigig\AppData\Local\Temp\ccBJNrpK.s:496    .text.USB_EnableGlobalInt:00000000 USB_EnableGlobalInt
C:\Users\gigig\AppData\Local\Temp\ccBJNrpK.s:519    .text.USB_DisableGlobalInt:00000000 $t
C:\Users\gigig\AppData\Local\Temp\ccBJNrpK.s:525    .text.USB_DisableGlobalInt:00000000 USB_DisableGlobalInt
C:\Users\gigig\AppData\Local\Temp\ccBJNrpK.s:548    .text.USB_FlushTxFifo:00000000 $t
C:\Users\gigig\AppData\Local\Temp\ccBJNrpK.s:554    .text.USB_FlushTxFifo:00000000 USB_FlushTxFifo
C:\Users\gigig\AppData\Local\Temp\ccBJNrpK.s:652    .text.USB_FlushTxFifo:0000004c $d
C:\Users\gigig\AppData\Local\Temp\ccBJNrpK.s:657    .text.USB_FlushRxFifo:00000000 $t
C:\Users\gigig\AppData\Local\Temp\ccBJNrpK.s:663    .text.USB_FlushRxFifo:00000000 USB_FlushRxFifo
C:\Users\gigig\AppData\Local\Temp\ccBJNrpK.s:757    .text.USB_FlushRxFifo:00000048 $d
C:\Users\gigig\AppData\Local\Temp\ccBJNrpK.s:762    .text.USB_SetDevSpeed:00000000 $t
C:\Users\gigig\AppData\Local\Temp\ccBJNrpK.s:768    .text.USB_SetDevSpeed:00000000 USB_SetDevSpeed
C:\Users\gigig\AppData\Local\Temp\ccBJNrpK.s:794    .text.USB_DevInit:00000000 $t
C:\Users\gigig\AppData\Local\Temp\ccBJNrpK.s:800    .text.USB_DevInit:00000000 USB_DevInit
C:\Users\gigig\AppData\Local\Temp\ccBJNrpK.s:1159   .text.USB_DevInit:00000180 $d
C:\Users\gigig\AppData\Local\Temp\ccBJNrpK.s:1165   .text.USB_GetDevSpeed:00000000 $t
C:\Users\gigig\AppData\Local\Temp\ccBJNrpK.s:1171   .text.USB_GetDevSpeed:00000000 USB_GetDevSpeed
C:\Users\gigig\AppData\Local\Temp\ccBJNrpK.s:1221   .text.USB_ActivateEndpoint:00000000 $t
C:\Users\gigig\AppData\Local\Temp\ccBJNrpK.s:1227   .text.USB_ActivateEndpoint:00000000 USB_ActivateEndpoint
C:\Users\gigig\AppData\Local\Temp\ccBJNrpK.s:1343   .text.USB_ActivateEndpoint:00000098 $d
C:\Users\gigig\AppData\Local\Temp\ccBJNrpK.s:1348   .text.USB_ActivateDedicatedEndpoint:00000000 $t
C:\Users\gigig\AppData\Local\Temp\ccBJNrpK.s:1354   .text.USB_ActivateDedicatedEndpoint:00000000 USB_ActivateDedicatedEndpoint
C:\Users\gigig\AppData\Local\Temp\ccBJNrpK.s:1488   .text.USB_ActivateDedicatedEndpoint:00000098 $d
C:\Users\gigig\AppData\Local\Temp\ccBJNrpK.s:1493   .text.USB_DeactivateEndpoint:00000000 $t
C:\Users\gigig\AppData\Local\Temp\ccBJNrpK.s:1499   .text.USB_DeactivateEndpoint:00000000 USB_DeactivateEndpoint
C:\Users\gigig\AppData\Local\Temp\ccBJNrpK.s:1664   .text.USB_DeactivateEndpoint:000000d8 $d
C:\Users\gigig\AppData\Local\Temp\ccBJNrpK.s:1670   .text.USB_DeactivateDedicatedEndpoint:00000000 $t
C:\Users\gigig\AppData\Local\Temp\ccBJNrpK.s:1676   .text.USB_DeactivateDedicatedEndpoint:00000000 USB_DeactivateDedicatedEndpoint
C:\Users\gigig\AppData\Local\Temp\ccBJNrpK.s:1799   .text.USB_EPStopXfer:00000000 $t
C:\Users\gigig\AppData\Local\Temp\ccBJNrpK.s:1805   .text.USB_EPStopXfer:00000000 USB_EPStopXfer
C:\Users\gigig\AppData\Local\Temp\ccBJNrpK.s:1963   .text.USB_WritePacket:00000000 $t
C:\Users\gigig\AppData\Local\Temp\ccBJNrpK.s:1969   .text.USB_WritePacket:00000000 USB_WritePacket
C:\Users\gigig\AppData\Local\Temp\ccBJNrpK.s:2040   .text.USB_EPStartXfer:00000000 $t
C:\Users\gigig\AppData\Local\Temp\ccBJNrpK.s:2046   .text.USB_EPStartXfer:00000000 USB_EPStartXfer
C:\Users\gigig\AppData\Local\Temp\ccBJNrpK.s:2494   .text.USB_EPStartXfer:00000230 $d
C:\Users\gigig\AppData\Local\Temp\ccBJNrpK.s:2501   .text.USB_ReadPacket:00000000 $t
C:\Users\gigig\AppData\Local\Temp\ccBJNrpK.s:2507   .text.USB_ReadPacket:00000000 USB_ReadPacket
C:\Users\gigig\AppData\Local\Temp\ccBJNrpK.s:2617   .text.USB_EPSetStall:00000000 $t
C:\Users\gigig\AppData\Local\Temp\ccBJNrpK.s:2623   .text.USB_EPSetStall:00000000 USB_EPSetStall
C:\Users\gigig\AppData\Local\Temp\ccBJNrpK.s:2704   .text.USB_EPClearStall:00000000 $t
C:\Users\gigig\AppData\Local\Temp\ccBJNrpK.s:2710   .text.USB_EPClearStall:00000000 USB_EPClearStall
C:\Users\gigig\AppData\Local\Temp\ccBJNrpK.s:2793   .text.USB_StopDevice:00000000 $t
C:\Users\gigig\AppData\Local\Temp\ccBJNrpK.s:2799   .text.USB_StopDevice:00000000 USB_StopDevice
C:\Users\gigig\AppData\Local\Temp\ccBJNrpK.s:2882   .text.USB_SetDevAddress:00000000 $t
C:\Users\gigig\AppData\Local\Temp\ccBJNrpK.s:2888   .text.USB_SetDevAddress:00000000 USB_SetDevAddress
C:\Users\gigig\AppData\Local\Temp\ccBJNrpK.s:2923   .text.USB_DevConnect:00000000 $t
ARM GAS  C:\Users\gigig\AppData\Local\Temp\ccBJNrpK.s 			page 152


C:\Users\gigig\AppData\Local\Temp\ccBJNrpK.s:2929   .text.USB_DevConnect:00000000 USB_DevConnect
C:\Users\gigig\AppData\Local\Temp\ccBJNrpK.s:2958   .text.USB_DevDisconnect:00000000 $t
C:\Users\gigig\AppData\Local\Temp\ccBJNrpK.s:2964   .text.USB_DevDisconnect:00000000 USB_DevDisconnect
C:\Users\gigig\AppData\Local\Temp\ccBJNrpK.s:2993   .text.USB_ReadInterrupts:00000000 $t
C:\Users\gigig\AppData\Local\Temp\ccBJNrpK.s:2999   .text.USB_ReadInterrupts:00000000 USB_ReadInterrupts
C:\Users\gigig\AppData\Local\Temp\ccBJNrpK.s:3026   .text.USB_ReadChInterrupts:00000000 $t
C:\Users\gigig\AppData\Local\Temp\ccBJNrpK.s:3032   .text.USB_ReadChInterrupts:00000000 USB_ReadChInterrupts
C:\Users\gigig\AppData\Local\Temp\ccBJNrpK.s:3063   .text.USB_ReadDevAllOutEpInterrupt:00000000 $t
C:\Users\gigig\AppData\Local\Temp\ccBJNrpK.s:3069   .text.USB_ReadDevAllOutEpInterrupt:00000000 USB_ReadDevAllOutEpInterrupt
C:\Users\gigig\AppData\Local\Temp\ccBJNrpK.s:3102   .text.USB_ReadDevAllInEpInterrupt:00000000 $t
C:\Users\gigig\AppData\Local\Temp\ccBJNrpK.s:3108   .text.USB_ReadDevAllInEpInterrupt:00000000 USB_ReadDevAllInEpInterrupt
C:\Users\gigig\AppData\Local\Temp\ccBJNrpK.s:3141   .text.USB_ReadDevOutEPInterrupt:00000000 $t
C:\Users\gigig\AppData\Local\Temp\ccBJNrpK.s:3147   .text.USB_ReadDevOutEPInterrupt:00000000 USB_ReadDevOutEPInterrupt
C:\Users\gigig\AppData\Local\Temp\ccBJNrpK.s:3181   .text.USB_ReadDevInEPInterrupt:00000000 $t
C:\Users\gigig\AppData\Local\Temp\ccBJNrpK.s:3187   .text.USB_ReadDevInEPInterrupt:00000000 USB_ReadDevInEPInterrupt
C:\Users\gigig\AppData\Local\Temp\ccBJNrpK.s:3248   .text.USB_ClearInterrupts:00000000 $t
C:\Users\gigig\AppData\Local\Temp\ccBJNrpK.s:3254   .text.USB_ClearInterrupts:00000000 USB_ClearInterrupts
C:\Users\gigig\AppData\Local\Temp\ccBJNrpK.s:3273   .text.USB_GetMode:00000000 $t
C:\Users\gigig\AppData\Local\Temp\ccBJNrpK.s:3279   .text.USB_GetMode:00000000 USB_GetMode
C:\Users\gigig\AppData\Local\Temp\ccBJNrpK.s:3298   .text.USB_SetCurrentMode:00000000 $t
C:\Users\gigig\AppData\Local\Temp\ccBJNrpK.s:3304   .text.USB_SetCurrentMode:00000000 USB_SetCurrentMode
C:\Users\gigig\AppData\Local\Temp\ccBJNrpK.s:3421   .text.USB_ActivateSetup:00000000 $t
C:\Users\gigig\AppData\Local\Temp\ccBJNrpK.s:3427   .text.USB_ActivateSetup:00000000 USB_ActivateSetup
C:\Users\gigig\AppData\Local\Temp\ccBJNrpK.s:3456   .text.USB_ActivateSetup:0000001c $d
C:\Users\gigig\AppData\Local\Temp\ccBJNrpK.s:3461   .text.USB_EP0_OutStart:00000000 $t
C:\Users\gigig\AppData\Local\Temp\ccBJNrpK.s:3467   .text.USB_EP0_OutStart:00000000 USB_EP0_OutStart
C:\Users\gigig\AppData\Local\Temp\ccBJNrpK.s:3550   .text.USB_EP0_OutStart:0000005c $d
C:\Users\gigig\AppData\Local\Temp\ccBJNrpK.s:3555   .text.USB_HostInit:00000000 $t
C:\Users\gigig\AppData\Local\Temp\ccBJNrpK.s:3561   .text.USB_HostInit:00000000 USB_HostInit
C:\Users\gigig\AppData\Local\Temp\ccBJNrpK.s:3768   .text.USB_HostInit:000000e4 $d
C:\Users\gigig\AppData\Local\Temp\ccBJNrpK.s:3775   .text.USB_InitFSLSPClkSel:00000000 $t
C:\Users\gigig\AppData\Local\Temp\ccBJNrpK.s:3781   .text.USB_InitFSLSPClkSel:00000000 USB_InitFSLSPClkSel
C:\Users\gigig\AppData\Local\Temp\ccBJNrpK.s:3843   .text.USB_ResetPort:00000000 $t
C:\Users\gigig\AppData\Local\Temp\ccBJNrpK.s:3849   .text.USB_ResetPort:00000000 USB_ResetPort
C:\Users\gigig\AppData\Local\Temp\ccBJNrpK.s:3918   .text.USB_DriveVbus:00000000 $t
C:\Users\gigig\AppData\Local\Temp\ccBJNrpK.s:3924   .text.USB_DriveVbus:00000000 USB_DriveVbus
C:\Users\gigig\AppData\Local\Temp\ccBJNrpK.s:4003   .text.USB_GetHostSpeed:00000000 $t
C:\Users\gigig\AppData\Local\Temp\ccBJNrpK.s:4009   .text.USB_GetHostSpeed:00000000 USB_GetHostSpeed
C:\Users\gigig\AppData\Local\Temp\ccBJNrpK.s:4047   .text.USB_GetCurrentFrame:00000000 $t
C:\Users\gigig\AppData\Local\Temp\ccBJNrpK.s:4053   .text.USB_GetCurrentFrame:00000000 USB_GetCurrentFrame
C:\Users\gigig\AppData\Local\Temp\ccBJNrpK.s:4076   .text.USB_HC_Init:00000000 $t
C:\Users\gigig\AppData\Local\Temp\ccBJNrpK.s:4082   .text.USB_HC_Init:00000000 USB_HC_Init
C:\Users\gigig\AppData\Local\Temp\ccBJNrpK.s:4124   .text.USB_HC_Init:00000024 $d
C:\Users\gigig\AppData\Local\Temp\ccBJNrpK.s:4128   .text.USB_HC_Init:00000028 $t
C:\Users\gigig\AppData\Local\Temp\ccBJNrpK.s:4325   .text.USB_HC_ReadInterrupt:00000000 $t
C:\Users\gigig\AppData\Local\Temp\ccBJNrpK.s:4331   .text.USB_HC_ReadInterrupt:00000000 USB_HC_ReadInterrupt
C:\Users\gigig\AppData\Local\Temp\ccBJNrpK.s:4354   .text.USB_HC_Halt:00000000 $t
C:\Users\gigig\AppData\Local\Temp\ccBJNrpK.s:4360   .text.USB_HC_Halt:00000000 USB_HC_Halt
C:\Users\gigig\AppData\Local\Temp\ccBJNrpK.s:4542   .text.USB_DoPing:00000000 $t
C:\Users\gigig\AppData\Local\Temp\ccBJNrpK.s:4548   .text.USB_DoPing:00000000 USB_DoPing
C:\Users\gigig\AppData\Local\Temp\ccBJNrpK.s:4590   .text.USB_DoPing:00000020 $d
C:\Users\gigig\AppData\Local\Temp\ccBJNrpK.s:4595   .text.USB_HC_StartXfer:00000000 $t
C:\Users\gigig\AppData\Local\Temp\ccBJNrpK.s:4601   .text.USB_HC_StartXfer:00000000 USB_HC_StartXfer
C:\Users\gigig\AppData\Local\Temp\ccBJNrpK.s:4836   .text.USB_HC_StartXfer:00000114 $d
C:\Users\gigig\AppData\Local\Temp\ccBJNrpK.s:4841   .text.USB_HC_StartXfer:00000118 $t
C:\Users\gigig\AppData\Local\Temp\ccBJNrpK.s:4929   .text.USB_HC_StartXfer:0000016c $d
C:\Users\gigig\AppData\Local\Temp\ccBJNrpK.s:4934   .text.USB_StopHost:00000000 $t
ARM GAS  C:\Users\gigig\AppData\Local\Temp\ccBJNrpK.s 			page 153


C:\Users\gigig\AppData\Local\Temp\ccBJNrpK.s:4940   .text.USB_StopHost:00000000 USB_StopHost
C:\Users\gigig\AppData\Local\Temp\ccBJNrpK.s:5107   .text.USB_ActivateRemoteWakeup:00000000 $t
C:\Users\gigig\AppData\Local\Temp\ccBJNrpK.s:5113   .text.USB_ActivateRemoteWakeup:00000000 USB_ActivateRemoteWakeup
C:\Users\gigig\AppData\Local\Temp\ccBJNrpK.s:5147   .text.USB_DeActivateRemoteWakeup:00000000 $t
C:\Users\gigig\AppData\Local\Temp\ccBJNrpK.s:5153   .text.USB_DeActivateRemoteWakeup:00000000 USB_DeActivateRemoteWakeup

UNDEFINED SYMBOLS
HAL_Delay
