ARM GAS  C:\Users\gigig\AppData\Local\Temp\ccPE8AqK.s 			page 1


   1              		.cpu cortex-m7
   2              		.arch armv7e-m
   3              		.fpu fpv5-d16
   4              		.eabi_attribute 28, 1
   5              		.eabi_attribute 20, 1
   6              		.eabi_attribute 21, 1
   7              		.eabi_attribute 23, 3
   8              		.eabi_attribute 24, 1
   9              		.eabi_attribute 25, 1
  10              		.eabi_attribute 26, 1
  11              		.eabi_attribute 30, 1
  12              		.eabi_attribute 34, 1
  13              		.eabi_attribute 18, 4
  14              		.file	"stm32h7xx_it.c"
  15              		.text
  16              	.Ltext0:
  17              		.cfi_sections	.debug_frame
  18              		.file 1 "../../CM7/Core/Src/stm32h7xx_it.c"
  19              		.section	.text.NMI_Handler,"ax",%progbits
  20              		.align	1
  21              		.global	NMI_Handler
  22              		.syntax unified
  23              		.thumb
  24              		.thumb_func
  26              	NMI_Handler:
  27              	.LFB144:
   1:../../CM7/Core/Src/stm32h7xx_it.c **** /* USER CODE BEGIN Header */
   2:../../CM7/Core/Src/stm32h7xx_it.c **** /**
   3:../../CM7/Core/Src/stm32h7xx_it.c ****   ******************************************************************************
   4:../../CM7/Core/Src/stm32h7xx_it.c ****   * @file    stm32h7xx_it.c
   5:../../CM7/Core/Src/stm32h7xx_it.c ****   * @brief   Interrupt Service Routines.
   6:../../CM7/Core/Src/stm32h7xx_it.c ****   ******************************************************************************
   7:../../CM7/Core/Src/stm32h7xx_it.c ****   * @attention
   8:../../CM7/Core/Src/stm32h7xx_it.c ****   *
   9:../../CM7/Core/Src/stm32h7xx_it.c ****   * Copyright (c) 2024 STMicroelectronics.
  10:../../CM7/Core/Src/stm32h7xx_it.c ****   * All rights reserved.
  11:../../CM7/Core/Src/stm32h7xx_it.c ****   *
  12:../../CM7/Core/Src/stm32h7xx_it.c ****   * This software is licensed under terms that can be found in the LICENSE file
  13:../../CM7/Core/Src/stm32h7xx_it.c ****   * in the root directory of this software component.
  14:../../CM7/Core/Src/stm32h7xx_it.c ****   * If no LICENSE file comes with this software, it is provided AS-IS.
  15:../../CM7/Core/Src/stm32h7xx_it.c ****   *
  16:../../CM7/Core/Src/stm32h7xx_it.c ****   ******************************************************************************
  17:../../CM7/Core/Src/stm32h7xx_it.c ****   */
  18:../../CM7/Core/Src/stm32h7xx_it.c **** /* USER CODE END Header */
  19:../../CM7/Core/Src/stm32h7xx_it.c **** 
  20:../../CM7/Core/Src/stm32h7xx_it.c **** /* Includes ------------------------------------------------------------------*/
  21:../../CM7/Core/Src/stm32h7xx_it.c **** #include "main.h"
  22:../../CM7/Core/Src/stm32h7xx_it.c **** #include "stm32h7xx_it.h"
  23:../../CM7/Core/Src/stm32h7xx_it.c **** /* Private includes ----------------------------------------------------------*/
  24:../../CM7/Core/Src/stm32h7xx_it.c **** /* USER CODE BEGIN Includes */
  25:../../CM7/Core/Src/stm32h7xx_it.c **** /* USER CODE END Includes */
  26:../../CM7/Core/Src/stm32h7xx_it.c **** 
  27:../../CM7/Core/Src/stm32h7xx_it.c **** /* Private typedef -----------------------------------------------------------*/
  28:../../CM7/Core/Src/stm32h7xx_it.c **** /* USER CODE BEGIN TD */
  29:../../CM7/Core/Src/stm32h7xx_it.c **** 
  30:../../CM7/Core/Src/stm32h7xx_it.c **** /* USER CODE END TD */
  31:../../CM7/Core/Src/stm32h7xx_it.c **** 
ARM GAS  C:\Users\gigig\AppData\Local\Temp\ccPE8AqK.s 			page 2


  32:../../CM7/Core/Src/stm32h7xx_it.c **** /* Private define ------------------------------------------------------------*/
  33:../../CM7/Core/Src/stm32h7xx_it.c **** /* USER CODE BEGIN PD */
  34:../../CM7/Core/Src/stm32h7xx_it.c **** 
  35:../../CM7/Core/Src/stm32h7xx_it.c **** /* USER CODE END PD */
  36:../../CM7/Core/Src/stm32h7xx_it.c **** 
  37:../../CM7/Core/Src/stm32h7xx_it.c **** /* Private macro -------------------------------------------------------------*/
  38:../../CM7/Core/Src/stm32h7xx_it.c **** /* USER CODE BEGIN PM */
  39:../../CM7/Core/Src/stm32h7xx_it.c **** 
  40:../../CM7/Core/Src/stm32h7xx_it.c **** /* USER CODE END PM */
  41:../../CM7/Core/Src/stm32h7xx_it.c **** 
  42:../../CM7/Core/Src/stm32h7xx_it.c **** /* Private variables ---------------------------------------------------------*/
  43:../../CM7/Core/Src/stm32h7xx_it.c **** /* USER CODE BEGIN PV */
  44:../../CM7/Core/Src/stm32h7xx_it.c **** 
  45:../../CM7/Core/Src/stm32h7xx_it.c **** /* USER CODE END PV */
  46:../../CM7/Core/Src/stm32h7xx_it.c **** 
  47:../../CM7/Core/Src/stm32h7xx_it.c **** /* Private function prototypes -----------------------------------------------*/
  48:../../CM7/Core/Src/stm32h7xx_it.c **** /* USER CODE BEGIN PFP */
  49:../../CM7/Core/Src/stm32h7xx_it.c **** 
  50:../../CM7/Core/Src/stm32h7xx_it.c **** /* USER CODE END PFP */
  51:../../CM7/Core/Src/stm32h7xx_it.c **** 
  52:../../CM7/Core/Src/stm32h7xx_it.c **** /* Private user code ---------------------------------------------------------*/
  53:../../CM7/Core/Src/stm32h7xx_it.c **** /* USER CODE BEGIN 0 */
  54:../../CM7/Core/Src/stm32h7xx_it.c **** 
  55:../../CM7/Core/Src/stm32h7xx_it.c **** /* USER CODE END 0 */
  56:../../CM7/Core/Src/stm32h7xx_it.c **** 
  57:../../CM7/Core/Src/stm32h7xx_it.c **** /* External variables --------------------------------------------------------*/
  58:../../CM7/Core/Src/stm32h7xx_it.c **** extern TIM_HandleTypeDef htim1;
  59:../../CM7/Core/Src/stm32h7xx_it.c **** 
  60:../../CM7/Core/Src/stm32h7xx_it.c **** /* USER CODE BEGIN EV */
  61:../../CM7/Core/Src/stm32h7xx_it.c **** 
  62:../../CM7/Core/Src/stm32h7xx_it.c **** /* USER CODE END EV */
  63:../../CM7/Core/Src/stm32h7xx_it.c **** 
  64:../../CM7/Core/Src/stm32h7xx_it.c **** /******************************************************************************/
  65:../../CM7/Core/Src/stm32h7xx_it.c **** /*           Cortex Processor Interruption and Exception Handlers          */
  66:../../CM7/Core/Src/stm32h7xx_it.c **** /******************************************************************************/
  67:../../CM7/Core/Src/stm32h7xx_it.c **** /**
  68:../../CM7/Core/Src/stm32h7xx_it.c ****   * @brief This function handles Non maskable interrupt.
  69:../../CM7/Core/Src/stm32h7xx_it.c ****   */
  70:../../CM7/Core/Src/stm32h7xx_it.c **** void NMI_Handler(void)
  71:../../CM7/Core/Src/stm32h7xx_it.c **** {
  28              		.loc 1 71 1 view -0
  29              		.cfi_startproc
  30              		@ Volatile: function does not return.
  31              		@ args = 0, pretend = 0, frame = 0
  32              		@ frame_needed = 0, uses_anonymous_args = 0
  33              		@ link register save eliminated.
  34              	.L2:
  72:../../CM7/Core/Src/stm32h7xx_it.c ****   /* USER CODE BEGIN NonMaskableInt_IRQn 0 */
  73:../../CM7/Core/Src/stm32h7xx_it.c **** 
  74:../../CM7/Core/Src/stm32h7xx_it.c ****   /* USER CODE END NonMaskableInt_IRQn 0 */
  75:../../CM7/Core/Src/stm32h7xx_it.c ****   /* USER CODE BEGIN NonMaskableInt_IRQn 1 */
  76:../../CM7/Core/Src/stm32h7xx_it.c ****   while (1)
  35              		.loc 1 76 3 discriminator 1 view .LVU1
  77:../../CM7/Core/Src/stm32h7xx_it.c ****   {
  78:../../CM7/Core/Src/stm32h7xx_it.c ****   }
  36              		.loc 1 78 3 discriminator 1 view .LVU2
  76:../../CM7/Core/Src/stm32h7xx_it.c ****   {
ARM GAS  C:\Users\gigig\AppData\Local\Temp\ccPE8AqK.s 			page 3


  37              		.loc 1 76 9 discriminator 1 view .LVU3
  38 0000 FEE7     		b	.L2
  39              		.cfi_endproc
  40              	.LFE144:
  42              		.section	.text.HardFault_Handler,"ax",%progbits
  43              		.align	1
  44              		.global	HardFault_Handler
  45              		.syntax unified
  46              		.thumb
  47              		.thumb_func
  49              	HardFault_Handler:
  50              	.LFB145:
  79:../../CM7/Core/Src/stm32h7xx_it.c ****   /* USER CODE END NonMaskableInt_IRQn 1 */
  80:../../CM7/Core/Src/stm32h7xx_it.c **** }
  81:../../CM7/Core/Src/stm32h7xx_it.c **** 
  82:../../CM7/Core/Src/stm32h7xx_it.c **** /**
  83:../../CM7/Core/Src/stm32h7xx_it.c ****   * @brief This function handles Hard fault interrupt.
  84:../../CM7/Core/Src/stm32h7xx_it.c ****   */
  85:../../CM7/Core/Src/stm32h7xx_it.c **** void HardFault_Handler(void)
  86:../../CM7/Core/Src/stm32h7xx_it.c **** {
  51              		.loc 1 86 1 view -0
  52              		.cfi_startproc
  53              		@ Volatile: function does not return.
  54              		@ args = 0, pretend = 0, frame = 0
  55              		@ frame_needed = 0, uses_anonymous_args = 0
  56              		@ link register save eliminated.
  57              	.L4:
  87:../../CM7/Core/Src/stm32h7xx_it.c ****   /* USER CODE BEGIN HardFault_IRQn 0 */
  88:../../CM7/Core/Src/stm32h7xx_it.c **** 
  89:../../CM7/Core/Src/stm32h7xx_it.c ****   /* USER CODE END HardFault_IRQn 0 */
  90:../../CM7/Core/Src/stm32h7xx_it.c ****   while (1)
  58              		.loc 1 90 3 discriminator 1 view .LVU5
  91:../../CM7/Core/Src/stm32h7xx_it.c ****   {
  92:../../CM7/Core/Src/stm32h7xx_it.c ****     /* USER CODE BEGIN W1_HardFault_IRQn 0 */
  93:../../CM7/Core/Src/stm32h7xx_it.c ****     /* USER CODE END W1_HardFault_IRQn 0 */
  94:../../CM7/Core/Src/stm32h7xx_it.c ****   }
  59              		.loc 1 94 3 discriminator 1 view .LVU6
  90:../../CM7/Core/Src/stm32h7xx_it.c ****   {
  60              		.loc 1 90 9 discriminator 1 view .LVU7
  61 0000 FEE7     		b	.L4
  62              		.cfi_endproc
  63              	.LFE145:
  65              		.section	.text.MemManage_Handler,"ax",%progbits
  66              		.align	1
  67              		.global	MemManage_Handler
  68              		.syntax unified
  69              		.thumb
  70              		.thumb_func
  72              	MemManage_Handler:
  73              	.LFB146:
  95:../../CM7/Core/Src/stm32h7xx_it.c **** }
  96:../../CM7/Core/Src/stm32h7xx_it.c **** 
  97:../../CM7/Core/Src/stm32h7xx_it.c **** /**
  98:../../CM7/Core/Src/stm32h7xx_it.c ****   * @brief This function handles Memory management fault.
  99:../../CM7/Core/Src/stm32h7xx_it.c ****   */
 100:../../CM7/Core/Src/stm32h7xx_it.c **** void MemManage_Handler(void)
 101:../../CM7/Core/Src/stm32h7xx_it.c **** {
ARM GAS  C:\Users\gigig\AppData\Local\Temp\ccPE8AqK.s 			page 4


  74              		.loc 1 101 1 view -0
  75              		.cfi_startproc
  76              		@ Volatile: function does not return.
  77              		@ args = 0, pretend = 0, frame = 0
  78              		@ frame_needed = 0, uses_anonymous_args = 0
  79              		@ link register save eliminated.
  80              	.L6:
 102:../../CM7/Core/Src/stm32h7xx_it.c ****   /* USER CODE BEGIN MemoryManagement_IRQn 0 */
 103:../../CM7/Core/Src/stm32h7xx_it.c **** 
 104:../../CM7/Core/Src/stm32h7xx_it.c ****   /* USER CODE END MemoryManagement_IRQn 0 */
 105:../../CM7/Core/Src/stm32h7xx_it.c ****   while (1)
  81              		.loc 1 105 3 discriminator 1 view .LVU9
 106:../../CM7/Core/Src/stm32h7xx_it.c ****   {
 107:../../CM7/Core/Src/stm32h7xx_it.c ****     /* USER CODE BEGIN W1_MemoryManagement_IRQn 0 */
 108:../../CM7/Core/Src/stm32h7xx_it.c ****     /* USER CODE END W1_MemoryManagement_IRQn 0 */
 109:../../CM7/Core/Src/stm32h7xx_it.c ****   }
  82              		.loc 1 109 3 discriminator 1 view .LVU10
 105:../../CM7/Core/Src/stm32h7xx_it.c ****   {
  83              		.loc 1 105 9 discriminator 1 view .LVU11
  84 0000 FEE7     		b	.L6
  85              		.cfi_endproc
  86              	.LFE146:
  88              		.section	.text.BusFault_Handler,"ax",%progbits
  89              		.align	1
  90              		.global	BusFault_Handler
  91              		.syntax unified
  92              		.thumb
  93              		.thumb_func
  95              	BusFault_Handler:
  96              	.LFB147:
 110:../../CM7/Core/Src/stm32h7xx_it.c **** }
 111:../../CM7/Core/Src/stm32h7xx_it.c **** 
 112:../../CM7/Core/Src/stm32h7xx_it.c **** /**
 113:../../CM7/Core/Src/stm32h7xx_it.c ****   * @brief This function handles Pre-fetch fault, memory access fault.
 114:../../CM7/Core/Src/stm32h7xx_it.c ****   */
 115:../../CM7/Core/Src/stm32h7xx_it.c **** void BusFault_Handler(void)
 116:../../CM7/Core/Src/stm32h7xx_it.c **** {
  97              		.loc 1 116 1 view -0
  98              		.cfi_startproc
  99              		@ Volatile: function does not return.
 100              		@ args = 0, pretend = 0, frame = 0
 101              		@ frame_needed = 0, uses_anonymous_args = 0
 102              		@ link register save eliminated.
 103              	.L8:
 117:../../CM7/Core/Src/stm32h7xx_it.c ****   /* USER CODE BEGIN BusFault_IRQn 0 */
 118:../../CM7/Core/Src/stm32h7xx_it.c **** 
 119:../../CM7/Core/Src/stm32h7xx_it.c ****   /* USER CODE END BusFault_IRQn 0 */
 120:../../CM7/Core/Src/stm32h7xx_it.c ****   while (1)
 104              		.loc 1 120 3 discriminator 1 view .LVU13
 121:../../CM7/Core/Src/stm32h7xx_it.c ****   {
 122:../../CM7/Core/Src/stm32h7xx_it.c ****     /* USER CODE BEGIN W1_BusFault_IRQn 0 */
 123:../../CM7/Core/Src/stm32h7xx_it.c ****     /* USER CODE END W1_BusFault_IRQn 0 */
 124:../../CM7/Core/Src/stm32h7xx_it.c ****   }
 105              		.loc 1 124 3 discriminator 1 view .LVU14
 120:../../CM7/Core/Src/stm32h7xx_it.c ****   {
 106              		.loc 1 120 9 discriminator 1 view .LVU15
 107 0000 FEE7     		b	.L8
ARM GAS  C:\Users\gigig\AppData\Local\Temp\ccPE8AqK.s 			page 5


 108              		.cfi_endproc
 109              	.LFE147:
 111              		.section	.text.UsageFault_Handler,"ax",%progbits
 112              		.align	1
 113              		.global	UsageFault_Handler
 114              		.syntax unified
 115              		.thumb
 116              		.thumb_func
 118              	UsageFault_Handler:
 119              	.LFB148:
 125:../../CM7/Core/Src/stm32h7xx_it.c **** }
 126:../../CM7/Core/Src/stm32h7xx_it.c **** 
 127:../../CM7/Core/Src/stm32h7xx_it.c **** /**
 128:../../CM7/Core/Src/stm32h7xx_it.c ****   * @brief This function handles Undefined instruction or illegal state.
 129:../../CM7/Core/Src/stm32h7xx_it.c ****   */
 130:../../CM7/Core/Src/stm32h7xx_it.c **** void UsageFault_Handler(void)
 131:../../CM7/Core/Src/stm32h7xx_it.c **** {
 120              		.loc 1 131 1 view -0
 121              		.cfi_startproc
 122              		@ Volatile: function does not return.
 123              		@ args = 0, pretend = 0, frame = 0
 124              		@ frame_needed = 0, uses_anonymous_args = 0
 125              		@ link register save eliminated.
 126              	.L10:
 132:../../CM7/Core/Src/stm32h7xx_it.c ****   /* USER CODE BEGIN UsageFault_IRQn 0 */
 133:../../CM7/Core/Src/stm32h7xx_it.c **** 
 134:../../CM7/Core/Src/stm32h7xx_it.c ****   /* USER CODE END UsageFault_IRQn 0 */
 135:../../CM7/Core/Src/stm32h7xx_it.c ****   while (1)
 127              		.loc 1 135 3 discriminator 1 view .LVU17
 136:../../CM7/Core/Src/stm32h7xx_it.c ****   {
 137:../../CM7/Core/Src/stm32h7xx_it.c ****     /* USER CODE BEGIN W1_UsageFault_IRQn 0 */
 138:../../CM7/Core/Src/stm32h7xx_it.c ****     /* USER CODE END W1_UsageFault_IRQn 0 */
 139:../../CM7/Core/Src/stm32h7xx_it.c ****   }
 128              		.loc 1 139 3 discriminator 1 view .LVU18
 135:../../CM7/Core/Src/stm32h7xx_it.c ****   {
 129              		.loc 1 135 9 discriminator 1 view .LVU19
 130 0000 FEE7     		b	.L10
 131              		.cfi_endproc
 132              	.LFE148:
 134              		.section	.text.DebugMon_Handler,"ax",%progbits
 135              		.align	1
 136              		.global	DebugMon_Handler
 137              		.syntax unified
 138              		.thumb
 139              		.thumb_func
 141              	DebugMon_Handler:
 142              	.LFB149:
 140:../../CM7/Core/Src/stm32h7xx_it.c **** }
 141:../../CM7/Core/Src/stm32h7xx_it.c **** 
 142:../../CM7/Core/Src/stm32h7xx_it.c **** /**
 143:../../CM7/Core/Src/stm32h7xx_it.c ****   * @brief This function handles Debug monitor.
 144:../../CM7/Core/Src/stm32h7xx_it.c ****   */
 145:../../CM7/Core/Src/stm32h7xx_it.c **** void DebugMon_Handler(void)
 146:../../CM7/Core/Src/stm32h7xx_it.c **** {
 143              		.loc 1 146 1 view -0
 144              		.cfi_startproc
 145              		@ args = 0, pretend = 0, frame = 0
ARM GAS  C:\Users\gigig\AppData\Local\Temp\ccPE8AqK.s 			page 6


 146              		@ frame_needed = 0, uses_anonymous_args = 0
 147              		@ link register save eliminated.
 147:../../CM7/Core/Src/stm32h7xx_it.c ****   /* USER CODE BEGIN DebugMonitor_IRQn 0 */
 148:../../CM7/Core/Src/stm32h7xx_it.c **** 
 149:../../CM7/Core/Src/stm32h7xx_it.c ****   /* USER CODE END DebugMonitor_IRQn 0 */
 150:../../CM7/Core/Src/stm32h7xx_it.c ****   /* USER CODE BEGIN DebugMonitor_IRQn 1 */
 151:../../CM7/Core/Src/stm32h7xx_it.c **** 
 152:../../CM7/Core/Src/stm32h7xx_it.c ****   /* USER CODE END DebugMonitor_IRQn 1 */
 153:../../CM7/Core/Src/stm32h7xx_it.c **** }
 148              		.loc 1 153 1 view .LVU21
 149 0000 7047     		bx	lr
 150              		.cfi_endproc
 151              	.LFE149:
 153              		.section	.text.TIM1_UP_IRQHandler,"ax",%progbits
 154              		.align	1
 155              		.global	TIM1_UP_IRQHandler
 156              		.syntax unified
 157              		.thumb
 158              		.thumb_func
 160              	TIM1_UP_IRQHandler:
 161              	.LFB150:
 154:../../CM7/Core/Src/stm32h7xx_it.c **** 
 155:../../CM7/Core/Src/stm32h7xx_it.c **** /******************************************************************************/
 156:../../CM7/Core/Src/stm32h7xx_it.c **** /* STM32H7xx Peripheral Interrupt Handlers                                    */
 157:../../CM7/Core/Src/stm32h7xx_it.c **** /* Add here the Interrupt Handlers for the used peripherals.                  */
 158:../../CM7/Core/Src/stm32h7xx_it.c **** /* For the available peripheral interrupt handler names,                      */
 159:../../CM7/Core/Src/stm32h7xx_it.c **** /* please refer to the startup file (startup_stm32h7xx.s).                    */
 160:../../CM7/Core/Src/stm32h7xx_it.c **** /******************************************************************************/
 161:../../CM7/Core/Src/stm32h7xx_it.c **** 
 162:../../CM7/Core/Src/stm32h7xx_it.c **** /**
 163:../../CM7/Core/Src/stm32h7xx_it.c ****   * @brief This function handles TIM1 update interrupt.
 164:../../CM7/Core/Src/stm32h7xx_it.c ****   */
 165:../../CM7/Core/Src/stm32h7xx_it.c **** void TIM1_UP_IRQHandler(void)
 166:../../CM7/Core/Src/stm32h7xx_it.c **** {
 162              		.loc 1 166 1 view -0
 163              		.cfi_startproc
 164              		@ args = 0, pretend = 0, frame = 0
 165              		@ frame_needed = 0, uses_anonymous_args = 0
 166 0000 08B5     		push	{r3, lr}
 167              	.LCFI0:
 168              		.cfi_def_cfa_offset 8
 169              		.cfi_offset 3, -8
 170              		.cfi_offset 14, -4
 167:../../CM7/Core/Src/stm32h7xx_it.c ****   /* USER CODE BEGIN TIM1_UP_IRQn 0 */
 168:../../CM7/Core/Src/stm32h7xx_it.c **** 
 169:../../CM7/Core/Src/stm32h7xx_it.c ****   /* USER CODE END TIM1_UP_IRQn 0 */
 170:../../CM7/Core/Src/stm32h7xx_it.c ****   HAL_TIM_IRQHandler(&htim1);
 171              		.loc 1 170 3 view .LVU23
 172 0002 0248     		ldr	r0, .L14
 173 0004 FFF7FEFF 		bl	HAL_TIM_IRQHandler
 174              	.LVL0:
 171:../../CM7/Core/Src/stm32h7xx_it.c ****   /* USER CODE BEGIN TIM1_UP_IRQn 1 */
 172:../../CM7/Core/Src/stm32h7xx_it.c **** 
 173:../../CM7/Core/Src/stm32h7xx_it.c ****   /* USER CODE END TIM1_UP_IRQn 1 */
 174:../../CM7/Core/Src/stm32h7xx_it.c **** }
 175              		.loc 1 174 1 is_stmt 0 view .LVU24
 176 0008 08BD     		pop	{r3, pc}
ARM GAS  C:\Users\gigig\AppData\Local\Temp\ccPE8AqK.s 			page 7


 177              	.L15:
 178 000a 00BF     		.align	2
 179              	.L14:
 180 000c 00000000 		.word	htim1
 181              		.cfi_endproc
 182              	.LFE150:
 184              		.text
 185              	.Letext0:
 186              		.file 2 "c:\\program files (x86)\\arm gnu toolchain arm-none-eabi\\12.2 rel1\\arm-none-eabi\\inclu
 187              		.file 3 "c:\\program files (x86)\\arm gnu toolchain arm-none-eabi\\12.2 rel1\\arm-none-eabi\\inclu
 188              		.file 4 "../../Drivers/CMSIS/Device/ST/STM32H7xx/Include/stm32h755xx.h"
 189              		.file 5 "../../Drivers/STM32H7xx_HAL_Driver/Inc/stm32h7xx_hal_def.h"
 190              		.file 6 "../../Drivers/STM32H7xx_HAL_Driver/Inc/stm32h7xx_hal_dma.h"
 191              		.file 7 "../../Drivers/STM32H7xx_HAL_Driver/Inc/stm32h7xx_hal_tim.h"
ARM GAS  C:\Users\gigig\AppData\Local\Temp\ccPE8AqK.s 			page 8

