ARM GAS  C:\Users\gigig\AppData\Local\Temp\ccXuJv1Z.s 			page 1


   1              		.cpu cortex-m7
   2              		.arch armv7e-m
   3              		.fpu fpv5-d16
   4              		.eabi_attribute 28, 1
   5              		.eabi_attribute 20, 1
   6              		.eabi_attribute 21, 1
   7              		.eabi_attribute 23, 3
   8              		.eabi_attribute 24, 1
   9              		.eabi_attribute 25, 1
  10              		.eabi_attribute 26, 1
  11              		.eabi_attribute 30, 1
  12              		.eabi_attribute 34, 1
  13              		.eabi_attribute 18, 4
  14              		.file	"stm32h7xx_hal_pwr_ex.c"
  15              		.text
  16              	.Ltext0:
  17              		.cfi_sections	.debug_frame
  18              		.file 1 "../../Drivers/STM32H7xx_HAL_Driver/Src/stm32h7xx_hal_pwr_ex.c"
  19              		.section	.text.HAL_PWREx_ConfigSupply,"ax",%progbits
  20              		.align	1
  21              		.global	HAL_PWREx_ConfigSupply
  22              		.syntax unified
  23              		.thumb
  24              		.thumb_func
  26              	HAL_PWREx_ConfigSupply:
  27              	.LVL0:
  28              	.LFB144:
   1:../../Drivers/STM32H7xx_HAL_Driver/Src/stm32h7xx_hal_pwr_ex.c **** /**
   2:../../Drivers/STM32H7xx_HAL_Driver/Src/stm32h7xx_hal_pwr_ex.c ****   ******************************************************************************
   3:../../Drivers/STM32H7xx_HAL_Driver/Src/stm32h7xx_hal_pwr_ex.c ****   * @file    stm32h7xx_hal_pwr_ex.c
   4:../../Drivers/STM32H7xx_HAL_Driver/Src/stm32h7xx_hal_pwr_ex.c ****   * @author  MCD Application Team
   5:../../Drivers/STM32H7xx_HAL_Driver/Src/stm32h7xx_hal_pwr_ex.c ****   * @brief   Extended PWR HAL module driver.
   6:../../Drivers/STM32H7xx_HAL_Driver/Src/stm32h7xx_hal_pwr_ex.c ****   *          This file provides firmware functions to manage the following
   7:../../Drivers/STM32H7xx_HAL_Driver/Src/stm32h7xx_hal_pwr_ex.c ****   *          functionalities of PWR extension peripheral:
   8:../../Drivers/STM32H7xx_HAL_Driver/Src/stm32h7xx_hal_pwr_ex.c ****   *           + Peripheral Extended features functions
   9:../../Drivers/STM32H7xx_HAL_Driver/Src/stm32h7xx_hal_pwr_ex.c ****   ******************************************************************************
  10:../../Drivers/STM32H7xx_HAL_Driver/Src/stm32h7xx_hal_pwr_ex.c ****   * @attention
  11:../../Drivers/STM32H7xx_HAL_Driver/Src/stm32h7xx_hal_pwr_ex.c ****   *
  12:../../Drivers/STM32H7xx_HAL_Driver/Src/stm32h7xx_hal_pwr_ex.c ****   * Copyright (c) 2017 STMicroelectronics.
  13:../../Drivers/STM32H7xx_HAL_Driver/Src/stm32h7xx_hal_pwr_ex.c ****   * All rights reserved.
  14:../../Drivers/STM32H7xx_HAL_Driver/Src/stm32h7xx_hal_pwr_ex.c ****   *
  15:../../Drivers/STM32H7xx_HAL_Driver/Src/stm32h7xx_hal_pwr_ex.c ****   * This software is licensed under terms that can be found in the LICENSE file
  16:../../Drivers/STM32H7xx_HAL_Driver/Src/stm32h7xx_hal_pwr_ex.c ****   * in the root directory of this software component.
  17:../../Drivers/STM32H7xx_HAL_Driver/Src/stm32h7xx_hal_pwr_ex.c ****   * If no LICENSE file comes with this software, it is provided AS-IS.
  18:../../Drivers/STM32H7xx_HAL_Driver/Src/stm32h7xx_hal_pwr_ex.c ****   *
  19:../../Drivers/STM32H7xx_HAL_Driver/Src/stm32h7xx_hal_pwr_ex.c ****   ******************************************************************************
  20:../../Drivers/STM32H7xx_HAL_Driver/Src/stm32h7xx_hal_pwr_ex.c ****   @verbatim
  21:../../Drivers/STM32H7xx_HAL_Driver/Src/stm32h7xx_hal_pwr_ex.c ****   ==============================================================================
  22:../../Drivers/STM32H7xx_HAL_Driver/Src/stm32h7xx_hal_pwr_ex.c ****                         ##### How to use this driver #####
  23:../../Drivers/STM32H7xx_HAL_Driver/Src/stm32h7xx_hal_pwr_ex.c ****   ==============================================================================
  24:../../Drivers/STM32H7xx_HAL_Driver/Src/stm32h7xx_hal_pwr_ex.c ****   [..]
  25:../../Drivers/STM32H7xx_HAL_Driver/Src/stm32h7xx_hal_pwr_ex.c ****    (#) Call HAL_PWREx_ConfigSupply() function to configure the regulator supply
  26:../../Drivers/STM32H7xx_HAL_Driver/Src/stm32h7xx_hal_pwr_ex.c ****        with the following different setups according to hardware (support SMPS):
  27:../../Drivers/STM32H7xx_HAL_Driver/Src/stm32h7xx_hal_pwr_ex.c ****        (+) PWR_DIRECT_SMPS_SUPPLY
  28:../../Drivers/STM32H7xx_HAL_Driver/Src/stm32h7xx_hal_pwr_ex.c ****        (+) PWR_SMPS_1V8_SUPPLIES_LDO
  29:../../Drivers/STM32H7xx_HAL_Driver/Src/stm32h7xx_hal_pwr_ex.c ****        (+) PWR_SMPS_2V5_SUPPLIES_LDO
  30:../../Drivers/STM32H7xx_HAL_Driver/Src/stm32h7xx_hal_pwr_ex.c ****        (+) PWR_SMPS_1V8_SUPPLIES_EXT_AND_LDO
ARM GAS  C:\Users\gigig\AppData\Local\Temp\ccXuJv1Z.s 			page 2


  31:../../Drivers/STM32H7xx_HAL_Driver/Src/stm32h7xx_hal_pwr_ex.c ****        (+) PWR_SMPS_2V5_SUPPLIES_EXT_AND_LDO
  32:../../Drivers/STM32H7xx_HAL_Driver/Src/stm32h7xx_hal_pwr_ex.c ****        (+) PWR_SMPS_1V8_SUPPLIES_EXT
  33:../../Drivers/STM32H7xx_HAL_Driver/Src/stm32h7xx_hal_pwr_ex.c ****        (+) PWR_SMPS_2V5_SUPPLIES_EXT
  34:../../Drivers/STM32H7xx_HAL_Driver/Src/stm32h7xx_hal_pwr_ex.c ****        (+) PWR_LDO_SUPPLY
  35:../../Drivers/STM32H7xx_HAL_Driver/Src/stm32h7xx_hal_pwr_ex.c ****        (+) PWR_EXTERNAL_SOURCE_SUPPLY
  36:../../Drivers/STM32H7xx_HAL_Driver/Src/stm32h7xx_hal_pwr_ex.c **** 
  37:../../Drivers/STM32H7xx_HAL_Driver/Src/stm32h7xx_hal_pwr_ex.c ****    (#) Call HAL_PWREx_GetSupplyConfig() function to get the current supply setup.
  38:../../Drivers/STM32H7xx_HAL_Driver/Src/stm32h7xx_hal_pwr_ex.c **** 
  39:../../Drivers/STM32H7xx_HAL_Driver/Src/stm32h7xx_hal_pwr_ex.c ****    (#) Call HAL_PWREx_ControlVoltageScaling() function to configure the main
  40:../../Drivers/STM32H7xx_HAL_Driver/Src/stm32h7xx_hal_pwr_ex.c ****        internal regulator output voltage. The voltage scaling could be one of
  41:../../Drivers/STM32H7xx_HAL_Driver/Src/stm32h7xx_hal_pwr_ex.c ****        the following scales :
  42:../../Drivers/STM32H7xx_HAL_Driver/Src/stm32h7xx_hal_pwr_ex.c ****        (+) PWR_REGULATOR_VOLTAGE_SCALE0
  43:../../Drivers/STM32H7xx_HAL_Driver/Src/stm32h7xx_hal_pwr_ex.c ****        (+) PWR_REGULATOR_VOLTAGE_SCALE1
  44:../../Drivers/STM32H7xx_HAL_Driver/Src/stm32h7xx_hal_pwr_ex.c ****        (+) PWR_REGULATOR_VOLTAGE_SCALE2
  45:../../Drivers/STM32H7xx_HAL_Driver/Src/stm32h7xx_hal_pwr_ex.c ****        (+) PWR_REGULATOR_VOLTAGE_SCALE3
  46:../../Drivers/STM32H7xx_HAL_Driver/Src/stm32h7xx_hal_pwr_ex.c **** 
  47:../../Drivers/STM32H7xx_HAL_Driver/Src/stm32h7xx_hal_pwr_ex.c ****    (#) Call HAL_PWREx_GetVoltageRange() function to get the current output
  48:../../Drivers/STM32H7xx_HAL_Driver/Src/stm32h7xx_hal_pwr_ex.c ****        voltage applied to the main regulator.
  49:../../Drivers/STM32H7xx_HAL_Driver/Src/stm32h7xx_hal_pwr_ex.c **** 
  50:../../Drivers/STM32H7xx_HAL_Driver/Src/stm32h7xx_hal_pwr_ex.c ****    (#) Call HAL_PWREx_ControlStopModeVoltageScaling() function to configure the
  51:../../Drivers/STM32H7xx_HAL_Driver/Src/stm32h7xx_hal_pwr_ex.c ****        main internal regulator output voltage in STOP mode. The voltage scaling
  52:../../Drivers/STM32H7xx_HAL_Driver/Src/stm32h7xx_hal_pwr_ex.c ****        in STOP mode could be one of the following scales :
  53:../../Drivers/STM32H7xx_HAL_Driver/Src/stm32h7xx_hal_pwr_ex.c ****        (+) PWR_REGULATOR_SVOS_SCALE3
  54:../../Drivers/STM32H7xx_HAL_Driver/Src/stm32h7xx_hal_pwr_ex.c ****        (+) PWR_REGULATOR_SVOS_SCALE4
  55:../../Drivers/STM32H7xx_HAL_Driver/Src/stm32h7xx_hal_pwr_ex.c ****        (+) PWR_REGULATOR_SVOS_SCALE5
  56:../../Drivers/STM32H7xx_HAL_Driver/Src/stm32h7xx_hal_pwr_ex.c **** 
  57:../../Drivers/STM32H7xx_HAL_Driver/Src/stm32h7xx_hal_pwr_ex.c ****    (#) Call HAL_PWREx_GetStopModeVoltageRange() function to get the current
  58:../../Drivers/STM32H7xx_HAL_Driver/Src/stm32h7xx_hal_pwr_ex.c ****        output voltage applied to the main regulator in STOP mode.
  59:../../Drivers/STM32H7xx_HAL_Driver/Src/stm32h7xx_hal_pwr_ex.c **** 
  60:../../Drivers/STM32H7xx_HAL_Driver/Src/stm32h7xx_hal_pwr_ex.c ****    (#) Call HAL_PWREx_EnterSTOP2Mode() function to enter the system in STOP mode
  61:../../Drivers/STM32H7xx_HAL_Driver/Src/stm32h7xx_hal_pwr_ex.c ****        with core domain in D2STOP mode. This API is used only for STM32H7Axxx
  62:../../Drivers/STM32H7xx_HAL_Driver/Src/stm32h7xx_hal_pwr_ex.c ****        and STM32H7Bxxx devices.
  63:../../Drivers/STM32H7xx_HAL_Driver/Src/stm32h7xx_hal_pwr_ex.c ****        Please ensure to clear all CPU pending events by calling
  64:../../Drivers/STM32H7xx_HAL_Driver/Src/stm32h7xx_hal_pwr_ex.c ****        HAL_PWREx_ClearPendingEvent() function when trying to enter the Cortex-Mx
  65:../../Drivers/STM32H7xx_HAL_Driver/Src/stm32h7xx_hal_pwr_ex.c ****        in DEEP-SLEEP mode with __WFE() entry.
  66:../../Drivers/STM32H7xx_HAL_Driver/Src/stm32h7xx_hal_pwr_ex.c **** 
  67:../../Drivers/STM32H7xx_HAL_Driver/Src/stm32h7xx_hal_pwr_ex.c ****    (#) Call HAL_PWREx_EnterSTOPMode() function to enter the selected domain in
  68:../../Drivers/STM32H7xx_HAL_Driver/Src/stm32h7xx_hal_pwr_ex.c ****        DSTOP mode. Call this API with all available power domains to enter the
  69:../../Drivers/STM32H7xx_HAL_Driver/Src/stm32h7xx_hal_pwr_ex.c ****        system in STOP mode.
  70:../../Drivers/STM32H7xx_HAL_Driver/Src/stm32h7xx_hal_pwr_ex.c ****        Please ensure to clear all CPU pending events by calling
  71:../../Drivers/STM32H7xx_HAL_Driver/Src/stm32h7xx_hal_pwr_ex.c ****        HAL_PWREx_ClearPendingEvent() function when trying to enter the Cortex-Mx
  72:../../Drivers/STM32H7xx_HAL_Driver/Src/stm32h7xx_hal_pwr_ex.c ****        in DEEP-SLEEP mode with __WFE() entry.
  73:../../Drivers/STM32H7xx_HAL_Driver/Src/stm32h7xx_hal_pwr_ex.c **** 
  74:../../Drivers/STM32H7xx_HAL_Driver/Src/stm32h7xx_hal_pwr_ex.c ****    (#) Call HAL_PWREx_ClearPendingEvent() function always before entring the
  75:../../Drivers/STM32H7xx_HAL_Driver/Src/stm32h7xx_hal_pwr_ex.c ****        Cortex-Mx in any low power mode (SLEEP/DEEP-SLEEP) using WFE entry.
  76:../../Drivers/STM32H7xx_HAL_Driver/Src/stm32h7xx_hal_pwr_ex.c **** 
  77:../../Drivers/STM32H7xx_HAL_Driver/Src/stm32h7xx_hal_pwr_ex.c ****    (#) Call HAL_PWREx_EnterSTANDBYMode() function to enter the selected domain
  78:../../Drivers/STM32H7xx_HAL_Driver/Src/stm32h7xx_hal_pwr_ex.c ****        in DSTANDBY mode. Call this API with all available power domains to enter
  79:../../Drivers/STM32H7xx_HAL_Driver/Src/stm32h7xx_hal_pwr_ex.c ****        the system in STANDBY mode.
  80:../../Drivers/STM32H7xx_HAL_Driver/Src/stm32h7xx_hal_pwr_ex.c **** 
  81:../../Drivers/STM32H7xx_HAL_Driver/Src/stm32h7xx_hal_pwr_ex.c ****    (#) Call HAL_PWREx_ConfigD3Domain() function to setup the D3/SRD domain state
  82:../../Drivers/STM32H7xx_HAL_Driver/Src/stm32h7xx_hal_pwr_ex.c ****        (RUN/STOP) when the system enter to low power mode.
  83:../../Drivers/STM32H7xx_HAL_Driver/Src/stm32h7xx_hal_pwr_ex.c **** 
  84:../../Drivers/STM32H7xx_HAL_Driver/Src/stm32h7xx_hal_pwr_ex.c ****    (#) Call HAL_PWREx_ClearDomainFlags() function to clear the CPU flags for the
  85:../../Drivers/STM32H7xx_HAL_Driver/Src/stm32h7xx_hal_pwr_ex.c ****        selected power domain. This API is used only for dual core devices.
  86:../../Drivers/STM32H7xx_HAL_Driver/Src/stm32h7xx_hal_pwr_ex.c **** 
  87:../../Drivers/STM32H7xx_HAL_Driver/Src/stm32h7xx_hal_pwr_ex.c ****    (#) Call HAL_PWREx_HoldCore() and HAL_PWREx_ReleaseCore() functions to hold
ARM GAS  C:\Users\gigig\AppData\Local\Temp\ccXuJv1Z.s 			page 3


  88:../../Drivers/STM32H7xx_HAL_Driver/Src/stm32h7xx_hal_pwr_ex.c ****        and release the selected CPU and and their domain peripherals when
  89:../../Drivers/STM32H7xx_HAL_Driver/Src/stm32h7xx_hal_pwr_ex.c ****        exiting STOP mode. These APIs are used only for dual core devices.
  90:../../Drivers/STM32H7xx_HAL_Driver/Src/stm32h7xx_hal_pwr_ex.c **** 
  91:../../Drivers/STM32H7xx_HAL_Driver/Src/stm32h7xx_hal_pwr_ex.c ****    (#) Call HAL_PWREx_EnableFlashPowerDown() and
  92:../../Drivers/STM32H7xx_HAL_Driver/Src/stm32h7xx_hal_pwr_ex.c ****        HAL_PWREx_DisableFlashPowerDown() functions to enable and disable the
  93:../../Drivers/STM32H7xx_HAL_Driver/Src/stm32h7xx_hal_pwr_ex.c ****        Flash Power Down in STOP mode.
  94:../../Drivers/STM32H7xx_HAL_Driver/Src/stm32h7xx_hal_pwr_ex.c **** 
  95:../../Drivers/STM32H7xx_HAL_Driver/Src/stm32h7xx_hal_pwr_ex.c ****    (#) Call HAL_PWREx_EnableMemoryShutOff() and
  96:../../Drivers/STM32H7xx_HAL_Driver/Src/stm32h7xx_hal_pwr_ex.c ****        HAL_PWREx_DisableMemoryShutOff() functions to enable and disable the
  97:../../Drivers/STM32H7xx_HAL_Driver/Src/stm32h7xx_hal_pwr_ex.c ****        memory block shut-off in DStop or DStop2. These APIs are used only for
  98:../../Drivers/STM32H7xx_HAL_Driver/Src/stm32h7xx_hal_pwr_ex.c ****        STM32H7Axxx and STM32H7Bxxx lines.
  99:../../Drivers/STM32H7xx_HAL_Driver/Src/stm32h7xx_hal_pwr_ex.c **** 
 100:../../Drivers/STM32H7xx_HAL_Driver/Src/stm32h7xx_hal_pwr_ex.c ****    (#) Call HAL_PWREx_EnableWakeUpPin() and HAL_PWREx_DisableWakeUpPin()
 101:../../Drivers/STM32H7xx_HAL_Driver/Src/stm32h7xx_hal_pwr_ex.c ****        functions to enable and disable the Wake-up pin functionality for
 102:../../Drivers/STM32H7xx_HAL_Driver/Src/stm32h7xx_hal_pwr_ex.c ****        the selected pin.
 103:../../Drivers/STM32H7xx_HAL_Driver/Src/stm32h7xx_hal_pwr_ex.c **** 
 104:../../Drivers/STM32H7xx_HAL_Driver/Src/stm32h7xx_hal_pwr_ex.c ****    (#) Call HAL_PWREx_GetWakeupFlag() and HAL_PWREx_ClearWakeupFlag()
 105:../../Drivers/STM32H7xx_HAL_Driver/Src/stm32h7xx_hal_pwr_ex.c ****        functions to manage wake-up flag for the selected pin.
 106:../../Drivers/STM32H7xx_HAL_Driver/Src/stm32h7xx_hal_pwr_ex.c **** 
 107:../../Drivers/STM32H7xx_HAL_Driver/Src/stm32h7xx_hal_pwr_ex.c ****    (#) Call HAL_PWREx_WAKEUP_PIN_IRQHandler() function to handle all wake-up
 108:../../Drivers/STM32H7xx_HAL_Driver/Src/stm32h7xx_hal_pwr_ex.c ****        pins interrupts.
 109:../../Drivers/STM32H7xx_HAL_Driver/Src/stm32h7xx_hal_pwr_ex.c **** 
 110:../../Drivers/STM32H7xx_HAL_Driver/Src/stm32h7xx_hal_pwr_ex.c ****    (#) Call HAL_PWREx_EnableBkUpReg() and HAL_PWREx_DisableBkUpReg() functions
 111:../../Drivers/STM32H7xx_HAL_Driver/Src/stm32h7xx_hal_pwr_ex.c ****        to enable and disable the backup domain regulator.
 112:../../Drivers/STM32H7xx_HAL_Driver/Src/stm32h7xx_hal_pwr_ex.c **** 
 113:../../Drivers/STM32H7xx_HAL_Driver/Src/stm32h7xx_hal_pwr_ex.c ****    (#) Call HAL_PWREx_EnableUSBReg(), HAL_PWREx_DisableUSBReg(),
 114:../../Drivers/STM32H7xx_HAL_Driver/Src/stm32h7xx_hal_pwr_ex.c ****        HAL_PWREx_EnableUSBVoltageDetector() and
 115:../../Drivers/STM32H7xx_HAL_Driver/Src/stm32h7xx_hal_pwr_ex.c ****        HAL_PWREx_DisableUSBVoltageDetector() functions to manage USB power
 116:../../Drivers/STM32H7xx_HAL_Driver/Src/stm32h7xx_hal_pwr_ex.c ****        regulation functionalities.
 117:../../Drivers/STM32H7xx_HAL_Driver/Src/stm32h7xx_hal_pwr_ex.c **** 
 118:../../Drivers/STM32H7xx_HAL_Driver/Src/stm32h7xx_hal_pwr_ex.c ****    (#) Call HAL_PWREx_EnableBatteryCharging() and
 119:../../Drivers/STM32H7xx_HAL_Driver/Src/stm32h7xx_hal_pwr_ex.c ****        HAL_PWREx_DisableBatteryCharging() functions to enable and disable the
 120:../../Drivers/STM32H7xx_HAL_Driver/Src/stm32h7xx_hal_pwr_ex.c ****        battery charging feature with the selected resistor.
 121:../../Drivers/STM32H7xx_HAL_Driver/Src/stm32h7xx_hal_pwr_ex.c **** 
 122:../../Drivers/STM32H7xx_HAL_Driver/Src/stm32h7xx_hal_pwr_ex.c ****    (#) Call HAL_PWREx_EnableAnalogBooster() and
 123:../../Drivers/STM32H7xx_HAL_Driver/Src/stm32h7xx_hal_pwr_ex.c ****        HAL_PWREx_DisableAnalogBooster() functions to enable and disable the
 124:../../Drivers/STM32H7xx_HAL_Driver/Src/stm32h7xx_hal_pwr_ex.c ****        AVD boost feature when the VDD supply voltage is below 2V7.
 125:../../Drivers/STM32H7xx_HAL_Driver/Src/stm32h7xx_hal_pwr_ex.c **** 
 126:../../Drivers/STM32H7xx_HAL_Driver/Src/stm32h7xx_hal_pwr_ex.c ****    (#) Call HAL_PWREx_EnableMonitoring() and HAL_PWREx_DisableMonitoring()
 127:../../Drivers/STM32H7xx_HAL_Driver/Src/stm32h7xx_hal_pwr_ex.c ****        functions to enable and disable the VBAT and Temperature monitoring.
 128:../../Drivers/STM32H7xx_HAL_Driver/Src/stm32h7xx_hal_pwr_ex.c ****        When VBAT and Temperature monitoring feature is enables, use
 129:../../Drivers/STM32H7xx_HAL_Driver/Src/stm32h7xx_hal_pwr_ex.c ****        HAL_PWREx_GetTemperatureLevel() and HAL_PWREx_GetVBATLevel() to get
 130:../../Drivers/STM32H7xx_HAL_Driver/Src/stm32h7xx_hal_pwr_ex.c ****        respectively the Temperature level and VBAT level.
 131:../../Drivers/STM32H7xx_HAL_Driver/Src/stm32h7xx_hal_pwr_ex.c **** 
 132:../../Drivers/STM32H7xx_HAL_Driver/Src/stm32h7xx_hal_pwr_ex.c ****    (#) Call HAL_PWREx_GetMMCVoltage() and HAL_PWREx_DisableMonitoring()
 133:../../Drivers/STM32H7xx_HAL_Driver/Src/stm32h7xx_hal_pwr_ex.c ****        function to get VDDMMC voltage level. This API is used only for
 134:../../Drivers/STM32H7xx_HAL_Driver/Src/stm32h7xx_hal_pwr_ex.c ****        STM32H7Axxx and STM32H7Bxxx lines
 135:../../Drivers/STM32H7xx_HAL_Driver/Src/stm32h7xx_hal_pwr_ex.c **** 
 136:../../Drivers/STM32H7xx_HAL_Driver/Src/stm32h7xx_hal_pwr_ex.c ****    (#) Call HAL_PWREx_ConfigAVD() after setting parameter to be configured
 137:../../Drivers/STM32H7xx_HAL_Driver/Src/stm32h7xx_hal_pwr_ex.c ****        (event mode and voltage threshold) in order to set up the Analog Voltage
 138:../../Drivers/STM32H7xx_HAL_Driver/Src/stm32h7xx_hal_pwr_ex.c ****        Detector then use HAL_PWREx_EnableAVD() and  HAL_PWREx_DisableAVD()
 139:../../Drivers/STM32H7xx_HAL_Driver/Src/stm32h7xx_hal_pwr_ex.c ****        functions to start and stop the AVD detection.
 140:../../Drivers/STM32H7xx_HAL_Driver/Src/stm32h7xx_hal_pwr_ex.c ****        (+) AVD level could be one of the following values :
 141:../../Drivers/STM32H7xx_HAL_Driver/Src/stm32h7xx_hal_pwr_ex.c ****              (++) 1V7
 142:../../Drivers/STM32H7xx_HAL_Driver/Src/stm32h7xx_hal_pwr_ex.c ****              (++) 2V1
 143:../../Drivers/STM32H7xx_HAL_Driver/Src/stm32h7xx_hal_pwr_ex.c ****              (++) 2V5
 144:../../Drivers/STM32H7xx_HAL_Driver/Src/stm32h7xx_hal_pwr_ex.c ****              (++) 2V8
ARM GAS  C:\Users\gigig\AppData\Local\Temp\ccXuJv1Z.s 			page 4


 145:../../Drivers/STM32H7xx_HAL_Driver/Src/stm32h7xx_hal_pwr_ex.c **** 
 146:../../Drivers/STM32H7xx_HAL_Driver/Src/stm32h7xx_hal_pwr_ex.c ****    (#) Call HAL_PWREx_PVD_AVD_IRQHandler() function to handle the PWR PVD and
 147:../../Drivers/STM32H7xx_HAL_Driver/Src/stm32h7xx_hal_pwr_ex.c ****        AVD interrupt request.
 148:../../Drivers/STM32H7xx_HAL_Driver/Src/stm32h7xx_hal_pwr_ex.c **** 
 149:../../Drivers/STM32H7xx_HAL_Driver/Src/stm32h7xx_hal_pwr_ex.c ****   @endverbatim
 150:../../Drivers/STM32H7xx_HAL_Driver/Src/stm32h7xx_hal_pwr_ex.c ****   */
 151:../../Drivers/STM32H7xx_HAL_Driver/Src/stm32h7xx_hal_pwr_ex.c **** 
 152:../../Drivers/STM32H7xx_HAL_Driver/Src/stm32h7xx_hal_pwr_ex.c **** /* Includes ------------------------------------------------------------------*/
 153:../../Drivers/STM32H7xx_HAL_Driver/Src/stm32h7xx_hal_pwr_ex.c **** #include "stm32h7xx_hal.h"
 154:../../Drivers/STM32H7xx_HAL_Driver/Src/stm32h7xx_hal_pwr_ex.c **** 
 155:../../Drivers/STM32H7xx_HAL_Driver/Src/stm32h7xx_hal_pwr_ex.c **** /** @addtogroup STM32H7xx_HAL_Driver
 156:../../Drivers/STM32H7xx_HAL_Driver/Src/stm32h7xx_hal_pwr_ex.c ****   * @{
 157:../../Drivers/STM32H7xx_HAL_Driver/Src/stm32h7xx_hal_pwr_ex.c ****   */
 158:../../Drivers/STM32H7xx_HAL_Driver/Src/stm32h7xx_hal_pwr_ex.c **** 
 159:../../Drivers/STM32H7xx_HAL_Driver/Src/stm32h7xx_hal_pwr_ex.c **** /** @defgroup PWREx PWREx
 160:../../Drivers/STM32H7xx_HAL_Driver/Src/stm32h7xx_hal_pwr_ex.c ****   * @brief PWR Extended HAL module driver
 161:../../Drivers/STM32H7xx_HAL_Driver/Src/stm32h7xx_hal_pwr_ex.c ****   * @{
 162:../../Drivers/STM32H7xx_HAL_Driver/Src/stm32h7xx_hal_pwr_ex.c ****   */
 163:../../Drivers/STM32H7xx_HAL_Driver/Src/stm32h7xx_hal_pwr_ex.c **** 
 164:../../Drivers/STM32H7xx_HAL_Driver/Src/stm32h7xx_hal_pwr_ex.c **** #ifdef HAL_PWR_MODULE_ENABLED
 165:../../Drivers/STM32H7xx_HAL_Driver/Src/stm32h7xx_hal_pwr_ex.c **** 
 166:../../Drivers/STM32H7xx_HAL_Driver/Src/stm32h7xx_hal_pwr_ex.c **** /* Private typedef -----------------------------------------------------------*/
 167:../../Drivers/STM32H7xx_HAL_Driver/Src/stm32h7xx_hal_pwr_ex.c **** /* Private define ------------------------------------------------------------*/
 168:../../Drivers/STM32H7xx_HAL_Driver/Src/stm32h7xx_hal_pwr_ex.c **** 
 169:../../Drivers/STM32H7xx_HAL_Driver/Src/stm32h7xx_hal_pwr_ex.c **** /** @addtogroup PWREx_Private_Constants
 170:../../Drivers/STM32H7xx_HAL_Driver/Src/stm32h7xx_hal_pwr_ex.c ****   * @{
 171:../../Drivers/STM32H7xx_HAL_Driver/Src/stm32h7xx_hal_pwr_ex.c ****   */
 172:../../Drivers/STM32H7xx_HAL_Driver/Src/stm32h7xx_hal_pwr_ex.c **** 
 173:../../Drivers/STM32H7xx_HAL_Driver/Src/stm32h7xx_hal_pwr_ex.c **** /** @defgroup PWREx_AVD_Mode_Mask PWR Extended AVD Mode Mask
 174:../../Drivers/STM32H7xx_HAL_Driver/Src/stm32h7xx_hal_pwr_ex.c ****   * @{
 175:../../Drivers/STM32H7xx_HAL_Driver/Src/stm32h7xx_hal_pwr_ex.c ****   */
 176:../../Drivers/STM32H7xx_HAL_Driver/Src/stm32h7xx_hal_pwr_ex.c **** #define AVD_MODE_IT              (0x00010000U)
 177:../../Drivers/STM32H7xx_HAL_Driver/Src/stm32h7xx_hal_pwr_ex.c **** #define AVD_MODE_EVT             (0x00020000U)
 178:../../Drivers/STM32H7xx_HAL_Driver/Src/stm32h7xx_hal_pwr_ex.c **** #define AVD_RISING_EDGE          (0x00000001U)
 179:../../Drivers/STM32H7xx_HAL_Driver/Src/stm32h7xx_hal_pwr_ex.c **** #define AVD_FALLING_EDGE         (0x00000002U)
 180:../../Drivers/STM32H7xx_HAL_Driver/Src/stm32h7xx_hal_pwr_ex.c **** #define AVD_RISING_FALLING_EDGE  (0x00000003U)
 181:../../Drivers/STM32H7xx_HAL_Driver/Src/stm32h7xx_hal_pwr_ex.c **** /**
 182:../../Drivers/STM32H7xx_HAL_Driver/Src/stm32h7xx_hal_pwr_ex.c ****   * @}
 183:../../Drivers/STM32H7xx_HAL_Driver/Src/stm32h7xx_hal_pwr_ex.c ****   */
 184:../../Drivers/STM32H7xx_HAL_Driver/Src/stm32h7xx_hal_pwr_ex.c **** 
 185:../../Drivers/STM32H7xx_HAL_Driver/Src/stm32h7xx_hal_pwr_ex.c **** /** @defgroup PWREx_REG_SET_TIMEOUT PWR Extended Flag Setting Time Out Value
 186:../../Drivers/STM32H7xx_HAL_Driver/Src/stm32h7xx_hal_pwr_ex.c ****   * @{
 187:../../Drivers/STM32H7xx_HAL_Driver/Src/stm32h7xx_hal_pwr_ex.c ****   */
 188:../../Drivers/STM32H7xx_HAL_Driver/Src/stm32h7xx_hal_pwr_ex.c **** #define PWR_FLAG_SETTING_DELAY   (1000U)
 189:../../Drivers/STM32H7xx_HAL_Driver/Src/stm32h7xx_hal_pwr_ex.c **** /**
 190:../../Drivers/STM32H7xx_HAL_Driver/Src/stm32h7xx_hal_pwr_ex.c ****   * @}
 191:../../Drivers/STM32H7xx_HAL_Driver/Src/stm32h7xx_hal_pwr_ex.c ****   */
 192:../../Drivers/STM32H7xx_HAL_Driver/Src/stm32h7xx_hal_pwr_ex.c **** 
 193:../../Drivers/STM32H7xx_HAL_Driver/Src/stm32h7xx_hal_pwr_ex.c **** /** @defgroup PWREx_WakeUp_Pins_Offsets PWREx Wake-Up Pins masks and offsets
 194:../../Drivers/STM32H7xx_HAL_Driver/Src/stm32h7xx_hal_pwr_ex.c ****   * @{
 195:../../Drivers/STM32H7xx_HAL_Driver/Src/stm32h7xx_hal_pwr_ex.c ****   */
 196:../../Drivers/STM32H7xx_HAL_Driver/Src/stm32h7xx_hal_pwr_ex.c **** /* Wake-Up Pins EXTI register mask */
 197:../../Drivers/STM32H7xx_HAL_Driver/Src/stm32h7xx_hal_pwr_ex.c **** #if defined (EXTI_IMR2_IM57)
 198:../../Drivers/STM32H7xx_HAL_Driver/Src/stm32h7xx_hal_pwr_ex.c **** #define PWR_EXTI_WAKEUP_PINS_MASK  (EXTI_IMR2_IM55 | EXTI_IMR2_IM56 |\
 199:../../Drivers/STM32H7xx_HAL_Driver/Src/stm32h7xx_hal_pwr_ex.c ****                                     EXTI_IMR2_IM57 | EXTI_IMR2_IM58 |\
 200:../../Drivers/STM32H7xx_HAL_Driver/Src/stm32h7xx_hal_pwr_ex.c ****                                     EXTI_IMR2_IM59 | EXTI_IMR2_IM60)
 201:../../Drivers/STM32H7xx_HAL_Driver/Src/stm32h7xx_hal_pwr_ex.c **** #else
ARM GAS  C:\Users\gigig\AppData\Local\Temp\ccXuJv1Z.s 			page 5


 202:../../Drivers/STM32H7xx_HAL_Driver/Src/stm32h7xx_hal_pwr_ex.c **** #define PWR_EXTI_WAKEUP_PINS_MASK  (EXTI_IMR2_IM55 | EXTI_IMR2_IM56 |\
 203:../../Drivers/STM32H7xx_HAL_Driver/Src/stm32h7xx_hal_pwr_ex.c ****                                     EXTI_IMR2_IM58 | EXTI_IMR2_IM60)
 204:../../Drivers/STM32H7xx_HAL_Driver/Src/stm32h7xx_hal_pwr_ex.c **** #endif /* defined (EXTI_IMR2_IM57) */
 205:../../Drivers/STM32H7xx_HAL_Driver/Src/stm32h7xx_hal_pwr_ex.c **** 
 206:../../Drivers/STM32H7xx_HAL_Driver/Src/stm32h7xx_hal_pwr_ex.c **** /* Wake-Up Pins PWR Pin Pull shift offsets */
 207:../../Drivers/STM32H7xx_HAL_Driver/Src/stm32h7xx_hal_pwr_ex.c **** #define PWR_WAKEUP_PINS_PULL_SHIFT_OFFSET (2U)
 208:../../Drivers/STM32H7xx_HAL_Driver/Src/stm32h7xx_hal_pwr_ex.c **** /**
 209:../../Drivers/STM32H7xx_HAL_Driver/Src/stm32h7xx_hal_pwr_ex.c ****   * @}
 210:../../Drivers/STM32H7xx_HAL_Driver/Src/stm32h7xx_hal_pwr_ex.c ****   */
 211:../../Drivers/STM32H7xx_HAL_Driver/Src/stm32h7xx_hal_pwr_ex.c **** 
 212:../../Drivers/STM32H7xx_HAL_Driver/Src/stm32h7xx_hal_pwr_ex.c **** /**
 213:../../Drivers/STM32H7xx_HAL_Driver/Src/stm32h7xx_hal_pwr_ex.c ****   * @}
 214:../../Drivers/STM32H7xx_HAL_Driver/Src/stm32h7xx_hal_pwr_ex.c ****   */
 215:../../Drivers/STM32H7xx_HAL_Driver/Src/stm32h7xx_hal_pwr_ex.c **** 
 216:../../Drivers/STM32H7xx_HAL_Driver/Src/stm32h7xx_hal_pwr_ex.c **** /* Private macro -------------------------------------------------------------*/
 217:../../Drivers/STM32H7xx_HAL_Driver/Src/stm32h7xx_hal_pwr_ex.c **** /* Private variables ---------------------------------------------------------*/
 218:../../Drivers/STM32H7xx_HAL_Driver/Src/stm32h7xx_hal_pwr_ex.c **** /* Private function prototypes -----------------------------------------------*/
 219:../../Drivers/STM32H7xx_HAL_Driver/Src/stm32h7xx_hal_pwr_ex.c **** /* Private functions ---------------------------------------------------------*/
 220:../../Drivers/STM32H7xx_HAL_Driver/Src/stm32h7xx_hal_pwr_ex.c **** /* Exported types ------------------------------------------------------------*/
 221:../../Drivers/STM32H7xx_HAL_Driver/Src/stm32h7xx_hal_pwr_ex.c **** /* Exported functions --------------------------------------------------------*/
 222:../../Drivers/STM32H7xx_HAL_Driver/Src/stm32h7xx_hal_pwr_ex.c **** 
 223:../../Drivers/STM32H7xx_HAL_Driver/Src/stm32h7xx_hal_pwr_ex.c **** /** @defgroup PWREx_Exported_Functions PWREx Exported Functions
 224:../../Drivers/STM32H7xx_HAL_Driver/Src/stm32h7xx_hal_pwr_ex.c ****   * @{
 225:../../Drivers/STM32H7xx_HAL_Driver/Src/stm32h7xx_hal_pwr_ex.c ****   */
 226:../../Drivers/STM32H7xx_HAL_Driver/Src/stm32h7xx_hal_pwr_ex.c **** 
 227:../../Drivers/STM32H7xx_HAL_Driver/Src/stm32h7xx_hal_pwr_ex.c **** /** @defgroup PWREx_Exported_Functions_Group1 Power Supply Control Functions
 228:../../Drivers/STM32H7xx_HAL_Driver/Src/stm32h7xx_hal_pwr_ex.c ****   * @brief    Power supply control functions
 229:../../Drivers/STM32H7xx_HAL_Driver/Src/stm32h7xx_hal_pwr_ex.c ****   *
 230:../../Drivers/STM32H7xx_HAL_Driver/Src/stm32h7xx_hal_pwr_ex.c **** @verbatim
 231:../../Drivers/STM32H7xx_HAL_Driver/Src/stm32h7xx_hal_pwr_ex.c ****  ===============================================================================
 232:../../Drivers/STM32H7xx_HAL_Driver/Src/stm32h7xx_hal_pwr_ex.c ****                   ##### Power supply control functions #####
 233:../../Drivers/STM32H7xx_HAL_Driver/Src/stm32h7xx_hal_pwr_ex.c ****  ===============================================================================
 234:../../Drivers/STM32H7xx_HAL_Driver/Src/stm32h7xx_hal_pwr_ex.c ****     [..]
 235:../../Drivers/STM32H7xx_HAL_Driver/Src/stm32h7xx_hal_pwr_ex.c ****    (#) When the system is powered on, the POR monitors VDD supply. Once VDD is
 236:../../Drivers/STM32H7xx_HAL_Driver/Src/stm32h7xx_hal_pwr_ex.c ****        above the POR threshold level, the voltage regulator is enabled in the
 237:../../Drivers/STM32H7xx_HAL_Driver/Src/stm32h7xx_hal_pwr_ex.c ****        default supply configuration:
 238:../../Drivers/STM32H7xx_HAL_Driver/Src/stm32h7xx_hal_pwr_ex.c ****       (+) The Voltage converter output level is set at 1V0 in accordance with
 239:../../Drivers/STM32H7xx_HAL_Driver/Src/stm32h7xx_hal_pwr_ex.c ****           the VOS3 level configured in PWR (D3/SRD) domain control register
 240:../../Drivers/STM32H7xx_HAL_Driver/Src/stm32h7xx_hal_pwr_ex.c ****           (PWR_D3CR/PWR_SRDCR).
 241:../../Drivers/STM32H7xx_HAL_Driver/Src/stm32h7xx_hal_pwr_ex.c ****       (+) The system is kept in reset mode as long as VCORE is not ok.
 242:../../Drivers/STM32H7xx_HAL_Driver/Src/stm32h7xx_hal_pwr_ex.c ****       (+) Once VCORE is ok, the system is taken out of reset and the HSI
 243:../../Drivers/STM32H7xx_HAL_Driver/Src/stm32h7xx_hal_pwr_ex.c ****           oscillator is enabled.
 244:../../Drivers/STM32H7xx_HAL_Driver/Src/stm32h7xx_hal_pwr_ex.c ****       (+) Once the oscillator is stable, the system is initialized: Flash memory
 245:../../Drivers/STM32H7xx_HAL_Driver/Src/stm32h7xx_hal_pwr_ex.c ****           and option bytes are loaded and the CPU starts in Run* mode.
 246:../../Drivers/STM32H7xx_HAL_Driver/Src/stm32h7xx_hal_pwr_ex.c ****       (+) The software shall then initialize the system including supply
 247:../../Drivers/STM32H7xx_HAL_Driver/Src/stm32h7xx_hal_pwr_ex.c ****           configuration programming using the HAL_PWREx_ConfigSupply().
 248:../../Drivers/STM32H7xx_HAL_Driver/Src/stm32h7xx_hal_pwr_ex.c ****       (+) Once the supply configuration has been configured, the
 249:../../Drivers/STM32H7xx_HAL_Driver/Src/stm32h7xx_hal_pwr_ex.c ****           HAL_PWREx_ConfigSupply() function checks the ACTVOSRDY bit in PWR
 250:../../Drivers/STM32H7xx_HAL_Driver/Src/stm32h7xx_hal_pwr_ex.c ****           control status register 1 (PWR_CSR1) to guarantee a valid voltage
 251:../../Drivers/STM32H7xx_HAL_Driver/Src/stm32h7xx_hal_pwr_ex.c ****           levels:
 252:../../Drivers/STM32H7xx_HAL_Driver/Src/stm32h7xx_hal_pwr_ex.c ****        (++) As long as ACTVOSRDY indicates that voltage levels are invalid, the
 253:../../Drivers/STM32H7xx_HAL_Driver/Src/stm32h7xx_hal_pwr_ex.c ****             system is in limited Run* mode, write accesses to the RAMs are not
 254:../../Drivers/STM32H7xx_HAL_Driver/Src/stm32h7xx_hal_pwr_ex.c ****             permitted and VOS shall not be changed.
 255:../../Drivers/STM32H7xx_HAL_Driver/Src/stm32h7xx_hal_pwr_ex.c ****        (++) Once ACTVOSRDY indicates that voltage levels are valid, the system
 256:../../Drivers/STM32H7xx_HAL_Driver/Src/stm32h7xx_hal_pwr_ex.c ****             is in normal Run mode, write accesses to RAMs are allowed and VOS
 257:../../Drivers/STM32H7xx_HAL_Driver/Src/stm32h7xx_hal_pwr_ex.c ****             can be changed.
 258:../../Drivers/STM32H7xx_HAL_Driver/Src/stm32h7xx_hal_pwr_ex.c **** 
ARM GAS  C:\Users\gigig\AppData\Local\Temp\ccXuJv1Z.s 			page 6


 259:../../Drivers/STM32H7xx_HAL_Driver/Src/stm32h7xx_hal_pwr_ex.c **** @endverbatim
 260:../../Drivers/STM32H7xx_HAL_Driver/Src/stm32h7xx_hal_pwr_ex.c ****   * @{
 261:../../Drivers/STM32H7xx_HAL_Driver/Src/stm32h7xx_hal_pwr_ex.c ****   */
 262:../../Drivers/STM32H7xx_HAL_Driver/Src/stm32h7xx_hal_pwr_ex.c **** 
 263:../../Drivers/STM32H7xx_HAL_Driver/Src/stm32h7xx_hal_pwr_ex.c **** /**
 264:../../Drivers/STM32H7xx_HAL_Driver/Src/stm32h7xx_hal_pwr_ex.c ****   * @brief Configure the system Power Supply.
 265:../../Drivers/STM32H7xx_HAL_Driver/Src/stm32h7xx_hal_pwr_ex.c ****   * @param  SupplySource : Specifies the Power Supply source to set after a
 266:../../Drivers/STM32H7xx_HAL_Driver/Src/stm32h7xx_hal_pwr_ex.c ****   *                        system startup.
 267:../../Drivers/STM32H7xx_HAL_Driver/Src/stm32h7xx_hal_pwr_ex.c ****   *         This parameter can be one of the following values :
 268:../../Drivers/STM32H7xx_HAL_Driver/Src/stm32h7xx_hal_pwr_ex.c ****   *            @arg PWR_DIRECT_SMPS_SUPPLY : The SMPS supplies the Vcore Power
 269:../../Drivers/STM32H7xx_HAL_Driver/Src/stm32h7xx_hal_pwr_ex.c ****   *                                          Domains. The LDO is Bypassed.
 270:../../Drivers/STM32H7xx_HAL_Driver/Src/stm32h7xx_hal_pwr_ex.c ****   *            @arg PWR_SMPS_1V8_SUPPLIES_LDO : The SMPS 1.8V output supplies
 271:../../Drivers/STM32H7xx_HAL_Driver/Src/stm32h7xx_hal_pwr_ex.c ****   *                                             the LDO. The Vcore Power Domains
 272:../../Drivers/STM32H7xx_HAL_Driver/Src/stm32h7xx_hal_pwr_ex.c ****   *                                             are supplied from the LDO.
 273:../../Drivers/STM32H7xx_HAL_Driver/Src/stm32h7xx_hal_pwr_ex.c ****   *            @arg PWR_SMPS_2V5_SUPPLIES_LDO : The SMPS 2.5V output supplies
 274:../../Drivers/STM32H7xx_HAL_Driver/Src/stm32h7xx_hal_pwr_ex.c ****   *                                             the LDO. The Vcore Power Domains
 275:../../Drivers/STM32H7xx_HAL_Driver/Src/stm32h7xx_hal_pwr_ex.c ****   *                                             are supplied from the LDO.
 276:../../Drivers/STM32H7xx_HAL_Driver/Src/stm32h7xx_hal_pwr_ex.c ****   *            @arg PWR_SMPS_1V8_SUPPLIES_EXT_AND_LDO : The SMPS 1.8V output
 277:../../Drivers/STM32H7xx_HAL_Driver/Src/stm32h7xx_hal_pwr_ex.c ****   *                                                     supplies external
 278:../../Drivers/STM32H7xx_HAL_Driver/Src/stm32h7xx_hal_pwr_ex.c ****   *                                                     circuits and the LDO.
 279:../../Drivers/STM32H7xx_HAL_Driver/Src/stm32h7xx_hal_pwr_ex.c ****   *                                                     The Vcore Power Domains
 280:../../Drivers/STM32H7xx_HAL_Driver/Src/stm32h7xx_hal_pwr_ex.c ****   *                                                     are supplied from the
 281:../../Drivers/STM32H7xx_HAL_Driver/Src/stm32h7xx_hal_pwr_ex.c ****   *                                                     LDO.
 282:../../Drivers/STM32H7xx_HAL_Driver/Src/stm32h7xx_hal_pwr_ex.c ****   *            @arg PWR_SMPS_2V5_SUPPLIES_EXT_AND_LDO : The SMPS 2.5V output
 283:../../Drivers/STM32H7xx_HAL_Driver/Src/stm32h7xx_hal_pwr_ex.c ****   *                                                     supplies external
 284:../../Drivers/STM32H7xx_HAL_Driver/Src/stm32h7xx_hal_pwr_ex.c ****   *                                                     circuits and the LDO.
 285:../../Drivers/STM32H7xx_HAL_Driver/Src/stm32h7xx_hal_pwr_ex.c ****   *                                                     The Vcore Power Domains
 286:../../Drivers/STM32H7xx_HAL_Driver/Src/stm32h7xx_hal_pwr_ex.c ****   *                                                     are supplied from the
 287:../../Drivers/STM32H7xx_HAL_Driver/Src/stm32h7xx_hal_pwr_ex.c ****   *                                                     LDO.
 288:../../Drivers/STM32H7xx_HAL_Driver/Src/stm32h7xx_hal_pwr_ex.c ****   *            @arg PWR_SMPS_1V8_SUPPLIES_EXT : The SMPS 1.8V output supplies
 289:../../Drivers/STM32H7xx_HAL_Driver/Src/stm32h7xx_hal_pwr_ex.c ****   *                                             external circuits. The LDO is
 290:../../Drivers/STM32H7xx_HAL_Driver/Src/stm32h7xx_hal_pwr_ex.c ****   *                                             Bypassed. The Vcore Power
 291:../../Drivers/STM32H7xx_HAL_Driver/Src/stm32h7xx_hal_pwr_ex.c ****   *                                             Domains are supplied from
 292:../../Drivers/STM32H7xx_HAL_Driver/Src/stm32h7xx_hal_pwr_ex.c ****   *                                             external source.
 293:../../Drivers/STM32H7xx_HAL_Driver/Src/stm32h7xx_hal_pwr_ex.c ****   *            @arg PWR_SMPS_2V5_SUPPLIES_EXT : The SMPS 2.5V output supplies
 294:../../Drivers/STM32H7xx_HAL_Driver/Src/stm32h7xx_hal_pwr_ex.c ****   *                                             external circuits. The LDO is
 295:../../Drivers/STM32H7xx_HAL_Driver/Src/stm32h7xx_hal_pwr_ex.c ****   *                                             Bypassed. The Vcore Power
 296:../../Drivers/STM32H7xx_HAL_Driver/Src/stm32h7xx_hal_pwr_ex.c ****   *                                             Domains are supplied from
 297:../../Drivers/STM32H7xx_HAL_Driver/Src/stm32h7xx_hal_pwr_ex.c ****   *                                             external source.
 298:../../Drivers/STM32H7xx_HAL_Driver/Src/stm32h7xx_hal_pwr_ex.c ****   *            @arg PWR_LDO_SUPPLY : The LDO regulator supplies the Vcore Power
 299:../../Drivers/STM32H7xx_HAL_Driver/Src/stm32h7xx_hal_pwr_ex.c ****   *                                  Domains. The SMPS regulator is Bypassed.
 300:../../Drivers/STM32H7xx_HAL_Driver/Src/stm32h7xx_hal_pwr_ex.c ****   *            @arg PWR_EXTERNAL_SOURCE_SUPPLY : The SMPS and the LDO are
 301:../../Drivers/STM32H7xx_HAL_Driver/Src/stm32h7xx_hal_pwr_ex.c ****   *                                              Bypassed. The Vcore Power
 302:../../Drivers/STM32H7xx_HAL_Driver/Src/stm32h7xx_hal_pwr_ex.c ****   *                                              Domains are supplied from
 303:../../Drivers/STM32H7xx_HAL_Driver/Src/stm32h7xx_hal_pwr_ex.c ****   *                                              external source.
 304:../../Drivers/STM32H7xx_HAL_Driver/Src/stm32h7xx_hal_pwr_ex.c ****   * @note   The PWR_LDO_SUPPLY and PWR_EXTERNAL_SOURCE_SUPPLY are used by all
 305:../../Drivers/STM32H7xx_HAL_Driver/Src/stm32h7xx_hal_pwr_ex.c ****   *         H7 lines.
 306:../../Drivers/STM32H7xx_HAL_Driver/Src/stm32h7xx_hal_pwr_ex.c ****   *         The PWR_DIRECT_SMPS_SUPPLY, PWR_SMPS_1V8_SUPPLIES_LDO,
 307:../../Drivers/STM32H7xx_HAL_Driver/Src/stm32h7xx_hal_pwr_ex.c ****   *         PWR_SMPS_2V5_SUPPLIES_LDO, PWR_SMPS_1V8_SUPPLIES_EXT_AND_LDO,
 308:../../Drivers/STM32H7xx_HAL_Driver/Src/stm32h7xx_hal_pwr_ex.c ****   *         PWR_SMPS_2V5_SUPPLIES_EXT_AND_LDO, PWR_SMPS_1V8_SUPPLIES_EXT and
 309:../../Drivers/STM32H7xx_HAL_Driver/Src/stm32h7xx_hal_pwr_ex.c ****   *         PWR_SMPS_2V5_SUPPLIES_EXT are used only for lines that supports SMPS
 310:../../Drivers/STM32H7xx_HAL_Driver/Src/stm32h7xx_hal_pwr_ex.c ****   *         regulator.
 311:../../Drivers/STM32H7xx_HAL_Driver/Src/stm32h7xx_hal_pwr_ex.c ****   * @retval HAL status.
 312:../../Drivers/STM32H7xx_HAL_Driver/Src/stm32h7xx_hal_pwr_ex.c ****   */
 313:../../Drivers/STM32H7xx_HAL_Driver/Src/stm32h7xx_hal_pwr_ex.c **** HAL_StatusTypeDef HAL_PWREx_ConfigSupply (uint32_t SupplySource)
 314:../../Drivers/STM32H7xx_HAL_Driver/Src/stm32h7xx_hal_pwr_ex.c **** {
  29              		.loc 1 314 1 view -0
ARM GAS  C:\Users\gigig\AppData\Local\Temp\ccXuJv1Z.s 			page 7


  30              		.cfi_startproc
  31              		@ args = 0, pretend = 0, frame = 0
  32              		@ frame_needed = 0, uses_anonymous_args = 0
  33              		.loc 1 314 1 is_stmt 0 view .LVU1
  34 0000 38B5     		push	{r3, r4, r5, lr}
  35              	.LCFI0:
  36              		.cfi_def_cfa_offset 16
  37              		.cfi_offset 3, -16
  38              		.cfi_offset 4, -12
  39              		.cfi_offset 5, -8
  40              		.cfi_offset 14, -4
  41 0002 0446     		mov	r4, r0
 315:../../Drivers/STM32H7xx_HAL_Driver/Src/stm32h7xx_hal_pwr_ex.c ****   uint32_t tickstart;
  42              		.loc 1 315 3 is_stmt 1 view .LVU2
 316:../../Drivers/STM32H7xx_HAL_Driver/Src/stm32h7xx_hal_pwr_ex.c **** 
 317:../../Drivers/STM32H7xx_HAL_Driver/Src/stm32h7xx_hal_pwr_ex.c ****   /* Check the parameters */
 318:../../Drivers/STM32H7xx_HAL_Driver/Src/stm32h7xx_hal_pwr_ex.c ****   assert_param (IS_PWR_SUPPLY (SupplySource));
  43              		.loc 1 318 3 view .LVU3
 319:../../Drivers/STM32H7xx_HAL_Driver/Src/stm32h7xx_hal_pwr_ex.c **** 
 320:../../Drivers/STM32H7xx_HAL_Driver/Src/stm32h7xx_hal_pwr_ex.c ****   /* Check if supply source was configured */
 321:../../Drivers/STM32H7xx_HAL_Driver/Src/stm32h7xx_hal_pwr_ex.c **** #if defined (PWR_FLAG_SCUEN)
 322:../../Drivers/STM32H7xx_HAL_Driver/Src/stm32h7xx_hal_pwr_ex.c ****   if (__HAL_PWR_GET_FLAG (PWR_FLAG_SCUEN) == 0U)
 323:../../Drivers/STM32H7xx_HAL_Driver/Src/stm32h7xx_hal_pwr_ex.c **** #else
 324:../../Drivers/STM32H7xx_HAL_Driver/Src/stm32h7xx_hal_pwr_ex.c ****   if ((PWR->CR3 & (PWR_CR3_SMPSEN | PWR_CR3_LDOEN | PWR_CR3_BYPASS)) != (PWR_CR3_SMPSEN | PWR_CR3_L
  44              		.loc 1 324 3 view .LVU4
  45              		.loc 1 324 11 is_stmt 0 view .LVU5
  46 0004 224B     		ldr	r3, .L17
  47 0006 DB68     		ldr	r3, [r3, #12]
  48              		.loc 1 324 17 view .LVU6
  49 0008 03F00703 		and	r3, r3, #7
  50              		.loc 1 324 6 view .LVU7
  51 000c 062B     		cmp	r3, #6
  52 000e 07D0     		beq	.L2
 325:../../Drivers/STM32H7xx_HAL_Driver/Src/stm32h7xx_hal_pwr_ex.c **** #endif /* defined (PWR_FLAG_SCUEN) */
 326:../../Drivers/STM32H7xx_HAL_Driver/Src/stm32h7xx_hal_pwr_ex.c ****   {
 327:../../Drivers/STM32H7xx_HAL_Driver/Src/stm32h7xx_hal_pwr_ex.c ****     /* Check supply configuration */
 328:../../Drivers/STM32H7xx_HAL_Driver/Src/stm32h7xx_hal_pwr_ex.c ****     if ((PWR->CR3 & PWR_SUPPLY_CONFIG_MASK) != SupplySource)
  53              		.loc 1 328 5 is_stmt 1 view .LVU8
  54              		.loc 1 328 13 is_stmt 0 view .LVU9
  55 0010 1F4B     		ldr	r3, .L17
  56 0012 DB68     		ldr	r3, [r3, #12]
  57              		.loc 1 328 19 view .LVU10
  58 0014 03F03F03 		and	r3, r3, #63
  59              		.loc 1 328 8 view .LVU11
  60 0018 8342     		cmp	r3, r0
  61 001a 36D0     		beq	.L10
 329:../../Drivers/STM32H7xx_HAL_Driver/Src/stm32h7xx_hal_pwr_ex.c ****     {
 330:../../Drivers/STM32H7xx_HAL_Driver/Src/stm32h7xx_hal_pwr_ex.c ****       /* Supply configuration update locked, can't apply a new supply config */
 331:../../Drivers/STM32H7xx_HAL_Driver/Src/stm32h7xx_hal_pwr_ex.c ****       return HAL_ERROR;
  62              		.loc 1 331 14 view .LVU12
  63 001c 0120     		movs	r0, #1
  64              	.LVL1:
  65              	.L3:
 332:../../Drivers/STM32H7xx_HAL_Driver/Src/stm32h7xx_hal_pwr_ex.c ****     }
 333:../../Drivers/STM32H7xx_HAL_Driver/Src/stm32h7xx_hal_pwr_ex.c ****     else
 334:../../Drivers/STM32H7xx_HAL_Driver/Src/stm32h7xx_hal_pwr_ex.c ****     {
 335:../../Drivers/STM32H7xx_HAL_Driver/Src/stm32h7xx_hal_pwr_ex.c ****       /* Supply configuration update locked, but new supply configuration
ARM GAS  C:\Users\gigig\AppData\Local\Temp\ccXuJv1Z.s 			page 8


 336:../../Drivers/STM32H7xx_HAL_Driver/Src/stm32h7xx_hal_pwr_ex.c ****          matches with old supply configuration : nothing to do
 337:../../Drivers/STM32H7xx_HAL_Driver/Src/stm32h7xx_hal_pwr_ex.c ****       */
 338:../../Drivers/STM32H7xx_HAL_Driver/Src/stm32h7xx_hal_pwr_ex.c ****       return HAL_OK;
 339:../../Drivers/STM32H7xx_HAL_Driver/Src/stm32h7xx_hal_pwr_ex.c ****     }
 340:../../Drivers/STM32H7xx_HAL_Driver/Src/stm32h7xx_hal_pwr_ex.c ****   }
 341:../../Drivers/STM32H7xx_HAL_Driver/Src/stm32h7xx_hal_pwr_ex.c **** 
 342:../../Drivers/STM32H7xx_HAL_Driver/Src/stm32h7xx_hal_pwr_ex.c ****   /* Set the power supply configuration */
 343:../../Drivers/STM32H7xx_HAL_Driver/Src/stm32h7xx_hal_pwr_ex.c ****   MODIFY_REG (PWR->CR3, PWR_SUPPLY_CONFIG_MASK, SupplySource);
 344:../../Drivers/STM32H7xx_HAL_Driver/Src/stm32h7xx_hal_pwr_ex.c **** 
 345:../../Drivers/STM32H7xx_HAL_Driver/Src/stm32h7xx_hal_pwr_ex.c ****   /* Get tick */
 346:../../Drivers/STM32H7xx_HAL_Driver/Src/stm32h7xx_hal_pwr_ex.c ****   tickstart = HAL_GetTick ();
 347:../../Drivers/STM32H7xx_HAL_Driver/Src/stm32h7xx_hal_pwr_ex.c **** 
 348:../../Drivers/STM32H7xx_HAL_Driver/Src/stm32h7xx_hal_pwr_ex.c ****   /* Wait till voltage level flag is set */
 349:../../Drivers/STM32H7xx_HAL_Driver/Src/stm32h7xx_hal_pwr_ex.c ****   while (__HAL_PWR_GET_FLAG (PWR_FLAG_ACTVOSRDY) == 0U)
 350:../../Drivers/STM32H7xx_HAL_Driver/Src/stm32h7xx_hal_pwr_ex.c ****   {
 351:../../Drivers/STM32H7xx_HAL_Driver/Src/stm32h7xx_hal_pwr_ex.c ****     if ((HAL_GetTick () - tickstart) > PWR_FLAG_SETTING_DELAY)
 352:../../Drivers/STM32H7xx_HAL_Driver/Src/stm32h7xx_hal_pwr_ex.c ****     {
 353:../../Drivers/STM32H7xx_HAL_Driver/Src/stm32h7xx_hal_pwr_ex.c ****       return HAL_ERROR;
 354:../../Drivers/STM32H7xx_HAL_Driver/Src/stm32h7xx_hal_pwr_ex.c ****     }
 355:../../Drivers/STM32H7xx_HAL_Driver/Src/stm32h7xx_hal_pwr_ex.c ****   }
 356:../../Drivers/STM32H7xx_HAL_Driver/Src/stm32h7xx_hal_pwr_ex.c **** 
 357:../../Drivers/STM32H7xx_HAL_Driver/Src/stm32h7xx_hal_pwr_ex.c **** #if defined (SMPS)
 358:../../Drivers/STM32H7xx_HAL_Driver/Src/stm32h7xx_hal_pwr_ex.c ****   /* When the SMPS supplies external circuits verify that SDEXTRDY flag is set */
 359:../../Drivers/STM32H7xx_HAL_Driver/Src/stm32h7xx_hal_pwr_ex.c ****   if ((SupplySource == PWR_SMPS_1V8_SUPPLIES_EXT_AND_LDO) ||
 360:../../Drivers/STM32H7xx_HAL_Driver/Src/stm32h7xx_hal_pwr_ex.c ****       (SupplySource == PWR_SMPS_2V5_SUPPLIES_EXT_AND_LDO) ||
 361:../../Drivers/STM32H7xx_HAL_Driver/Src/stm32h7xx_hal_pwr_ex.c ****       (SupplySource == PWR_SMPS_1V8_SUPPLIES_EXT)         ||
 362:../../Drivers/STM32H7xx_HAL_Driver/Src/stm32h7xx_hal_pwr_ex.c ****       (SupplySource == PWR_SMPS_2V5_SUPPLIES_EXT))
 363:../../Drivers/STM32H7xx_HAL_Driver/Src/stm32h7xx_hal_pwr_ex.c ****   {
 364:../../Drivers/STM32H7xx_HAL_Driver/Src/stm32h7xx_hal_pwr_ex.c ****     /* Get the current tick number */
 365:../../Drivers/STM32H7xx_HAL_Driver/Src/stm32h7xx_hal_pwr_ex.c ****     tickstart = HAL_GetTick ();
 366:../../Drivers/STM32H7xx_HAL_Driver/Src/stm32h7xx_hal_pwr_ex.c **** 
 367:../../Drivers/STM32H7xx_HAL_Driver/Src/stm32h7xx_hal_pwr_ex.c ****     /* Wait till SMPS external supply ready flag is set */
 368:../../Drivers/STM32H7xx_HAL_Driver/Src/stm32h7xx_hal_pwr_ex.c ****     while (__HAL_PWR_GET_FLAG (PWR_FLAG_SMPSEXTRDY) == 0U)
 369:../../Drivers/STM32H7xx_HAL_Driver/Src/stm32h7xx_hal_pwr_ex.c ****     {
 370:../../Drivers/STM32H7xx_HAL_Driver/Src/stm32h7xx_hal_pwr_ex.c ****       if ((HAL_GetTick () - tickstart) > PWR_FLAG_SETTING_DELAY)
 371:../../Drivers/STM32H7xx_HAL_Driver/Src/stm32h7xx_hal_pwr_ex.c ****       {
 372:../../Drivers/STM32H7xx_HAL_Driver/Src/stm32h7xx_hal_pwr_ex.c ****         return HAL_ERROR;
 373:../../Drivers/STM32H7xx_HAL_Driver/Src/stm32h7xx_hal_pwr_ex.c ****       }
 374:../../Drivers/STM32H7xx_HAL_Driver/Src/stm32h7xx_hal_pwr_ex.c ****     }
 375:../../Drivers/STM32H7xx_HAL_Driver/Src/stm32h7xx_hal_pwr_ex.c ****   }
 376:../../Drivers/STM32H7xx_HAL_Driver/Src/stm32h7xx_hal_pwr_ex.c **** #endif /* defined (SMPS) */
 377:../../Drivers/STM32H7xx_HAL_Driver/Src/stm32h7xx_hal_pwr_ex.c **** 
 378:../../Drivers/STM32H7xx_HAL_Driver/Src/stm32h7xx_hal_pwr_ex.c ****   return HAL_OK;
 379:../../Drivers/STM32H7xx_HAL_Driver/Src/stm32h7xx_hal_pwr_ex.c **** }
  66              		.loc 1 379 1 view .LVU13
  67 001e 38BD     		pop	{r3, r4, r5, pc}
  68              	.LVL2:
  69              	.L2:
 343:../../Drivers/STM32H7xx_HAL_Driver/Src/stm32h7xx_hal_pwr_ex.c **** 
  70              		.loc 1 343 3 is_stmt 1 view .LVU14
  71 0020 1B4A     		ldr	r2, .L17
  72 0022 D368     		ldr	r3, [r2, #12]
  73 0024 23F03F03 		bic	r3, r3, #63
  74 0028 0343     		orrs	r3, r3, r0
  75 002a D360     		str	r3, [r2, #12]
 346:../../Drivers/STM32H7xx_HAL_Driver/Src/stm32h7xx_hal_pwr_ex.c **** 
  76              		.loc 1 346 3 view .LVU15
ARM GAS  C:\Users\gigig\AppData\Local\Temp\ccXuJv1Z.s 			page 9


 346:../../Drivers/STM32H7xx_HAL_Driver/Src/stm32h7xx_hal_pwr_ex.c **** 
  77              		.loc 1 346 15 is_stmt 0 view .LVU16
  78 002c FFF7FEFF 		bl	HAL_GetTick
  79              	.LVL3:
 346:../../Drivers/STM32H7xx_HAL_Driver/Src/stm32h7xx_hal_pwr_ex.c **** 
  80              		.loc 1 346 15 view .LVU17
  81 0030 0546     		mov	r5, r0
  82              	.LVL4:
 349:../../Drivers/STM32H7xx_HAL_Driver/Src/stm32h7xx_hal_pwr_ex.c ****   {
  83              		.loc 1 349 3 is_stmt 1 view .LVU18
  84              	.L4:
 349:../../Drivers/STM32H7xx_HAL_Driver/Src/stm32h7xx_hal_pwr_ex.c ****   {
  85              		.loc 1 349 50 view .LVU19
 349:../../Drivers/STM32H7xx_HAL_Driver/Src/stm32h7xx_hal_pwr_ex.c ****   {
  86              		.loc 1 349 10 is_stmt 0 view .LVU20
  87 0032 174B     		ldr	r3, .L17
  88 0034 5B68     		ldr	r3, [r3, #4]
 349:../../Drivers/STM32H7xx_HAL_Driver/Src/stm32h7xx_hal_pwr_ex.c ****   {
  89              		.loc 1 349 50 view .LVU21
  90 0036 13F4005F 		tst	r3, #8192
  91 003a 07D1     		bne	.L15
 351:../../Drivers/STM32H7xx_HAL_Driver/Src/stm32h7xx_hal_pwr_ex.c ****     {
  92              		.loc 1 351 5 is_stmt 1 view .LVU22
 351:../../Drivers/STM32H7xx_HAL_Driver/Src/stm32h7xx_hal_pwr_ex.c ****     {
  93              		.loc 1 351 10 is_stmt 0 view .LVU23
  94 003c FFF7FEFF 		bl	HAL_GetTick
  95              	.LVL5:
 351:../../Drivers/STM32H7xx_HAL_Driver/Src/stm32h7xx_hal_pwr_ex.c ****     {
  96              		.loc 1 351 25 view .LVU24
  97 0040 431B     		subs	r3, r0, r5
 351:../../Drivers/STM32H7xx_HAL_Driver/Src/stm32h7xx_hal_pwr_ex.c ****     {
  98              		.loc 1 351 8 view .LVU25
  99 0042 B3F57A7F 		cmp	r3, #1000
 100 0046 F4D9     		bls	.L4
 353:../../Drivers/STM32H7xx_HAL_Driver/Src/stm32h7xx_hal_pwr_ex.c ****     }
 101              		.loc 1 353 14 view .LVU26
 102 0048 0120     		movs	r0, #1
 103 004a E8E7     		b	.L3
 104              	.L15:
 359:../../Drivers/STM32H7xx_HAL_Driver/Src/stm32h7xx_hal_pwr_ex.c ****       (SupplySource == PWR_SMPS_2V5_SUPPLIES_EXT_AND_LDO) ||
 105              		.loc 1 359 3 is_stmt 1 view .LVU27
 359:../../Drivers/STM32H7xx_HAL_Driver/Src/stm32h7xx_hal_pwr_ex.c ****       (SupplySource == PWR_SMPS_2V5_SUPPLIES_EXT_AND_LDO) ||
 106              		.loc 1 359 6 is_stmt 0 view .LVU28
 107 004c 2E2C     		cmp	r4, #46
 108 004e 18BF     		it	ne
 109 0050 1E2C     		cmpne	r4, #30
 110 0052 08D0     		beq	.L6
 362:../../Drivers/STM32H7xx_HAL_Driver/Src/stm32h7xx_hal_pwr_ex.c ****   {
 111              		.loc 1 362 21 view .LVU29
 112 0054 2D2C     		cmp	r4, #45
 113 0056 14BF     		ite	ne
 114 0058 0023     		movne	r3, #0
 115 005a 0123     		moveq	r3, #1
 361:../../Drivers/STM32H7xx_HAL_Driver/Src/stm32h7xx_hal_pwr_ex.c ****       (SupplySource == PWR_SMPS_2V5_SUPPLIES_EXT))
 116              		.loc 1 361 59 view .LVU30
 117 005c 1D2C     		cmp	r4, #29
 118 005e 02D0     		beq	.L6
ARM GAS  C:\Users\gigig\AppData\Local\Temp\ccXuJv1Z.s 			page 10


 119 0060 0BB9     		cbnz	r3, .L6
 378:../../Drivers/STM32H7xx_HAL_Driver/Src/stm32h7xx_hal_pwr_ex.c **** }
 120              		.loc 1 378 10 view .LVU31
 121 0062 0020     		movs	r0, #0
 122 0064 DBE7     		b	.L3
 123              	.L6:
 365:../../Drivers/STM32H7xx_HAL_Driver/Src/stm32h7xx_hal_pwr_ex.c **** 
 124              		.loc 1 365 5 is_stmt 1 view .LVU32
 365:../../Drivers/STM32H7xx_HAL_Driver/Src/stm32h7xx_hal_pwr_ex.c **** 
 125              		.loc 1 365 17 is_stmt 0 view .LVU33
 126 0066 FFF7FEFF 		bl	HAL_GetTick
 127              	.LVL6:
 128 006a 0446     		mov	r4, r0
 129              	.LVL7:
 368:../../Drivers/STM32H7xx_HAL_Driver/Src/stm32h7xx_hal_pwr_ex.c ****     {
 130              		.loc 1 368 5 is_stmt 1 view .LVU34
 131              	.L8:
 368:../../Drivers/STM32H7xx_HAL_Driver/Src/stm32h7xx_hal_pwr_ex.c ****     {
 132              		.loc 1 368 53 view .LVU35
 368:../../Drivers/STM32H7xx_HAL_Driver/Src/stm32h7xx_hal_pwr_ex.c ****     {
 133              		.loc 1 368 12 is_stmt 0 view .LVU36
 134 006c 084B     		ldr	r3, .L17
 135 006e DB68     		ldr	r3, [r3, #12]
 368:../../Drivers/STM32H7xx_HAL_Driver/Src/stm32h7xx_hal_pwr_ex.c ****     {
 136              		.loc 1 368 53 view .LVU37
 137 0070 13F4803F 		tst	r3, #65536
 138 0074 07D1     		bne	.L16
 370:../../Drivers/STM32H7xx_HAL_Driver/Src/stm32h7xx_hal_pwr_ex.c ****       {
 139              		.loc 1 370 7 is_stmt 1 view .LVU38
 370:../../Drivers/STM32H7xx_HAL_Driver/Src/stm32h7xx_hal_pwr_ex.c ****       {
 140              		.loc 1 370 12 is_stmt 0 view .LVU39
 141 0076 FFF7FEFF 		bl	HAL_GetTick
 142              	.LVL8:
 370:../../Drivers/STM32H7xx_HAL_Driver/Src/stm32h7xx_hal_pwr_ex.c ****       {
 143              		.loc 1 370 27 view .LVU40
 144 007a 001B     		subs	r0, r0, r4
 370:../../Drivers/STM32H7xx_HAL_Driver/Src/stm32h7xx_hal_pwr_ex.c ****       {
 145              		.loc 1 370 10 view .LVU41
 146 007c B0F57A7F 		cmp	r0, #1000
 147 0080 F4D9     		bls	.L8
 372:../../Drivers/STM32H7xx_HAL_Driver/Src/stm32h7xx_hal_pwr_ex.c ****       }
 148              		.loc 1 372 16 view .LVU42
 149 0082 0120     		movs	r0, #1
 150 0084 CBE7     		b	.L3
 151              	.L16:
 378:../../Drivers/STM32H7xx_HAL_Driver/Src/stm32h7xx_hal_pwr_ex.c **** }
 152              		.loc 1 378 10 view .LVU43
 153 0086 0020     		movs	r0, #0
 154 0088 C9E7     		b	.L3
 155              	.LVL9:
 156              	.L10:
 338:../../Drivers/STM32H7xx_HAL_Driver/Src/stm32h7xx_hal_pwr_ex.c ****     }
 157              		.loc 1 338 14 view .LVU44
 158 008a 0020     		movs	r0, #0
 159              	.LVL10:
 338:../../Drivers/STM32H7xx_HAL_Driver/Src/stm32h7xx_hal_pwr_ex.c ****     }
 160              		.loc 1 338 14 view .LVU45
ARM GAS  C:\Users\gigig\AppData\Local\Temp\ccXuJv1Z.s 			page 11


 161 008c C7E7     		b	.L3
 162              	.L18:
 163 008e 00BF     		.align	2
 164              	.L17:
 165 0090 00480258 		.word	1476544512
 166              		.cfi_endproc
 167              	.LFE144:
 169              		.section	.text.HAL_PWREx_GetSupplyConfig,"ax",%progbits
 170              		.align	1
 171              		.global	HAL_PWREx_GetSupplyConfig
 172              		.syntax unified
 173              		.thumb
 174              		.thumb_func
 176              	HAL_PWREx_GetSupplyConfig:
 177              	.LFB145:
 380:../../Drivers/STM32H7xx_HAL_Driver/Src/stm32h7xx_hal_pwr_ex.c **** 
 381:../../Drivers/STM32H7xx_HAL_Driver/Src/stm32h7xx_hal_pwr_ex.c **** /**
 382:../../Drivers/STM32H7xx_HAL_Driver/Src/stm32h7xx_hal_pwr_ex.c ****   * @brief Get the power supply configuration.
 383:../../Drivers/STM32H7xx_HAL_Driver/Src/stm32h7xx_hal_pwr_ex.c ****   * @retval The supply configuration.
 384:../../Drivers/STM32H7xx_HAL_Driver/Src/stm32h7xx_hal_pwr_ex.c ****   */
 385:../../Drivers/STM32H7xx_HAL_Driver/Src/stm32h7xx_hal_pwr_ex.c **** uint32_t HAL_PWREx_GetSupplyConfig (void)
 386:../../Drivers/STM32H7xx_HAL_Driver/Src/stm32h7xx_hal_pwr_ex.c **** {
 178              		.loc 1 386 1 is_stmt 1 view -0
 179              		.cfi_startproc
 180              		@ args = 0, pretend = 0, frame = 0
 181              		@ frame_needed = 0, uses_anonymous_args = 0
 182              		@ link register save eliminated.
 387:../../Drivers/STM32H7xx_HAL_Driver/Src/stm32h7xx_hal_pwr_ex.c ****   return (PWR->CR3 & PWR_SUPPLY_CONFIG_MASK);
 183              		.loc 1 387 3 view .LVU47
 184              		.loc 1 387 14 is_stmt 0 view .LVU48
 185 0000 024B     		ldr	r3, .L20
 186 0002 D868     		ldr	r0, [r3, #12]
 388:../../Drivers/STM32H7xx_HAL_Driver/Src/stm32h7xx_hal_pwr_ex.c **** }
 187              		.loc 1 388 1 view .LVU49
 188 0004 00F03F00 		and	r0, r0, #63
 189 0008 7047     		bx	lr
 190              	.L21:
 191 000a 00BF     		.align	2
 192              	.L20:
 193 000c 00480258 		.word	1476544512
 194              		.cfi_endproc
 195              	.LFE145:
 197              		.section	.text.HAL_PWREx_ControlVoltageScaling,"ax",%progbits
 198              		.align	1
 199              		.global	HAL_PWREx_ControlVoltageScaling
 200              		.syntax unified
 201              		.thumb
 202              		.thumb_func
 204              	HAL_PWREx_ControlVoltageScaling:
 205              	.LVL11:
 206              	.LFB146:
 389:../../Drivers/STM32H7xx_HAL_Driver/Src/stm32h7xx_hal_pwr_ex.c **** 
 390:../../Drivers/STM32H7xx_HAL_Driver/Src/stm32h7xx_hal_pwr_ex.c **** /**
 391:../../Drivers/STM32H7xx_HAL_Driver/Src/stm32h7xx_hal_pwr_ex.c ****   * @brief Configure the main internal regulator output voltage.
 392:../../Drivers/STM32H7xx_HAL_Driver/Src/stm32h7xx_hal_pwr_ex.c ****   * @param  VoltageScaling : Specifies the regulator output voltage to achieve
 393:../../Drivers/STM32H7xx_HAL_Driver/Src/stm32h7xx_hal_pwr_ex.c ****   *                          a tradeoff between performance and power
 394:../../Drivers/STM32H7xx_HAL_Driver/Src/stm32h7xx_hal_pwr_ex.c ****   *                          consumption.
ARM GAS  C:\Users\gigig\AppData\Local\Temp\ccXuJv1Z.s 			page 12


 395:../../Drivers/STM32H7xx_HAL_Driver/Src/stm32h7xx_hal_pwr_ex.c ****   *          This parameter can be one of the following values :
 396:../../Drivers/STM32H7xx_HAL_Driver/Src/stm32h7xx_hal_pwr_ex.c ****   *            @arg PWR_REGULATOR_VOLTAGE_SCALE0 : Regulator voltage output
 397:../../Drivers/STM32H7xx_HAL_Driver/Src/stm32h7xx_hal_pwr_ex.c ****   *                                                Scale 0 mode.
 398:../../Drivers/STM32H7xx_HAL_Driver/Src/stm32h7xx_hal_pwr_ex.c ****   *            @arg PWR_REGULATOR_VOLTAGE_SCALE1 : Regulator voltage output
 399:../../Drivers/STM32H7xx_HAL_Driver/Src/stm32h7xx_hal_pwr_ex.c ****   *                                                range 1 mode.
 400:../../Drivers/STM32H7xx_HAL_Driver/Src/stm32h7xx_hal_pwr_ex.c ****   *            @arg PWR_REGULATOR_VOLTAGE_SCALE2 : Regulator voltage output
 401:../../Drivers/STM32H7xx_HAL_Driver/Src/stm32h7xx_hal_pwr_ex.c ****   *                                                range 2 mode.
 402:../../Drivers/STM32H7xx_HAL_Driver/Src/stm32h7xx_hal_pwr_ex.c ****   *            @arg PWR_REGULATOR_VOLTAGE_SCALE3 : Regulator voltage output
 403:../../Drivers/STM32H7xx_HAL_Driver/Src/stm32h7xx_hal_pwr_ex.c ****   *                                                range 3 mode.
 404:../../Drivers/STM32H7xx_HAL_Driver/Src/stm32h7xx_hal_pwr_ex.c ****   * @note   For STM32H74x and STM32H75x lines, configuring Voltage Scale 0 is
 405:../../Drivers/STM32H7xx_HAL_Driver/Src/stm32h7xx_hal_pwr_ex.c ****   *         only possible when Vcore is supplied from LDO (Low DropOut). The
 406:../../Drivers/STM32H7xx_HAL_Driver/Src/stm32h7xx_hal_pwr_ex.c ****   *         SYSCFG Clock must be enabled through __HAL_RCC_SYSCFG_CLK_ENABLE()
 407:../../Drivers/STM32H7xx_HAL_Driver/Src/stm32h7xx_hal_pwr_ex.c ****   *         macro before configuring Voltage Scale 0.
 408:../../Drivers/STM32H7xx_HAL_Driver/Src/stm32h7xx_hal_pwr_ex.c ****   *         To enter low power mode , and if current regulator voltage is
 409:../../Drivers/STM32H7xx_HAL_Driver/Src/stm32h7xx_hal_pwr_ex.c ****   *         Voltage Scale 0 then first switch to Voltage Scale 1 before entering
 410:../../Drivers/STM32H7xx_HAL_Driver/Src/stm32h7xx_hal_pwr_ex.c ****   *         low power mode.
 411:../../Drivers/STM32H7xx_HAL_Driver/Src/stm32h7xx_hal_pwr_ex.c ****   * @retval HAL Status
 412:../../Drivers/STM32H7xx_HAL_Driver/Src/stm32h7xx_hal_pwr_ex.c ****   */
 413:../../Drivers/STM32H7xx_HAL_Driver/Src/stm32h7xx_hal_pwr_ex.c **** HAL_StatusTypeDef HAL_PWREx_ControlVoltageScaling (uint32_t VoltageScaling)
 414:../../Drivers/STM32H7xx_HAL_Driver/Src/stm32h7xx_hal_pwr_ex.c **** {
 207              		.loc 1 414 1 is_stmt 1 view -0
 208              		.cfi_startproc
 209              		@ args = 0, pretend = 0, frame = 0
 210              		@ frame_needed = 0, uses_anonymous_args = 0
 211              		.loc 1 414 1 is_stmt 0 view .LVU51
 212 0000 38B5     		push	{r3, r4, r5, lr}
 213              	.LCFI1:
 214              		.cfi_def_cfa_offset 16
 215              		.cfi_offset 3, -16
 216              		.cfi_offset 4, -12
 217              		.cfi_offset 5, -8
 218              		.cfi_offset 14, -4
 415:../../Drivers/STM32H7xx_HAL_Driver/Src/stm32h7xx_hal_pwr_ex.c ****   uint32_t tickstart;
 219              		.loc 1 415 3 is_stmt 1 view .LVU52
 416:../../Drivers/STM32H7xx_HAL_Driver/Src/stm32h7xx_hal_pwr_ex.c **** 
 417:../../Drivers/STM32H7xx_HAL_Driver/Src/stm32h7xx_hal_pwr_ex.c ****   /* Check the parameters */
 418:../../Drivers/STM32H7xx_HAL_Driver/Src/stm32h7xx_hal_pwr_ex.c ****   assert_param (IS_PWR_REGULATOR_VOLTAGE (VoltageScaling));
 220              		.loc 1 418 3 view .LVU53
 419:../../Drivers/STM32H7xx_HAL_Driver/Src/stm32h7xx_hal_pwr_ex.c **** 
 420:../../Drivers/STM32H7xx_HAL_Driver/Src/stm32h7xx_hal_pwr_ex.c ****   /* Get the voltage scaling  */
 421:../../Drivers/STM32H7xx_HAL_Driver/Src/stm32h7xx_hal_pwr_ex.c ****   if ((PWR->CSR1 & PWR_CSR1_ACTVOS) == VoltageScaling)
 221              		.loc 1 421 3 view .LVU54
 222              		.loc 1 421 11 is_stmt 0 view .LVU55
 223 0002 324B     		ldr	r3, .L43
 224 0004 5B68     		ldr	r3, [r3, #4]
 225              		.loc 1 421 18 view .LVU56
 226 0006 03F44043 		and	r3, r3, #49152
 227              		.loc 1 421 6 view .LVU57
 228 000a 8342     		cmp	r3, r0
 229 000c 5CD0     		beq	.L33
 230 000e 0446     		mov	r4, r0
 422:../../Drivers/STM32H7xx_HAL_Driver/Src/stm32h7xx_hal_pwr_ex.c ****   {
 423:../../Drivers/STM32H7xx_HAL_Driver/Src/stm32h7xx_hal_pwr_ex.c ****     /* Old and new voltage scaling configuration match : nothing to do */
 424:../../Drivers/STM32H7xx_HAL_Driver/Src/stm32h7xx_hal_pwr_ex.c ****     return HAL_OK;
 425:../../Drivers/STM32H7xx_HAL_Driver/Src/stm32h7xx_hal_pwr_ex.c ****   }
 426:../../Drivers/STM32H7xx_HAL_Driver/Src/stm32h7xx_hal_pwr_ex.c **** 
 427:../../Drivers/STM32H7xx_HAL_Driver/Src/stm32h7xx_hal_pwr_ex.c **** #if defined (PWR_SRDCR_VOS)
ARM GAS  C:\Users\gigig\AppData\Local\Temp\ccXuJv1Z.s 			page 13


 428:../../Drivers/STM32H7xx_HAL_Driver/Src/stm32h7xx_hal_pwr_ex.c ****   /* Set the voltage range */
 429:../../Drivers/STM32H7xx_HAL_Driver/Src/stm32h7xx_hal_pwr_ex.c ****   MODIFY_REG (PWR->SRDCR, PWR_SRDCR_VOS, VoltageScaling);
 430:../../Drivers/STM32H7xx_HAL_Driver/Src/stm32h7xx_hal_pwr_ex.c **** #else
 431:../../Drivers/STM32H7xx_HAL_Driver/Src/stm32h7xx_hal_pwr_ex.c **** #if defined(SYSCFG_PWRCR_ODEN) /* STM32H74xxx and STM32H75xxx lines */
 432:../../Drivers/STM32H7xx_HAL_Driver/Src/stm32h7xx_hal_pwr_ex.c ****   if (VoltageScaling == PWR_REGULATOR_VOLTAGE_SCALE0)
 231              		.loc 1 432 3 is_stmt 1 view .LVU58
 232              		.loc 1 432 6 is_stmt 0 view .LVU59
 233 0010 08BB     		cbnz	r0, .L24
 433:../../Drivers/STM32H7xx_HAL_Driver/Src/stm32h7xx_hal_pwr_ex.c ****   {
 434:../../Drivers/STM32H7xx_HAL_Driver/Src/stm32h7xx_hal_pwr_ex.c ****     if ((PWR->CR3 & PWR_CR3_LDOEN) == PWR_CR3_LDOEN)
 234              		.loc 1 434 5 is_stmt 1 view .LVU60
 235              		.loc 1 434 13 is_stmt 0 view .LVU61
 236 0012 2E4B     		ldr	r3, .L43
 237 0014 DB68     		ldr	r3, [r3, #12]
 238              		.loc 1 434 8 view .LVU62
 239 0016 13F0020F 		tst	r3, #2
 240 001a 01D1     		bne	.L39
 435:../../Drivers/STM32H7xx_HAL_Driver/Src/stm32h7xx_hal_pwr_ex.c ****     {
 436:../../Drivers/STM32H7xx_HAL_Driver/Src/stm32h7xx_hal_pwr_ex.c ****       /* Set the voltage range */
 437:../../Drivers/STM32H7xx_HAL_Driver/Src/stm32h7xx_hal_pwr_ex.c ****       MODIFY_REG (PWR->D3CR, PWR_D3CR_VOS, PWR_REGULATOR_VOLTAGE_SCALE1);
 438:../../Drivers/STM32H7xx_HAL_Driver/Src/stm32h7xx_hal_pwr_ex.c **** 
 439:../../Drivers/STM32H7xx_HAL_Driver/Src/stm32h7xx_hal_pwr_ex.c ****       /* Get tick */
 440:../../Drivers/STM32H7xx_HAL_Driver/Src/stm32h7xx_hal_pwr_ex.c ****       tickstart = HAL_GetTick ();
 441:../../Drivers/STM32H7xx_HAL_Driver/Src/stm32h7xx_hal_pwr_ex.c **** 
 442:../../Drivers/STM32H7xx_HAL_Driver/Src/stm32h7xx_hal_pwr_ex.c ****       /* Wait till voltage level flag is set */
 443:../../Drivers/STM32H7xx_HAL_Driver/Src/stm32h7xx_hal_pwr_ex.c ****       while (__HAL_PWR_GET_FLAG (PWR_FLAG_ACTVOSRDY) == 0U)
 444:../../Drivers/STM32H7xx_HAL_Driver/Src/stm32h7xx_hal_pwr_ex.c ****       {
 445:../../Drivers/STM32H7xx_HAL_Driver/Src/stm32h7xx_hal_pwr_ex.c ****         if ((HAL_GetTick () - tickstart) > PWR_FLAG_SETTING_DELAY)
 446:../../Drivers/STM32H7xx_HAL_Driver/Src/stm32h7xx_hal_pwr_ex.c ****         {
 447:../../Drivers/STM32H7xx_HAL_Driver/Src/stm32h7xx_hal_pwr_ex.c ****           return HAL_ERROR;
 448:../../Drivers/STM32H7xx_HAL_Driver/Src/stm32h7xx_hal_pwr_ex.c ****         }
 449:../../Drivers/STM32H7xx_HAL_Driver/Src/stm32h7xx_hal_pwr_ex.c ****       }
 450:../../Drivers/STM32H7xx_HAL_Driver/Src/stm32h7xx_hal_pwr_ex.c **** 
 451:../../Drivers/STM32H7xx_HAL_Driver/Src/stm32h7xx_hal_pwr_ex.c ****       /* Enable the PWR overdrive */
 452:../../Drivers/STM32H7xx_HAL_Driver/Src/stm32h7xx_hal_pwr_ex.c ****       SET_BIT (SYSCFG->PWRCR, SYSCFG_PWRCR_ODEN);
 453:../../Drivers/STM32H7xx_HAL_Driver/Src/stm32h7xx_hal_pwr_ex.c ****     }
 454:../../Drivers/STM32H7xx_HAL_Driver/Src/stm32h7xx_hal_pwr_ex.c ****     else
 455:../../Drivers/STM32H7xx_HAL_Driver/Src/stm32h7xx_hal_pwr_ex.c ****     {
 456:../../Drivers/STM32H7xx_HAL_Driver/Src/stm32h7xx_hal_pwr_ex.c ****       /* The voltage scale 0 is only possible when LDO regulator is enabled */
 457:../../Drivers/STM32H7xx_HAL_Driver/Src/stm32h7xx_hal_pwr_ex.c ****       return HAL_ERROR;
 241              		.loc 1 457 14 view .LVU63
 242 001c 0120     		movs	r0, #1
 243              	.LVL12:
 244              		.loc 1 457 14 view .LVU64
 245 001e 52E0     		b	.L23
 246              	.LVL13:
 247              	.L39:
 437:../../Drivers/STM32H7xx_HAL_Driver/Src/stm32h7xx_hal_pwr_ex.c **** 
 248              		.loc 1 437 7 is_stmt 1 view .LVU65
 249 0020 2A4A     		ldr	r2, .L43
 250 0022 9369     		ldr	r3, [r2, #24]
 251 0024 43F44043 		orr	r3, r3, #49152
 252 0028 9361     		str	r3, [r2, #24]
 440:../../Drivers/STM32H7xx_HAL_Driver/Src/stm32h7xx_hal_pwr_ex.c **** 
 253              		.loc 1 440 7 view .LVU66
 440:../../Drivers/STM32H7xx_HAL_Driver/Src/stm32h7xx_hal_pwr_ex.c **** 
 254              		.loc 1 440 19 is_stmt 0 view .LVU67
ARM GAS  C:\Users\gigig\AppData\Local\Temp\ccXuJv1Z.s 			page 14


 255 002a FFF7FEFF 		bl	HAL_GetTick
 256              	.LVL14:
 440:../../Drivers/STM32H7xx_HAL_Driver/Src/stm32h7xx_hal_pwr_ex.c **** 
 257              		.loc 1 440 19 view .LVU68
 258 002e 0446     		mov	r4, r0
 259              	.LVL15:
 443:../../Drivers/STM32H7xx_HAL_Driver/Src/stm32h7xx_hal_pwr_ex.c ****       {
 260              		.loc 1 443 7 is_stmt 1 view .LVU69
 261              	.L25:
 443:../../Drivers/STM32H7xx_HAL_Driver/Src/stm32h7xx_hal_pwr_ex.c ****       {
 262              		.loc 1 443 54 view .LVU70
 443:../../Drivers/STM32H7xx_HAL_Driver/Src/stm32h7xx_hal_pwr_ex.c ****       {
 263              		.loc 1 443 14 is_stmt 0 view .LVU71
 264 0030 264B     		ldr	r3, .L43
 265 0032 5B68     		ldr	r3, [r3, #4]
 443:../../Drivers/STM32H7xx_HAL_Driver/Src/stm32h7xx_hal_pwr_ex.c ****       {
 266              		.loc 1 443 54 view .LVU72
 267 0034 13F4005F 		tst	r3, #8192
 268 0038 07D1     		bne	.L40
 445:../../Drivers/STM32H7xx_HAL_Driver/Src/stm32h7xx_hal_pwr_ex.c ****         {
 269              		.loc 1 445 9 is_stmt 1 view .LVU73
 445:../../Drivers/STM32H7xx_HAL_Driver/Src/stm32h7xx_hal_pwr_ex.c ****         {
 270              		.loc 1 445 14 is_stmt 0 view .LVU74
 271 003a FFF7FEFF 		bl	HAL_GetTick
 272              	.LVL16:
 445:../../Drivers/STM32H7xx_HAL_Driver/Src/stm32h7xx_hal_pwr_ex.c ****         {
 273              		.loc 1 445 29 view .LVU75
 274 003e 001B     		subs	r0, r0, r4
 445:../../Drivers/STM32H7xx_HAL_Driver/Src/stm32h7xx_hal_pwr_ex.c ****         {
 275              		.loc 1 445 12 view .LVU76
 276 0040 B0F57A7F 		cmp	r0, #1000
 277 0044 F4D9     		bls	.L25
 447:../../Drivers/STM32H7xx_HAL_Driver/Src/stm32h7xx_hal_pwr_ex.c ****         }
 278              		.loc 1 447 18 view .LVU77
 279 0046 0120     		movs	r0, #1
 280 0048 3DE0     		b	.L23
 281              	.L40:
 452:../../Drivers/STM32H7xx_HAL_Driver/Src/stm32h7xx_hal_pwr_ex.c ****     }
 282              		.loc 1 452 7 is_stmt 1 view .LVU78
 283 004a 214A     		ldr	r2, .L43+4
 284 004c D36A     		ldr	r3, [r2, #44]
 285 004e 43F00103 		orr	r3, r3, #1
 286 0052 D362     		str	r3, [r2, #44]
 287 0054 0CE0     		b	.L27
 288              	.LVL17:
 289              	.L24:
 458:../../Drivers/STM32H7xx_HAL_Driver/Src/stm32h7xx_hal_pwr_ex.c ****     }
 459:../../Drivers/STM32H7xx_HAL_Driver/Src/stm32h7xx_hal_pwr_ex.c ****   }
 460:../../Drivers/STM32H7xx_HAL_Driver/Src/stm32h7xx_hal_pwr_ex.c ****   else
 461:../../Drivers/STM32H7xx_HAL_Driver/Src/stm32h7xx_hal_pwr_ex.c ****   {
 462:../../Drivers/STM32H7xx_HAL_Driver/Src/stm32h7xx_hal_pwr_ex.c ****     if ((PWR->CSR1 & PWR_CSR1_ACTVOS) == PWR_REGULATOR_VOLTAGE_SCALE1)
 290              		.loc 1 462 5 view .LVU79
 291              		.loc 1 462 13 is_stmt 0 view .LVU80
 292 0056 1D4B     		ldr	r3, .L43
 293 0058 5B68     		ldr	r3, [r3, #4]
 294              		.loc 1 462 20 view .LVU81
 295 005a 03F44043 		and	r3, r3, #49152
ARM GAS  C:\Users\gigig\AppData\Local\Temp\ccXuJv1Z.s 			page 15


 296              		.loc 1 462 8 view .LVU82
 297 005e B3F5404F 		cmp	r3, #49152
 298 0062 15D0     		beq	.L41
 299              	.LVL18:
 300              	.L28:
 463:../../Drivers/STM32H7xx_HAL_Driver/Src/stm32h7xx_hal_pwr_ex.c ****     {
 464:../../Drivers/STM32H7xx_HAL_Driver/Src/stm32h7xx_hal_pwr_ex.c ****       if ((SYSCFG->PWRCR & SYSCFG_PWRCR_ODEN) != 0U)
 465:../../Drivers/STM32H7xx_HAL_Driver/Src/stm32h7xx_hal_pwr_ex.c ****       {
 466:../../Drivers/STM32H7xx_HAL_Driver/Src/stm32h7xx_hal_pwr_ex.c ****         /* Disable the PWR overdrive */
 467:../../Drivers/STM32H7xx_HAL_Driver/Src/stm32h7xx_hal_pwr_ex.c ****         CLEAR_BIT(SYSCFG->PWRCR, SYSCFG_PWRCR_ODEN);
 468:../../Drivers/STM32H7xx_HAL_Driver/Src/stm32h7xx_hal_pwr_ex.c **** 
 469:../../Drivers/STM32H7xx_HAL_Driver/Src/stm32h7xx_hal_pwr_ex.c ****         /* Get tick */
 470:../../Drivers/STM32H7xx_HAL_Driver/Src/stm32h7xx_hal_pwr_ex.c ****         tickstart = HAL_GetTick ();
 471:../../Drivers/STM32H7xx_HAL_Driver/Src/stm32h7xx_hal_pwr_ex.c **** 
 472:../../Drivers/STM32H7xx_HAL_Driver/Src/stm32h7xx_hal_pwr_ex.c ****         /* Wait till voltage level flag is set */
 473:../../Drivers/STM32H7xx_HAL_Driver/Src/stm32h7xx_hal_pwr_ex.c ****         while (__HAL_PWR_GET_FLAG (PWR_FLAG_ACTVOSRDY) == 0U)
 474:../../Drivers/STM32H7xx_HAL_Driver/Src/stm32h7xx_hal_pwr_ex.c ****         {
 475:../../Drivers/STM32H7xx_HAL_Driver/Src/stm32h7xx_hal_pwr_ex.c ****           if ((HAL_GetTick () - tickstart) > PWR_FLAG_SETTING_DELAY)
 476:../../Drivers/STM32H7xx_HAL_Driver/Src/stm32h7xx_hal_pwr_ex.c ****           {
 477:../../Drivers/STM32H7xx_HAL_Driver/Src/stm32h7xx_hal_pwr_ex.c ****             return HAL_ERROR;
 478:../../Drivers/STM32H7xx_HAL_Driver/Src/stm32h7xx_hal_pwr_ex.c ****           }
 479:../../Drivers/STM32H7xx_HAL_Driver/Src/stm32h7xx_hal_pwr_ex.c ****         }
 480:../../Drivers/STM32H7xx_HAL_Driver/Src/stm32h7xx_hal_pwr_ex.c ****       }
 481:../../Drivers/STM32H7xx_HAL_Driver/Src/stm32h7xx_hal_pwr_ex.c ****     }
 482:../../Drivers/STM32H7xx_HAL_Driver/Src/stm32h7xx_hal_pwr_ex.c **** 
 483:../../Drivers/STM32H7xx_HAL_Driver/Src/stm32h7xx_hal_pwr_ex.c ****     /* Set the voltage range */
 484:../../Drivers/STM32H7xx_HAL_Driver/Src/stm32h7xx_hal_pwr_ex.c ****     MODIFY_REG (PWR->D3CR, PWR_D3CR_VOS, VoltageScaling);
 301              		.loc 1 484 5 is_stmt 1 view .LVU83
 302 0064 194A     		ldr	r2, .L43
 303 0066 9369     		ldr	r3, [r2, #24]
 304 0068 23F44043 		bic	r3, r3, #49152
 305 006c 2343     		orrs	r3, r3, r4
 306 006e 9361     		str	r3, [r2, #24]
 307              	.LVL19:
 308              	.L27:
 485:../../Drivers/STM32H7xx_HAL_Driver/Src/stm32h7xx_hal_pwr_ex.c ****   }
 486:../../Drivers/STM32H7xx_HAL_Driver/Src/stm32h7xx_hal_pwr_ex.c **** #else  /* STM32H72xxx and STM32H73xxx lines */
 487:../../Drivers/STM32H7xx_HAL_Driver/Src/stm32h7xx_hal_pwr_ex.c ****   /* Set the voltage range */
 488:../../Drivers/STM32H7xx_HAL_Driver/Src/stm32h7xx_hal_pwr_ex.c ****   MODIFY_REG(PWR->D3CR, PWR_D3CR_VOS, VoltageScaling);
 489:../../Drivers/STM32H7xx_HAL_Driver/Src/stm32h7xx_hal_pwr_ex.c **** #endif /* defined (SYSCFG_PWRCR_ODEN) */
 490:../../Drivers/STM32H7xx_HAL_Driver/Src/stm32h7xx_hal_pwr_ex.c **** #endif /* defined (PWR_SRDCR_VOS) */
 491:../../Drivers/STM32H7xx_HAL_Driver/Src/stm32h7xx_hal_pwr_ex.c **** 
 492:../../Drivers/STM32H7xx_HAL_Driver/Src/stm32h7xx_hal_pwr_ex.c ****   /* Get tick */
 493:../../Drivers/STM32H7xx_HAL_Driver/Src/stm32h7xx_hal_pwr_ex.c ****   tickstart = HAL_GetTick ();
 309              		.loc 1 493 3 view .LVU84
 310              		.loc 1 493 15 is_stmt 0 view .LVU85
 311 0070 FFF7FEFF 		bl	HAL_GetTick
 312              	.LVL20:
 313 0074 0446     		mov	r4, r0
 314              	.LVL21:
 494:../../Drivers/STM32H7xx_HAL_Driver/Src/stm32h7xx_hal_pwr_ex.c **** 
 495:../../Drivers/STM32H7xx_HAL_Driver/Src/stm32h7xx_hal_pwr_ex.c ****   /* Wait till voltage level flag is set */
 496:../../Drivers/STM32H7xx_HAL_Driver/Src/stm32h7xx_hal_pwr_ex.c ****   while (__HAL_PWR_GET_FLAG (PWR_FLAG_ACTVOSRDY) == 0U)
 315              		.loc 1 496 3 is_stmt 1 view .LVU86
 316              	.L31:
 317              		.loc 1 496 50 view .LVU87
 318              		.loc 1 496 10 is_stmt 0 view .LVU88
ARM GAS  C:\Users\gigig\AppData\Local\Temp\ccXuJv1Z.s 			page 16


 319 0076 154B     		ldr	r3, .L43
 320 0078 5B68     		ldr	r3, [r3, #4]
 321              		.loc 1 496 50 view .LVU89
 322 007a 13F4005F 		tst	r3, #8192
 323 007e 21D1     		bne	.L42
 497:../../Drivers/STM32H7xx_HAL_Driver/Src/stm32h7xx_hal_pwr_ex.c ****   {
 498:../../Drivers/STM32H7xx_HAL_Driver/Src/stm32h7xx_hal_pwr_ex.c ****     if ((HAL_GetTick() - tickstart) > PWR_FLAG_SETTING_DELAY)
 324              		.loc 1 498 5 is_stmt 1 view .LVU90
 325              		.loc 1 498 10 is_stmt 0 view .LVU91
 326 0080 FFF7FEFF 		bl	HAL_GetTick
 327              	.LVL22:
 328              		.loc 1 498 24 view .LVU92
 329 0084 001B     		subs	r0, r0, r4
 330              		.loc 1 498 8 view .LVU93
 331 0086 B0F57A7F 		cmp	r0, #1000
 332 008a F4D9     		bls	.L31
 499:../../Drivers/STM32H7xx_HAL_Driver/Src/stm32h7xx_hal_pwr_ex.c ****     {
 500:../../Drivers/STM32H7xx_HAL_Driver/Src/stm32h7xx_hal_pwr_ex.c ****       return HAL_ERROR;
 333              		.loc 1 500 14 view .LVU94
 334 008c 0120     		movs	r0, #1
 335 008e 1AE0     		b	.L23
 336              	.LVL23:
 337              	.L41:
 464:../../Drivers/STM32H7xx_HAL_Driver/Src/stm32h7xx_hal_pwr_ex.c ****       {
 338              		.loc 1 464 7 is_stmt 1 view .LVU95
 464:../../Drivers/STM32H7xx_HAL_Driver/Src/stm32h7xx_hal_pwr_ex.c ****       {
 339              		.loc 1 464 18 is_stmt 0 view .LVU96
 340 0090 0F4B     		ldr	r3, .L43+4
 341 0092 DB6A     		ldr	r3, [r3, #44]
 464:../../Drivers/STM32H7xx_HAL_Driver/Src/stm32h7xx_hal_pwr_ex.c ****       {
 342              		.loc 1 464 10 view .LVU97
 343 0094 13F0010F 		tst	r3, #1
 344 0098 E4D0     		beq	.L28
 467:../../Drivers/STM32H7xx_HAL_Driver/Src/stm32h7xx_hal_pwr_ex.c **** 
 345              		.loc 1 467 9 is_stmt 1 view .LVU98
 346 009a 0D4A     		ldr	r2, .L43+4
 347 009c D36A     		ldr	r3, [r2, #44]
 348 009e 23F00103 		bic	r3, r3, #1
 349 00a2 D362     		str	r3, [r2, #44]
 470:../../Drivers/STM32H7xx_HAL_Driver/Src/stm32h7xx_hal_pwr_ex.c **** 
 350              		.loc 1 470 9 view .LVU99
 470:../../Drivers/STM32H7xx_HAL_Driver/Src/stm32h7xx_hal_pwr_ex.c **** 
 351              		.loc 1 470 21 is_stmt 0 view .LVU100
 352 00a4 FFF7FEFF 		bl	HAL_GetTick
 353              	.LVL24:
 470:../../Drivers/STM32H7xx_HAL_Driver/Src/stm32h7xx_hal_pwr_ex.c **** 
 354              		.loc 1 470 21 view .LVU101
 355 00a8 0546     		mov	r5, r0
 356              	.LVL25:
 473:../../Drivers/STM32H7xx_HAL_Driver/Src/stm32h7xx_hal_pwr_ex.c ****         {
 357              		.loc 1 473 9 is_stmt 1 view .LVU102
 358              	.L29:
 473:../../Drivers/STM32H7xx_HAL_Driver/Src/stm32h7xx_hal_pwr_ex.c ****         {
 359              		.loc 1 473 56 view .LVU103
 473:../../Drivers/STM32H7xx_HAL_Driver/Src/stm32h7xx_hal_pwr_ex.c ****         {
 360              		.loc 1 473 16 is_stmt 0 view .LVU104
 361 00aa 084B     		ldr	r3, .L43
ARM GAS  C:\Users\gigig\AppData\Local\Temp\ccXuJv1Z.s 			page 17


 362 00ac 5B68     		ldr	r3, [r3, #4]
 473:../../Drivers/STM32H7xx_HAL_Driver/Src/stm32h7xx_hal_pwr_ex.c ****         {
 363              		.loc 1 473 56 view .LVU105
 364 00ae 13F4005F 		tst	r3, #8192
 365 00b2 D7D1     		bne	.L28
 475:../../Drivers/STM32H7xx_HAL_Driver/Src/stm32h7xx_hal_pwr_ex.c ****           {
 366              		.loc 1 475 11 is_stmt 1 view .LVU106
 475:../../Drivers/STM32H7xx_HAL_Driver/Src/stm32h7xx_hal_pwr_ex.c ****           {
 367              		.loc 1 475 16 is_stmt 0 view .LVU107
 368 00b4 FFF7FEFF 		bl	HAL_GetTick
 369              	.LVL26:
 475:../../Drivers/STM32H7xx_HAL_Driver/Src/stm32h7xx_hal_pwr_ex.c ****           {
 370              		.loc 1 475 31 view .LVU108
 371 00b8 401B     		subs	r0, r0, r5
 475:../../Drivers/STM32H7xx_HAL_Driver/Src/stm32h7xx_hal_pwr_ex.c ****           {
 372              		.loc 1 475 14 view .LVU109
 373 00ba B0F57A7F 		cmp	r0, #1000
 374 00be F4D9     		bls	.L29
 477:../../Drivers/STM32H7xx_HAL_Driver/Src/stm32h7xx_hal_pwr_ex.c ****           }
 375              		.loc 1 477 20 view .LVU110
 376 00c0 0120     		movs	r0, #1
 377 00c2 00E0     		b	.L23
 378              	.LVL27:
 379              	.L42:
 501:../../Drivers/STM32H7xx_HAL_Driver/Src/stm32h7xx_hal_pwr_ex.c ****     }
 502:../../Drivers/STM32H7xx_HAL_Driver/Src/stm32h7xx_hal_pwr_ex.c ****   }
 503:../../Drivers/STM32H7xx_HAL_Driver/Src/stm32h7xx_hal_pwr_ex.c **** 
 504:../../Drivers/STM32H7xx_HAL_Driver/Src/stm32h7xx_hal_pwr_ex.c ****   return HAL_OK;
 380              		.loc 1 504 10 view .LVU111
 381 00c4 0020     		movs	r0, #0
 382              	.LVL28:
 383              	.L23:
 505:../../Drivers/STM32H7xx_HAL_Driver/Src/stm32h7xx_hal_pwr_ex.c **** }
 384              		.loc 1 505 1 view .LVU112
 385 00c6 38BD     		pop	{r3, r4, r5, pc}
 386              	.LVL29:
 387              	.L33:
 424:../../Drivers/STM32H7xx_HAL_Driver/Src/stm32h7xx_hal_pwr_ex.c ****   }
 388              		.loc 1 424 12 view .LVU113
 389 00c8 0020     		movs	r0, #0
 390              	.LVL30:
 424:../../Drivers/STM32H7xx_HAL_Driver/Src/stm32h7xx_hal_pwr_ex.c ****   }
 391              		.loc 1 424 12 view .LVU114
 392 00ca FCE7     		b	.L23
 393              	.L44:
 394              		.align	2
 395              	.L43:
 396 00cc 00480258 		.word	1476544512
 397 00d0 00040058 		.word	1476396032
 398              		.cfi_endproc
 399              	.LFE146:
 401              		.section	.text.HAL_PWREx_GetVoltageRange,"ax",%progbits
 402              		.align	1
 403              		.global	HAL_PWREx_GetVoltageRange
 404              		.syntax unified
 405              		.thumb
 406              		.thumb_func
ARM GAS  C:\Users\gigig\AppData\Local\Temp\ccXuJv1Z.s 			page 18


 408              	HAL_PWREx_GetVoltageRange:
 409              	.LFB147:
 506:../../Drivers/STM32H7xx_HAL_Driver/Src/stm32h7xx_hal_pwr_ex.c **** 
 507:../../Drivers/STM32H7xx_HAL_Driver/Src/stm32h7xx_hal_pwr_ex.c **** /**
 508:../../Drivers/STM32H7xx_HAL_Driver/Src/stm32h7xx_hal_pwr_ex.c ****   * @brief Get the main internal regulator output voltage. Reflecting the last
 509:../../Drivers/STM32H7xx_HAL_Driver/Src/stm32h7xx_hal_pwr_ex.c ****   *        VOS value applied to the PMU.
 510:../../Drivers/STM32H7xx_HAL_Driver/Src/stm32h7xx_hal_pwr_ex.c ****   * @retval The current applied VOS selection.
 511:../../Drivers/STM32H7xx_HAL_Driver/Src/stm32h7xx_hal_pwr_ex.c ****   */
 512:../../Drivers/STM32H7xx_HAL_Driver/Src/stm32h7xx_hal_pwr_ex.c **** uint32_t HAL_PWREx_GetVoltageRange (void)
 513:../../Drivers/STM32H7xx_HAL_Driver/Src/stm32h7xx_hal_pwr_ex.c **** {
 410              		.loc 1 513 1 is_stmt 1 view -0
 411              		.cfi_startproc
 412              		@ args = 0, pretend = 0, frame = 0
 413              		@ frame_needed = 0, uses_anonymous_args = 0
 414              		@ link register save eliminated.
 514:../../Drivers/STM32H7xx_HAL_Driver/Src/stm32h7xx_hal_pwr_ex.c ****   /* Get the active voltage scaling */
 515:../../Drivers/STM32H7xx_HAL_Driver/Src/stm32h7xx_hal_pwr_ex.c ****   return (PWR->CSR1 & PWR_CSR1_ACTVOS);
 415              		.loc 1 515 3 view .LVU116
 416              		.loc 1 515 14 is_stmt 0 view .LVU117
 417 0000 024B     		ldr	r3, .L46
 418 0002 5868     		ldr	r0, [r3, #4]
 516:../../Drivers/STM32H7xx_HAL_Driver/Src/stm32h7xx_hal_pwr_ex.c **** }
 419              		.loc 1 516 1 view .LVU118
 420 0004 00F44040 		and	r0, r0, #49152
 421 0008 7047     		bx	lr
 422              	.L47:
 423 000a 00BF     		.align	2
 424              	.L46:
 425 000c 00480258 		.word	1476544512
 426              		.cfi_endproc
 427              	.LFE147:
 429              		.section	.text.HAL_PWREx_ControlStopModeVoltageScaling,"ax",%progbits
 430              		.align	1
 431              		.global	HAL_PWREx_ControlStopModeVoltageScaling
 432              		.syntax unified
 433              		.thumb
 434              		.thumb_func
 436              	HAL_PWREx_ControlStopModeVoltageScaling:
 437              	.LVL31:
 438              	.LFB148:
 517:../../Drivers/STM32H7xx_HAL_Driver/Src/stm32h7xx_hal_pwr_ex.c **** 
 518:../../Drivers/STM32H7xx_HAL_Driver/Src/stm32h7xx_hal_pwr_ex.c **** /**
 519:../../Drivers/STM32H7xx_HAL_Driver/Src/stm32h7xx_hal_pwr_ex.c ****   * @brief Configure the main internal regulator output voltage in STOP mode.
 520:../../Drivers/STM32H7xx_HAL_Driver/Src/stm32h7xx_hal_pwr_ex.c ****   * @param  VoltageScaling : Specifies the regulator output voltage when the
 521:../../Drivers/STM32H7xx_HAL_Driver/Src/stm32h7xx_hal_pwr_ex.c ****   *         system enters Stop mode to achieve a tradeoff between performance
 522:../../Drivers/STM32H7xx_HAL_Driver/Src/stm32h7xx_hal_pwr_ex.c ****   *         and power consumption.
 523:../../Drivers/STM32H7xx_HAL_Driver/Src/stm32h7xx_hal_pwr_ex.c ****   *          This parameter can be one of the following values:
 524:../../Drivers/STM32H7xx_HAL_Driver/Src/stm32h7xx_hal_pwr_ex.c ****   *            @arg PWR_REGULATOR_SVOS_SCALE3 : Regulator voltage output range
 525:../../Drivers/STM32H7xx_HAL_Driver/Src/stm32h7xx_hal_pwr_ex.c ****   *                                             3 mode.
 526:../../Drivers/STM32H7xx_HAL_Driver/Src/stm32h7xx_hal_pwr_ex.c ****   *            @arg PWR_REGULATOR_SVOS_SCALE4 : Regulator voltage output range
 527:../../Drivers/STM32H7xx_HAL_Driver/Src/stm32h7xx_hal_pwr_ex.c ****   *                                             4 mode.
 528:../../Drivers/STM32H7xx_HAL_Driver/Src/stm32h7xx_hal_pwr_ex.c ****   *            @arg PWR_REGULATOR_SVOS_SCALE5 : Regulator voltage output range
 529:../../Drivers/STM32H7xx_HAL_Driver/Src/stm32h7xx_hal_pwr_ex.c ****   *                                             5 mode.
 530:../../Drivers/STM32H7xx_HAL_Driver/Src/stm32h7xx_hal_pwr_ex.c ****   * @note   The Stop mode voltage scaling for SVOS4 and SVOS5 sets the voltage
 531:../../Drivers/STM32H7xx_HAL_Driver/Src/stm32h7xx_hal_pwr_ex.c ****   *         regulator in Low-power (LP) mode to further reduce power consumption.
 532:../../Drivers/STM32H7xx_HAL_Driver/Src/stm32h7xx_hal_pwr_ex.c ****   *         When preselecting SVOS3, the use of the voltage regulator low-power
 533:../../Drivers/STM32H7xx_HAL_Driver/Src/stm32h7xx_hal_pwr_ex.c ****   *         mode (LP) can be selected by LPDS register bit.
ARM GAS  C:\Users\gigig\AppData\Local\Temp\ccXuJv1Z.s 			page 19


 534:../../Drivers/STM32H7xx_HAL_Driver/Src/stm32h7xx_hal_pwr_ex.c ****   * @note   The selected SVOS4 and SVOS5 levels add an additional startup delay
 535:../../Drivers/STM32H7xx_HAL_Driver/Src/stm32h7xx_hal_pwr_ex.c ****   *         when exiting from system Stop mode.
 536:../../Drivers/STM32H7xx_HAL_Driver/Src/stm32h7xx_hal_pwr_ex.c ****   * @retval HAL Status.
 537:../../Drivers/STM32H7xx_HAL_Driver/Src/stm32h7xx_hal_pwr_ex.c ****   */
 538:../../Drivers/STM32H7xx_HAL_Driver/Src/stm32h7xx_hal_pwr_ex.c **** HAL_StatusTypeDef HAL_PWREx_ControlStopModeVoltageScaling (uint32_t VoltageScaling)
 539:../../Drivers/STM32H7xx_HAL_Driver/Src/stm32h7xx_hal_pwr_ex.c **** {
 439              		.loc 1 539 1 is_stmt 1 view -0
 440              		.cfi_startproc
 441              		@ args = 0, pretend = 0, frame = 0
 442              		@ frame_needed = 0, uses_anonymous_args = 0
 443              		@ link register save eliminated.
 540:../../Drivers/STM32H7xx_HAL_Driver/Src/stm32h7xx_hal_pwr_ex.c ****   /* Check the parameters */
 541:../../Drivers/STM32H7xx_HAL_Driver/Src/stm32h7xx_hal_pwr_ex.c ****   assert_param (IS_PWR_STOP_MODE_REGULATOR_VOLTAGE (VoltageScaling));
 444              		.loc 1 541 3 view .LVU120
 542:../../Drivers/STM32H7xx_HAL_Driver/Src/stm32h7xx_hal_pwr_ex.c **** 
 543:../../Drivers/STM32H7xx_HAL_Driver/Src/stm32h7xx_hal_pwr_ex.c ****   /* Return the stop mode voltage range */
 544:../../Drivers/STM32H7xx_HAL_Driver/Src/stm32h7xx_hal_pwr_ex.c ****   MODIFY_REG (PWR->CR1, PWR_CR1_SVOS, VoltageScaling);
 445              		.loc 1 544 3 view .LVU121
 446 0000 034A     		ldr	r2, .L49
 447 0002 1368     		ldr	r3, [r2]
 448 0004 23F44043 		bic	r3, r3, #49152
 449 0008 0343     		orrs	r3, r3, r0
 450 000a 1360     		str	r3, [r2]
 545:../../Drivers/STM32H7xx_HAL_Driver/Src/stm32h7xx_hal_pwr_ex.c **** 
 546:../../Drivers/STM32H7xx_HAL_Driver/Src/stm32h7xx_hal_pwr_ex.c ****   return HAL_OK;
 451              		.loc 1 546 3 view .LVU122
 547:../../Drivers/STM32H7xx_HAL_Driver/Src/stm32h7xx_hal_pwr_ex.c **** }
 452              		.loc 1 547 1 is_stmt 0 view .LVU123
 453 000c 0020     		movs	r0, #0
 454              	.LVL32:
 455              		.loc 1 547 1 view .LVU124
 456 000e 7047     		bx	lr
 457              	.L50:
 458              		.align	2
 459              	.L49:
 460 0010 00480258 		.word	1476544512
 461              		.cfi_endproc
 462              	.LFE148:
 464              		.section	.text.HAL_PWREx_GetStopModeVoltageRange,"ax",%progbits
 465              		.align	1
 466              		.global	HAL_PWREx_GetStopModeVoltageRange
 467              		.syntax unified
 468              		.thumb
 469              		.thumb_func
 471              	HAL_PWREx_GetStopModeVoltageRange:
 472              	.LFB149:
 548:../../Drivers/STM32H7xx_HAL_Driver/Src/stm32h7xx_hal_pwr_ex.c **** 
 549:../../Drivers/STM32H7xx_HAL_Driver/Src/stm32h7xx_hal_pwr_ex.c **** /**
 550:../../Drivers/STM32H7xx_HAL_Driver/Src/stm32h7xx_hal_pwr_ex.c ****   * @brief Get the main internal regulator output voltage in STOP mode.
 551:../../Drivers/STM32H7xx_HAL_Driver/Src/stm32h7xx_hal_pwr_ex.c ****   * @retval The actual applied VOS selection.
 552:../../Drivers/STM32H7xx_HAL_Driver/Src/stm32h7xx_hal_pwr_ex.c ****   */
 553:../../Drivers/STM32H7xx_HAL_Driver/Src/stm32h7xx_hal_pwr_ex.c **** uint32_t HAL_PWREx_GetStopModeVoltageRange (void)
 554:../../Drivers/STM32H7xx_HAL_Driver/Src/stm32h7xx_hal_pwr_ex.c **** {
 473              		.loc 1 554 1 is_stmt 1 view -0
 474              		.cfi_startproc
 475              		@ args = 0, pretend = 0, frame = 0
 476              		@ frame_needed = 0, uses_anonymous_args = 0
ARM GAS  C:\Users\gigig\AppData\Local\Temp\ccXuJv1Z.s 			page 20


 477              		@ link register save eliminated.
 555:../../Drivers/STM32H7xx_HAL_Driver/Src/stm32h7xx_hal_pwr_ex.c ****   /* Return the stop voltage scaling */
 556:../../Drivers/STM32H7xx_HAL_Driver/Src/stm32h7xx_hal_pwr_ex.c ****   return (PWR->CR1 & PWR_CR1_SVOS);
 478              		.loc 1 556 3 view .LVU126
 479              		.loc 1 556 14 is_stmt 0 view .LVU127
 480 0000 024B     		ldr	r3, .L52
 481 0002 1868     		ldr	r0, [r3]
 557:../../Drivers/STM32H7xx_HAL_Driver/Src/stm32h7xx_hal_pwr_ex.c **** }
 482              		.loc 1 557 1 view .LVU128
 483 0004 00F44040 		and	r0, r0, #49152
 484 0008 7047     		bx	lr
 485              	.L53:
 486 000a 00BF     		.align	2
 487              	.L52:
 488 000c 00480258 		.word	1476544512
 489              		.cfi_endproc
 490              	.LFE149:
 492              		.section	.text.HAL_PWREx_EnterSTOPMode,"ax",%progbits
 493              		.align	1
 494              		.global	HAL_PWREx_EnterSTOPMode
 495              		.syntax unified
 496              		.thumb
 497              		.thumb_func
 499              	HAL_PWREx_EnterSTOPMode:
 500              	.LVL33:
 501              	.LFB150:
 558:../../Drivers/STM32H7xx_HAL_Driver/Src/stm32h7xx_hal_pwr_ex.c **** /**
 559:../../Drivers/STM32H7xx_HAL_Driver/Src/stm32h7xx_hal_pwr_ex.c ****   * @}
 560:../../Drivers/STM32H7xx_HAL_Driver/Src/stm32h7xx_hal_pwr_ex.c ****   */
 561:../../Drivers/STM32H7xx_HAL_Driver/Src/stm32h7xx_hal_pwr_ex.c **** 
 562:../../Drivers/STM32H7xx_HAL_Driver/Src/stm32h7xx_hal_pwr_ex.c **** /** @defgroup PWREx_Exported_Functions_Group2 Low Power Control Functions
 563:../../Drivers/STM32H7xx_HAL_Driver/Src/stm32h7xx_hal_pwr_ex.c ****   * @brief    Low power control functions
 564:../../Drivers/STM32H7xx_HAL_Driver/Src/stm32h7xx_hal_pwr_ex.c ****   *
 565:../../Drivers/STM32H7xx_HAL_Driver/Src/stm32h7xx_hal_pwr_ex.c **** @verbatim
 566:../../Drivers/STM32H7xx_HAL_Driver/Src/stm32h7xx_hal_pwr_ex.c ****  ===============================================================================
 567:../../Drivers/STM32H7xx_HAL_Driver/Src/stm32h7xx_hal_pwr_ex.c ****                      ##### Low power control functions #####
 568:../../Drivers/STM32H7xx_HAL_Driver/Src/stm32h7xx_hal_pwr_ex.c ****  ===============================================================================
 569:../../Drivers/STM32H7xx_HAL_Driver/Src/stm32h7xx_hal_pwr_ex.c **** 
 570:../../Drivers/STM32H7xx_HAL_Driver/Src/stm32h7xx_hal_pwr_ex.c ****     *** Domains Low Power modes configuration ***
 571:../../Drivers/STM32H7xx_HAL_Driver/Src/stm32h7xx_hal_pwr_ex.c ****     =============================================
 572:../../Drivers/STM32H7xx_HAL_Driver/Src/stm32h7xx_hal_pwr_ex.c ****     [..]
 573:../../Drivers/STM32H7xx_HAL_Driver/Src/stm32h7xx_hal_pwr_ex.c ****       This section provides the extended low power mode control APIs.
 574:../../Drivers/STM32H7xx_HAL_Driver/Src/stm32h7xx_hal_pwr_ex.c ****       The system presents 3 principles domains (D1, D2 and D3) that can be
 575:../../Drivers/STM32H7xx_HAL_Driver/Src/stm32h7xx_hal_pwr_ex.c ****       operated in low-power modes (DSTOP or DSTANDBY mode):
 576:../../Drivers/STM32H7xx_HAL_Driver/Src/stm32h7xx_hal_pwr_ex.c **** 
 577:../../Drivers/STM32H7xx_HAL_Driver/Src/stm32h7xx_hal_pwr_ex.c ****       (+) DSTOP mode to enters a domain to STOP mode:
 578:../../Drivers/STM32H7xx_HAL_Driver/Src/stm32h7xx_hal_pwr_ex.c ****        (++) D1 domain and/or D2 domain enters DSTOP mode only when the CPU
 579:../../Drivers/STM32H7xx_HAL_Driver/Src/stm32h7xx_hal_pwr_ex.c ****             subsystem is in CSTOP mode and has allocated peripheral in the
 580:../../Drivers/STM32H7xx_HAL_Driver/Src/stm32h7xx_hal_pwr_ex.c ****             domain.
 581:../../Drivers/STM32H7xx_HAL_Driver/Src/stm32h7xx_hal_pwr_ex.c ****             In DSTOP mode the domain bus matrix clock is stopped.
 582:../../Drivers/STM32H7xx_HAL_Driver/Src/stm32h7xx_hal_pwr_ex.c ****        (++) The system enters STOP mode using one of the following scenarios:
 583:../../Drivers/STM32H7xx_HAL_Driver/Src/stm32h7xx_hal_pwr_ex.c ****         (+++) D1 domain enters DSTANDBY mode (powered off) and D2, D3 domains
 584:../../Drivers/STM32H7xx_HAL_Driver/Src/stm32h7xx_hal_pwr_ex.c ****               enter DSTOP mode.
 585:../../Drivers/STM32H7xx_HAL_Driver/Src/stm32h7xx_hal_pwr_ex.c ****         (+++) D2 domain enters DSTANDBY mode (powered off) and D1, D3 domains
 586:../../Drivers/STM32H7xx_HAL_Driver/Src/stm32h7xx_hal_pwr_ex.c ****               enter DSTOP mode.
 587:../../Drivers/STM32H7xx_HAL_Driver/Src/stm32h7xx_hal_pwr_ex.c ****         (+++) D3 domain enters DSTANDBY mode (powered off) and D1, D2 domains
 588:../../Drivers/STM32H7xx_HAL_Driver/Src/stm32h7xx_hal_pwr_ex.c ****               enter DSTOP mode.
ARM GAS  C:\Users\gigig\AppData\Local\Temp\ccXuJv1Z.s 			page 21


 589:../../Drivers/STM32H7xx_HAL_Driver/Src/stm32h7xx_hal_pwr_ex.c ****         (+++) D1 and D2 domains enter DSTANDBY mode (powered off) and D3 domain
 590:../../Drivers/STM32H7xx_HAL_Driver/Src/stm32h7xx_hal_pwr_ex.c ****               enters DSTOP mode.
 591:../../Drivers/STM32H7xx_HAL_Driver/Src/stm32h7xx_hal_pwr_ex.c ****         (+++) D1 and D3 domains enter DSTANDBY mode (powered off) and D2 domain
 592:../../Drivers/STM32H7xx_HAL_Driver/Src/stm32h7xx_hal_pwr_ex.c ****               enters DSTOP mode.
 593:../../Drivers/STM32H7xx_HAL_Driver/Src/stm32h7xx_hal_pwr_ex.c ****         (+++) D2 and D3 domains enter DSTANDBY mode (powered off) and D1 domain
 594:../../Drivers/STM32H7xx_HAL_Driver/Src/stm32h7xx_hal_pwr_ex.c ****               enters DSTOP mode.
 595:../../Drivers/STM32H7xx_HAL_Driver/Src/stm32h7xx_hal_pwr_ex.c ****         (+++) D1, D2 and D3 domains enter DSTOP mode.
 596:../../Drivers/STM32H7xx_HAL_Driver/Src/stm32h7xx_hal_pwr_ex.c ****        (++) When the system enters STOP mode, the clocks are stopped and the
 597:../../Drivers/STM32H7xx_HAL_Driver/Src/stm32h7xx_hal_pwr_ex.c ****             regulator is running in main or low power mode.
 598:../../Drivers/STM32H7xx_HAL_Driver/Src/stm32h7xx_hal_pwr_ex.c ****        (++) D3 domain can be kept in Run mode regardless of the CPU status when
 599:../../Drivers/STM32H7xx_HAL_Driver/Src/stm32h7xx_hal_pwr_ex.c ****             enter STOP mode by using HAL_PWREx_ConfigD3Domain(D3State) function.
 600:../../Drivers/STM32H7xx_HAL_Driver/Src/stm32h7xx_hal_pwr_ex.c **** 
 601:../../Drivers/STM32H7xx_HAL_Driver/Src/stm32h7xx_hal_pwr_ex.c ****       (+) DSTANDBY mode to enters a domain to STANDBY mode:
 602:../../Drivers/STM32H7xx_HAL_Driver/Src/stm32h7xx_hal_pwr_ex.c ****        (++) The DSTANDBY mode is entered when the PDDS_Dn bit in PWR CPU control
 603:../../Drivers/STM32H7xx_HAL_Driver/Src/stm32h7xx_hal_pwr_ex.c ****             register (PWR_CPUCR) for the Dn domain selects Standby mode.
 604:../../Drivers/STM32H7xx_HAL_Driver/Src/stm32h7xx_hal_pwr_ex.c ****        (++) The system enters STANDBY mode only when D1, D2 and D3 domains enter
 605:../../Drivers/STM32H7xx_HAL_Driver/Src/stm32h7xx_hal_pwr_ex.c ****             DSTANDBY mode. Consequently the VCORE supply regulator is powered
 606:../../Drivers/STM32H7xx_HAL_Driver/Src/stm32h7xx_hal_pwr_ex.c ****             off.
 607:../../Drivers/STM32H7xx_HAL_Driver/Src/stm32h7xx_hal_pwr_ex.c **** 
 608:../../Drivers/STM32H7xx_HAL_Driver/Src/stm32h7xx_hal_pwr_ex.c ****    *** DSTOP mode ***
 609:../../Drivers/STM32H7xx_HAL_Driver/Src/stm32h7xx_hal_pwr_ex.c ****    ==================
 610:../../Drivers/STM32H7xx_HAL_Driver/Src/stm32h7xx_hal_pwr_ex.c ****     [..]
 611:../../Drivers/STM32H7xx_HAL_Driver/Src/stm32h7xx_hal_pwr_ex.c ****       In DStop mode the domain bus matrix clock is stopped.
 612:../../Drivers/STM32H7xx_HAL_Driver/Src/stm32h7xx_hal_pwr_ex.c ****       The Flash memory can enter low-power Stop mode when it is enabled through
 613:../../Drivers/STM32H7xx_HAL_Driver/Src/stm32h7xx_hal_pwr_ex.c ****       FLPS in PWR_CR1 register. This allows a trade-off between domain DStop
 614:../../Drivers/STM32H7xx_HAL_Driver/Src/stm32h7xx_hal_pwr_ex.c ****       restart time and low power consumption.
 615:../../Drivers/STM32H7xx_HAL_Driver/Src/stm32h7xx_hal_pwr_ex.c ****     [..]
 616:../../Drivers/STM32H7xx_HAL_Driver/Src/stm32h7xx_hal_pwr_ex.c ****       In DStop mode domain peripherals using the LSI or LSE clock and
 617:../../Drivers/STM32H7xx_HAL_Driver/Src/stm32h7xx_hal_pwr_ex.c ****       peripherals having a kernel clock request are still able to operate.
 618:../../Drivers/STM32H7xx_HAL_Driver/Src/stm32h7xx_hal_pwr_ex.c ****     [..]
 619:../../Drivers/STM32H7xx_HAL_Driver/Src/stm32h7xx_hal_pwr_ex.c ****       Before entering DSTOP mode it is recommended to call SCB_CleanDCache
 620:../../Drivers/STM32H7xx_HAL_Driver/Src/stm32h7xx_hal_pwr_ex.c ****       function in order to clean the D-Cache and guarantee the data integrity
 621:../../Drivers/STM32H7xx_HAL_Driver/Src/stm32h7xx_hal_pwr_ex.c ****       for the SRAM memories.
 622:../../Drivers/STM32H7xx_HAL_Driver/Src/stm32h7xx_hal_pwr_ex.c **** 
 623:../../Drivers/STM32H7xx_HAL_Driver/Src/stm32h7xx_hal_pwr_ex.c ****       (+) Entry:
 624:../../Drivers/STM32H7xx_HAL_Driver/Src/stm32h7xx_hal_pwr_ex.c ****          The DSTOP mode is entered using the HAL_PWREx_EnterSTOPMode(Regulator,
 625:../../Drivers/STM32H7xx_HAL_Driver/Src/stm32h7xx_hal_pwr_ex.c ****          STOPEntry, Domain) function with:
 626:../../Drivers/STM32H7xx_HAL_Driver/Src/stm32h7xx_hal_pwr_ex.c ****          (++) Regulator:
 627:../../Drivers/STM32H7xx_HAL_Driver/Src/stm32h7xx_hal_pwr_ex.c ****           (+++) PWR_MAINREGULATOR_ON     : Main regulator ON.
 628:../../Drivers/STM32H7xx_HAL_Driver/Src/stm32h7xx_hal_pwr_ex.c ****           (+++) PWR_LOWPOWERREGULATOR_ON : Low Power regulator ON.
 629:../../Drivers/STM32H7xx_HAL_Driver/Src/stm32h7xx_hal_pwr_ex.c ****          (++) STOPEntry:
 630:../../Drivers/STM32H7xx_HAL_Driver/Src/stm32h7xx_hal_pwr_ex.c ****           (+++) PWR_STOPENTRY_WFI : enter STOP mode with WFI instruction
 631:../../Drivers/STM32H7xx_HAL_Driver/Src/stm32h7xx_hal_pwr_ex.c ****           (+++) PWR_STOPENTRY_WFE : enter STOP mode with WFE instruction
 632:../../Drivers/STM32H7xx_HAL_Driver/Src/stm32h7xx_hal_pwr_ex.c ****          (++) Domain:
 633:../../Drivers/STM32H7xx_HAL_Driver/Src/stm32h7xx_hal_pwr_ex.c ****           (+++) PWR_D1_DOMAIN : Enters D1/CD domain to DSTOP mode.
 634:../../Drivers/STM32H7xx_HAL_Driver/Src/stm32h7xx_hal_pwr_ex.c ****           (+++) PWR_D2_DOMAIN : Enters D2 domain to DSTOP mode.
 635:../../Drivers/STM32H7xx_HAL_Driver/Src/stm32h7xx_hal_pwr_ex.c ****           (+++) PWR_D3_DOMAIN : Enters D3/SRD domain to DSTOP mode.
 636:../../Drivers/STM32H7xx_HAL_Driver/Src/stm32h7xx_hal_pwr_ex.c **** 
 637:../../Drivers/STM32H7xx_HAL_Driver/Src/stm32h7xx_hal_pwr_ex.c ****       (+) Exit:
 638:../../Drivers/STM32H7xx_HAL_Driver/Src/stm32h7xx_hal_pwr_ex.c ****         Any EXTI Line (Internal or External) configured in Interrupt/Event mode.
 639:../../Drivers/STM32H7xx_HAL_Driver/Src/stm32h7xx_hal_pwr_ex.c **** 
 640:../../Drivers/STM32H7xx_HAL_Driver/Src/stm32h7xx_hal_pwr_ex.c ****    *** DSTANDBY mode ***
 641:../../Drivers/STM32H7xx_HAL_Driver/Src/stm32h7xx_hal_pwr_ex.c ****    =====================
 642:../../Drivers/STM32H7xx_HAL_Driver/Src/stm32h7xx_hal_pwr_ex.c ****     [..]
 643:../../Drivers/STM32H7xx_HAL_Driver/Src/stm32h7xx_hal_pwr_ex.c ****       In DStandby mode:
 644:../../Drivers/STM32H7xx_HAL_Driver/Src/stm32h7xx_hal_pwr_ex.c ****         (+) The domain bus matrix clock is stopped.
 645:../../Drivers/STM32H7xx_HAL_Driver/Src/stm32h7xx_hal_pwr_ex.c ****         (+) The domain is powered down and the domain RAM and register contents
ARM GAS  C:\Users\gigig\AppData\Local\Temp\ccXuJv1Z.s 			page 22


 646:../../Drivers/STM32H7xx_HAL_Driver/Src/stm32h7xx_hal_pwr_ex.c ****             are lost.
 647:../../Drivers/STM32H7xx_HAL_Driver/Src/stm32h7xx_hal_pwr_ex.c ****     [..]
 648:../../Drivers/STM32H7xx_HAL_Driver/Src/stm32h7xx_hal_pwr_ex.c ****       Before entering DSTANDBY mode it is recommended to call SCB_CleanDCache
 649:../../Drivers/STM32H7xx_HAL_Driver/Src/stm32h7xx_hal_pwr_ex.c ****       function in order to clean the D-Cache and guarantee the data integrity
 650:../../Drivers/STM32H7xx_HAL_Driver/Src/stm32h7xx_hal_pwr_ex.c ****       for the SRAM memories.
 651:../../Drivers/STM32H7xx_HAL_Driver/Src/stm32h7xx_hal_pwr_ex.c **** 
 652:../../Drivers/STM32H7xx_HAL_Driver/Src/stm32h7xx_hal_pwr_ex.c ****       (+) Entry:
 653:../../Drivers/STM32H7xx_HAL_Driver/Src/stm32h7xx_hal_pwr_ex.c ****          The DSTANDBY mode is entered using the HAL_PWREx_EnterSTANDBYMode
 654:../../Drivers/STM32H7xx_HAL_Driver/Src/stm32h7xx_hal_pwr_ex.c ****          (Domain) function with:
 655:../../Drivers/STM32H7xx_HAL_Driver/Src/stm32h7xx_hal_pwr_ex.c ****        (++) Domain:
 656:../../Drivers/STM32H7xx_HAL_Driver/Src/stm32h7xx_hal_pwr_ex.c ****         (+++) PWR_D1_DOMAIN : Enters D1/CD domain to DSTANDBY mode.
 657:../../Drivers/STM32H7xx_HAL_Driver/Src/stm32h7xx_hal_pwr_ex.c ****         (+++) PWR_D2_DOMAIN : Enters D2 domain to DSTANDBY mode.
 658:../../Drivers/STM32H7xx_HAL_Driver/Src/stm32h7xx_hal_pwr_ex.c ****         (+++) PWR_D3_DOMAIN : Enters D3/SRD domain to DSTANDBY mode.
 659:../../Drivers/STM32H7xx_HAL_Driver/Src/stm32h7xx_hal_pwr_ex.c **** 
 660:../../Drivers/STM32H7xx_HAL_Driver/Src/stm32h7xx_hal_pwr_ex.c ****       (+) Exit:
 661:../../Drivers/STM32H7xx_HAL_Driver/Src/stm32h7xx_hal_pwr_ex.c ****         WKUP pin rising or falling edge, RTC alarm (Alarm A and Alarm B), RTC
 662:../../Drivers/STM32H7xx_HAL_Driver/Src/stm32h7xx_hal_pwr_ex.c ****         wakeup, tamper event, time stamp event, external reset in NRST pin,
 663:../../Drivers/STM32H7xx_HAL_Driver/Src/stm32h7xx_hal_pwr_ex.c ****         IWDG reset.
 664:../../Drivers/STM32H7xx_HAL_Driver/Src/stm32h7xx_hal_pwr_ex.c **** 
 665:../../Drivers/STM32H7xx_HAL_Driver/Src/stm32h7xx_hal_pwr_ex.c ****    *** Keep D3/SRD in RUN mode ***
 666:../../Drivers/STM32H7xx_HAL_Driver/Src/stm32h7xx_hal_pwr_ex.c ****    ===============================
 667:../../Drivers/STM32H7xx_HAL_Driver/Src/stm32h7xx_hal_pwr_ex.c ****     [..]
 668:../../Drivers/STM32H7xx_HAL_Driver/Src/stm32h7xx_hal_pwr_ex.c ****       D3/SRD domain can be kept in Run mode regardless of the CPU status when
 669:../../Drivers/STM32H7xx_HAL_Driver/Src/stm32h7xx_hal_pwr_ex.c ****       entering STOP mode by using HAL_PWREx_ConfigD3Domain(D3State) function
 670:../../Drivers/STM32H7xx_HAL_Driver/Src/stm32h7xx_hal_pwr_ex.c ****       with :
 671:../../Drivers/STM32H7xx_HAL_Driver/Src/stm32h7xx_hal_pwr_ex.c ****        (+) D3State:
 672:../../Drivers/STM32H7xx_HAL_Driver/Src/stm32h7xx_hal_pwr_ex.c ****         (++) PWR_D3_DOMAIN_STOP : D3/SDR domain follows the CPU sub-system
 673:../../Drivers/STM32H7xx_HAL_Driver/Src/stm32h7xx_hal_pwr_ex.c ****                                   mode.
 674:../../Drivers/STM32H7xx_HAL_Driver/Src/stm32h7xx_hal_pwr_ex.c ****         (++) PWR_D3_DOMAIN_RUN : D3/SRD domain remains in Run mode regardless
 675:../../Drivers/STM32H7xx_HAL_Driver/Src/stm32h7xx_hal_pwr_ex.c ****                                  of CPU subsystem mode.
 676:../../Drivers/STM32H7xx_HAL_Driver/Src/stm32h7xx_hal_pwr_ex.c **** 
 677:../../Drivers/STM32H7xx_HAL_Driver/Src/stm32h7xx_hal_pwr_ex.c ****     *** FLASH Power Down configuration ****
 678:../../Drivers/STM32H7xx_HAL_Driver/Src/stm32h7xx_hal_pwr_ex.c ****     =======================================
 679:../../Drivers/STM32H7xx_HAL_Driver/Src/stm32h7xx_hal_pwr_ex.c ****     [..]
 680:../../Drivers/STM32H7xx_HAL_Driver/Src/stm32h7xx_hal_pwr_ex.c ****       By setting the FLPS bit in the PWR_CR1 register using the
 681:../../Drivers/STM32H7xx_HAL_Driver/Src/stm32h7xx_hal_pwr_ex.c ****       HAL_PWREx_EnableFlashPowerDown() function, the Flash memory also enters
 682:../../Drivers/STM32H7xx_HAL_Driver/Src/stm32h7xx_hal_pwr_ex.c ****       power down mode when the device enters STOP mode. When the Flash memory is
 683:../../Drivers/STM32H7xx_HAL_Driver/Src/stm32h7xx_hal_pwr_ex.c ****       in power down mode, an additional startup delay is incurred when waking up
 684:../../Drivers/STM32H7xx_HAL_Driver/Src/stm32h7xx_hal_pwr_ex.c ****       from STOP mode.
 685:../../Drivers/STM32H7xx_HAL_Driver/Src/stm32h7xx_hal_pwr_ex.c **** 
 686:../../Drivers/STM32H7xx_HAL_Driver/Src/stm32h7xx_hal_pwr_ex.c ****     *** Wakeup Pins configuration ****
 687:../../Drivers/STM32H7xx_HAL_Driver/Src/stm32h7xx_hal_pwr_ex.c ****     ===================================
 688:../../Drivers/STM32H7xx_HAL_Driver/Src/stm32h7xx_hal_pwr_ex.c ****     [..]
 689:../../Drivers/STM32H7xx_HAL_Driver/Src/stm32h7xx_hal_pwr_ex.c ****       Wakeup pins allow the system to exit from Standby mode. The configuration
 690:../../Drivers/STM32H7xx_HAL_Driver/Src/stm32h7xx_hal_pwr_ex.c ****       of wakeup pins is done with the HAL_PWREx_EnableWakeUpPin(sPinParams)
 691:../../Drivers/STM32H7xx_HAL_Driver/Src/stm32h7xx_hal_pwr_ex.c ****       function with:
 692:../../Drivers/STM32H7xx_HAL_Driver/Src/stm32h7xx_hal_pwr_ex.c ****        (+) sPinParams: structure to enable and configure a wakeup pin:
 693:../../Drivers/STM32H7xx_HAL_Driver/Src/stm32h7xx_hal_pwr_ex.c ****         (++) WakeUpPin: Wakeup pin to be enabled.
 694:../../Drivers/STM32H7xx_HAL_Driver/Src/stm32h7xx_hal_pwr_ex.c ****         (++) PinPolarity: Wakeup pin polarity (rising or falling edge).
 695:../../Drivers/STM32H7xx_HAL_Driver/Src/stm32h7xx_hal_pwr_ex.c ****         (++) PinPull: Wakeup pin pull (no pull, pull-up or pull-down).
 696:../../Drivers/STM32H7xx_HAL_Driver/Src/stm32h7xx_hal_pwr_ex.c ****     [..]
 697:../../Drivers/STM32H7xx_HAL_Driver/Src/stm32h7xx_hal_pwr_ex.c ****       The wakeup pins are internally connected to the EXTI lines [55-60] to
 698:../../Drivers/STM32H7xx_HAL_Driver/Src/stm32h7xx_hal_pwr_ex.c ****       generate an interrupt if enabled. The EXTI lines configuration is done by
 699:../../Drivers/STM32H7xx_HAL_Driver/Src/stm32h7xx_hal_pwr_ex.c ****       the HAL_EXTI_Dx_EventInputConfig() functions defined in the stm32h7xxhal.c
 700:../../Drivers/STM32H7xx_HAL_Driver/Src/stm32h7xx_hal_pwr_ex.c ****       file.
 701:../../Drivers/STM32H7xx_HAL_Driver/Src/stm32h7xx_hal_pwr_ex.c ****     [..]
 702:../../Drivers/STM32H7xx_HAL_Driver/Src/stm32h7xx_hal_pwr_ex.c ****       When a wakeup pin event is received the HAL_PWREx_WAKEUP_PIN_IRQHandler is
ARM GAS  C:\Users\gigig\AppData\Local\Temp\ccXuJv1Z.s 			page 23


 703:../../Drivers/STM32H7xx_HAL_Driver/Src/stm32h7xx_hal_pwr_ex.c ****       called and the appropriate flag is set in the PWR_WKUPFR register. Then in
 704:../../Drivers/STM32H7xx_HAL_Driver/Src/stm32h7xx_hal_pwr_ex.c ****       the HAL_PWREx_WAKEUP_PIN_IRQHandler function the wakeup pin flag will be
 705:../../Drivers/STM32H7xx_HAL_Driver/Src/stm32h7xx_hal_pwr_ex.c ****       cleared and the appropriate user callback will be called. The user can add
 706:../../Drivers/STM32H7xx_HAL_Driver/Src/stm32h7xx_hal_pwr_ex.c ****       his own code by customization of function pointer HAL_PWREx_WKUPx_Callback.
 707:../../Drivers/STM32H7xx_HAL_Driver/Src/stm32h7xx_hal_pwr_ex.c **** 
 708:../../Drivers/STM32H7xx_HAL_Driver/Src/stm32h7xx_hal_pwr_ex.c **** @endverbatim
 709:../../Drivers/STM32H7xx_HAL_Driver/Src/stm32h7xx_hal_pwr_ex.c ****   * @{
 710:../../Drivers/STM32H7xx_HAL_Driver/Src/stm32h7xx_hal_pwr_ex.c ****   */
 711:../../Drivers/STM32H7xx_HAL_Driver/Src/stm32h7xx_hal_pwr_ex.c **** 
 712:../../Drivers/STM32H7xx_HAL_Driver/Src/stm32h7xx_hal_pwr_ex.c **** #if defined (PWR_CPUCR_RETDS_CD)
 713:../../Drivers/STM32H7xx_HAL_Driver/Src/stm32h7xx_hal_pwr_ex.c **** /**
 714:../../Drivers/STM32H7xx_HAL_Driver/Src/stm32h7xx_hal_pwr_ex.c ****   * @brief Enter the system to STOP mode with main domain in DSTOP2.
 715:../../Drivers/STM32H7xx_HAL_Driver/Src/stm32h7xx_hal_pwr_ex.c ****   * @note   In STOP mode, the domain bus matrix clock is stalled.
 716:../../Drivers/STM32H7xx_HAL_Driver/Src/stm32h7xx_hal_pwr_ex.c ****   * @note   In STOP mode, memories and registers are maintained and peripherals
 717:../../Drivers/STM32H7xx_HAL_Driver/Src/stm32h7xx_hal_pwr_ex.c ****   *         in CPU domain are no longer operational.
 718:../../Drivers/STM32H7xx_HAL_Driver/Src/stm32h7xx_hal_pwr_ex.c ****   * @note   All clocks in the VCORE domain are stopped, the PLL, the HSI and the
 719:../../Drivers/STM32H7xx_HAL_Driver/Src/stm32h7xx_hal_pwr_ex.c ****   *         HSE oscillators are disabled. Only Peripherals that have wakeup
 720:../../Drivers/STM32H7xx_HAL_Driver/Src/stm32h7xx_hal_pwr_ex.c ****   *         capability can switch on the HSI to receive a frame, and switch off
 721:../../Drivers/STM32H7xx_HAL_Driver/Src/stm32h7xx_hal_pwr_ex.c ****   *         the HSI after receiving the frame if it is not a wakeup frame. In
 722:../../Drivers/STM32H7xx_HAL_Driver/Src/stm32h7xx_hal_pwr_ex.c ****   *         this case the HSI clock is propagated only to the peripheral
 723:../../Drivers/STM32H7xx_HAL_Driver/Src/stm32h7xx_hal_pwr_ex.c ****   *         requesting it.
 724:../../Drivers/STM32H7xx_HAL_Driver/Src/stm32h7xx_hal_pwr_ex.c ****   * @note   When exiting STOP mode by issuing an interrupt or a wakeup event,
 725:../../Drivers/STM32H7xx_HAL_Driver/Src/stm32h7xx_hal_pwr_ex.c ****   *         the HSI RC oscillator is selected as system clock if STOPWUCK bit in
 726:../../Drivers/STM32H7xx_HAL_Driver/Src/stm32h7xx_hal_pwr_ex.c ****   *         RCC_CFGR register is set.
 727:../../Drivers/STM32H7xx_HAL_Driver/Src/stm32h7xx_hal_pwr_ex.c ****   * @param  Regulator : Specifies the regulator state in STOP mode.
 728:../../Drivers/STM32H7xx_HAL_Driver/Src/stm32h7xx_hal_pwr_ex.c ****   *          This parameter can be one of the following values:
 729:../../Drivers/STM32H7xx_HAL_Driver/Src/stm32h7xx_hal_pwr_ex.c ****   *            @arg PWR_MAINREGULATOR_ON     : STOP mode with regulator ON.
 730:../../Drivers/STM32H7xx_HAL_Driver/Src/stm32h7xx_hal_pwr_ex.c ****   *            @arg PWR_LOWPOWERREGULATOR_ON : STOP mode with low power
 731:../../Drivers/STM32H7xx_HAL_Driver/Src/stm32h7xx_hal_pwr_ex.c ****   *                                            regulator ON.
 732:../../Drivers/STM32H7xx_HAL_Driver/Src/stm32h7xx_hal_pwr_ex.c ****   * @param  STOPEntry : Specifies if STOP mode in entered with WFI or WFE
 733:../../Drivers/STM32H7xx_HAL_Driver/Src/stm32h7xx_hal_pwr_ex.c ****   *                     intrinsic instruction.
 734:../../Drivers/STM32H7xx_HAL_Driver/Src/stm32h7xx_hal_pwr_ex.c ****   *          This parameter can be one of the following values:
 735:../../Drivers/STM32H7xx_HAL_Driver/Src/stm32h7xx_hal_pwr_ex.c ****   *            @arg PWR_STOPENTRY_WFI : Enter STOP mode with WFI instruction.
 736:../../Drivers/STM32H7xx_HAL_Driver/Src/stm32h7xx_hal_pwr_ex.c ****   *            @arg PWR_STOPENTRY_WFE : Enter STOP mode with WFE instruction.
 737:../../Drivers/STM32H7xx_HAL_Driver/Src/stm32h7xx_hal_pwr_ex.c ****   * @retval None.
 738:../../Drivers/STM32H7xx_HAL_Driver/Src/stm32h7xx_hal_pwr_ex.c ****   */
 739:../../Drivers/STM32H7xx_HAL_Driver/Src/stm32h7xx_hal_pwr_ex.c **** void HAL_PWREx_EnterSTOP2Mode (uint32_t Regulator, uint8_t STOPEntry)
 740:../../Drivers/STM32H7xx_HAL_Driver/Src/stm32h7xx_hal_pwr_ex.c **** {
 741:../../Drivers/STM32H7xx_HAL_Driver/Src/stm32h7xx_hal_pwr_ex.c ****   /* Check the parameters */
 742:../../Drivers/STM32H7xx_HAL_Driver/Src/stm32h7xx_hal_pwr_ex.c ****   assert_param (IS_PWR_REGULATOR (Regulator));
 743:../../Drivers/STM32H7xx_HAL_Driver/Src/stm32h7xx_hal_pwr_ex.c ****   assert_param (IS_PWR_STOP_ENTRY (STOPEntry));
 744:../../Drivers/STM32H7xx_HAL_Driver/Src/stm32h7xx_hal_pwr_ex.c **** 
 745:../../Drivers/STM32H7xx_HAL_Driver/Src/stm32h7xx_hal_pwr_ex.c ****   /* Select the regulator state in Stop mode */
 746:../../Drivers/STM32H7xx_HAL_Driver/Src/stm32h7xx_hal_pwr_ex.c ****   MODIFY_REG (PWR->CR1, PWR_CR1_LPDS, Regulator);
 747:../../Drivers/STM32H7xx_HAL_Driver/Src/stm32h7xx_hal_pwr_ex.c **** 
 748:../../Drivers/STM32H7xx_HAL_Driver/Src/stm32h7xx_hal_pwr_ex.c ****   /* Go to DStop2 mode (deep retention) when CPU domain enters Deepsleep */
 749:../../Drivers/STM32H7xx_HAL_Driver/Src/stm32h7xx_hal_pwr_ex.c ****   SET_BIT (PWR->CPUCR, PWR_CPUCR_RETDS_CD);
 750:../../Drivers/STM32H7xx_HAL_Driver/Src/stm32h7xx_hal_pwr_ex.c **** 
 751:../../Drivers/STM32H7xx_HAL_Driver/Src/stm32h7xx_hal_pwr_ex.c ****   /* Keep DSTOP mode when SmartRun domain enters Deepsleep */
 752:../../Drivers/STM32H7xx_HAL_Driver/Src/stm32h7xx_hal_pwr_ex.c ****   CLEAR_BIT (PWR->CPUCR, PWR_CPUCR_PDDS_SRD);
 753:../../Drivers/STM32H7xx_HAL_Driver/Src/stm32h7xx_hal_pwr_ex.c **** 
 754:../../Drivers/STM32H7xx_HAL_Driver/Src/stm32h7xx_hal_pwr_ex.c ****   /* Set SLEEPDEEP bit of Cortex System Control Register */
 755:../../Drivers/STM32H7xx_HAL_Driver/Src/stm32h7xx_hal_pwr_ex.c ****   SET_BIT (SCB->SCR, SCB_SCR_SLEEPDEEP_Msk);
 756:../../Drivers/STM32H7xx_HAL_Driver/Src/stm32h7xx_hal_pwr_ex.c **** 
 757:../../Drivers/STM32H7xx_HAL_Driver/Src/stm32h7xx_hal_pwr_ex.c ****   /* Ensure that all instructions are done before entering STOP mode */
 758:../../Drivers/STM32H7xx_HAL_Driver/Src/stm32h7xx_hal_pwr_ex.c ****   __ISB ();
 759:../../Drivers/STM32H7xx_HAL_Driver/Src/stm32h7xx_hal_pwr_ex.c ****   __DSB ();
ARM GAS  C:\Users\gigig\AppData\Local\Temp\ccXuJv1Z.s 			page 24


 760:../../Drivers/STM32H7xx_HAL_Driver/Src/stm32h7xx_hal_pwr_ex.c **** 
 761:../../Drivers/STM32H7xx_HAL_Driver/Src/stm32h7xx_hal_pwr_ex.c ****   /* Select Stop mode entry */
 762:../../Drivers/STM32H7xx_HAL_Driver/Src/stm32h7xx_hal_pwr_ex.c ****   if (STOPEntry == PWR_STOPENTRY_WFI)
 763:../../Drivers/STM32H7xx_HAL_Driver/Src/stm32h7xx_hal_pwr_ex.c ****   {
 764:../../Drivers/STM32H7xx_HAL_Driver/Src/stm32h7xx_hal_pwr_ex.c ****     /* Request Wait For Interrupt */
 765:../../Drivers/STM32H7xx_HAL_Driver/Src/stm32h7xx_hal_pwr_ex.c ****     __WFI ();
 766:../../Drivers/STM32H7xx_HAL_Driver/Src/stm32h7xx_hal_pwr_ex.c ****   }
 767:../../Drivers/STM32H7xx_HAL_Driver/Src/stm32h7xx_hal_pwr_ex.c ****   else
 768:../../Drivers/STM32H7xx_HAL_Driver/Src/stm32h7xx_hal_pwr_ex.c ****   {
 769:../../Drivers/STM32H7xx_HAL_Driver/Src/stm32h7xx_hal_pwr_ex.c ****     /* Request Wait For Event */
 770:../../Drivers/STM32H7xx_HAL_Driver/Src/stm32h7xx_hal_pwr_ex.c ****     __WFE ();
 771:../../Drivers/STM32H7xx_HAL_Driver/Src/stm32h7xx_hal_pwr_ex.c ****   }
 772:../../Drivers/STM32H7xx_HAL_Driver/Src/stm32h7xx_hal_pwr_ex.c **** 
 773:../../Drivers/STM32H7xx_HAL_Driver/Src/stm32h7xx_hal_pwr_ex.c ****   /* Clear SLEEPDEEP bit of Cortex-Mx in the System Control Register */
 774:../../Drivers/STM32H7xx_HAL_Driver/Src/stm32h7xx_hal_pwr_ex.c ****   CLEAR_BIT (SCB->SCR, SCB_SCR_SLEEPDEEP_Msk);
 775:../../Drivers/STM32H7xx_HAL_Driver/Src/stm32h7xx_hal_pwr_ex.c **** }
 776:../../Drivers/STM32H7xx_HAL_Driver/Src/stm32h7xx_hal_pwr_ex.c **** #endif /* defined (PWR_CPUCR_RETDS_CD) */
 777:../../Drivers/STM32H7xx_HAL_Driver/Src/stm32h7xx_hal_pwr_ex.c **** 
 778:../../Drivers/STM32H7xx_HAL_Driver/Src/stm32h7xx_hal_pwr_ex.c **** /**
 779:../../Drivers/STM32H7xx_HAL_Driver/Src/stm32h7xx_hal_pwr_ex.c ****   * @brief Enter a Domain to DSTOP mode.
 780:../../Drivers/STM32H7xx_HAL_Driver/Src/stm32h7xx_hal_pwr_ex.c ****   * @note   This API gives flexibility to manage independently each domain STOP
 781:../../Drivers/STM32H7xx_HAL_Driver/Src/stm32h7xx_hal_pwr_ex.c ****   *         mode. For dual core lines, this API should be executed with the
 782:../../Drivers/STM32H7xx_HAL_Driver/Src/stm32h7xx_hal_pwr_ex.c ****   *         corresponding Cortex-Mx to enter domain to DSTOP mode. When it is
 783:../../Drivers/STM32H7xx_HAL_Driver/Src/stm32h7xx_hal_pwr_ex.c ****   *         executed by all available Cortex-Mx, the system enter to STOP mode.
 784:../../Drivers/STM32H7xx_HAL_Driver/Src/stm32h7xx_hal_pwr_ex.c ****   *         For single core lines, calling this API with domain parameter set to
 785:../../Drivers/STM32H7xx_HAL_Driver/Src/stm32h7xx_hal_pwr_ex.c ****   *         PWR_D1_DOMAIN (D1/CD), the whole system will enter in STOP mode
 786:../../Drivers/STM32H7xx_HAL_Driver/Src/stm32h7xx_hal_pwr_ex.c ****   *         independently of PWR_CPUCR_PDDS_Dx bits values if RUN_D3 bit in the
 787:../../Drivers/STM32H7xx_HAL_Driver/Src/stm32h7xx_hal_pwr_ex.c ****   *         CPUCR_RUN_D3 is cleared.
 788:../../Drivers/STM32H7xx_HAL_Driver/Src/stm32h7xx_hal_pwr_ex.c ****   * @note   In DStop mode the domain bus matrix clock is stopped.
 789:../../Drivers/STM32H7xx_HAL_Driver/Src/stm32h7xx_hal_pwr_ex.c ****   * @note   The system D3/SRD domain enter Stop mode only when the CPU subsystem
 790:../../Drivers/STM32H7xx_HAL_Driver/Src/stm32h7xx_hal_pwr_ex.c ****   *         is in CStop mode, the EXTI wakeup sources are inactive and at least
 791:../../Drivers/STM32H7xx_HAL_Driver/Src/stm32h7xx_hal_pwr_ex.c ****   *         one PDDS_Dn bit in PWR CPU control register (PWR_CPUCR) for
 792:../../Drivers/STM32H7xx_HAL_Driver/Src/stm32h7xx_hal_pwr_ex.c ****   *         any domain request Stop.
 793:../../Drivers/STM32H7xx_HAL_Driver/Src/stm32h7xx_hal_pwr_ex.c ****   * @note   Before entering DSTOP mode it is recommended to call SCB_CleanDCache
 794:../../Drivers/STM32H7xx_HAL_Driver/Src/stm32h7xx_hal_pwr_ex.c ****   *         function in order to clean the D-Cache and guarantee the data
 795:../../Drivers/STM32H7xx_HAL_Driver/Src/stm32h7xx_hal_pwr_ex.c ****   *         integrity for the SRAM memories.
 796:../../Drivers/STM32H7xx_HAL_Driver/Src/stm32h7xx_hal_pwr_ex.c ****   * @note   In System Stop mode, the domain peripherals that use the LSI or LSE
 797:../../Drivers/STM32H7xx_HAL_Driver/Src/stm32h7xx_hal_pwr_ex.c ****   *         clock, and the peripherals that have a kernel clock request to
 798:../../Drivers/STM32H7xx_HAL_Driver/Src/stm32h7xx_hal_pwr_ex.c ****   *         select HSI or CSI as source, are still able to operate.
 799:../../Drivers/STM32H7xx_HAL_Driver/Src/stm32h7xx_hal_pwr_ex.c ****   * @param  Regulator : Specifies the regulator state in STOP mode.
 800:../../Drivers/STM32H7xx_HAL_Driver/Src/stm32h7xx_hal_pwr_ex.c ****   *          This parameter can be one of the following values:
 801:../../Drivers/STM32H7xx_HAL_Driver/Src/stm32h7xx_hal_pwr_ex.c ****   *            @arg PWR_MAINREGULATOR_ON     : STOP mode with regulator ON.
 802:../../Drivers/STM32H7xx_HAL_Driver/Src/stm32h7xx_hal_pwr_ex.c ****   *            @arg PWR_LOWPOWERREGULATOR_ON : STOP mode with low power
 803:../../Drivers/STM32H7xx_HAL_Driver/Src/stm32h7xx_hal_pwr_ex.c ****   *                                            regulator ON.
 804:../../Drivers/STM32H7xx_HAL_Driver/Src/stm32h7xx_hal_pwr_ex.c ****   * @param  STOPEntry : Specifies if STOP mode in entered with WFI or WFE
 805:../../Drivers/STM32H7xx_HAL_Driver/Src/stm32h7xx_hal_pwr_ex.c ****   *                     intrinsic instruction.
 806:../../Drivers/STM32H7xx_HAL_Driver/Src/stm32h7xx_hal_pwr_ex.c ****   *          This parameter can be one of the following values:
 807:../../Drivers/STM32H7xx_HAL_Driver/Src/stm32h7xx_hal_pwr_ex.c ****   *            @arg PWR_STOPENTRY_WFI : Enter STOP mode with WFI instruction.
 808:../../Drivers/STM32H7xx_HAL_Driver/Src/stm32h7xx_hal_pwr_ex.c ****   *            @arg PWR_STOPENTRY_WFE : Enter STOP mode with WFE instruction.
 809:../../Drivers/STM32H7xx_HAL_Driver/Src/stm32h7xx_hal_pwr_ex.c ****   * @param  Domain : Specifies the Domain to enter in DSTOP mode.
 810:../../Drivers/STM32H7xx_HAL_Driver/Src/stm32h7xx_hal_pwr_ex.c ****   *          This parameter can be one of the following values:
 811:../../Drivers/STM32H7xx_HAL_Driver/Src/stm32h7xx_hal_pwr_ex.c ****   *            @arg PWR_D1_DOMAIN : Enter D1/CD Domain to DSTOP mode.
 812:../../Drivers/STM32H7xx_HAL_Driver/Src/stm32h7xx_hal_pwr_ex.c ****   *            @arg PWR_D2_DOMAIN : Enter D2 Domain to DSTOP mode.
 813:../../Drivers/STM32H7xx_HAL_Driver/Src/stm32h7xx_hal_pwr_ex.c ****   *            @arg PWR_D3_DOMAIN : Enter D3/SRD Domain to DSTOP mode.
 814:../../Drivers/STM32H7xx_HAL_Driver/Src/stm32h7xx_hal_pwr_ex.c ****   * @retval None.
 815:../../Drivers/STM32H7xx_HAL_Driver/Src/stm32h7xx_hal_pwr_ex.c ****   */
 816:../../Drivers/STM32H7xx_HAL_Driver/Src/stm32h7xx_hal_pwr_ex.c **** void HAL_PWREx_EnterSTOPMode (uint32_t Regulator, uint8_t STOPEntry, uint32_t Domain)
ARM GAS  C:\Users\gigig\AppData\Local\Temp\ccXuJv1Z.s 			page 25


 817:../../Drivers/STM32H7xx_HAL_Driver/Src/stm32h7xx_hal_pwr_ex.c **** {
 502              		.loc 1 817 1 is_stmt 1 view -0
 503              		.cfi_startproc
 504              		@ args = 0, pretend = 0, frame = 0
 505              		@ frame_needed = 0, uses_anonymous_args = 0
 506              		.loc 1 817 1 is_stmt 0 view .LVU130
 507 0000 38B5     		push	{r3, r4, r5, lr}
 508              	.LCFI2:
 509              		.cfi_def_cfa_offset 16
 510              		.cfi_offset 3, -16
 511              		.cfi_offset 4, -12
 512              		.cfi_offset 5, -8
 513              		.cfi_offset 14, -4
 514 0002 0D46     		mov	r5, r1
 818:../../Drivers/STM32H7xx_HAL_Driver/Src/stm32h7xx_hal_pwr_ex.c ****   /* Check the parameters */
 819:../../Drivers/STM32H7xx_HAL_Driver/Src/stm32h7xx_hal_pwr_ex.c ****   assert_param (IS_PWR_REGULATOR (Regulator));
 515              		.loc 1 819 3 is_stmt 1 view .LVU131
 820:../../Drivers/STM32H7xx_HAL_Driver/Src/stm32h7xx_hal_pwr_ex.c ****   assert_param (IS_PWR_STOP_ENTRY (STOPEntry));
 516              		.loc 1 820 3 view .LVU132
 821:../../Drivers/STM32H7xx_HAL_Driver/Src/stm32h7xx_hal_pwr_ex.c ****   assert_param (IS_PWR_DOMAIN (Domain));
 517              		.loc 1 821 3 view .LVU133
 822:../../Drivers/STM32H7xx_HAL_Driver/Src/stm32h7xx_hal_pwr_ex.c **** 
 823:../../Drivers/STM32H7xx_HAL_Driver/Src/stm32h7xx_hal_pwr_ex.c ****   /* Select the regulator state in Stop mode */
 824:../../Drivers/STM32H7xx_HAL_Driver/Src/stm32h7xx_hal_pwr_ex.c ****   MODIFY_REG (PWR->CR1, PWR_CR1_LPDS, Regulator);
 518              		.loc 1 824 3 view .LVU134
 519 0004 284C     		ldr	r4, .L69
 520 0006 2368     		ldr	r3, [r4]
 521 0008 23F00103 		bic	r3, r3, #1
 522 000c 0343     		orrs	r3, r3, r0
 523 000e 2360     		str	r3, [r4]
 825:../../Drivers/STM32H7xx_HAL_Driver/Src/stm32h7xx_hal_pwr_ex.c **** 
 826:../../Drivers/STM32H7xx_HAL_Driver/Src/stm32h7xx_hal_pwr_ex.c ****   /* Select the domain Power Down DeepSleep */
 827:../../Drivers/STM32H7xx_HAL_Driver/Src/stm32h7xx_hal_pwr_ex.c ****   if (Domain == PWR_D1_DOMAIN)
 524              		.loc 1 827 3 view .LVU135
 525              		.loc 1 827 6 is_stmt 0 view .LVU136
 526 0010 5AB1     		cbz	r2, .L64
 828:../../Drivers/STM32H7xx_HAL_Driver/Src/stm32h7xx_hal_pwr_ex.c ****   {
 829:../../Drivers/STM32H7xx_HAL_Driver/Src/stm32h7xx_hal_pwr_ex.c **** #if defined (DUAL_CORE)
 830:../../Drivers/STM32H7xx_HAL_Driver/Src/stm32h7xx_hal_pwr_ex.c ****     /* Check current core */
 831:../../Drivers/STM32H7xx_HAL_Driver/Src/stm32h7xx_hal_pwr_ex.c ****     if (HAL_GetCurrentCPUID () != CM7_CPUID)
 832:../../Drivers/STM32H7xx_HAL_Driver/Src/stm32h7xx_hal_pwr_ex.c ****     {
 833:../../Drivers/STM32H7xx_HAL_Driver/Src/stm32h7xx_hal_pwr_ex.c ****       /*
 834:../../Drivers/STM32H7xx_HAL_Driver/Src/stm32h7xx_hal_pwr_ex.c ****          When the domain selected and the cortex-mx don't match, entering stop
 835:../../Drivers/STM32H7xx_HAL_Driver/Src/stm32h7xx_hal_pwr_ex.c ****          mode will not be performed
 836:../../Drivers/STM32H7xx_HAL_Driver/Src/stm32h7xx_hal_pwr_ex.c ****       */
 837:../../Drivers/STM32H7xx_HAL_Driver/Src/stm32h7xx_hal_pwr_ex.c ****       return;
 838:../../Drivers/STM32H7xx_HAL_Driver/Src/stm32h7xx_hal_pwr_ex.c ****     }
 839:../../Drivers/STM32H7xx_HAL_Driver/Src/stm32h7xx_hal_pwr_ex.c **** #endif /* defined (DUAL_CORE) */
 840:../../Drivers/STM32H7xx_HAL_Driver/Src/stm32h7xx_hal_pwr_ex.c **** 
 841:../../Drivers/STM32H7xx_HAL_Driver/Src/stm32h7xx_hal_pwr_ex.c ****     /* Keep DSTOP mode when D1/CD domain enters Deepsleep */
 842:../../Drivers/STM32H7xx_HAL_Driver/Src/stm32h7xx_hal_pwr_ex.c ****     CLEAR_BIT (PWR->CPUCR, PWR_CPUCR_PDDS_D1);
 843:../../Drivers/STM32H7xx_HAL_Driver/Src/stm32h7xx_hal_pwr_ex.c **** 
 844:../../Drivers/STM32H7xx_HAL_Driver/Src/stm32h7xx_hal_pwr_ex.c ****     /* Set SLEEPDEEP bit of Cortex System Control Register */
 845:../../Drivers/STM32H7xx_HAL_Driver/Src/stm32h7xx_hal_pwr_ex.c ****     SET_BIT (SCB->SCR, SCB_SCR_SLEEPDEEP_Msk);
 846:../../Drivers/STM32H7xx_HAL_Driver/Src/stm32h7xx_hal_pwr_ex.c **** 
 847:../../Drivers/STM32H7xx_HAL_Driver/Src/stm32h7xx_hal_pwr_ex.c ****     /* Ensure that all instructions are done before entering STOP mode */
 848:../../Drivers/STM32H7xx_HAL_Driver/Src/stm32h7xx_hal_pwr_ex.c ****     __DSB ();
ARM GAS  C:\Users\gigig\AppData\Local\Temp\ccXuJv1Z.s 			page 26


 849:../../Drivers/STM32H7xx_HAL_Driver/Src/stm32h7xx_hal_pwr_ex.c ****     __ISB ();
 850:../../Drivers/STM32H7xx_HAL_Driver/Src/stm32h7xx_hal_pwr_ex.c **** 
 851:../../Drivers/STM32H7xx_HAL_Driver/Src/stm32h7xx_hal_pwr_ex.c ****     /* Select Stop mode entry */
 852:../../Drivers/STM32H7xx_HAL_Driver/Src/stm32h7xx_hal_pwr_ex.c ****     if (STOPEntry == PWR_STOPENTRY_WFI)
 853:../../Drivers/STM32H7xx_HAL_Driver/Src/stm32h7xx_hal_pwr_ex.c ****     {
 854:../../Drivers/STM32H7xx_HAL_Driver/Src/stm32h7xx_hal_pwr_ex.c ****       /* Request Wait For Interrupt */
 855:../../Drivers/STM32H7xx_HAL_Driver/Src/stm32h7xx_hal_pwr_ex.c ****       __WFI ();
 856:../../Drivers/STM32H7xx_HAL_Driver/Src/stm32h7xx_hal_pwr_ex.c ****     }
 857:../../Drivers/STM32H7xx_HAL_Driver/Src/stm32h7xx_hal_pwr_ex.c ****     else
 858:../../Drivers/STM32H7xx_HAL_Driver/Src/stm32h7xx_hal_pwr_ex.c ****     {
 859:../../Drivers/STM32H7xx_HAL_Driver/Src/stm32h7xx_hal_pwr_ex.c ****       /* Request Wait For Event */
 860:../../Drivers/STM32H7xx_HAL_Driver/Src/stm32h7xx_hal_pwr_ex.c ****       __WFE ();
 861:../../Drivers/STM32H7xx_HAL_Driver/Src/stm32h7xx_hal_pwr_ex.c ****     }
 862:../../Drivers/STM32H7xx_HAL_Driver/Src/stm32h7xx_hal_pwr_ex.c **** 
 863:../../Drivers/STM32H7xx_HAL_Driver/Src/stm32h7xx_hal_pwr_ex.c ****     /* Clear SLEEPDEEP bit of Cortex-Mx in the System Control Register */
 864:../../Drivers/STM32H7xx_HAL_Driver/Src/stm32h7xx_hal_pwr_ex.c ****     CLEAR_BIT (SCB->SCR, SCB_SCR_SLEEPDEEP_Msk);
 865:../../Drivers/STM32H7xx_HAL_Driver/Src/stm32h7xx_hal_pwr_ex.c ****   }
 866:../../Drivers/STM32H7xx_HAL_Driver/Src/stm32h7xx_hal_pwr_ex.c **** #if defined (PWR_CPUCR_PDDS_D2)
 867:../../Drivers/STM32H7xx_HAL_Driver/Src/stm32h7xx_hal_pwr_ex.c ****   else if (Domain == PWR_D2_DOMAIN)
 527              		.loc 1 867 8 is_stmt 1 view .LVU137
 528              		.loc 1 867 11 is_stmt 0 view .LVU138
 529 0012 012A     		cmp	r2, #1
 530 0014 25D0     		beq	.L65
 868:../../Drivers/STM32H7xx_HAL_Driver/Src/stm32h7xx_hal_pwr_ex.c ****   {
 869:../../Drivers/STM32H7xx_HAL_Driver/Src/stm32h7xx_hal_pwr_ex.c **** #if defined (DUAL_CORE)
 870:../../Drivers/STM32H7xx_HAL_Driver/Src/stm32h7xx_hal_pwr_ex.c ****     /* Check current core */
 871:../../Drivers/STM32H7xx_HAL_Driver/Src/stm32h7xx_hal_pwr_ex.c ****     if (HAL_GetCurrentCPUID () != CM4_CPUID)
 872:../../Drivers/STM32H7xx_HAL_Driver/Src/stm32h7xx_hal_pwr_ex.c ****     {
 873:../../Drivers/STM32H7xx_HAL_Driver/Src/stm32h7xx_hal_pwr_ex.c ****       /*
 874:../../Drivers/STM32H7xx_HAL_Driver/Src/stm32h7xx_hal_pwr_ex.c ****          When the domain selected and the cortex-mx don't match, entering stop
 875:../../Drivers/STM32H7xx_HAL_Driver/Src/stm32h7xx_hal_pwr_ex.c ****          mode will not be performed
 876:../../Drivers/STM32H7xx_HAL_Driver/Src/stm32h7xx_hal_pwr_ex.c ****       */
 877:../../Drivers/STM32H7xx_HAL_Driver/Src/stm32h7xx_hal_pwr_ex.c ****       return;
 878:../../Drivers/STM32H7xx_HAL_Driver/Src/stm32h7xx_hal_pwr_ex.c ****     }
 879:../../Drivers/STM32H7xx_HAL_Driver/Src/stm32h7xx_hal_pwr_ex.c **** 
 880:../../Drivers/STM32H7xx_HAL_Driver/Src/stm32h7xx_hal_pwr_ex.c ****     /* Keep DSTOP mode when D2 domain enters Deepsleep */
 881:../../Drivers/STM32H7xx_HAL_Driver/Src/stm32h7xx_hal_pwr_ex.c ****     CLEAR_BIT (PWR->CPU2CR, PWR_CPU2CR_PDDS_D2);
 882:../../Drivers/STM32H7xx_HAL_Driver/Src/stm32h7xx_hal_pwr_ex.c **** 
 883:../../Drivers/STM32H7xx_HAL_Driver/Src/stm32h7xx_hal_pwr_ex.c ****     /* Set SLEEPDEEP bit of Cortex System Control Register */
 884:../../Drivers/STM32H7xx_HAL_Driver/Src/stm32h7xx_hal_pwr_ex.c ****     SET_BIT (SCB->SCR, SCB_SCR_SLEEPDEEP_Msk);
 885:../../Drivers/STM32H7xx_HAL_Driver/Src/stm32h7xx_hal_pwr_ex.c **** 
 886:../../Drivers/STM32H7xx_HAL_Driver/Src/stm32h7xx_hal_pwr_ex.c ****     /* Ensure that all instructions are done before entering STOP mode */
 887:../../Drivers/STM32H7xx_HAL_Driver/Src/stm32h7xx_hal_pwr_ex.c ****     __DSB ();
 888:../../Drivers/STM32H7xx_HAL_Driver/Src/stm32h7xx_hal_pwr_ex.c ****     __ISB ();
 889:../../Drivers/STM32H7xx_HAL_Driver/Src/stm32h7xx_hal_pwr_ex.c **** 
 890:../../Drivers/STM32H7xx_HAL_Driver/Src/stm32h7xx_hal_pwr_ex.c ****     /* Select Stop mode entry */
 891:../../Drivers/STM32H7xx_HAL_Driver/Src/stm32h7xx_hal_pwr_ex.c ****     if (STOPEntry == PWR_STOPENTRY_WFI)
 892:../../Drivers/STM32H7xx_HAL_Driver/Src/stm32h7xx_hal_pwr_ex.c ****     {
 893:../../Drivers/STM32H7xx_HAL_Driver/Src/stm32h7xx_hal_pwr_ex.c ****       /* Request Wait For Interrupt */
 894:../../Drivers/STM32H7xx_HAL_Driver/Src/stm32h7xx_hal_pwr_ex.c ****       __WFI ();
 895:../../Drivers/STM32H7xx_HAL_Driver/Src/stm32h7xx_hal_pwr_ex.c ****     }
 896:../../Drivers/STM32H7xx_HAL_Driver/Src/stm32h7xx_hal_pwr_ex.c ****     else
 897:../../Drivers/STM32H7xx_HAL_Driver/Src/stm32h7xx_hal_pwr_ex.c ****     {
 898:../../Drivers/STM32H7xx_HAL_Driver/Src/stm32h7xx_hal_pwr_ex.c ****       /* Request Wait For Event */
 899:../../Drivers/STM32H7xx_HAL_Driver/Src/stm32h7xx_hal_pwr_ex.c ****       __WFE ();
 900:../../Drivers/STM32H7xx_HAL_Driver/Src/stm32h7xx_hal_pwr_ex.c ****     }
 901:../../Drivers/STM32H7xx_HAL_Driver/Src/stm32h7xx_hal_pwr_ex.c **** 
ARM GAS  C:\Users\gigig\AppData\Local\Temp\ccXuJv1Z.s 			page 27


 902:../../Drivers/STM32H7xx_HAL_Driver/Src/stm32h7xx_hal_pwr_ex.c ****     /* Clear SLEEPDEEP bit of Cortex-Mx in the System Control Register */
 903:../../Drivers/STM32H7xx_HAL_Driver/Src/stm32h7xx_hal_pwr_ex.c ****     CLEAR_BIT (SCB->SCR, SCB_SCR_SLEEPDEEP_Msk);
 904:../../Drivers/STM32H7xx_HAL_Driver/Src/stm32h7xx_hal_pwr_ex.c **** #else
 905:../../Drivers/STM32H7xx_HAL_Driver/Src/stm32h7xx_hal_pwr_ex.c ****     /* Keep DSTOP mode when D2 domain enters Deepsleep */
 906:../../Drivers/STM32H7xx_HAL_Driver/Src/stm32h7xx_hal_pwr_ex.c ****     CLEAR_BIT (PWR->CPUCR, PWR_CPUCR_PDDS_D2);
 907:../../Drivers/STM32H7xx_HAL_Driver/Src/stm32h7xx_hal_pwr_ex.c **** #endif  /* defined (DUAL_CORE) */
 908:../../Drivers/STM32H7xx_HAL_Driver/Src/stm32h7xx_hal_pwr_ex.c ****   }
 909:../../Drivers/STM32H7xx_HAL_Driver/Src/stm32h7xx_hal_pwr_ex.c **** #endif /* defined (PWR_CPUCR_PDDS_D2) */
 910:../../Drivers/STM32H7xx_HAL_Driver/Src/stm32h7xx_hal_pwr_ex.c ****   else
 911:../../Drivers/STM32H7xx_HAL_Driver/Src/stm32h7xx_hal_pwr_ex.c ****   {
 912:../../Drivers/STM32H7xx_HAL_Driver/Src/stm32h7xx_hal_pwr_ex.c **** #if defined (DUAL_CORE)
 913:../../Drivers/STM32H7xx_HAL_Driver/Src/stm32h7xx_hal_pwr_ex.c ****     /* Check current core */
 914:../../Drivers/STM32H7xx_HAL_Driver/Src/stm32h7xx_hal_pwr_ex.c ****     if (HAL_GetCurrentCPUID () == CM7_CPUID)
 531              		.loc 1 914 5 is_stmt 1 view .LVU139
 532              		.loc 1 914 9 is_stmt 0 view .LVU140
 533 0016 FFF7FEFF 		bl	HAL_GetCurrentCPUID
 534              	.LVL34:
 535              		.loc 1 914 8 view .LVU141
 536 001a 0328     		cmp	r0, #3
 537 001c 3ED0     		beq	.L66
 915:../../Drivers/STM32H7xx_HAL_Driver/Src/stm32h7xx_hal_pwr_ex.c ****     {
 916:../../Drivers/STM32H7xx_HAL_Driver/Src/stm32h7xx_hal_pwr_ex.c ****       /* Keep DSTOP mode when D3 domain enters Deepsleep */
 917:../../Drivers/STM32H7xx_HAL_Driver/Src/stm32h7xx_hal_pwr_ex.c ****       CLEAR_BIT (PWR->CPUCR, PWR_CPUCR_PDDS_D3);
 918:../../Drivers/STM32H7xx_HAL_Driver/Src/stm32h7xx_hal_pwr_ex.c ****     }
 919:../../Drivers/STM32H7xx_HAL_Driver/Src/stm32h7xx_hal_pwr_ex.c ****     else
 920:../../Drivers/STM32H7xx_HAL_Driver/Src/stm32h7xx_hal_pwr_ex.c ****     {
 921:../../Drivers/STM32H7xx_HAL_Driver/Src/stm32h7xx_hal_pwr_ex.c ****       /* Keep DSTOP mode when D3 domain enters Deepsleep */
 922:../../Drivers/STM32H7xx_HAL_Driver/Src/stm32h7xx_hal_pwr_ex.c ****       CLEAR_BIT (PWR->CPU2CR, PWR_CPU2CR_PDDS_D3);
 538              		.loc 1 922 7 is_stmt 1 view .LVU142
 539 001e 224A     		ldr	r2, .L69
 540 0020 5369     		ldr	r3, [r2, #20]
 541 0022 23F00403 		bic	r3, r3, #4
 542 0026 5361     		str	r3, [r2, #20]
 543              	.L54:
 923:../../Drivers/STM32H7xx_HAL_Driver/Src/stm32h7xx_hal_pwr_ex.c ****     }
 924:../../Drivers/STM32H7xx_HAL_Driver/Src/stm32h7xx_hal_pwr_ex.c **** #else
 925:../../Drivers/STM32H7xx_HAL_Driver/Src/stm32h7xx_hal_pwr_ex.c ****     /* Keep DSTOP mode when D3/SRD domain enters Deepsleep */
 926:../../Drivers/STM32H7xx_HAL_Driver/Src/stm32h7xx_hal_pwr_ex.c ****     CLEAR_BIT (PWR->CPUCR, PWR_CPUCR_PDDS_D3);
 927:../../Drivers/STM32H7xx_HAL_Driver/Src/stm32h7xx_hal_pwr_ex.c **** #endif  /* defined (DUAL_CORE) */
 928:../../Drivers/STM32H7xx_HAL_Driver/Src/stm32h7xx_hal_pwr_ex.c ****   }
 929:../../Drivers/STM32H7xx_HAL_Driver/Src/stm32h7xx_hal_pwr_ex.c **** }
 544              		.loc 1 929 1 is_stmt 0 view .LVU143
 545 0028 38BD     		pop	{r3, r4, r5, pc}
 546              	.LVL35:
 547              	.L64:
 831:../../Drivers/STM32H7xx_HAL_Driver/Src/stm32h7xx_hal_pwr_ex.c ****     {
 548              		.loc 1 831 5 is_stmt 1 view .LVU144
 831:../../Drivers/STM32H7xx_HAL_Driver/Src/stm32h7xx_hal_pwr_ex.c ****     {
 549              		.loc 1 831 9 is_stmt 0 view .LVU145
 550 002a FFF7FEFF 		bl	HAL_GetCurrentCPUID
 551              	.LVL36:
 831:../../Drivers/STM32H7xx_HAL_Driver/Src/stm32h7xx_hal_pwr_ex.c ****     {
 552              		.loc 1 831 8 view .LVU146
 553 002e 0328     		cmp	r0, #3
 554 0030 FAD1     		bne	.L54
 842:../../Drivers/STM32H7xx_HAL_Driver/Src/stm32h7xx_hal_pwr_ex.c **** 
 555              		.loc 1 842 5 is_stmt 1 view .LVU147
ARM GAS  C:\Users\gigig\AppData\Local\Temp\ccXuJv1Z.s 			page 28


 556 0032 2369     		ldr	r3, [r4, #16]
 557 0034 23F00103 		bic	r3, r3, #1
 558 0038 2361     		str	r3, [r4, #16]
 845:../../Drivers/STM32H7xx_HAL_Driver/Src/stm32h7xx_hal_pwr_ex.c **** 
 559              		.loc 1 845 5 view .LVU148
 560 003a 1C4A     		ldr	r2, .L69+4
 561 003c 1369     		ldr	r3, [r2, #16]
 562 003e 43F00403 		orr	r3, r3, #4
 563 0042 1361     		str	r3, [r2, #16]
 848:../../Drivers/STM32H7xx_HAL_Driver/Src/stm32h7xx_hal_pwr_ex.c ****     __ISB ();
 564              		.loc 1 848 5 view .LVU149
 565              	.LBB26:
 566              	.LBI26:
 567              		.file 2 "../../Drivers/CMSIS/Include/cmsis_gcc.h"
   1:../../Drivers/CMSIS/Include/cmsis_gcc.h **** /**************************************************************************//**
   2:../../Drivers/CMSIS/Include/cmsis_gcc.h ****  * @file     cmsis_gcc.h
   3:../../Drivers/CMSIS/Include/cmsis_gcc.h ****  * @brief    CMSIS compiler GCC header file
   4:../../Drivers/CMSIS/Include/cmsis_gcc.h ****  * @version  V5.2.0
   5:../../Drivers/CMSIS/Include/cmsis_gcc.h ****  * @date     08. May 2019
   6:../../Drivers/CMSIS/Include/cmsis_gcc.h ****  ******************************************************************************/
   7:../../Drivers/CMSIS/Include/cmsis_gcc.h **** /*
   8:../../Drivers/CMSIS/Include/cmsis_gcc.h ****  * Copyright (c) 2009-2019 Arm Limited. All rights reserved.
   9:../../Drivers/CMSIS/Include/cmsis_gcc.h ****  *
  10:../../Drivers/CMSIS/Include/cmsis_gcc.h ****  * SPDX-License-Identifier: Apache-2.0
  11:../../Drivers/CMSIS/Include/cmsis_gcc.h ****  *
  12:../../Drivers/CMSIS/Include/cmsis_gcc.h ****  * Licensed under the Apache License, Version 2.0 (the License); you may
  13:../../Drivers/CMSIS/Include/cmsis_gcc.h ****  * not use this file except in compliance with the License.
  14:../../Drivers/CMSIS/Include/cmsis_gcc.h ****  * You may obtain a copy of the License at
  15:../../Drivers/CMSIS/Include/cmsis_gcc.h ****  *
  16:../../Drivers/CMSIS/Include/cmsis_gcc.h ****  * www.apache.org/licenses/LICENSE-2.0
  17:../../Drivers/CMSIS/Include/cmsis_gcc.h ****  *
  18:../../Drivers/CMSIS/Include/cmsis_gcc.h ****  * Unless required by applicable law or agreed to in writing, software
  19:../../Drivers/CMSIS/Include/cmsis_gcc.h ****  * distributed under the License is distributed on an AS IS BASIS, WITHOUT
  20:../../Drivers/CMSIS/Include/cmsis_gcc.h ****  * WARRANTIES OR CONDITIONS OF ANY KIND, either express or implied.
  21:../../Drivers/CMSIS/Include/cmsis_gcc.h ****  * See the License for the specific language governing permissions and
  22:../../Drivers/CMSIS/Include/cmsis_gcc.h ****  * limitations under the License.
  23:../../Drivers/CMSIS/Include/cmsis_gcc.h ****  */
  24:../../Drivers/CMSIS/Include/cmsis_gcc.h **** 
  25:../../Drivers/CMSIS/Include/cmsis_gcc.h **** #ifndef __CMSIS_GCC_H
  26:../../Drivers/CMSIS/Include/cmsis_gcc.h **** #define __CMSIS_GCC_H
  27:../../Drivers/CMSIS/Include/cmsis_gcc.h **** 
  28:../../Drivers/CMSIS/Include/cmsis_gcc.h **** /* ignore some GCC warnings */
  29:../../Drivers/CMSIS/Include/cmsis_gcc.h **** #pragma GCC diagnostic push
  30:../../Drivers/CMSIS/Include/cmsis_gcc.h **** #pragma GCC diagnostic ignored "-Wsign-conversion"
  31:../../Drivers/CMSIS/Include/cmsis_gcc.h **** #pragma GCC diagnostic ignored "-Wconversion"
  32:../../Drivers/CMSIS/Include/cmsis_gcc.h **** #pragma GCC diagnostic ignored "-Wunused-parameter"
  33:../../Drivers/CMSIS/Include/cmsis_gcc.h **** 
  34:../../Drivers/CMSIS/Include/cmsis_gcc.h **** /* Fallback for __has_builtin */
  35:../../Drivers/CMSIS/Include/cmsis_gcc.h **** #ifndef __has_builtin
  36:../../Drivers/CMSIS/Include/cmsis_gcc.h ****   #define __has_builtin(x) (0)
  37:../../Drivers/CMSIS/Include/cmsis_gcc.h **** #endif
  38:../../Drivers/CMSIS/Include/cmsis_gcc.h **** 
  39:../../Drivers/CMSIS/Include/cmsis_gcc.h **** /* CMSIS compiler specific defines */
  40:../../Drivers/CMSIS/Include/cmsis_gcc.h **** #ifndef   __ASM
  41:../../Drivers/CMSIS/Include/cmsis_gcc.h ****   #define __ASM                                  __asm
  42:../../Drivers/CMSIS/Include/cmsis_gcc.h **** #endif
  43:../../Drivers/CMSIS/Include/cmsis_gcc.h **** #ifndef   __INLINE
ARM GAS  C:\Users\gigig\AppData\Local\Temp\ccXuJv1Z.s 			page 29


  44:../../Drivers/CMSIS/Include/cmsis_gcc.h ****   #define __INLINE                               inline
  45:../../Drivers/CMSIS/Include/cmsis_gcc.h **** #endif
  46:../../Drivers/CMSIS/Include/cmsis_gcc.h **** #ifndef   __STATIC_INLINE
  47:../../Drivers/CMSIS/Include/cmsis_gcc.h ****   #define __STATIC_INLINE                        static inline
  48:../../Drivers/CMSIS/Include/cmsis_gcc.h **** #endif
  49:../../Drivers/CMSIS/Include/cmsis_gcc.h **** #ifndef   __STATIC_FORCEINLINE                 
  50:../../Drivers/CMSIS/Include/cmsis_gcc.h ****   #define __STATIC_FORCEINLINE                   __attribute__((always_inline)) static inline
  51:../../Drivers/CMSIS/Include/cmsis_gcc.h **** #endif                                           
  52:../../Drivers/CMSIS/Include/cmsis_gcc.h **** #ifndef   __NO_RETURN
  53:../../Drivers/CMSIS/Include/cmsis_gcc.h ****   #define __NO_RETURN                            __attribute__((__noreturn__))
  54:../../Drivers/CMSIS/Include/cmsis_gcc.h **** #endif
  55:../../Drivers/CMSIS/Include/cmsis_gcc.h **** #ifndef   __USED
  56:../../Drivers/CMSIS/Include/cmsis_gcc.h ****   #define __USED                                 __attribute__((used))
  57:../../Drivers/CMSIS/Include/cmsis_gcc.h **** #endif
  58:../../Drivers/CMSIS/Include/cmsis_gcc.h **** #ifndef   __WEAK
  59:../../Drivers/CMSIS/Include/cmsis_gcc.h ****   #define __WEAK                                 __attribute__((weak))
  60:../../Drivers/CMSIS/Include/cmsis_gcc.h **** #endif
  61:../../Drivers/CMSIS/Include/cmsis_gcc.h **** #ifndef   __PACKED
  62:../../Drivers/CMSIS/Include/cmsis_gcc.h ****   #define __PACKED                               __attribute__((packed, aligned(1)))
  63:../../Drivers/CMSIS/Include/cmsis_gcc.h **** #endif
  64:../../Drivers/CMSIS/Include/cmsis_gcc.h **** #ifndef   __PACKED_STRUCT
  65:../../Drivers/CMSIS/Include/cmsis_gcc.h ****   #define __PACKED_STRUCT                        struct __attribute__((packed, aligned(1)))
  66:../../Drivers/CMSIS/Include/cmsis_gcc.h **** #endif
  67:../../Drivers/CMSIS/Include/cmsis_gcc.h **** #ifndef   __PACKED_UNION
  68:../../Drivers/CMSIS/Include/cmsis_gcc.h ****   #define __PACKED_UNION                         union __attribute__((packed, aligned(1)))
  69:../../Drivers/CMSIS/Include/cmsis_gcc.h **** #endif
  70:../../Drivers/CMSIS/Include/cmsis_gcc.h **** #ifndef   __UNALIGNED_UINT32        /* deprecated */
  71:../../Drivers/CMSIS/Include/cmsis_gcc.h ****   #pragma GCC diagnostic push
  72:../../Drivers/CMSIS/Include/cmsis_gcc.h ****   #pragma GCC diagnostic ignored "-Wpacked"
  73:../../Drivers/CMSIS/Include/cmsis_gcc.h ****   #pragma GCC diagnostic ignored "-Wattributes"
  74:../../Drivers/CMSIS/Include/cmsis_gcc.h ****   struct __attribute__((packed)) T_UINT32 { uint32_t v; };
  75:../../Drivers/CMSIS/Include/cmsis_gcc.h ****   #pragma GCC diagnostic pop
  76:../../Drivers/CMSIS/Include/cmsis_gcc.h ****   #define __UNALIGNED_UINT32(x)                  (((struct T_UINT32 *)(x))->v)
  77:../../Drivers/CMSIS/Include/cmsis_gcc.h **** #endif
  78:../../Drivers/CMSIS/Include/cmsis_gcc.h **** #ifndef   __UNALIGNED_UINT16_WRITE
  79:../../Drivers/CMSIS/Include/cmsis_gcc.h ****   #pragma GCC diagnostic push
  80:../../Drivers/CMSIS/Include/cmsis_gcc.h ****   #pragma GCC diagnostic ignored "-Wpacked"
  81:../../Drivers/CMSIS/Include/cmsis_gcc.h ****   #pragma GCC diagnostic ignored "-Wattributes"
  82:../../Drivers/CMSIS/Include/cmsis_gcc.h ****   __PACKED_STRUCT T_UINT16_WRITE { uint16_t v; };
  83:../../Drivers/CMSIS/Include/cmsis_gcc.h ****   #pragma GCC diagnostic pop
  84:../../Drivers/CMSIS/Include/cmsis_gcc.h ****   #define __UNALIGNED_UINT16_WRITE(addr, val)    (void)((((struct T_UINT16_WRITE *)(void *)(addr))-
  85:../../Drivers/CMSIS/Include/cmsis_gcc.h **** #endif
  86:../../Drivers/CMSIS/Include/cmsis_gcc.h **** #ifndef   __UNALIGNED_UINT16_READ
  87:../../Drivers/CMSIS/Include/cmsis_gcc.h ****   #pragma GCC diagnostic push
  88:../../Drivers/CMSIS/Include/cmsis_gcc.h ****   #pragma GCC diagnostic ignored "-Wpacked"
  89:../../Drivers/CMSIS/Include/cmsis_gcc.h ****   #pragma GCC diagnostic ignored "-Wattributes"
  90:../../Drivers/CMSIS/Include/cmsis_gcc.h ****   __PACKED_STRUCT T_UINT16_READ { uint16_t v; };
  91:../../Drivers/CMSIS/Include/cmsis_gcc.h ****   #pragma GCC diagnostic pop
  92:../../Drivers/CMSIS/Include/cmsis_gcc.h ****   #define __UNALIGNED_UINT16_READ(addr)          (((const struct T_UINT16_READ *)(const void *)(add
  93:../../Drivers/CMSIS/Include/cmsis_gcc.h **** #endif
  94:../../Drivers/CMSIS/Include/cmsis_gcc.h **** #ifndef   __UNALIGNED_UINT32_WRITE
  95:../../Drivers/CMSIS/Include/cmsis_gcc.h ****   #pragma GCC diagnostic push
  96:../../Drivers/CMSIS/Include/cmsis_gcc.h ****   #pragma GCC diagnostic ignored "-Wpacked"
  97:../../Drivers/CMSIS/Include/cmsis_gcc.h ****   #pragma GCC diagnostic ignored "-Wattributes"
  98:../../Drivers/CMSIS/Include/cmsis_gcc.h ****   __PACKED_STRUCT T_UINT32_WRITE { uint32_t v; };
  99:../../Drivers/CMSIS/Include/cmsis_gcc.h ****   #pragma GCC diagnostic pop
 100:../../Drivers/CMSIS/Include/cmsis_gcc.h ****   #define __UNALIGNED_UINT32_WRITE(addr, val)    (void)((((struct T_UINT32_WRITE *)(void *)(addr))-
ARM GAS  C:\Users\gigig\AppData\Local\Temp\ccXuJv1Z.s 			page 30


 101:../../Drivers/CMSIS/Include/cmsis_gcc.h **** #endif
 102:../../Drivers/CMSIS/Include/cmsis_gcc.h **** #ifndef   __UNALIGNED_UINT32_READ
 103:../../Drivers/CMSIS/Include/cmsis_gcc.h ****   #pragma GCC diagnostic push
 104:../../Drivers/CMSIS/Include/cmsis_gcc.h ****   #pragma GCC diagnostic ignored "-Wpacked"
 105:../../Drivers/CMSIS/Include/cmsis_gcc.h ****   #pragma GCC diagnostic ignored "-Wattributes"
 106:../../Drivers/CMSIS/Include/cmsis_gcc.h ****   __PACKED_STRUCT T_UINT32_READ { uint32_t v; };
 107:../../Drivers/CMSIS/Include/cmsis_gcc.h ****   #pragma GCC diagnostic pop
 108:../../Drivers/CMSIS/Include/cmsis_gcc.h ****   #define __UNALIGNED_UINT32_READ(addr)          (((const struct T_UINT32_READ *)(const void *)(add
 109:../../Drivers/CMSIS/Include/cmsis_gcc.h **** #endif
 110:../../Drivers/CMSIS/Include/cmsis_gcc.h **** #ifndef   __ALIGNED
 111:../../Drivers/CMSIS/Include/cmsis_gcc.h ****   #define __ALIGNED(x)                           __attribute__((aligned(x)))
 112:../../Drivers/CMSIS/Include/cmsis_gcc.h **** #endif
 113:../../Drivers/CMSIS/Include/cmsis_gcc.h **** #ifndef   __RESTRICT
 114:../../Drivers/CMSIS/Include/cmsis_gcc.h ****   #define __RESTRICT                             __restrict
 115:../../Drivers/CMSIS/Include/cmsis_gcc.h **** #endif
 116:../../Drivers/CMSIS/Include/cmsis_gcc.h **** #ifndef   __COMPILER_BARRIER
 117:../../Drivers/CMSIS/Include/cmsis_gcc.h ****   #define __COMPILER_BARRIER()                   __ASM volatile("":::"memory")
 118:../../Drivers/CMSIS/Include/cmsis_gcc.h **** #endif
 119:../../Drivers/CMSIS/Include/cmsis_gcc.h **** 
 120:../../Drivers/CMSIS/Include/cmsis_gcc.h **** /* #########################  Startup and Lowlevel Init  ######################## */
 121:../../Drivers/CMSIS/Include/cmsis_gcc.h **** 
 122:../../Drivers/CMSIS/Include/cmsis_gcc.h **** #ifndef __PROGRAM_START
 123:../../Drivers/CMSIS/Include/cmsis_gcc.h **** 
 124:../../Drivers/CMSIS/Include/cmsis_gcc.h **** /**
 125:../../Drivers/CMSIS/Include/cmsis_gcc.h ****   \brief   Initializes data and bss sections
 126:../../Drivers/CMSIS/Include/cmsis_gcc.h ****   \details This default implementations initialized all data and additional bss
 127:../../Drivers/CMSIS/Include/cmsis_gcc.h ****            sections relying on .copy.table and .zero.table specified properly
 128:../../Drivers/CMSIS/Include/cmsis_gcc.h ****            in the used linker script.
 129:../../Drivers/CMSIS/Include/cmsis_gcc.h ****   
 130:../../Drivers/CMSIS/Include/cmsis_gcc.h ****  */
 131:../../Drivers/CMSIS/Include/cmsis_gcc.h **** __STATIC_FORCEINLINE __NO_RETURN void __cmsis_start(void)
 132:../../Drivers/CMSIS/Include/cmsis_gcc.h **** {
 133:../../Drivers/CMSIS/Include/cmsis_gcc.h ****   extern void _start(void) __NO_RETURN;
 134:../../Drivers/CMSIS/Include/cmsis_gcc.h ****   
 135:../../Drivers/CMSIS/Include/cmsis_gcc.h ****   typedef struct {
 136:../../Drivers/CMSIS/Include/cmsis_gcc.h ****     uint32_t const* src;
 137:../../Drivers/CMSIS/Include/cmsis_gcc.h ****     uint32_t* dest;
 138:../../Drivers/CMSIS/Include/cmsis_gcc.h ****     uint32_t  wlen;
 139:../../Drivers/CMSIS/Include/cmsis_gcc.h ****   } __copy_table_t;
 140:../../Drivers/CMSIS/Include/cmsis_gcc.h ****   
 141:../../Drivers/CMSIS/Include/cmsis_gcc.h ****   typedef struct {
 142:../../Drivers/CMSIS/Include/cmsis_gcc.h ****     uint32_t* dest;
 143:../../Drivers/CMSIS/Include/cmsis_gcc.h ****     uint32_t  wlen;
 144:../../Drivers/CMSIS/Include/cmsis_gcc.h ****   } __zero_table_t;
 145:../../Drivers/CMSIS/Include/cmsis_gcc.h ****   
 146:../../Drivers/CMSIS/Include/cmsis_gcc.h ****   extern const __copy_table_t __copy_table_start__;
 147:../../Drivers/CMSIS/Include/cmsis_gcc.h ****   extern const __copy_table_t __copy_table_end__;
 148:../../Drivers/CMSIS/Include/cmsis_gcc.h ****   extern const __zero_table_t __zero_table_start__;
 149:../../Drivers/CMSIS/Include/cmsis_gcc.h ****   extern const __zero_table_t __zero_table_end__;
 150:../../Drivers/CMSIS/Include/cmsis_gcc.h **** 
 151:../../Drivers/CMSIS/Include/cmsis_gcc.h ****   for (__copy_table_t const* pTable = &__copy_table_start__; pTable < &__copy_table_end__; ++pTable
 152:../../Drivers/CMSIS/Include/cmsis_gcc.h ****     for(uint32_t i=0u; i<pTable->wlen; ++i) {
 153:../../Drivers/CMSIS/Include/cmsis_gcc.h ****       pTable->dest[i] = pTable->src[i];
 154:../../Drivers/CMSIS/Include/cmsis_gcc.h ****     }
 155:../../Drivers/CMSIS/Include/cmsis_gcc.h ****   }
 156:../../Drivers/CMSIS/Include/cmsis_gcc.h ****  
 157:../../Drivers/CMSIS/Include/cmsis_gcc.h ****   for (__zero_table_t const* pTable = &__zero_table_start__; pTable < &__zero_table_end__; ++pTable
ARM GAS  C:\Users\gigig\AppData\Local\Temp\ccXuJv1Z.s 			page 31


 158:../../Drivers/CMSIS/Include/cmsis_gcc.h ****     for(uint32_t i=0u; i<pTable->wlen; ++i) {
 159:../../Drivers/CMSIS/Include/cmsis_gcc.h ****       pTable->dest[i] = 0u;
 160:../../Drivers/CMSIS/Include/cmsis_gcc.h ****     }
 161:../../Drivers/CMSIS/Include/cmsis_gcc.h ****   }
 162:../../Drivers/CMSIS/Include/cmsis_gcc.h ****  
 163:../../Drivers/CMSIS/Include/cmsis_gcc.h ****   _start();
 164:../../Drivers/CMSIS/Include/cmsis_gcc.h **** }
 165:../../Drivers/CMSIS/Include/cmsis_gcc.h ****   
 166:../../Drivers/CMSIS/Include/cmsis_gcc.h **** #define __PROGRAM_START           __cmsis_start
 167:../../Drivers/CMSIS/Include/cmsis_gcc.h **** #endif
 168:../../Drivers/CMSIS/Include/cmsis_gcc.h **** 
 169:../../Drivers/CMSIS/Include/cmsis_gcc.h **** #ifndef __INITIAL_SP
 170:../../Drivers/CMSIS/Include/cmsis_gcc.h **** #define __INITIAL_SP              __StackTop
 171:../../Drivers/CMSIS/Include/cmsis_gcc.h **** #endif
 172:../../Drivers/CMSIS/Include/cmsis_gcc.h **** 
 173:../../Drivers/CMSIS/Include/cmsis_gcc.h **** #ifndef __STACK_LIMIT
 174:../../Drivers/CMSIS/Include/cmsis_gcc.h **** #define __STACK_LIMIT             __StackLimit
 175:../../Drivers/CMSIS/Include/cmsis_gcc.h **** #endif
 176:../../Drivers/CMSIS/Include/cmsis_gcc.h **** 
 177:../../Drivers/CMSIS/Include/cmsis_gcc.h **** #ifndef __VECTOR_TABLE
 178:../../Drivers/CMSIS/Include/cmsis_gcc.h **** #define __VECTOR_TABLE            __Vectors
 179:../../Drivers/CMSIS/Include/cmsis_gcc.h **** #endif
 180:../../Drivers/CMSIS/Include/cmsis_gcc.h **** 
 181:../../Drivers/CMSIS/Include/cmsis_gcc.h **** #ifndef __VECTOR_TABLE_ATTRIBUTE
 182:../../Drivers/CMSIS/Include/cmsis_gcc.h **** #define __VECTOR_TABLE_ATTRIBUTE  __attribute((used, section(".vectors")))
 183:../../Drivers/CMSIS/Include/cmsis_gcc.h **** #endif
 184:../../Drivers/CMSIS/Include/cmsis_gcc.h **** 
 185:../../Drivers/CMSIS/Include/cmsis_gcc.h **** /* ###########################  Core Function Access  ########################### */
 186:../../Drivers/CMSIS/Include/cmsis_gcc.h **** /** \ingroup  CMSIS_Core_FunctionInterface
 187:../../Drivers/CMSIS/Include/cmsis_gcc.h ****     \defgroup CMSIS_Core_RegAccFunctions CMSIS Core Register Access Functions
 188:../../Drivers/CMSIS/Include/cmsis_gcc.h ****   @{
 189:../../Drivers/CMSIS/Include/cmsis_gcc.h ****  */
 190:../../Drivers/CMSIS/Include/cmsis_gcc.h **** 
 191:../../Drivers/CMSIS/Include/cmsis_gcc.h **** /**
 192:../../Drivers/CMSIS/Include/cmsis_gcc.h ****   \brief   Enable IRQ Interrupts
 193:../../Drivers/CMSIS/Include/cmsis_gcc.h ****   \details Enables IRQ interrupts by clearing the I-bit in the CPSR.
 194:../../Drivers/CMSIS/Include/cmsis_gcc.h ****            Can only be executed in Privileged modes.
 195:../../Drivers/CMSIS/Include/cmsis_gcc.h ****  */
 196:../../Drivers/CMSIS/Include/cmsis_gcc.h **** __STATIC_FORCEINLINE void __enable_irq(void)
 197:../../Drivers/CMSIS/Include/cmsis_gcc.h **** {
 198:../../Drivers/CMSIS/Include/cmsis_gcc.h ****   __ASM volatile ("cpsie i" : : : "memory");
 199:../../Drivers/CMSIS/Include/cmsis_gcc.h **** }
 200:../../Drivers/CMSIS/Include/cmsis_gcc.h **** 
 201:../../Drivers/CMSIS/Include/cmsis_gcc.h **** 
 202:../../Drivers/CMSIS/Include/cmsis_gcc.h **** /**
 203:../../Drivers/CMSIS/Include/cmsis_gcc.h ****   \brief   Disable IRQ Interrupts
 204:../../Drivers/CMSIS/Include/cmsis_gcc.h ****   \details Disables IRQ interrupts by setting the I-bit in the CPSR.
 205:../../Drivers/CMSIS/Include/cmsis_gcc.h ****            Can only be executed in Privileged modes.
 206:../../Drivers/CMSIS/Include/cmsis_gcc.h ****  */
 207:../../Drivers/CMSIS/Include/cmsis_gcc.h **** __STATIC_FORCEINLINE void __disable_irq(void)
 208:../../Drivers/CMSIS/Include/cmsis_gcc.h **** {
 209:../../Drivers/CMSIS/Include/cmsis_gcc.h ****   __ASM volatile ("cpsid i" : : : "memory");
 210:../../Drivers/CMSIS/Include/cmsis_gcc.h **** }
 211:../../Drivers/CMSIS/Include/cmsis_gcc.h **** 
 212:../../Drivers/CMSIS/Include/cmsis_gcc.h **** 
 213:../../Drivers/CMSIS/Include/cmsis_gcc.h **** /**
 214:../../Drivers/CMSIS/Include/cmsis_gcc.h ****   \brief   Get Control Register
ARM GAS  C:\Users\gigig\AppData\Local\Temp\ccXuJv1Z.s 			page 32


 215:../../Drivers/CMSIS/Include/cmsis_gcc.h ****   \details Returns the content of the Control Register.
 216:../../Drivers/CMSIS/Include/cmsis_gcc.h ****   \return               Control Register value
 217:../../Drivers/CMSIS/Include/cmsis_gcc.h ****  */
 218:../../Drivers/CMSIS/Include/cmsis_gcc.h **** __STATIC_FORCEINLINE uint32_t __get_CONTROL(void)
 219:../../Drivers/CMSIS/Include/cmsis_gcc.h **** {
 220:../../Drivers/CMSIS/Include/cmsis_gcc.h ****   uint32_t result;
 221:../../Drivers/CMSIS/Include/cmsis_gcc.h **** 
 222:../../Drivers/CMSIS/Include/cmsis_gcc.h ****   __ASM volatile ("MRS %0, control" : "=r" (result) );
 223:../../Drivers/CMSIS/Include/cmsis_gcc.h ****   return(result);
 224:../../Drivers/CMSIS/Include/cmsis_gcc.h **** }
 225:../../Drivers/CMSIS/Include/cmsis_gcc.h **** 
 226:../../Drivers/CMSIS/Include/cmsis_gcc.h **** 
 227:../../Drivers/CMSIS/Include/cmsis_gcc.h **** #if (defined (__ARM_FEATURE_CMSE ) && (__ARM_FEATURE_CMSE == 3))
 228:../../Drivers/CMSIS/Include/cmsis_gcc.h **** /**
 229:../../Drivers/CMSIS/Include/cmsis_gcc.h ****   \brief   Get Control Register (non-secure)
 230:../../Drivers/CMSIS/Include/cmsis_gcc.h ****   \details Returns the content of the non-secure Control Register when in secure mode.
 231:../../Drivers/CMSIS/Include/cmsis_gcc.h ****   \return               non-secure Control Register value
 232:../../Drivers/CMSIS/Include/cmsis_gcc.h ****  */
 233:../../Drivers/CMSIS/Include/cmsis_gcc.h **** __STATIC_FORCEINLINE uint32_t __TZ_get_CONTROL_NS(void)
 234:../../Drivers/CMSIS/Include/cmsis_gcc.h **** {
 235:../../Drivers/CMSIS/Include/cmsis_gcc.h ****   uint32_t result;
 236:../../Drivers/CMSIS/Include/cmsis_gcc.h **** 
 237:../../Drivers/CMSIS/Include/cmsis_gcc.h ****   __ASM volatile ("MRS %0, control_ns" : "=r" (result) );
 238:../../Drivers/CMSIS/Include/cmsis_gcc.h ****   return(result);
 239:../../Drivers/CMSIS/Include/cmsis_gcc.h **** }
 240:../../Drivers/CMSIS/Include/cmsis_gcc.h **** #endif
 241:../../Drivers/CMSIS/Include/cmsis_gcc.h **** 
 242:../../Drivers/CMSIS/Include/cmsis_gcc.h **** 
 243:../../Drivers/CMSIS/Include/cmsis_gcc.h **** /**
 244:../../Drivers/CMSIS/Include/cmsis_gcc.h ****   \brief   Set Control Register
 245:../../Drivers/CMSIS/Include/cmsis_gcc.h ****   \details Writes the given value to the Control Register.
 246:../../Drivers/CMSIS/Include/cmsis_gcc.h ****   \param [in]    control  Control Register value to set
 247:../../Drivers/CMSIS/Include/cmsis_gcc.h ****  */
 248:../../Drivers/CMSIS/Include/cmsis_gcc.h **** __STATIC_FORCEINLINE void __set_CONTROL(uint32_t control)
 249:../../Drivers/CMSIS/Include/cmsis_gcc.h **** {
 250:../../Drivers/CMSIS/Include/cmsis_gcc.h ****   __ASM volatile ("MSR control, %0" : : "r" (control) : "memory");
 251:../../Drivers/CMSIS/Include/cmsis_gcc.h **** }
 252:../../Drivers/CMSIS/Include/cmsis_gcc.h **** 
 253:../../Drivers/CMSIS/Include/cmsis_gcc.h **** 
 254:../../Drivers/CMSIS/Include/cmsis_gcc.h **** #if (defined (__ARM_FEATURE_CMSE ) && (__ARM_FEATURE_CMSE == 3))
 255:../../Drivers/CMSIS/Include/cmsis_gcc.h **** /**
 256:../../Drivers/CMSIS/Include/cmsis_gcc.h ****   \brief   Set Control Register (non-secure)
 257:../../Drivers/CMSIS/Include/cmsis_gcc.h ****   \details Writes the given value to the non-secure Control Register when in secure state.
 258:../../Drivers/CMSIS/Include/cmsis_gcc.h ****   \param [in]    control  Control Register value to set
 259:../../Drivers/CMSIS/Include/cmsis_gcc.h ****  */
 260:../../Drivers/CMSIS/Include/cmsis_gcc.h **** __STATIC_FORCEINLINE void __TZ_set_CONTROL_NS(uint32_t control)
 261:../../Drivers/CMSIS/Include/cmsis_gcc.h **** {
 262:../../Drivers/CMSIS/Include/cmsis_gcc.h ****   __ASM volatile ("MSR control_ns, %0" : : "r" (control) : "memory");
 263:../../Drivers/CMSIS/Include/cmsis_gcc.h **** }
 264:../../Drivers/CMSIS/Include/cmsis_gcc.h **** #endif
 265:../../Drivers/CMSIS/Include/cmsis_gcc.h **** 
 266:../../Drivers/CMSIS/Include/cmsis_gcc.h **** 
 267:../../Drivers/CMSIS/Include/cmsis_gcc.h **** /**
 268:../../Drivers/CMSIS/Include/cmsis_gcc.h ****   \brief   Get IPSR Register
 269:../../Drivers/CMSIS/Include/cmsis_gcc.h ****   \details Returns the content of the IPSR Register.
 270:../../Drivers/CMSIS/Include/cmsis_gcc.h ****   \return               IPSR Register value
 271:../../Drivers/CMSIS/Include/cmsis_gcc.h ****  */
ARM GAS  C:\Users\gigig\AppData\Local\Temp\ccXuJv1Z.s 			page 33


 272:../../Drivers/CMSIS/Include/cmsis_gcc.h **** __STATIC_FORCEINLINE uint32_t __get_IPSR(void)
 273:../../Drivers/CMSIS/Include/cmsis_gcc.h **** {
 274:../../Drivers/CMSIS/Include/cmsis_gcc.h ****   uint32_t result;
 275:../../Drivers/CMSIS/Include/cmsis_gcc.h **** 
 276:../../Drivers/CMSIS/Include/cmsis_gcc.h ****   __ASM volatile ("MRS %0, ipsr" : "=r" (result) );
 277:../../Drivers/CMSIS/Include/cmsis_gcc.h ****   return(result);
 278:../../Drivers/CMSIS/Include/cmsis_gcc.h **** }
 279:../../Drivers/CMSIS/Include/cmsis_gcc.h **** 
 280:../../Drivers/CMSIS/Include/cmsis_gcc.h **** 
 281:../../Drivers/CMSIS/Include/cmsis_gcc.h **** /**
 282:../../Drivers/CMSIS/Include/cmsis_gcc.h ****   \brief   Get APSR Register
 283:../../Drivers/CMSIS/Include/cmsis_gcc.h ****   \details Returns the content of the APSR Register.
 284:../../Drivers/CMSIS/Include/cmsis_gcc.h ****   \return               APSR Register value
 285:../../Drivers/CMSIS/Include/cmsis_gcc.h ****  */
 286:../../Drivers/CMSIS/Include/cmsis_gcc.h **** __STATIC_FORCEINLINE uint32_t __get_APSR(void)
 287:../../Drivers/CMSIS/Include/cmsis_gcc.h **** {
 288:../../Drivers/CMSIS/Include/cmsis_gcc.h ****   uint32_t result;
 289:../../Drivers/CMSIS/Include/cmsis_gcc.h **** 
 290:../../Drivers/CMSIS/Include/cmsis_gcc.h ****   __ASM volatile ("MRS %0, apsr" : "=r" (result) );
 291:../../Drivers/CMSIS/Include/cmsis_gcc.h ****   return(result);
 292:../../Drivers/CMSIS/Include/cmsis_gcc.h **** }
 293:../../Drivers/CMSIS/Include/cmsis_gcc.h **** 
 294:../../Drivers/CMSIS/Include/cmsis_gcc.h **** 
 295:../../Drivers/CMSIS/Include/cmsis_gcc.h **** /**
 296:../../Drivers/CMSIS/Include/cmsis_gcc.h ****   \brief   Get xPSR Register
 297:../../Drivers/CMSIS/Include/cmsis_gcc.h ****   \details Returns the content of the xPSR Register.
 298:../../Drivers/CMSIS/Include/cmsis_gcc.h ****   \return               xPSR Register value
 299:../../Drivers/CMSIS/Include/cmsis_gcc.h ****  */
 300:../../Drivers/CMSIS/Include/cmsis_gcc.h **** __STATIC_FORCEINLINE uint32_t __get_xPSR(void)
 301:../../Drivers/CMSIS/Include/cmsis_gcc.h **** {
 302:../../Drivers/CMSIS/Include/cmsis_gcc.h ****   uint32_t result;
 303:../../Drivers/CMSIS/Include/cmsis_gcc.h **** 
 304:../../Drivers/CMSIS/Include/cmsis_gcc.h ****   __ASM volatile ("MRS %0, xpsr" : "=r" (result) );
 305:../../Drivers/CMSIS/Include/cmsis_gcc.h ****   return(result);
 306:../../Drivers/CMSIS/Include/cmsis_gcc.h **** }
 307:../../Drivers/CMSIS/Include/cmsis_gcc.h **** 
 308:../../Drivers/CMSIS/Include/cmsis_gcc.h **** 
 309:../../Drivers/CMSIS/Include/cmsis_gcc.h **** /**
 310:../../Drivers/CMSIS/Include/cmsis_gcc.h ****   \brief   Get Process Stack Pointer
 311:../../Drivers/CMSIS/Include/cmsis_gcc.h ****   \details Returns the current value of the Process Stack Pointer (PSP).
 312:../../Drivers/CMSIS/Include/cmsis_gcc.h ****   \return               PSP Register value
 313:../../Drivers/CMSIS/Include/cmsis_gcc.h ****  */
 314:../../Drivers/CMSIS/Include/cmsis_gcc.h **** __STATIC_FORCEINLINE uint32_t __get_PSP(void)
 315:../../Drivers/CMSIS/Include/cmsis_gcc.h **** {
 316:../../Drivers/CMSIS/Include/cmsis_gcc.h ****   uint32_t result;
 317:../../Drivers/CMSIS/Include/cmsis_gcc.h **** 
 318:../../Drivers/CMSIS/Include/cmsis_gcc.h ****   __ASM volatile ("MRS %0, psp"  : "=r" (result) );
 319:../../Drivers/CMSIS/Include/cmsis_gcc.h ****   return(result);
 320:../../Drivers/CMSIS/Include/cmsis_gcc.h **** }
 321:../../Drivers/CMSIS/Include/cmsis_gcc.h **** 
 322:../../Drivers/CMSIS/Include/cmsis_gcc.h **** 
 323:../../Drivers/CMSIS/Include/cmsis_gcc.h **** #if (defined (__ARM_FEATURE_CMSE ) && (__ARM_FEATURE_CMSE == 3))
 324:../../Drivers/CMSIS/Include/cmsis_gcc.h **** /**
 325:../../Drivers/CMSIS/Include/cmsis_gcc.h ****   \brief   Get Process Stack Pointer (non-secure)
 326:../../Drivers/CMSIS/Include/cmsis_gcc.h ****   \details Returns the current value of the non-secure Process Stack Pointer (PSP) when in secure s
 327:../../Drivers/CMSIS/Include/cmsis_gcc.h ****   \return               PSP Register value
 328:../../Drivers/CMSIS/Include/cmsis_gcc.h ****  */
ARM GAS  C:\Users\gigig\AppData\Local\Temp\ccXuJv1Z.s 			page 34


 329:../../Drivers/CMSIS/Include/cmsis_gcc.h **** __STATIC_FORCEINLINE uint32_t __TZ_get_PSP_NS(void)
 330:../../Drivers/CMSIS/Include/cmsis_gcc.h **** {
 331:../../Drivers/CMSIS/Include/cmsis_gcc.h ****   uint32_t result;
 332:../../Drivers/CMSIS/Include/cmsis_gcc.h **** 
 333:../../Drivers/CMSIS/Include/cmsis_gcc.h ****   __ASM volatile ("MRS %0, psp_ns"  : "=r" (result) );
 334:../../Drivers/CMSIS/Include/cmsis_gcc.h ****   return(result);
 335:../../Drivers/CMSIS/Include/cmsis_gcc.h **** }
 336:../../Drivers/CMSIS/Include/cmsis_gcc.h **** #endif
 337:../../Drivers/CMSIS/Include/cmsis_gcc.h **** 
 338:../../Drivers/CMSIS/Include/cmsis_gcc.h **** 
 339:../../Drivers/CMSIS/Include/cmsis_gcc.h **** /**
 340:../../Drivers/CMSIS/Include/cmsis_gcc.h ****   \brief   Set Process Stack Pointer
 341:../../Drivers/CMSIS/Include/cmsis_gcc.h ****   \details Assigns the given value to the Process Stack Pointer (PSP).
 342:../../Drivers/CMSIS/Include/cmsis_gcc.h ****   \param [in]    topOfProcStack  Process Stack Pointer value to set
 343:../../Drivers/CMSIS/Include/cmsis_gcc.h ****  */
 344:../../Drivers/CMSIS/Include/cmsis_gcc.h **** __STATIC_FORCEINLINE void __set_PSP(uint32_t topOfProcStack)
 345:../../Drivers/CMSIS/Include/cmsis_gcc.h **** {
 346:../../Drivers/CMSIS/Include/cmsis_gcc.h ****   __ASM volatile ("MSR psp, %0" : : "r" (topOfProcStack) : );
 347:../../Drivers/CMSIS/Include/cmsis_gcc.h **** }
 348:../../Drivers/CMSIS/Include/cmsis_gcc.h **** 
 349:../../Drivers/CMSIS/Include/cmsis_gcc.h **** 
 350:../../Drivers/CMSIS/Include/cmsis_gcc.h **** #if (defined (__ARM_FEATURE_CMSE ) && (__ARM_FEATURE_CMSE == 3))
 351:../../Drivers/CMSIS/Include/cmsis_gcc.h **** /**
 352:../../Drivers/CMSIS/Include/cmsis_gcc.h ****   \brief   Set Process Stack Pointer (non-secure)
 353:../../Drivers/CMSIS/Include/cmsis_gcc.h ****   \details Assigns the given value to the non-secure Process Stack Pointer (PSP) when in secure sta
 354:../../Drivers/CMSIS/Include/cmsis_gcc.h ****   \param [in]    topOfProcStack  Process Stack Pointer value to set
 355:../../Drivers/CMSIS/Include/cmsis_gcc.h ****  */
 356:../../Drivers/CMSIS/Include/cmsis_gcc.h **** __STATIC_FORCEINLINE void __TZ_set_PSP_NS(uint32_t topOfProcStack)
 357:../../Drivers/CMSIS/Include/cmsis_gcc.h **** {
 358:../../Drivers/CMSIS/Include/cmsis_gcc.h ****   __ASM volatile ("MSR psp_ns, %0" : : "r" (topOfProcStack) : );
 359:../../Drivers/CMSIS/Include/cmsis_gcc.h **** }
 360:../../Drivers/CMSIS/Include/cmsis_gcc.h **** #endif
 361:../../Drivers/CMSIS/Include/cmsis_gcc.h **** 
 362:../../Drivers/CMSIS/Include/cmsis_gcc.h **** 
 363:../../Drivers/CMSIS/Include/cmsis_gcc.h **** /**
 364:../../Drivers/CMSIS/Include/cmsis_gcc.h ****   \brief   Get Main Stack Pointer
 365:../../Drivers/CMSIS/Include/cmsis_gcc.h ****   \details Returns the current value of the Main Stack Pointer (MSP).
 366:../../Drivers/CMSIS/Include/cmsis_gcc.h ****   \return               MSP Register value
 367:../../Drivers/CMSIS/Include/cmsis_gcc.h ****  */
 368:../../Drivers/CMSIS/Include/cmsis_gcc.h **** __STATIC_FORCEINLINE uint32_t __get_MSP(void)
 369:../../Drivers/CMSIS/Include/cmsis_gcc.h **** {
 370:../../Drivers/CMSIS/Include/cmsis_gcc.h ****   uint32_t result;
 371:../../Drivers/CMSIS/Include/cmsis_gcc.h **** 
 372:../../Drivers/CMSIS/Include/cmsis_gcc.h ****   __ASM volatile ("MRS %0, msp" : "=r" (result) );
 373:../../Drivers/CMSIS/Include/cmsis_gcc.h ****   return(result);
 374:../../Drivers/CMSIS/Include/cmsis_gcc.h **** }
 375:../../Drivers/CMSIS/Include/cmsis_gcc.h **** 
 376:../../Drivers/CMSIS/Include/cmsis_gcc.h **** 
 377:../../Drivers/CMSIS/Include/cmsis_gcc.h **** #if (defined (__ARM_FEATURE_CMSE ) && (__ARM_FEATURE_CMSE == 3))
 378:../../Drivers/CMSIS/Include/cmsis_gcc.h **** /**
 379:../../Drivers/CMSIS/Include/cmsis_gcc.h ****   \brief   Get Main Stack Pointer (non-secure)
 380:../../Drivers/CMSIS/Include/cmsis_gcc.h ****   \details Returns the current value of the non-secure Main Stack Pointer (MSP) when in secure stat
 381:../../Drivers/CMSIS/Include/cmsis_gcc.h ****   \return               MSP Register value
 382:../../Drivers/CMSIS/Include/cmsis_gcc.h ****  */
 383:../../Drivers/CMSIS/Include/cmsis_gcc.h **** __STATIC_FORCEINLINE uint32_t __TZ_get_MSP_NS(void)
 384:../../Drivers/CMSIS/Include/cmsis_gcc.h **** {
 385:../../Drivers/CMSIS/Include/cmsis_gcc.h ****   uint32_t result;
ARM GAS  C:\Users\gigig\AppData\Local\Temp\ccXuJv1Z.s 			page 35


 386:../../Drivers/CMSIS/Include/cmsis_gcc.h **** 
 387:../../Drivers/CMSIS/Include/cmsis_gcc.h ****   __ASM volatile ("MRS %0, msp_ns" : "=r" (result) );
 388:../../Drivers/CMSIS/Include/cmsis_gcc.h ****   return(result);
 389:../../Drivers/CMSIS/Include/cmsis_gcc.h **** }
 390:../../Drivers/CMSIS/Include/cmsis_gcc.h **** #endif
 391:../../Drivers/CMSIS/Include/cmsis_gcc.h **** 
 392:../../Drivers/CMSIS/Include/cmsis_gcc.h **** 
 393:../../Drivers/CMSIS/Include/cmsis_gcc.h **** /**
 394:../../Drivers/CMSIS/Include/cmsis_gcc.h ****   \brief   Set Main Stack Pointer
 395:../../Drivers/CMSIS/Include/cmsis_gcc.h ****   \details Assigns the given value to the Main Stack Pointer (MSP).
 396:../../Drivers/CMSIS/Include/cmsis_gcc.h ****   \param [in]    topOfMainStack  Main Stack Pointer value to set
 397:../../Drivers/CMSIS/Include/cmsis_gcc.h ****  */
 398:../../Drivers/CMSIS/Include/cmsis_gcc.h **** __STATIC_FORCEINLINE void __set_MSP(uint32_t topOfMainStack)
 399:../../Drivers/CMSIS/Include/cmsis_gcc.h **** {
 400:../../Drivers/CMSIS/Include/cmsis_gcc.h ****   __ASM volatile ("MSR msp, %0" : : "r" (topOfMainStack) : );
 401:../../Drivers/CMSIS/Include/cmsis_gcc.h **** }
 402:../../Drivers/CMSIS/Include/cmsis_gcc.h **** 
 403:../../Drivers/CMSIS/Include/cmsis_gcc.h **** 
 404:../../Drivers/CMSIS/Include/cmsis_gcc.h **** #if (defined (__ARM_FEATURE_CMSE ) && (__ARM_FEATURE_CMSE == 3))
 405:../../Drivers/CMSIS/Include/cmsis_gcc.h **** /**
 406:../../Drivers/CMSIS/Include/cmsis_gcc.h ****   \brief   Set Main Stack Pointer (non-secure)
 407:../../Drivers/CMSIS/Include/cmsis_gcc.h ****   \details Assigns the given value to the non-secure Main Stack Pointer (MSP) when in secure state.
 408:../../Drivers/CMSIS/Include/cmsis_gcc.h ****   \param [in]    topOfMainStack  Main Stack Pointer value to set
 409:../../Drivers/CMSIS/Include/cmsis_gcc.h ****  */
 410:../../Drivers/CMSIS/Include/cmsis_gcc.h **** __STATIC_FORCEINLINE void __TZ_set_MSP_NS(uint32_t topOfMainStack)
 411:../../Drivers/CMSIS/Include/cmsis_gcc.h **** {
 412:../../Drivers/CMSIS/Include/cmsis_gcc.h ****   __ASM volatile ("MSR msp_ns, %0" : : "r" (topOfMainStack) : );
 413:../../Drivers/CMSIS/Include/cmsis_gcc.h **** }
 414:../../Drivers/CMSIS/Include/cmsis_gcc.h **** #endif
 415:../../Drivers/CMSIS/Include/cmsis_gcc.h **** 
 416:../../Drivers/CMSIS/Include/cmsis_gcc.h **** 
 417:../../Drivers/CMSIS/Include/cmsis_gcc.h **** #if (defined (__ARM_FEATURE_CMSE ) && (__ARM_FEATURE_CMSE == 3))
 418:../../Drivers/CMSIS/Include/cmsis_gcc.h **** /**
 419:../../Drivers/CMSIS/Include/cmsis_gcc.h ****   \brief   Get Stack Pointer (non-secure)
 420:../../Drivers/CMSIS/Include/cmsis_gcc.h ****   \details Returns the current value of the non-secure Stack Pointer (SP) when in secure state.
 421:../../Drivers/CMSIS/Include/cmsis_gcc.h ****   \return               SP Register value
 422:../../Drivers/CMSIS/Include/cmsis_gcc.h ****  */
 423:../../Drivers/CMSIS/Include/cmsis_gcc.h **** __STATIC_FORCEINLINE uint32_t __TZ_get_SP_NS(void)
 424:../../Drivers/CMSIS/Include/cmsis_gcc.h **** {
 425:../../Drivers/CMSIS/Include/cmsis_gcc.h ****   uint32_t result;
 426:../../Drivers/CMSIS/Include/cmsis_gcc.h **** 
 427:../../Drivers/CMSIS/Include/cmsis_gcc.h ****   __ASM volatile ("MRS %0, sp_ns" : "=r" (result) );
 428:../../Drivers/CMSIS/Include/cmsis_gcc.h ****   return(result);
 429:../../Drivers/CMSIS/Include/cmsis_gcc.h **** }
 430:../../Drivers/CMSIS/Include/cmsis_gcc.h **** 
 431:../../Drivers/CMSIS/Include/cmsis_gcc.h **** 
 432:../../Drivers/CMSIS/Include/cmsis_gcc.h **** /**
 433:../../Drivers/CMSIS/Include/cmsis_gcc.h ****   \brief   Set Stack Pointer (non-secure)
 434:../../Drivers/CMSIS/Include/cmsis_gcc.h ****   \details Assigns the given value to the non-secure Stack Pointer (SP) when in secure state.
 435:../../Drivers/CMSIS/Include/cmsis_gcc.h ****   \param [in]    topOfStack  Stack Pointer value to set
 436:../../Drivers/CMSIS/Include/cmsis_gcc.h ****  */
 437:../../Drivers/CMSIS/Include/cmsis_gcc.h **** __STATIC_FORCEINLINE void __TZ_set_SP_NS(uint32_t topOfStack)
 438:../../Drivers/CMSIS/Include/cmsis_gcc.h **** {
 439:../../Drivers/CMSIS/Include/cmsis_gcc.h ****   __ASM volatile ("MSR sp_ns, %0" : : "r" (topOfStack) : );
 440:../../Drivers/CMSIS/Include/cmsis_gcc.h **** }
 441:../../Drivers/CMSIS/Include/cmsis_gcc.h **** #endif
 442:../../Drivers/CMSIS/Include/cmsis_gcc.h **** 
ARM GAS  C:\Users\gigig\AppData\Local\Temp\ccXuJv1Z.s 			page 36


 443:../../Drivers/CMSIS/Include/cmsis_gcc.h **** 
 444:../../Drivers/CMSIS/Include/cmsis_gcc.h **** /**
 445:../../Drivers/CMSIS/Include/cmsis_gcc.h ****   \brief   Get Priority Mask
 446:../../Drivers/CMSIS/Include/cmsis_gcc.h ****   \details Returns the current state of the priority mask bit from the Priority Mask Register.
 447:../../Drivers/CMSIS/Include/cmsis_gcc.h ****   \return               Priority Mask value
 448:../../Drivers/CMSIS/Include/cmsis_gcc.h ****  */
 449:../../Drivers/CMSIS/Include/cmsis_gcc.h **** __STATIC_FORCEINLINE uint32_t __get_PRIMASK(void)
 450:../../Drivers/CMSIS/Include/cmsis_gcc.h **** {
 451:../../Drivers/CMSIS/Include/cmsis_gcc.h ****   uint32_t result;
 452:../../Drivers/CMSIS/Include/cmsis_gcc.h **** 
 453:../../Drivers/CMSIS/Include/cmsis_gcc.h ****   __ASM volatile ("MRS %0, primask" : "=r" (result) :: "memory");
 454:../../Drivers/CMSIS/Include/cmsis_gcc.h ****   return(result);
 455:../../Drivers/CMSIS/Include/cmsis_gcc.h **** }
 456:../../Drivers/CMSIS/Include/cmsis_gcc.h **** 
 457:../../Drivers/CMSIS/Include/cmsis_gcc.h **** 
 458:../../Drivers/CMSIS/Include/cmsis_gcc.h **** #if (defined (__ARM_FEATURE_CMSE ) && (__ARM_FEATURE_CMSE == 3))
 459:../../Drivers/CMSIS/Include/cmsis_gcc.h **** /**
 460:../../Drivers/CMSIS/Include/cmsis_gcc.h ****   \brief   Get Priority Mask (non-secure)
 461:../../Drivers/CMSIS/Include/cmsis_gcc.h ****   \details Returns the current state of the non-secure priority mask bit from the Priority Mask Reg
 462:../../Drivers/CMSIS/Include/cmsis_gcc.h ****   \return               Priority Mask value
 463:../../Drivers/CMSIS/Include/cmsis_gcc.h ****  */
 464:../../Drivers/CMSIS/Include/cmsis_gcc.h **** __STATIC_FORCEINLINE uint32_t __TZ_get_PRIMASK_NS(void)
 465:../../Drivers/CMSIS/Include/cmsis_gcc.h **** {
 466:../../Drivers/CMSIS/Include/cmsis_gcc.h ****   uint32_t result;
 467:../../Drivers/CMSIS/Include/cmsis_gcc.h **** 
 468:../../Drivers/CMSIS/Include/cmsis_gcc.h ****   __ASM volatile ("MRS %0, primask_ns" : "=r" (result) :: "memory");
 469:../../Drivers/CMSIS/Include/cmsis_gcc.h ****   return(result);
 470:../../Drivers/CMSIS/Include/cmsis_gcc.h **** }
 471:../../Drivers/CMSIS/Include/cmsis_gcc.h **** #endif
 472:../../Drivers/CMSIS/Include/cmsis_gcc.h **** 
 473:../../Drivers/CMSIS/Include/cmsis_gcc.h **** 
 474:../../Drivers/CMSIS/Include/cmsis_gcc.h **** /**
 475:../../Drivers/CMSIS/Include/cmsis_gcc.h ****   \brief   Set Priority Mask
 476:../../Drivers/CMSIS/Include/cmsis_gcc.h ****   \details Assigns the given value to the Priority Mask Register.
 477:../../Drivers/CMSIS/Include/cmsis_gcc.h ****   \param [in]    priMask  Priority Mask
 478:../../Drivers/CMSIS/Include/cmsis_gcc.h ****  */
 479:../../Drivers/CMSIS/Include/cmsis_gcc.h **** __STATIC_FORCEINLINE void __set_PRIMASK(uint32_t priMask)
 480:../../Drivers/CMSIS/Include/cmsis_gcc.h **** {
 481:../../Drivers/CMSIS/Include/cmsis_gcc.h ****   __ASM volatile ("MSR primask, %0" : : "r" (priMask) : "memory");
 482:../../Drivers/CMSIS/Include/cmsis_gcc.h **** }
 483:../../Drivers/CMSIS/Include/cmsis_gcc.h **** 
 484:../../Drivers/CMSIS/Include/cmsis_gcc.h **** 
 485:../../Drivers/CMSIS/Include/cmsis_gcc.h **** #if (defined (__ARM_FEATURE_CMSE ) && (__ARM_FEATURE_CMSE == 3))
 486:../../Drivers/CMSIS/Include/cmsis_gcc.h **** /**
 487:../../Drivers/CMSIS/Include/cmsis_gcc.h ****   \brief   Set Priority Mask (non-secure)
 488:../../Drivers/CMSIS/Include/cmsis_gcc.h ****   \details Assigns the given value to the non-secure Priority Mask Register when in secure state.
 489:../../Drivers/CMSIS/Include/cmsis_gcc.h ****   \param [in]    priMask  Priority Mask
 490:../../Drivers/CMSIS/Include/cmsis_gcc.h ****  */
 491:../../Drivers/CMSIS/Include/cmsis_gcc.h **** __STATIC_FORCEINLINE void __TZ_set_PRIMASK_NS(uint32_t priMask)
 492:../../Drivers/CMSIS/Include/cmsis_gcc.h **** {
 493:../../Drivers/CMSIS/Include/cmsis_gcc.h ****   __ASM volatile ("MSR primask_ns, %0" : : "r" (priMask) : "memory");
 494:../../Drivers/CMSIS/Include/cmsis_gcc.h **** }
 495:../../Drivers/CMSIS/Include/cmsis_gcc.h **** #endif
 496:../../Drivers/CMSIS/Include/cmsis_gcc.h **** 
 497:../../Drivers/CMSIS/Include/cmsis_gcc.h **** 
 498:../../Drivers/CMSIS/Include/cmsis_gcc.h **** #if ((defined (__ARM_ARCH_7M__      ) && (__ARM_ARCH_7M__      == 1)) || \
 499:../../Drivers/CMSIS/Include/cmsis_gcc.h ****      (defined (__ARM_ARCH_7EM__     ) && (__ARM_ARCH_7EM__     == 1)) || \
ARM GAS  C:\Users\gigig\AppData\Local\Temp\ccXuJv1Z.s 			page 37


 500:../../Drivers/CMSIS/Include/cmsis_gcc.h ****      (defined (__ARM_ARCH_8M_MAIN__ ) && (__ARM_ARCH_8M_MAIN__ == 1))    )
 501:../../Drivers/CMSIS/Include/cmsis_gcc.h **** /**
 502:../../Drivers/CMSIS/Include/cmsis_gcc.h ****   \brief   Enable FIQ
 503:../../Drivers/CMSIS/Include/cmsis_gcc.h ****   \details Enables FIQ interrupts by clearing the F-bit in the CPSR.
 504:../../Drivers/CMSIS/Include/cmsis_gcc.h ****            Can only be executed in Privileged modes.
 505:../../Drivers/CMSIS/Include/cmsis_gcc.h ****  */
 506:../../Drivers/CMSIS/Include/cmsis_gcc.h **** __STATIC_FORCEINLINE void __enable_fault_irq(void)
 507:../../Drivers/CMSIS/Include/cmsis_gcc.h **** {
 508:../../Drivers/CMSIS/Include/cmsis_gcc.h ****   __ASM volatile ("cpsie f" : : : "memory");
 509:../../Drivers/CMSIS/Include/cmsis_gcc.h **** }
 510:../../Drivers/CMSIS/Include/cmsis_gcc.h **** 
 511:../../Drivers/CMSIS/Include/cmsis_gcc.h **** 
 512:../../Drivers/CMSIS/Include/cmsis_gcc.h **** /**
 513:../../Drivers/CMSIS/Include/cmsis_gcc.h ****   \brief   Disable FIQ
 514:../../Drivers/CMSIS/Include/cmsis_gcc.h ****   \details Disables FIQ interrupts by setting the F-bit in the CPSR.
 515:../../Drivers/CMSIS/Include/cmsis_gcc.h ****            Can only be executed in Privileged modes.
 516:../../Drivers/CMSIS/Include/cmsis_gcc.h ****  */
 517:../../Drivers/CMSIS/Include/cmsis_gcc.h **** __STATIC_FORCEINLINE void __disable_fault_irq(void)
 518:../../Drivers/CMSIS/Include/cmsis_gcc.h **** {
 519:../../Drivers/CMSIS/Include/cmsis_gcc.h ****   __ASM volatile ("cpsid f" : : : "memory");
 520:../../Drivers/CMSIS/Include/cmsis_gcc.h **** }
 521:../../Drivers/CMSIS/Include/cmsis_gcc.h **** 
 522:../../Drivers/CMSIS/Include/cmsis_gcc.h **** 
 523:../../Drivers/CMSIS/Include/cmsis_gcc.h **** /**
 524:../../Drivers/CMSIS/Include/cmsis_gcc.h ****   \brief   Get Base Priority
 525:../../Drivers/CMSIS/Include/cmsis_gcc.h ****   \details Returns the current value of the Base Priority register.
 526:../../Drivers/CMSIS/Include/cmsis_gcc.h ****   \return               Base Priority register value
 527:../../Drivers/CMSIS/Include/cmsis_gcc.h ****  */
 528:../../Drivers/CMSIS/Include/cmsis_gcc.h **** __STATIC_FORCEINLINE uint32_t __get_BASEPRI(void)
 529:../../Drivers/CMSIS/Include/cmsis_gcc.h **** {
 530:../../Drivers/CMSIS/Include/cmsis_gcc.h ****   uint32_t result;
 531:../../Drivers/CMSIS/Include/cmsis_gcc.h **** 
 532:../../Drivers/CMSIS/Include/cmsis_gcc.h ****   __ASM volatile ("MRS %0, basepri" : "=r" (result) );
 533:../../Drivers/CMSIS/Include/cmsis_gcc.h ****   return(result);
 534:../../Drivers/CMSIS/Include/cmsis_gcc.h **** }
 535:../../Drivers/CMSIS/Include/cmsis_gcc.h **** 
 536:../../Drivers/CMSIS/Include/cmsis_gcc.h **** 
 537:../../Drivers/CMSIS/Include/cmsis_gcc.h **** #if (defined (__ARM_FEATURE_CMSE ) && (__ARM_FEATURE_CMSE == 3))
 538:../../Drivers/CMSIS/Include/cmsis_gcc.h **** /**
 539:../../Drivers/CMSIS/Include/cmsis_gcc.h ****   \brief   Get Base Priority (non-secure)
 540:../../Drivers/CMSIS/Include/cmsis_gcc.h ****   \details Returns the current value of the non-secure Base Priority register when in secure state.
 541:../../Drivers/CMSIS/Include/cmsis_gcc.h ****   \return               Base Priority register value
 542:../../Drivers/CMSIS/Include/cmsis_gcc.h ****  */
 543:../../Drivers/CMSIS/Include/cmsis_gcc.h **** __STATIC_FORCEINLINE uint32_t __TZ_get_BASEPRI_NS(void)
 544:../../Drivers/CMSIS/Include/cmsis_gcc.h **** {
 545:../../Drivers/CMSIS/Include/cmsis_gcc.h ****   uint32_t result;
 546:../../Drivers/CMSIS/Include/cmsis_gcc.h **** 
 547:../../Drivers/CMSIS/Include/cmsis_gcc.h ****   __ASM volatile ("MRS %0, basepri_ns" : "=r" (result) );
 548:../../Drivers/CMSIS/Include/cmsis_gcc.h ****   return(result);
 549:../../Drivers/CMSIS/Include/cmsis_gcc.h **** }
 550:../../Drivers/CMSIS/Include/cmsis_gcc.h **** #endif
 551:../../Drivers/CMSIS/Include/cmsis_gcc.h **** 
 552:../../Drivers/CMSIS/Include/cmsis_gcc.h **** 
 553:../../Drivers/CMSIS/Include/cmsis_gcc.h **** /**
 554:../../Drivers/CMSIS/Include/cmsis_gcc.h ****   \brief   Set Base Priority
 555:../../Drivers/CMSIS/Include/cmsis_gcc.h ****   \details Assigns the given value to the Base Priority register.
 556:../../Drivers/CMSIS/Include/cmsis_gcc.h ****   \param [in]    basePri  Base Priority value to set
ARM GAS  C:\Users\gigig\AppData\Local\Temp\ccXuJv1Z.s 			page 38


 557:../../Drivers/CMSIS/Include/cmsis_gcc.h ****  */
 558:../../Drivers/CMSIS/Include/cmsis_gcc.h **** __STATIC_FORCEINLINE void __set_BASEPRI(uint32_t basePri)
 559:../../Drivers/CMSIS/Include/cmsis_gcc.h **** {
 560:../../Drivers/CMSIS/Include/cmsis_gcc.h ****   __ASM volatile ("MSR basepri, %0" : : "r" (basePri) : "memory");
 561:../../Drivers/CMSIS/Include/cmsis_gcc.h **** }
 562:../../Drivers/CMSIS/Include/cmsis_gcc.h **** 
 563:../../Drivers/CMSIS/Include/cmsis_gcc.h **** 
 564:../../Drivers/CMSIS/Include/cmsis_gcc.h **** #if (defined (__ARM_FEATURE_CMSE ) && (__ARM_FEATURE_CMSE == 3))
 565:../../Drivers/CMSIS/Include/cmsis_gcc.h **** /**
 566:../../Drivers/CMSIS/Include/cmsis_gcc.h ****   \brief   Set Base Priority (non-secure)
 567:../../Drivers/CMSIS/Include/cmsis_gcc.h ****   \details Assigns the given value to the non-secure Base Priority register when in secure state.
 568:../../Drivers/CMSIS/Include/cmsis_gcc.h ****   \param [in]    basePri  Base Priority value to set
 569:../../Drivers/CMSIS/Include/cmsis_gcc.h ****  */
 570:../../Drivers/CMSIS/Include/cmsis_gcc.h **** __STATIC_FORCEINLINE void __TZ_set_BASEPRI_NS(uint32_t basePri)
 571:../../Drivers/CMSIS/Include/cmsis_gcc.h **** {
 572:../../Drivers/CMSIS/Include/cmsis_gcc.h ****   __ASM volatile ("MSR basepri_ns, %0" : : "r" (basePri) : "memory");
 573:../../Drivers/CMSIS/Include/cmsis_gcc.h **** }
 574:../../Drivers/CMSIS/Include/cmsis_gcc.h **** #endif
 575:../../Drivers/CMSIS/Include/cmsis_gcc.h **** 
 576:../../Drivers/CMSIS/Include/cmsis_gcc.h **** 
 577:../../Drivers/CMSIS/Include/cmsis_gcc.h **** /**
 578:../../Drivers/CMSIS/Include/cmsis_gcc.h ****   \brief   Set Base Priority with condition
 579:../../Drivers/CMSIS/Include/cmsis_gcc.h ****   \details Assigns the given value to the Base Priority register only if BASEPRI masking is disable
 580:../../Drivers/CMSIS/Include/cmsis_gcc.h ****            or the new value increases the BASEPRI priority level.
 581:../../Drivers/CMSIS/Include/cmsis_gcc.h ****   \param [in]    basePri  Base Priority value to set
 582:../../Drivers/CMSIS/Include/cmsis_gcc.h ****  */
 583:../../Drivers/CMSIS/Include/cmsis_gcc.h **** __STATIC_FORCEINLINE void __set_BASEPRI_MAX(uint32_t basePri)
 584:../../Drivers/CMSIS/Include/cmsis_gcc.h **** {
 585:../../Drivers/CMSIS/Include/cmsis_gcc.h ****   __ASM volatile ("MSR basepri_max, %0" : : "r" (basePri) : "memory");
 586:../../Drivers/CMSIS/Include/cmsis_gcc.h **** }
 587:../../Drivers/CMSIS/Include/cmsis_gcc.h **** 
 588:../../Drivers/CMSIS/Include/cmsis_gcc.h **** 
 589:../../Drivers/CMSIS/Include/cmsis_gcc.h **** /**
 590:../../Drivers/CMSIS/Include/cmsis_gcc.h ****   \brief   Get Fault Mask
 591:../../Drivers/CMSIS/Include/cmsis_gcc.h ****   \details Returns the current value of the Fault Mask register.
 592:../../Drivers/CMSIS/Include/cmsis_gcc.h ****   \return               Fault Mask register value
 593:../../Drivers/CMSIS/Include/cmsis_gcc.h ****  */
 594:../../Drivers/CMSIS/Include/cmsis_gcc.h **** __STATIC_FORCEINLINE uint32_t __get_FAULTMASK(void)
 595:../../Drivers/CMSIS/Include/cmsis_gcc.h **** {
 596:../../Drivers/CMSIS/Include/cmsis_gcc.h ****   uint32_t result;
 597:../../Drivers/CMSIS/Include/cmsis_gcc.h **** 
 598:../../Drivers/CMSIS/Include/cmsis_gcc.h ****   __ASM volatile ("MRS %0, faultmask" : "=r" (result) );
 599:../../Drivers/CMSIS/Include/cmsis_gcc.h ****   return(result);
 600:../../Drivers/CMSIS/Include/cmsis_gcc.h **** }
 601:../../Drivers/CMSIS/Include/cmsis_gcc.h **** 
 602:../../Drivers/CMSIS/Include/cmsis_gcc.h **** 
 603:../../Drivers/CMSIS/Include/cmsis_gcc.h **** #if (defined (__ARM_FEATURE_CMSE ) && (__ARM_FEATURE_CMSE == 3))
 604:../../Drivers/CMSIS/Include/cmsis_gcc.h **** /**
 605:../../Drivers/CMSIS/Include/cmsis_gcc.h ****   \brief   Get Fault Mask (non-secure)
 606:../../Drivers/CMSIS/Include/cmsis_gcc.h ****   \details Returns the current value of the non-secure Fault Mask register when in secure state.
 607:../../Drivers/CMSIS/Include/cmsis_gcc.h ****   \return               Fault Mask register value
 608:../../Drivers/CMSIS/Include/cmsis_gcc.h ****  */
 609:../../Drivers/CMSIS/Include/cmsis_gcc.h **** __STATIC_FORCEINLINE uint32_t __TZ_get_FAULTMASK_NS(void)
 610:../../Drivers/CMSIS/Include/cmsis_gcc.h **** {
 611:../../Drivers/CMSIS/Include/cmsis_gcc.h ****   uint32_t result;
 612:../../Drivers/CMSIS/Include/cmsis_gcc.h **** 
 613:../../Drivers/CMSIS/Include/cmsis_gcc.h ****   __ASM volatile ("MRS %0, faultmask_ns" : "=r" (result) );
ARM GAS  C:\Users\gigig\AppData\Local\Temp\ccXuJv1Z.s 			page 39


 614:../../Drivers/CMSIS/Include/cmsis_gcc.h ****   return(result);
 615:../../Drivers/CMSIS/Include/cmsis_gcc.h **** }
 616:../../Drivers/CMSIS/Include/cmsis_gcc.h **** #endif
 617:../../Drivers/CMSIS/Include/cmsis_gcc.h **** 
 618:../../Drivers/CMSIS/Include/cmsis_gcc.h **** 
 619:../../Drivers/CMSIS/Include/cmsis_gcc.h **** /**
 620:../../Drivers/CMSIS/Include/cmsis_gcc.h ****   \brief   Set Fault Mask
 621:../../Drivers/CMSIS/Include/cmsis_gcc.h ****   \details Assigns the given value to the Fault Mask register.
 622:../../Drivers/CMSIS/Include/cmsis_gcc.h ****   \param [in]    faultMask  Fault Mask value to set
 623:../../Drivers/CMSIS/Include/cmsis_gcc.h ****  */
 624:../../Drivers/CMSIS/Include/cmsis_gcc.h **** __STATIC_FORCEINLINE void __set_FAULTMASK(uint32_t faultMask)
 625:../../Drivers/CMSIS/Include/cmsis_gcc.h **** {
 626:../../Drivers/CMSIS/Include/cmsis_gcc.h ****   __ASM volatile ("MSR faultmask, %0" : : "r" (faultMask) : "memory");
 627:../../Drivers/CMSIS/Include/cmsis_gcc.h **** }
 628:../../Drivers/CMSIS/Include/cmsis_gcc.h **** 
 629:../../Drivers/CMSIS/Include/cmsis_gcc.h **** 
 630:../../Drivers/CMSIS/Include/cmsis_gcc.h **** #if (defined (__ARM_FEATURE_CMSE ) && (__ARM_FEATURE_CMSE == 3))
 631:../../Drivers/CMSIS/Include/cmsis_gcc.h **** /**
 632:../../Drivers/CMSIS/Include/cmsis_gcc.h ****   \brief   Set Fault Mask (non-secure)
 633:../../Drivers/CMSIS/Include/cmsis_gcc.h ****   \details Assigns the given value to the non-secure Fault Mask register when in secure state.
 634:../../Drivers/CMSIS/Include/cmsis_gcc.h ****   \param [in]    faultMask  Fault Mask value to set
 635:../../Drivers/CMSIS/Include/cmsis_gcc.h ****  */
 636:../../Drivers/CMSIS/Include/cmsis_gcc.h **** __STATIC_FORCEINLINE void __TZ_set_FAULTMASK_NS(uint32_t faultMask)
 637:../../Drivers/CMSIS/Include/cmsis_gcc.h **** {
 638:../../Drivers/CMSIS/Include/cmsis_gcc.h ****   __ASM volatile ("MSR faultmask_ns, %0" : : "r" (faultMask) : "memory");
 639:../../Drivers/CMSIS/Include/cmsis_gcc.h **** }
 640:../../Drivers/CMSIS/Include/cmsis_gcc.h **** #endif
 641:../../Drivers/CMSIS/Include/cmsis_gcc.h **** 
 642:../../Drivers/CMSIS/Include/cmsis_gcc.h **** #endif /* ((defined (__ARM_ARCH_7M__      ) && (__ARM_ARCH_7M__      == 1)) || \
 643:../../Drivers/CMSIS/Include/cmsis_gcc.h ****            (defined (__ARM_ARCH_7EM__     ) && (__ARM_ARCH_7EM__     == 1)) || \
 644:../../Drivers/CMSIS/Include/cmsis_gcc.h ****            (defined (__ARM_ARCH_8M_MAIN__ ) && (__ARM_ARCH_8M_MAIN__ == 1))    ) */
 645:../../Drivers/CMSIS/Include/cmsis_gcc.h **** 
 646:../../Drivers/CMSIS/Include/cmsis_gcc.h **** 
 647:../../Drivers/CMSIS/Include/cmsis_gcc.h **** #if ((defined (__ARM_ARCH_8M_MAIN__ ) && (__ARM_ARCH_8M_MAIN__ == 1)) || \
 648:../../Drivers/CMSIS/Include/cmsis_gcc.h ****      (defined (__ARM_ARCH_8M_BASE__ ) && (__ARM_ARCH_8M_BASE__ == 1))    )
 649:../../Drivers/CMSIS/Include/cmsis_gcc.h **** 
 650:../../Drivers/CMSIS/Include/cmsis_gcc.h **** /**
 651:../../Drivers/CMSIS/Include/cmsis_gcc.h ****   \brief   Get Process Stack Pointer Limit
 652:../../Drivers/CMSIS/Include/cmsis_gcc.h ****   Devices without ARMv8-M Main Extensions (i.e. Cortex-M23) lack the non-secure
 653:../../Drivers/CMSIS/Include/cmsis_gcc.h ****   Stack Pointer Limit register hence zero is returned always in non-secure
 654:../../Drivers/CMSIS/Include/cmsis_gcc.h ****   mode.
 655:../../Drivers/CMSIS/Include/cmsis_gcc.h ****   
 656:../../Drivers/CMSIS/Include/cmsis_gcc.h ****   \details Returns the current value of the Process Stack Pointer Limit (PSPLIM).
 657:../../Drivers/CMSIS/Include/cmsis_gcc.h ****   \return               PSPLIM Register value
 658:../../Drivers/CMSIS/Include/cmsis_gcc.h ****  */
 659:../../Drivers/CMSIS/Include/cmsis_gcc.h **** __STATIC_FORCEINLINE uint32_t __get_PSPLIM(void)
 660:../../Drivers/CMSIS/Include/cmsis_gcc.h **** {
 661:../../Drivers/CMSIS/Include/cmsis_gcc.h **** #if (!(defined (__ARM_ARCH_8M_MAIN__ ) && (__ARM_ARCH_8M_MAIN__ == 1)) && \
 662:../../Drivers/CMSIS/Include/cmsis_gcc.h ****     (!defined (__ARM_FEATURE_CMSE) || (__ARM_FEATURE_CMSE < 3)))
 663:../../Drivers/CMSIS/Include/cmsis_gcc.h ****     // without main extensions, the non-secure PSPLIM is RAZ/WI
 664:../../Drivers/CMSIS/Include/cmsis_gcc.h ****   return 0U;
 665:../../Drivers/CMSIS/Include/cmsis_gcc.h **** #else
 666:../../Drivers/CMSIS/Include/cmsis_gcc.h ****   uint32_t result;
 667:../../Drivers/CMSIS/Include/cmsis_gcc.h ****   __ASM volatile ("MRS %0, psplim"  : "=r" (result) );
 668:../../Drivers/CMSIS/Include/cmsis_gcc.h ****   return result;
 669:../../Drivers/CMSIS/Include/cmsis_gcc.h **** #endif
 670:../../Drivers/CMSIS/Include/cmsis_gcc.h **** }
ARM GAS  C:\Users\gigig\AppData\Local\Temp\ccXuJv1Z.s 			page 40


 671:../../Drivers/CMSIS/Include/cmsis_gcc.h **** 
 672:../../Drivers/CMSIS/Include/cmsis_gcc.h **** #if (defined (__ARM_FEATURE_CMSE) && (__ARM_FEATURE_CMSE == 3))
 673:../../Drivers/CMSIS/Include/cmsis_gcc.h **** /**
 674:../../Drivers/CMSIS/Include/cmsis_gcc.h ****   \brief   Get Process Stack Pointer Limit (non-secure)
 675:../../Drivers/CMSIS/Include/cmsis_gcc.h ****   Devices without ARMv8-M Main Extensions (i.e. Cortex-M23) lack the non-secure
 676:../../Drivers/CMSIS/Include/cmsis_gcc.h ****   Stack Pointer Limit register hence zero is returned always.
 677:../../Drivers/CMSIS/Include/cmsis_gcc.h **** 
 678:../../Drivers/CMSIS/Include/cmsis_gcc.h ****   \details Returns the current value of the non-secure Process Stack Pointer Limit (PSPLIM) when in
 679:../../Drivers/CMSIS/Include/cmsis_gcc.h ****   \return               PSPLIM Register value
 680:../../Drivers/CMSIS/Include/cmsis_gcc.h ****  */
 681:../../Drivers/CMSIS/Include/cmsis_gcc.h **** __STATIC_FORCEINLINE uint32_t __TZ_get_PSPLIM_NS(void)
 682:../../Drivers/CMSIS/Include/cmsis_gcc.h **** {
 683:../../Drivers/CMSIS/Include/cmsis_gcc.h **** #if (!(defined (__ARM_ARCH_8M_MAIN__ ) && (__ARM_ARCH_8M_MAIN__ == 1)))
 684:../../Drivers/CMSIS/Include/cmsis_gcc.h ****   // without main extensions, the non-secure PSPLIM is RAZ/WI
 685:../../Drivers/CMSIS/Include/cmsis_gcc.h ****   return 0U;
 686:../../Drivers/CMSIS/Include/cmsis_gcc.h **** #else
 687:../../Drivers/CMSIS/Include/cmsis_gcc.h ****   uint32_t result;
 688:../../Drivers/CMSIS/Include/cmsis_gcc.h ****   __ASM volatile ("MRS %0, psplim_ns"  : "=r" (result) );
 689:../../Drivers/CMSIS/Include/cmsis_gcc.h ****   return result;
 690:../../Drivers/CMSIS/Include/cmsis_gcc.h **** #endif
 691:../../Drivers/CMSIS/Include/cmsis_gcc.h **** }
 692:../../Drivers/CMSIS/Include/cmsis_gcc.h **** #endif
 693:../../Drivers/CMSIS/Include/cmsis_gcc.h **** 
 694:../../Drivers/CMSIS/Include/cmsis_gcc.h **** 
 695:../../Drivers/CMSIS/Include/cmsis_gcc.h **** /**
 696:../../Drivers/CMSIS/Include/cmsis_gcc.h ****   \brief   Set Process Stack Pointer Limit
 697:../../Drivers/CMSIS/Include/cmsis_gcc.h ****   Devices without ARMv8-M Main Extensions (i.e. Cortex-M23) lack the non-secure
 698:../../Drivers/CMSIS/Include/cmsis_gcc.h ****   Stack Pointer Limit register hence the write is silently ignored in non-secure
 699:../../Drivers/CMSIS/Include/cmsis_gcc.h ****   mode.
 700:../../Drivers/CMSIS/Include/cmsis_gcc.h ****   
 701:../../Drivers/CMSIS/Include/cmsis_gcc.h ****   \details Assigns the given value to the Process Stack Pointer Limit (PSPLIM).
 702:../../Drivers/CMSIS/Include/cmsis_gcc.h ****   \param [in]    ProcStackPtrLimit  Process Stack Pointer Limit value to set
 703:../../Drivers/CMSIS/Include/cmsis_gcc.h ****  */
 704:../../Drivers/CMSIS/Include/cmsis_gcc.h **** __STATIC_FORCEINLINE void __set_PSPLIM(uint32_t ProcStackPtrLimit)
 705:../../Drivers/CMSIS/Include/cmsis_gcc.h **** {
 706:../../Drivers/CMSIS/Include/cmsis_gcc.h **** #if (!(defined (__ARM_ARCH_8M_MAIN__ ) && (__ARM_ARCH_8M_MAIN__ == 1)) && \
 707:../../Drivers/CMSIS/Include/cmsis_gcc.h ****     (!defined (__ARM_FEATURE_CMSE) || (__ARM_FEATURE_CMSE < 3)))
 708:../../Drivers/CMSIS/Include/cmsis_gcc.h ****   // without main extensions, the non-secure PSPLIM is RAZ/WI
 709:../../Drivers/CMSIS/Include/cmsis_gcc.h ****   (void)ProcStackPtrLimit;
 710:../../Drivers/CMSIS/Include/cmsis_gcc.h **** #else
 711:../../Drivers/CMSIS/Include/cmsis_gcc.h ****   __ASM volatile ("MSR psplim, %0" : : "r" (ProcStackPtrLimit));
 712:../../Drivers/CMSIS/Include/cmsis_gcc.h **** #endif
 713:../../Drivers/CMSIS/Include/cmsis_gcc.h **** }
 714:../../Drivers/CMSIS/Include/cmsis_gcc.h **** 
 715:../../Drivers/CMSIS/Include/cmsis_gcc.h **** 
 716:../../Drivers/CMSIS/Include/cmsis_gcc.h **** #if (defined (__ARM_FEATURE_CMSE  ) && (__ARM_FEATURE_CMSE   == 3))
 717:../../Drivers/CMSIS/Include/cmsis_gcc.h **** /**
 718:../../Drivers/CMSIS/Include/cmsis_gcc.h ****   \brief   Set Process Stack Pointer (non-secure)
 719:../../Drivers/CMSIS/Include/cmsis_gcc.h ****   Devices without ARMv8-M Main Extensions (i.e. Cortex-M23) lack the non-secure
 720:../../Drivers/CMSIS/Include/cmsis_gcc.h ****   Stack Pointer Limit register hence the write is silently ignored.
 721:../../Drivers/CMSIS/Include/cmsis_gcc.h **** 
 722:../../Drivers/CMSIS/Include/cmsis_gcc.h ****   \details Assigns the given value to the non-secure Process Stack Pointer Limit (PSPLIM) when in s
 723:../../Drivers/CMSIS/Include/cmsis_gcc.h ****   \param [in]    ProcStackPtrLimit  Process Stack Pointer Limit value to set
 724:../../Drivers/CMSIS/Include/cmsis_gcc.h ****  */
 725:../../Drivers/CMSIS/Include/cmsis_gcc.h **** __STATIC_FORCEINLINE void __TZ_set_PSPLIM_NS(uint32_t ProcStackPtrLimit)
 726:../../Drivers/CMSIS/Include/cmsis_gcc.h **** {
 727:../../Drivers/CMSIS/Include/cmsis_gcc.h **** #if (!(defined (__ARM_ARCH_8M_MAIN__ ) && (__ARM_ARCH_8M_MAIN__ == 1)))
ARM GAS  C:\Users\gigig\AppData\Local\Temp\ccXuJv1Z.s 			page 41


 728:../../Drivers/CMSIS/Include/cmsis_gcc.h ****   // without main extensions, the non-secure PSPLIM is RAZ/WI
 729:../../Drivers/CMSIS/Include/cmsis_gcc.h ****   (void)ProcStackPtrLimit;
 730:../../Drivers/CMSIS/Include/cmsis_gcc.h **** #else
 731:../../Drivers/CMSIS/Include/cmsis_gcc.h ****   __ASM volatile ("MSR psplim_ns, %0\n" : : "r" (ProcStackPtrLimit));
 732:../../Drivers/CMSIS/Include/cmsis_gcc.h **** #endif
 733:../../Drivers/CMSIS/Include/cmsis_gcc.h **** }
 734:../../Drivers/CMSIS/Include/cmsis_gcc.h **** #endif
 735:../../Drivers/CMSIS/Include/cmsis_gcc.h **** 
 736:../../Drivers/CMSIS/Include/cmsis_gcc.h **** 
 737:../../Drivers/CMSIS/Include/cmsis_gcc.h **** /**
 738:../../Drivers/CMSIS/Include/cmsis_gcc.h ****   \brief   Get Main Stack Pointer Limit
 739:../../Drivers/CMSIS/Include/cmsis_gcc.h ****   Devices without ARMv8-M Main Extensions (i.e. Cortex-M23) lack the non-secure
 740:../../Drivers/CMSIS/Include/cmsis_gcc.h ****   Stack Pointer Limit register hence zero is returned always in non-secure
 741:../../Drivers/CMSIS/Include/cmsis_gcc.h ****   mode.
 742:../../Drivers/CMSIS/Include/cmsis_gcc.h **** 
 743:../../Drivers/CMSIS/Include/cmsis_gcc.h ****   \details Returns the current value of the Main Stack Pointer Limit (MSPLIM).
 744:../../Drivers/CMSIS/Include/cmsis_gcc.h ****   \return               MSPLIM Register value
 745:../../Drivers/CMSIS/Include/cmsis_gcc.h ****  */
 746:../../Drivers/CMSIS/Include/cmsis_gcc.h **** __STATIC_FORCEINLINE uint32_t __get_MSPLIM(void)
 747:../../Drivers/CMSIS/Include/cmsis_gcc.h **** {
 748:../../Drivers/CMSIS/Include/cmsis_gcc.h **** #if (!(defined (__ARM_ARCH_8M_MAIN__ ) && (__ARM_ARCH_8M_MAIN__ == 1)) && \
 749:../../Drivers/CMSIS/Include/cmsis_gcc.h ****     (!defined (__ARM_FEATURE_CMSE) || (__ARM_FEATURE_CMSE < 3)))
 750:../../Drivers/CMSIS/Include/cmsis_gcc.h ****   // without main extensions, the non-secure MSPLIM is RAZ/WI
 751:../../Drivers/CMSIS/Include/cmsis_gcc.h ****   return 0U;
 752:../../Drivers/CMSIS/Include/cmsis_gcc.h **** #else
 753:../../Drivers/CMSIS/Include/cmsis_gcc.h ****   uint32_t result;
 754:../../Drivers/CMSIS/Include/cmsis_gcc.h ****   __ASM volatile ("MRS %0, msplim" : "=r" (result) );
 755:../../Drivers/CMSIS/Include/cmsis_gcc.h ****   return result;
 756:../../Drivers/CMSIS/Include/cmsis_gcc.h **** #endif
 757:../../Drivers/CMSIS/Include/cmsis_gcc.h **** }
 758:../../Drivers/CMSIS/Include/cmsis_gcc.h **** 
 759:../../Drivers/CMSIS/Include/cmsis_gcc.h **** 
 760:../../Drivers/CMSIS/Include/cmsis_gcc.h **** #if (defined (__ARM_FEATURE_CMSE  ) && (__ARM_FEATURE_CMSE   == 3))
 761:../../Drivers/CMSIS/Include/cmsis_gcc.h **** /**
 762:../../Drivers/CMSIS/Include/cmsis_gcc.h ****   \brief   Get Main Stack Pointer Limit (non-secure)
 763:../../Drivers/CMSIS/Include/cmsis_gcc.h ****   Devices without ARMv8-M Main Extensions (i.e. Cortex-M23) lack the non-secure
 764:../../Drivers/CMSIS/Include/cmsis_gcc.h ****   Stack Pointer Limit register hence zero is returned always.
 765:../../Drivers/CMSIS/Include/cmsis_gcc.h **** 
 766:../../Drivers/CMSIS/Include/cmsis_gcc.h ****   \details Returns the current value of the non-secure Main Stack Pointer Limit(MSPLIM) when in sec
 767:../../Drivers/CMSIS/Include/cmsis_gcc.h ****   \return               MSPLIM Register value
 768:../../Drivers/CMSIS/Include/cmsis_gcc.h ****  */
 769:../../Drivers/CMSIS/Include/cmsis_gcc.h **** __STATIC_FORCEINLINE uint32_t __TZ_get_MSPLIM_NS(void)
 770:../../Drivers/CMSIS/Include/cmsis_gcc.h **** {
 771:../../Drivers/CMSIS/Include/cmsis_gcc.h **** #if (!(defined (__ARM_ARCH_8M_MAIN__ ) && (__ARM_ARCH_8M_MAIN__ == 1)))
 772:../../Drivers/CMSIS/Include/cmsis_gcc.h ****   // without main extensions, the non-secure MSPLIM is RAZ/WI
 773:../../Drivers/CMSIS/Include/cmsis_gcc.h ****   return 0U;
 774:../../Drivers/CMSIS/Include/cmsis_gcc.h **** #else
 775:../../Drivers/CMSIS/Include/cmsis_gcc.h ****   uint32_t result;
 776:../../Drivers/CMSIS/Include/cmsis_gcc.h ****   __ASM volatile ("MRS %0, msplim_ns" : "=r" (result) );
 777:../../Drivers/CMSIS/Include/cmsis_gcc.h ****   return result;
 778:../../Drivers/CMSIS/Include/cmsis_gcc.h **** #endif
 779:../../Drivers/CMSIS/Include/cmsis_gcc.h **** }
 780:../../Drivers/CMSIS/Include/cmsis_gcc.h **** #endif
 781:../../Drivers/CMSIS/Include/cmsis_gcc.h **** 
 782:../../Drivers/CMSIS/Include/cmsis_gcc.h **** 
 783:../../Drivers/CMSIS/Include/cmsis_gcc.h **** /**
 784:../../Drivers/CMSIS/Include/cmsis_gcc.h ****   \brief   Set Main Stack Pointer Limit
ARM GAS  C:\Users\gigig\AppData\Local\Temp\ccXuJv1Z.s 			page 42


 785:../../Drivers/CMSIS/Include/cmsis_gcc.h ****   Devices without ARMv8-M Main Extensions (i.e. Cortex-M23) lack the non-secure
 786:../../Drivers/CMSIS/Include/cmsis_gcc.h ****   Stack Pointer Limit register hence the write is silently ignored in non-secure
 787:../../Drivers/CMSIS/Include/cmsis_gcc.h ****   mode.
 788:../../Drivers/CMSIS/Include/cmsis_gcc.h **** 
 789:../../Drivers/CMSIS/Include/cmsis_gcc.h ****   \details Assigns the given value to the Main Stack Pointer Limit (MSPLIM).
 790:../../Drivers/CMSIS/Include/cmsis_gcc.h ****   \param [in]    MainStackPtrLimit  Main Stack Pointer Limit value to set
 791:../../Drivers/CMSIS/Include/cmsis_gcc.h ****  */
 792:../../Drivers/CMSIS/Include/cmsis_gcc.h **** __STATIC_FORCEINLINE void __set_MSPLIM(uint32_t MainStackPtrLimit)
 793:../../Drivers/CMSIS/Include/cmsis_gcc.h **** {
 794:../../Drivers/CMSIS/Include/cmsis_gcc.h **** #if (!(defined (__ARM_ARCH_8M_MAIN__ ) && (__ARM_ARCH_8M_MAIN__ == 1)) && \
 795:../../Drivers/CMSIS/Include/cmsis_gcc.h ****     (!defined (__ARM_FEATURE_CMSE) || (__ARM_FEATURE_CMSE < 3)))
 796:../../Drivers/CMSIS/Include/cmsis_gcc.h ****   // without main extensions, the non-secure MSPLIM is RAZ/WI
 797:../../Drivers/CMSIS/Include/cmsis_gcc.h ****   (void)MainStackPtrLimit;
 798:../../Drivers/CMSIS/Include/cmsis_gcc.h **** #else
 799:../../Drivers/CMSIS/Include/cmsis_gcc.h ****   __ASM volatile ("MSR msplim, %0" : : "r" (MainStackPtrLimit));
 800:../../Drivers/CMSIS/Include/cmsis_gcc.h **** #endif
 801:../../Drivers/CMSIS/Include/cmsis_gcc.h **** }
 802:../../Drivers/CMSIS/Include/cmsis_gcc.h **** 
 803:../../Drivers/CMSIS/Include/cmsis_gcc.h **** 
 804:../../Drivers/CMSIS/Include/cmsis_gcc.h **** #if (defined (__ARM_FEATURE_CMSE  ) && (__ARM_FEATURE_CMSE   == 3))
 805:../../Drivers/CMSIS/Include/cmsis_gcc.h **** /**
 806:../../Drivers/CMSIS/Include/cmsis_gcc.h ****   \brief   Set Main Stack Pointer Limit (non-secure)
 807:../../Drivers/CMSIS/Include/cmsis_gcc.h ****   Devices without ARMv8-M Main Extensions (i.e. Cortex-M23) lack the non-secure
 808:../../Drivers/CMSIS/Include/cmsis_gcc.h ****   Stack Pointer Limit register hence the write is silently ignored.
 809:../../Drivers/CMSIS/Include/cmsis_gcc.h **** 
 810:../../Drivers/CMSIS/Include/cmsis_gcc.h ****   \details Assigns the given value to the non-secure Main Stack Pointer Limit (MSPLIM) when in secu
 811:../../Drivers/CMSIS/Include/cmsis_gcc.h ****   \param [in]    MainStackPtrLimit  Main Stack Pointer value to set
 812:../../Drivers/CMSIS/Include/cmsis_gcc.h ****  */
 813:../../Drivers/CMSIS/Include/cmsis_gcc.h **** __STATIC_FORCEINLINE void __TZ_set_MSPLIM_NS(uint32_t MainStackPtrLimit)
 814:../../Drivers/CMSIS/Include/cmsis_gcc.h **** {
 815:../../Drivers/CMSIS/Include/cmsis_gcc.h **** #if (!(defined (__ARM_ARCH_8M_MAIN__ ) && (__ARM_ARCH_8M_MAIN__ == 1)))
 816:../../Drivers/CMSIS/Include/cmsis_gcc.h ****   // without main extensions, the non-secure MSPLIM is RAZ/WI
 817:../../Drivers/CMSIS/Include/cmsis_gcc.h ****   (void)MainStackPtrLimit;
 818:../../Drivers/CMSIS/Include/cmsis_gcc.h **** #else
 819:../../Drivers/CMSIS/Include/cmsis_gcc.h ****   __ASM volatile ("MSR msplim_ns, %0" : : "r" (MainStackPtrLimit));
 820:../../Drivers/CMSIS/Include/cmsis_gcc.h **** #endif
 821:../../Drivers/CMSIS/Include/cmsis_gcc.h **** }
 822:../../Drivers/CMSIS/Include/cmsis_gcc.h **** #endif
 823:../../Drivers/CMSIS/Include/cmsis_gcc.h **** 
 824:../../Drivers/CMSIS/Include/cmsis_gcc.h **** #endif /* ((defined (__ARM_ARCH_8M_MAIN__ ) && (__ARM_ARCH_8M_MAIN__ == 1)) || \
 825:../../Drivers/CMSIS/Include/cmsis_gcc.h ****            (defined (__ARM_ARCH_8M_BASE__ ) && (__ARM_ARCH_8M_BASE__ == 1))    ) */
 826:../../Drivers/CMSIS/Include/cmsis_gcc.h **** 
 827:../../Drivers/CMSIS/Include/cmsis_gcc.h **** 
 828:../../Drivers/CMSIS/Include/cmsis_gcc.h **** /**
 829:../../Drivers/CMSIS/Include/cmsis_gcc.h ****   \brief   Get FPSCR
 830:../../Drivers/CMSIS/Include/cmsis_gcc.h ****   \details Returns the current value of the Floating Point Status/Control register.
 831:../../Drivers/CMSIS/Include/cmsis_gcc.h ****   \return               Floating Point Status/Control register value
 832:../../Drivers/CMSIS/Include/cmsis_gcc.h ****  */
 833:../../Drivers/CMSIS/Include/cmsis_gcc.h **** __STATIC_FORCEINLINE uint32_t __get_FPSCR(void)
 834:../../Drivers/CMSIS/Include/cmsis_gcc.h **** {
 835:../../Drivers/CMSIS/Include/cmsis_gcc.h **** #if ((defined (__FPU_PRESENT) && (__FPU_PRESENT == 1U)) && \
 836:../../Drivers/CMSIS/Include/cmsis_gcc.h ****      (defined (__FPU_USED   ) && (__FPU_USED    == 1U))     )
 837:../../Drivers/CMSIS/Include/cmsis_gcc.h **** #if __has_builtin(__builtin_arm_get_fpscr) 
 838:../../Drivers/CMSIS/Include/cmsis_gcc.h **** // Re-enable using built-in when GCC has been fixed
 839:../../Drivers/CMSIS/Include/cmsis_gcc.h **** // || (__GNUC__ > 7) || (__GNUC__ == 7 && __GNUC_MINOR__ >= 2)
 840:../../Drivers/CMSIS/Include/cmsis_gcc.h ****   /* see https://gcc.gnu.org/ml/gcc-patches/2017-04/msg00443.html */
 841:../../Drivers/CMSIS/Include/cmsis_gcc.h ****   return __builtin_arm_get_fpscr();
ARM GAS  C:\Users\gigig\AppData\Local\Temp\ccXuJv1Z.s 			page 43


 842:../../Drivers/CMSIS/Include/cmsis_gcc.h **** #else
 843:../../Drivers/CMSIS/Include/cmsis_gcc.h ****   uint32_t result;
 844:../../Drivers/CMSIS/Include/cmsis_gcc.h **** 
 845:../../Drivers/CMSIS/Include/cmsis_gcc.h ****   __ASM volatile ("VMRS %0, fpscr" : "=r" (result) );
 846:../../Drivers/CMSIS/Include/cmsis_gcc.h ****   return(result);
 847:../../Drivers/CMSIS/Include/cmsis_gcc.h **** #endif
 848:../../Drivers/CMSIS/Include/cmsis_gcc.h **** #else
 849:../../Drivers/CMSIS/Include/cmsis_gcc.h ****   return(0U);
 850:../../Drivers/CMSIS/Include/cmsis_gcc.h **** #endif
 851:../../Drivers/CMSIS/Include/cmsis_gcc.h **** }
 852:../../Drivers/CMSIS/Include/cmsis_gcc.h **** 
 853:../../Drivers/CMSIS/Include/cmsis_gcc.h **** 
 854:../../Drivers/CMSIS/Include/cmsis_gcc.h **** /**
 855:../../Drivers/CMSIS/Include/cmsis_gcc.h ****   \brief   Set FPSCR
 856:../../Drivers/CMSIS/Include/cmsis_gcc.h ****   \details Assigns the given value to the Floating Point Status/Control register.
 857:../../Drivers/CMSIS/Include/cmsis_gcc.h ****   \param [in]    fpscr  Floating Point Status/Control value to set
 858:../../Drivers/CMSIS/Include/cmsis_gcc.h ****  */
 859:../../Drivers/CMSIS/Include/cmsis_gcc.h **** __STATIC_FORCEINLINE void __set_FPSCR(uint32_t fpscr)
 860:../../Drivers/CMSIS/Include/cmsis_gcc.h **** {
 861:../../Drivers/CMSIS/Include/cmsis_gcc.h **** #if ((defined (__FPU_PRESENT) && (__FPU_PRESENT == 1U)) && \
 862:../../Drivers/CMSIS/Include/cmsis_gcc.h ****      (defined (__FPU_USED   ) && (__FPU_USED    == 1U))     )
 863:../../Drivers/CMSIS/Include/cmsis_gcc.h **** #if __has_builtin(__builtin_arm_set_fpscr)
 864:../../Drivers/CMSIS/Include/cmsis_gcc.h **** // Re-enable using built-in when GCC has been fixed
 865:../../Drivers/CMSIS/Include/cmsis_gcc.h **** // || (__GNUC__ > 7) || (__GNUC__ == 7 && __GNUC_MINOR__ >= 2)
 866:../../Drivers/CMSIS/Include/cmsis_gcc.h ****   /* see https://gcc.gnu.org/ml/gcc-patches/2017-04/msg00443.html */
 867:../../Drivers/CMSIS/Include/cmsis_gcc.h ****   __builtin_arm_set_fpscr(fpscr);
 868:../../Drivers/CMSIS/Include/cmsis_gcc.h **** #else
 869:../../Drivers/CMSIS/Include/cmsis_gcc.h ****   __ASM volatile ("VMSR fpscr, %0" : : "r" (fpscr) : "vfpcc", "memory");
 870:../../Drivers/CMSIS/Include/cmsis_gcc.h **** #endif
 871:../../Drivers/CMSIS/Include/cmsis_gcc.h **** #else
 872:../../Drivers/CMSIS/Include/cmsis_gcc.h ****   (void)fpscr;
 873:../../Drivers/CMSIS/Include/cmsis_gcc.h **** #endif
 874:../../Drivers/CMSIS/Include/cmsis_gcc.h **** }
 875:../../Drivers/CMSIS/Include/cmsis_gcc.h **** 
 876:../../Drivers/CMSIS/Include/cmsis_gcc.h **** 
 877:../../Drivers/CMSIS/Include/cmsis_gcc.h **** /*@} end of CMSIS_Core_RegAccFunctions */
 878:../../Drivers/CMSIS/Include/cmsis_gcc.h **** 
 879:../../Drivers/CMSIS/Include/cmsis_gcc.h **** 
 880:../../Drivers/CMSIS/Include/cmsis_gcc.h **** /* ##########################  Core Instruction Access  ######################### */
 881:../../Drivers/CMSIS/Include/cmsis_gcc.h **** /** \defgroup CMSIS_Core_InstructionInterface CMSIS Core Instruction Interface
 882:../../Drivers/CMSIS/Include/cmsis_gcc.h ****   Access to dedicated instructions
 883:../../Drivers/CMSIS/Include/cmsis_gcc.h ****   @{
 884:../../Drivers/CMSIS/Include/cmsis_gcc.h **** */
 885:../../Drivers/CMSIS/Include/cmsis_gcc.h **** 
 886:../../Drivers/CMSIS/Include/cmsis_gcc.h **** /* Define macros for porting to both thumb1 and thumb2.
 887:../../Drivers/CMSIS/Include/cmsis_gcc.h ****  * For thumb1, use low register (r0-r7), specified by constraint "l"
 888:../../Drivers/CMSIS/Include/cmsis_gcc.h ****  * Otherwise, use general registers, specified by constraint "r" */
 889:../../Drivers/CMSIS/Include/cmsis_gcc.h **** #if defined (__thumb__) && !defined (__thumb2__)
 890:../../Drivers/CMSIS/Include/cmsis_gcc.h **** #define __CMSIS_GCC_OUT_REG(r) "=l" (r)
 891:../../Drivers/CMSIS/Include/cmsis_gcc.h **** #define __CMSIS_GCC_RW_REG(r) "+l" (r)
 892:../../Drivers/CMSIS/Include/cmsis_gcc.h **** #define __CMSIS_GCC_USE_REG(r) "l" (r)
 893:../../Drivers/CMSIS/Include/cmsis_gcc.h **** #else
 894:../../Drivers/CMSIS/Include/cmsis_gcc.h **** #define __CMSIS_GCC_OUT_REG(r) "=r" (r)
 895:../../Drivers/CMSIS/Include/cmsis_gcc.h **** #define __CMSIS_GCC_RW_REG(r) "+r" (r)
 896:../../Drivers/CMSIS/Include/cmsis_gcc.h **** #define __CMSIS_GCC_USE_REG(r) "r" (r)
 897:../../Drivers/CMSIS/Include/cmsis_gcc.h **** #endif
 898:../../Drivers/CMSIS/Include/cmsis_gcc.h **** 
ARM GAS  C:\Users\gigig\AppData\Local\Temp\ccXuJv1Z.s 			page 44


 899:../../Drivers/CMSIS/Include/cmsis_gcc.h **** /**
 900:../../Drivers/CMSIS/Include/cmsis_gcc.h ****   \brief   No Operation
 901:../../Drivers/CMSIS/Include/cmsis_gcc.h ****   \details No Operation does nothing. This instruction can be used for code alignment purposes.
 902:../../Drivers/CMSIS/Include/cmsis_gcc.h ****  */
 903:../../Drivers/CMSIS/Include/cmsis_gcc.h **** #define __NOP()                             __ASM volatile ("nop")
 904:../../Drivers/CMSIS/Include/cmsis_gcc.h **** 
 905:../../Drivers/CMSIS/Include/cmsis_gcc.h **** /**
 906:../../Drivers/CMSIS/Include/cmsis_gcc.h ****   \brief   Wait For Interrupt
 907:../../Drivers/CMSIS/Include/cmsis_gcc.h ****   \details Wait For Interrupt is a hint instruction that suspends execution until one of a number o
 908:../../Drivers/CMSIS/Include/cmsis_gcc.h ****  */
 909:../../Drivers/CMSIS/Include/cmsis_gcc.h **** #define __WFI()                             __ASM volatile ("wfi")
 910:../../Drivers/CMSIS/Include/cmsis_gcc.h **** 
 911:../../Drivers/CMSIS/Include/cmsis_gcc.h **** 
 912:../../Drivers/CMSIS/Include/cmsis_gcc.h **** /**
 913:../../Drivers/CMSIS/Include/cmsis_gcc.h ****   \brief   Wait For Event
 914:../../Drivers/CMSIS/Include/cmsis_gcc.h ****   \details Wait For Event is a hint instruction that permits the processor to enter
 915:../../Drivers/CMSIS/Include/cmsis_gcc.h ****            a low-power state until one of a number of events occurs.
 916:../../Drivers/CMSIS/Include/cmsis_gcc.h ****  */
 917:../../Drivers/CMSIS/Include/cmsis_gcc.h **** #define __WFE()                             __ASM volatile ("wfe")
 918:../../Drivers/CMSIS/Include/cmsis_gcc.h **** 
 919:../../Drivers/CMSIS/Include/cmsis_gcc.h **** 
 920:../../Drivers/CMSIS/Include/cmsis_gcc.h **** /**
 921:../../Drivers/CMSIS/Include/cmsis_gcc.h ****   \brief   Send Event
 922:../../Drivers/CMSIS/Include/cmsis_gcc.h ****   \details Send Event is a hint instruction. It causes an event to be signaled to the CPU.
 923:../../Drivers/CMSIS/Include/cmsis_gcc.h ****  */
 924:../../Drivers/CMSIS/Include/cmsis_gcc.h **** #define __SEV()                             __ASM volatile ("sev")
 925:../../Drivers/CMSIS/Include/cmsis_gcc.h **** 
 926:../../Drivers/CMSIS/Include/cmsis_gcc.h **** 
 927:../../Drivers/CMSIS/Include/cmsis_gcc.h **** /**
 928:../../Drivers/CMSIS/Include/cmsis_gcc.h ****   \brief   Instruction Synchronization Barrier
 929:../../Drivers/CMSIS/Include/cmsis_gcc.h ****   \details Instruction Synchronization Barrier flushes the pipeline in the processor,
 930:../../Drivers/CMSIS/Include/cmsis_gcc.h ****            so that all instructions following the ISB are fetched from cache or memory,
 931:../../Drivers/CMSIS/Include/cmsis_gcc.h ****            after the instruction has been completed.
 932:../../Drivers/CMSIS/Include/cmsis_gcc.h ****  */
 933:../../Drivers/CMSIS/Include/cmsis_gcc.h **** __STATIC_FORCEINLINE void __ISB(void)
 934:../../Drivers/CMSIS/Include/cmsis_gcc.h **** {
 935:../../Drivers/CMSIS/Include/cmsis_gcc.h ****   __ASM volatile ("isb 0xF":::"memory");
 936:../../Drivers/CMSIS/Include/cmsis_gcc.h **** }
 937:../../Drivers/CMSIS/Include/cmsis_gcc.h **** 
 938:../../Drivers/CMSIS/Include/cmsis_gcc.h **** 
 939:../../Drivers/CMSIS/Include/cmsis_gcc.h **** /**
 940:../../Drivers/CMSIS/Include/cmsis_gcc.h ****   \brief   Data Synchronization Barrier
 941:../../Drivers/CMSIS/Include/cmsis_gcc.h ****   \details Acts as a special kind of Data Memory Barrier.
 942:../../Drivers/CMSIS/Include/cmsis_gcc.h ****            It completes when all explicit memory accesses before this instruction complete.
 943:../../Drivers/CMSIS/Include/cmsis_gcc.h ****  */
 944:../../Drivers/CMSIS/Include/cmsis_gcc.h **** __STATIC_FORCEINLINE void __DSB(void)
 568              		.loc 2 944 27 view .LVU150
 569              	.LBB27:
 945:../../Drivers/CMSIS/Include/cmsis_gcc.h **** {
 946:../../Drivers/CMSIS/Include/cmsis_gcc.h ****   __ASM volatile ("dsb 0xF":::"memory");
 570              		.loc 2 946 3 view .LVU151
 571              		.syntax unified
 572              	@ 946 "../../Drivers/CMSIS/Include/cmsis_gcc.h" 1
 573 0044 BFF34F8F 		dsb 0xF
 574              	@ 0 "" 2
 575              		.thumb
 576              		.syntax unified
ARM GAS  C:\Users\gigig\AppData\Local\Temp\ccXuJv1Z.s 			page 45


 577              	.LBE27:
 578              	.LBE26:
 849:../../Drivers/STM32H7xx_HAL_Driver/Src/stm32h7xx_hal_pwr_ex.c **** 
 579              		.loc 1 849 5 view .LVU152
 580              	.LBB28:
 581              	.LBI28:
 933:../../Drivers/CMSIS/Include/cmsis_gcc.h **** {
 582              		.loc 2 933 27 view .LVU153
 583              	.LBB29:
 935:../../Drivers/CMSIS/Include/cmsis_gcc.h **** }
 584              		.loc 2 935 3 view .LVU154
 585              		.syntax unified
 586              	@ 935 "../../Drivers/CMSIS/Include/cmsis_gcc.h" 1
 587 0048 BFF36F8F 		isb 0xF
 588              	@ 0 "" 2
 589              		.thumb
 590              		.syntax unified
 591              	.LBE29:
 592              	.LBE28:
 852:../../Drivers/STM32H7xx_HAL_Driver/Src/stm32h7xx_hal_pwr_ex.c ****     {
 593              		.loc 1 852 5 view .LVU155
 852:../../Drivers/STM32H7xx_HAL_Driver/Src/stm32h7xx_hal_pwr_ex.c ****     {
 594              		.loc 1 852 8 is_stmt 0 view .LVU156
 595 004c 012D     		cmp	r5, #1
 596 004e 06D0     		beq	.L67
 860:../../Drivers/STM32H7xx_HAL_Driver/Src/stm32h7xx_hal_pwr_ex.c ****     }
 597              		.loc 1 860 7 is_stmt 1 view .LVU157
 598              		.syntax unified
 599              	@ 860 "../../Drivers/STM32H7xx_HAL_Driver/Src/stm32h7xx_hal_pwr_ex.c" 1
 600 0050 20BF     		wfe
 601              	@ 0 "" 2
 602              		.thumb
 603              		.syntax unified
 604              	.L58:
 864:../../Drivers/STM32H7xx_HAL_Driver/Src/stm32h7xx_hal_pwr_ex.c ****   }
 605              		.loc 1 864 5 view .LVU158
 606 0052 164A     		ldr	r2, .L69+4
 607 0054 1369     		ldr	r3, [r2, #16]
 608 0056 23F00403 		bic	r3, r3, #4
 609 005a 1361     		str	r3, [r2, #16]
 610 005c E4E7     		b	.L54
 611              	.L67:
 855:../../Drivers/STM32H7xx_HAL_Driver/Src/stm32h7xx_hal_pwr_ex.c ****     }
 612              		.loc 1 855 7 view .LVU159
 613              		.syntax unified
 614              	@ 855 "../../Drivers/STM32H7xx_HAL_Driver/Src/stm32h7xx_hal_pwr_ex.c" 1
 615 005e 30BF     		wfi
 616              	@ 0 "" 2
 617              		.thumb
 618              		.syntax unified
 619 0060 F7E7     		b	.L58
 620              	.LVL37:
 621              	.L65:
 871:../../Drivers/STM32H7xx_HAL_Driver/Src/stm32h7xx_hal_pwr_ex.c ****     {
 622              		.loc 1 871 5 view .LVU160
 871:../../Drivers/STM32H7xx_HAL_Driver/Src/stm32h7xx_hal_pwr_ex.c ****     {
 623              		.loc 1 871 9 is_stmt 0 view .LVU161
ARM GAS  C:\Users\gigig\AppData\Local\Temp\ccXuJv1Z.s 			page 46


 624 0062 FFF7FEFF 		bl	HAL_GetCurrentCPUID
 625              	.LVL38:
 871:../../Drivers/STM32H7xx_HAL_Driver/Src/stm32h7xx_hal_pwr_ex.c ****     {
 626              		.loc 1 871 8 view .LVU162
 627 0066 0128     		cmp	r0, #1
 628 0068 DED1     		bne	.L54
 881:../../Drivers/STM32H7xx_HAL_Driver/Src/stm32h7xx_hal_pwr_ex.c **** 
 629              		.loc 1 881 5 is_stmt 1 view .LVU163
 630 006a 0F4A     		ldr	r2, .L69
 631 006c 5369     		ldr	r3, [r2, #20]
 632 006e 23F00203 		bic	r3, r3, #2
 633 0072 5361     		str	r3, [r2, #20]
 884:../../Drivers/STM32H7xx_HAL_Driver/Src/stm32h7xx_hal_pwr_ex.c **** 
 634              		.loc 1 884 5 view .LVU164
 635 0074 0D4A     		ldr	r2, .L69+4
 636 0076 1369     		ldr	r3, [r2, #16]
 637 0078 43F00403 		orr	r3, r3, #4
 638 007c 1361     		str	r3, [r2, #16]
 887:../../Drivers/STM32H7xx_HAL_Driver/Src/stm32h7xx_hal_pwr_ex.c ****     __ISB ();
 639              		.loc 1 887 5 view .LVU165
 640              	.LBB30:
 641              	.LBI30:
 944:../../Drivers/CMSIS/Include/cmsis_gcc.h **** {
 642              		.loc 2 944 27 view .LVU166
 643              	.LBB31:
 644              		.loc 2 946 3 view .LVU167
 645              		.syntax unified
 646              	@ 946 "../../Drivers/CMSIS/Include/cmsis_gcc.h" 1
 647 007e BFF34F8F 		dsb 0xF
 648              	@ 0 "" 2
 649              		.thumb
 650              		.syntax unified
 651              	.LBE31:
 652              	.LBE30:
 888:../../Drivers/STM32H7xx_HAL_Driver/Src/stm32h7xx_hal_pwr_ex.c **** 
 653              		.loc 1 888 5 view .LVU168
 654              	.LBB32:
 655              	.LBI32:
 933:../../Drivers/CMSIS/Include/cmsis_gcc.h **** {
 656              		.loc 2 933 27 view .LVU169
 657              	.LBB33:
 935:../../Drivers/CMSIS/Include/cmsis_gcc.h **** }
 658              		.loc 2 935 3 view .LVU170
 659              		.syntax unified
 660              	@ 935 "../../Drivers/CMSIS/Include/cmsis_gcc.h" 1
 661 0082 BFF36F8F 		isb 0xF
 662              	@ 0 "" 2
 663              		.thumb
 664              		.syntax unified
 665              	.LBE33:
 666              	.LBE32:
 891:../../Drivers/STM32H7xx_HAL_Driver/Src/stm32h7xx_hal_pwr_ex.c ****     {
 667              		.loc 1 891 5 view .LVU171
 891:../../Drivers/STM32H7xx_HAL_Driver/Src/stm32h7xx_hal_pwr_ex.c ****     {
 668              		.loc 1 891 8 is_stmt 0 view .LVU172
 669 0086 012D     		cmp	r5, #1
 670 0088 06D0     		beq	.L68
ARM GAS  C:\Users\gigig\AppData\Local\Temp\ccXuJv1Z.s 			page 47


 899:../../Drivers/STM32H7xx_HAL_Driver/Src/stm32h7xx_hal_pwr_ex.c ****     }
 671              		.loc 1 899 7 is_stmt 1 view .LVU173
 672              		.syntax unified
 673              	@ 899 "../../Drivers/STM32H7xx_HAL_Driver/Src/stm32h7xx_hal_pwr_ex.c" 1
 674 008a 20BF     		wfe
 675              	@ 0 "" 2
 676              		.thumb
 677              		.syntax unified
 678              	.L61:
 903:../../Drivers/STM32H7xx_HAL_Driver/Src/stm32h7xx_hal_pwr_ex.c **** #else
 679              		.loc 1 903 5 view .LVU174
 680 008c 074A     		ldr	r2, .L69+4
 681 008e 1369     		ldr	r3, [r2, #16]
 682 0090 23F00403 		bic	r3, r3, #4
 683 0094 1361     		str	r3, [r2, #16]
 684 0096 C7E7     		b	.L54
 685              	.L68:
 894:../../Drivers/STM32H7xx_HAL_Driver/Src/stm32h7xx_hal_pwr_ex.c ****     }
 686              		.loc 1 894 7 view .LVU175
 687              		.syntax unified
 688              	@ 894 "../../Drivers/STM32H7xx_HAL_Driver/Src/stm32h7xx_hal_pwr_ex.c" 1
 689 0098 30BF     		wfi
 690              	@ 0 "" 2
 691              		.thumb
 692              		.syntax unified
 693 009a F7E7     		b	.L61
 694              	.L66:
 917:../../Drivers/STM32H7xx_HAL_Driver/Src/stm32h7xx_hal_pwr_ex.c ****     }
 695              		.loc 1 917 7 view .LVU176
 696 009c 024A     		ldr	r2, .L69
 697 009e 1369     		ldr	r3, [r2, #16]
 698 00a0 23F00403 		bic	r3, r3, #4
 699 00a4 1361     		str	r3, [r2, #16]
 700 00a6 BFE7     		b	.L54
 701              	.L70:
 702              		.align	2
 703              	.L69:
 704 00a8 00480258 		.word	1476544512
 705 00ac 00ED00E0 		.word	-536810240
 706              		.cfi_endproc
 707              	.LFE150:
 709              		.section	.text.HAL_PWREx_ClearPendingEvent,"ax",%progbits
 710              		.align	1
 711              		.global	HAL_PWREx_ClearPendingEvent
 712              		.syntax unified
 713              		.thumb
 714              		.thumb_func
 716              	HAL_PWREx_ClearPendingEvent:
 717              	.LFB151:
 930:../../Drivers/STM32H7xx_HAL_Driver/Src/stm32h7xx_hal_pwr_ex.c **** 
 931:../../Drivers/STM32H7xx_HAL_Driver/Src/stm32h7xx_hal_pwr_ex.c **** /**
 932:../../Drivers/STM32H7xx_HAL_Driver/Src/stm32h7xx_hal_pwr_ex.c ****   * @brief Clear pending event.
 933:../../Drivers/STM32H7xx_HAL_Driver/Src/stm32h7xx_hal_pwr_ex.c ****   * @note   This API clears the pending event in order to enter a given CPU
 934:../../Drivers/STM32H7xx_HAL_Driver/Src/stm32h7xx_hal_pwr_ex.c ****   *         to CSLEEP or CSTOP. It should be called just before APIs performing
 935:../../Drivers/STM32H7xx_HAL_Driver/Src/stm32h7xx_hal_pwr_ex.c ****   *         enter low power mode using Wait For Event request.
 936:../../Drivers/STM32H7xx_HAL_Driver/Src/stm32h7xx_hal_pwr_ex.c ****   * @note   Cortex-M7 must be in CRUN mode when calling this API by Cortex-M4.
 937:../../Drivers/STM32H7xx_HAL_Driver/Src/stm32h7xx_hal_pwr_ex.c ****   * @retval None.
ARM GAS  C:\Users\gigig\AppData\Local\Temp\ccXuJv1Z.s 			page 48


 938:../../Drivers/STM32H7xx_HAL_Driver/Src/stm32h7xx_hal_pwr_ex.c ****   */
 939:../../Drivers/STM32H7xx_HAL_Driver/Src/stm32h7xx_hal_pwr_ex.c **** void HAL_PWREx_ClearPendingEvent (void)
 940:../../Drivers/STM32H7xx_HAL_Driver/Src/stm32h7xx_hal_pwr_ex.c **** {
 718              		.loc 1 940 1 view -0
 719              		.cfi_startproc
 720              		@ args = 0, pretend = 0, frame = 0
 721              		@ frame_needed = 0, uses_anonymous_args = 0
 722 0000 08B5     		push	{r3, lr}
 723              	.LCFI3:
 724              		.cfi_def_cfa_offset 8
 725              		.cfi_offset 3, -8
 726              		.cfi_offset 14, -4
 941:../../Drivers/STM32H7xx_HAL_Driver/Src/stm32h7xx_hal_pwr_ex.c **** #if defined (DUAL_CORE)
 942:../../Drivers/STM32H7xx_HAL_Driver/Src/stm32h7xx_hal_pwr_ex.c ****   /* Check the current Core */
 943:../../Drivers/STM32H7xx_HAL_Driver/Src/stm32h7xx_hal_pwr_ex.c ****   if (HAL_GetCurrentCPUID () == CM7_CPUID)
 727              		.loc 1 943 3 view .LVU178
 728              		.loc 1 943 7 is_stmt 0 view .LVU179
 729 0002 FFF7FEFF 		bl	HAL_GetCurrentCPUID
 730              	.LVL39:
 731              		.loc 1 943 6 view .LVU180
 732 0006 0328     		cmp	r0, #3
 733 0008 02D0     		beq	.L75
 944:../../Drivers/STM32H7xx_HAL_Driver/Src/stm32h7xx_hal_pwr_ex.c ****   {
 945:../../Drivers/STM32H7xx_HAL_Driver/Src/stm32h7xx_hal_pwr_ex.c ****     __WFE ();
 946:../../Drivers/STM32H7xx_HAL_Driver/Src/stm32h7xx_hal_pwr_ex.c ****   }
 947:../../Drivers/STM32H7xx_HAL_Driver/Src/stm32h7xx_hal_pwr_ex.c ****   else
 948:../../Drivers/STM32H7xx_HAL_Driver/Src/stm32h7xx_hal_pwr_ex.c ****   {
 949:../../Drivers/STM32H7xx_HAL_Driver/Src/stm32h7xx_hal_pwr_ex.c ****     __SEV ();
 734              		.loc 1 949 5 is_stmt 1 view .LVU181
 735              		.syntax unified
 736              	@ 949 "../../Drivers/STM32H7xx_HAL_Driver/Src/stm32h7xx_hal_pwr_ex.c" 1
 737 000a 40BF     		sev
 738              	@ 0 "" 2
 950:../../Drivers/STM32H7xx_HAL_Driver/Src/stm32h7xx_hal_pwr_ex.c ****     __WFE ();
 739              		.loc 1 950 5 view .LVU182
 740              	@ 950 "../../Drivers/STM32H7xx_HAL_Driver/Src/stm32h7xx_hal_pwr_ex.c" 1
 741 000c 20BF     		wfe
 742              	@ 0 "" 2
 743              		.thumb
 744              		.syntax unified
 745              	.L71:
 951:../../Drivers/STM32H7xx_HAL_Driver/Src/stm32h7xx_hal_pwr_ex.c ****   }
 952:../../Drivers/STM32H7xx_HAL_Driver/Src/stm32h7xx_hal_pwr_ex.c **** #else
 953:../../Drivers/STM32H7xx_HAL_Driver/Src/stm32h7xx_hal_pwr_ex.c ****   __WFE ();
 954:../../Drivers/STM32H7xx_HAL_Driver/Src/stm32h7xx_hal_pwr_ex.c **** #endif /* defined (DUAL_CORE) */
 955:../../Drivers/STM32H7xx_HAL_Driver/Src/stm32h7xx_hal_pwr_ex.c **** }
 746              		.loc 1 955 1 is_stmt 0 view .LVU183
 747 000e 08BD     		pop	{r3, pc}
 748              	.L75:
 945:../../Drivers/STM32H7xx_HAL_Driver/Src/stm32h7xx_hal_pwr_ex.c ****   }
 749              		.loc 1 945 5 is_stmt 1 view .LVU184
 750              		.syntax unified
 751              	@ 945 "../../Drivers/STM32H7xx_HAL_Driver/Src/stm32h7xx_hal_pwr_ex.c" 1
 752 0010 20BF     		wfe
 753              	@ 0 "" 2
 754              		.thumb
 755              		.syntax unified
ARM GAS  C:\Users\gigig\AppData\Local\Temp\ccXuJv1Z.s 			page 49


 756 0012 FCE7     		b	.L71
 757              		.cfi_endproc
 758              	.LFE151:
 760              		.section	.text.HAL_PWREx_EnterSTANDBYMode,"ax",%progbits
 761              		.align	1
 762              		.global	HAL_PWREx_EnterSTANDBYMode
 763              		.syntax unified
 764              		.thumb
 765              		.thumb_func
 767              	HAL_PWREx_EnterSTANDBYMode:
 768              	.LVL40:
 769              	.LFB152:
 956:../../Drivers/STM32H7xx_HAL_Driver/Src/stm32h7xx_hal_pwr_ex.c **** 
 957:../../Drivers/STM32H7xx_HAL_Driver/Src/stm32h7xx_hal_pwr_ex.c **** /**
 958:../../Drivers/STM32H7xx_HAL_Driver/Src/stm32h7xx_hal_pwr_ex.c ****   * @brief Enter a Domain to DSTANDBY mode.
 959:../../Drivers/STM32H7xx_HAL_Driver/Src/stm32h7xx_hal_pwr_ex.c ****   * @note   This API gives flexibility to manage independently each domain
 960:../../Drivers/STM32H7xx_HAL_Driver/Src/stm32h7xx_hal_pwr_ex.c ****   *         STANDBY mode. For dual core lines, this API should be executed with
 961:../../Drivers/STM32H7xx_HAL_Driver/Src/stm32h7xx_hal_pwr_ex.c ****   *         the corresponding Cortex-Mx to enter domain to DSTANDBY mode. When
 962:../../Drivers/STM32H7xx_HAL_Driver/Src/stm32h7xx_hal_pwr_ex.c ****   *         it is executed by all available Cortex-Mx, the system enter STANDBY
 963:../../Drivers/STM32H7xx_HAL_Driver/Src/stm32h7xx_hal_pwr_ex.c ****   *         mode.
 964:../../Drivers/STM32H7xx_HAL_Driver/Src/stm32h7xx_hal_pwr_ex.c ****   *         For single core lines, calling this API with D1/SRD the selected
 965:../../Drivers/STM32H7xx_HAL_Driver/Src/stm32h7xx_hal_pwr_ex.c ****   *         domain will enter the whole system in STOP if PWR_CPUCR_PDDS_D3 = 0
 966:../../Drivers/STM32H7xx_HAL_Driver/Src/stm32h7xx_hal_pwr_ex.c ****   *         and enter the whole system in STANDBY if PWR_CPUCR_PDDS_D3 = 1.
 967:../../Drivers/STM32H7xx_HAL_Driver/Src/stm32h7xx_hal_pwr_ex.c ****   * @note   The DStandby mode is entered when all PDDS_Dn bits in PWR_CPUCR for
 968:../../Drivers/STM32H7xx_HAL_Driver/Src/stm32h7xx_hal_pwr_ex.c ****   *         the Dn domain select Standby mode. When the system enters Standby
 969:../../Drivers/STM32H7xx_HAL_Driver/Src/stm32h7xx_hal_pwr_ex.c ****   *         mode, the voltage regulator is disabled.
 970:../../Drivers/STM32H7xx_HAL_Driver/Src/stm32h7xx_hal_pwr_ex.c ****   * @note   When D2 or D3 domain is in DStandby mode and the CPU sets the
 971:../../Drivers/STM32H7xx_HAL_Driver/Src/stm32h7xx_hal_pwr_ex.c ****   *         domain PDDS_Dn bit to select Stop mode, the domain remains in
 972:../../Drivers/STM32H7xx_HAL_Driver/Src/stm32h7xx_hal_pwr_ex.c ****   *         DStandby mode. The domain will only exit DStandby when the CPU
 973:../../Drivers/STM32H7xx_HAL_Driver/Src/stm32h7xx_hal_pwr_ex.c ****   *         allocates a peripheral in the domain.
 974:../../Drivers/STM32H7xx_HAL_Driver/Src/stm32h7xx_hal_pwr_ex.c ****   * @note   The system D3/SRD domain enters Standby mode only when the D1 and D2
 975:../../Drivers/STM32H7xx_HAL_Driver/Src/stm32h7xx_hal_pwr_ex.c ****   *         domain are in DStandby.
 976:../../Drivers/STM32H7xx_HAL_Driver/Src/stm32h7xx_hal_pwr_ex.c ****   * @note   Before entering DSTANDBY mode it is recommended to call
 977:../../Drivers/STM32H7xx_HAL_Driver/Src/stm32h7xx_hal_pwr_ex.c ****   *         SCB_CleanDCache function in order to clean the D-Cache and guarantee
 978:../../Drivers/STM32H7xx_HAL_Driver/Src/stm32h7xx_hal_pwr_ex.c ****   *         the data integrity for the SRAM memories.
 979:../../Drivers/STM32H7xx_HAL_Driver/Src/stm32h7xx_hal_pwr_ex.c ****   * @param  Domain : Specifies the Domain to enter to STANDBY mode.
 980:../../Drivers/STM32H7xx_HAL_Driver/Src/stm32h7xx_hal_pwr_ex.c ****   *          This parameter can be one of the following values:
 981:../../Drivers/STM32H7xx_HAL_Driver/Src/stm32h7xx_hal_pwr_ex.c ****   *            @arg PWR_D1_DOMAIN: Enter D1/CD Domain to DSTANDBY mode.
 982:../../Drivers/STM32H7xx_HAL_Driver/Src/stm32h7xx_hal_pwr_ex.c ****   *            @arg PWR_D2_DOMAIN: Enter D2 Domain to DSTANDBY mode.
 983:../../Drivers/STM32H7xx_HAL_Driver/Src/stm32h7xx_hal_pwr_ex.c ****   *            @arg PWR_D3_DOMAIN: Enter D3/SRD Domain to DSTANDBY mode.
 984:../../Drivers/STM32H7xx_HAL_Driver/Src/stm32h7xx_hal_pwr_ex.c ****   * @retval None
 985:../../Drivers/STM32H7xx_HAL_Driver/Src/stm32h7xx_hal_pwr_ex.c ****   */
 986:../../Drivers/STM32H7xx_HAL_Driver/Src/stm32h7xx_hal_pwr_ex.c **** void HAL_PWREx_EnterSTANDBYMode (uint32_t Domain)
 987:../../Drivers/STM32H7xx_HAL_Driver/Src/stm32h7xx_hal_pwr_ex.c **** {
 770              		.loc 1 987 1 view -0
 771              		.cfi_startproc
 772              		@ args = 0, pretend = 0, frame = 0
 773              		@ frame_needed = 0, uses_anonymous_args = 0
 774              		.loc 1 987 1 is_stmt 0 view .LVU186
 775 0000 08B5     		push	{r3, lr}
 776              	.LCFI4:
 777              		.cfi_def_cfa_offset 8
 778              		.cfi_offset 3, -8
 779              		.cfi_offset 14, -4
 988:../../Drivers/STM32H7xx_HAL_Driver/Src/stm32h7xx_hal_pwr_ex.c ****   /* Check the parameters */
 989:../../Drivers/STM32H7xx_HAL_Driver/Src/stm32h7xx_hal_pwr_ex.c ****   assert_param (IS_PWR_DOMAIN (Domain));
 780              		.loc 1 989 3 is_stmt 1 view .LVU187
ARM GAS  C:\Users\gigig\AppData\Local\Temp\ccXuJv1Z.s 			page 50


 990:../../Drivers/STM32H7xx_HAL_Driver/Src/stm32h7xx_hal_pwr_ex.c **** 
 991:../../Drivers/STM32H7xx_HAL_Driver/Src/stm32h7xx_hal_pwr_ex.c ****   /* Select the domain Power Down DeepSleep */
 992:../../Drivers/STM32H7xx_HAL_Driver/Src/stm32h7xx_hal_pwr_ex.c ****   if (Domain == PWR_D1_DOMAIN)
 781              		.loc 1 992 3 view .LVU188
 782              		.loc 1 992 6 is_stmt 0 view .LVU189
 783 0002 58B1     		cbz	r0, .L81
 993:../../Drivers/STM32H7xx_HAL_Driver/Src/stm32h7xx_hal_pwr_ex.c ****   {
 994:../../Drivers/STM32H7xx_HAL_Driver/Src/stm32h7xx_hal_pwr_ex.c **** #if defined (DUAL_CORE)
 995:../../Drivers/STM32H7xx_HAL_Driver/Src/stm32h7xx_hal_pwr_ex.c ****     /* Check current core */
 996:../../Drivers/STM32H7xx_HAL_Driver/Src/stm32h7xx_hal_pwr_ex.c ****     if (HAL_GetCurrentCPUID () != CM7_CPUID)
 997:../../Drivers/STM32H7xx_HAL_Driver/Src/stm32h7xx_hal_pwr_ex.c ****     {
 998:../../Drivers/STM32H7xx_HAL_Driver/Src/stm32h7xx_hal_pwr_ex.c ****       /*
 999:../../Drivers/STM32H7xx_HAL_Driver/Src/stm32h7xx_hal_pwr_ex.c ****          When the domain selected and the cortex-mx don't match, entering
1000:../../Drivers/STM32H7xx_HAL_Driver/Src/stm32h7xx_hal_pwr_ex.c ****          standby mode will not be performed
1001:../../Drivers/STM32H7xx_HAL_Driver/Src/stm32h7xx_hal_pwr_ex.c ****       */
1002:../../Drivers/STM32H7xx_HAL_Driver/Src/stm32h7xx_hal_pwr_ex.c ****       return;
1003:../../Drivers/STM32H7xx_HAL_Driver/Src/stm32h7xx_hal_pwr_ex.c ****     }
1004:../../Drivers/STM32H7xx_HAL_Driver/Src/stm32h7xx_hal_pwr_ex.c **** #endif /* defined (DUAL_CORE) */
1005:../../Drivers/STM32H7xx_HAL_Driver/Src/stm32h7xx_hal_pwr_ex.c **** 
1006:../../Drivers/STM32H7xx_HAL_Driver/Src/stm32h7xx_hal_pwr_ex.c ****     /* Allow DSTANDBY mode when D1/CD domain enters Deepsleep */
1007:../../Drivers/STM32H7xx_HAL_Driver/Src/stm32h7xx_hal_pwr_ex.c ****     SET_BIT (PWR-> CPUCR, PWR_CPUCR_PDDS_D1);
1008:../../Drivers/STM32H7xx_HAL_Driver/Src/stm32h7xx_hal_pwr_ex.c **** 
1009:../../Drivers/STM32H7xx_HAL_Driver/Src/stm32h7xx_hal_pwr_ex.c **** #if defined (DUAL_CORE)
1010:../../Drivers/STM32H7xx_HAL_Driver/Src/stm32h7xx_hal_pwr_ex.c ****     /* Allow DSTANDBY mode when D1/CD domain enters Deepsleep */
1011:../../Drivers/STM32H7xx_HAL_Driver/Src/stm32h7xx_hal_pwr_ex.c ****     SET_BIT (PWR-> CPU2CR, PWR_CPU2CR_PDDS_D1);
1012:../../Drivers/STM32H7xx_HAL_Driver/Src/stm32h7xx_hal_pwr_ex.c **** #endif /*DUAL_CORE*/
1013:../../Drivers/STM32H7xx_HAL_Driver/Src/stm32h7xx_hal_pwr_ex.c **** 
1014:../../Drivers/STM32H7xx_HAL_Driver/Src/stm32h7xx_hal_pwr_ex.c ****     /* Set SLEEPDEEP bit of Cortex System Control Register */
1015:../../Drivers/STM32H7xx_HAL_Driver/Src/stm32h7xx_hal_pwr_ex.c ****     SET_BIT (SCB->SCR, SCB_SCR_SLEEPDEEP_Msk);
1016:../../Drivers/STM32H7xx_HAL_Driver/Src/stm32h7xx_hal_pwr_ex.c **** 
1017:../../Drivers/STM32H7xx_HAL_Driver/Src/stm32h7xx_hal_pwr_ex.c ****     /* This option is used to ensure that store operations are completed */
1018:../../Drivers/STM32H7xx_HAL_Driver/Src/stm32h7xx_hal_pwr_ex.c **** #if defined (__CC_ARM)
1019:../../Drivers/STM32H7xx_HAL_Driver/Src/stm32h7xx_hal_pwr_ex.c ****     __force_stores ();
1020:../../Drivers/STM32H7xx_HAL_Driver/Src/stm32h7xx_hal_pwr_ex.c **** #endif /* defined (__CC_ARM) */
1021:../../Drivers/STM32H7xx_HAL_Driver/Src/stm32h7xx_hal_pwr_ex.c **** 
1022:../../Drivers/STM32H7xx_HAL_Driver/Src/stm32h7xx_hal_pwr_ex.c ****     /* Request Wait For Interrupt */
1023:../../Drivers/STM32H7xx_HAL_Driver/Src/stm32h7xx_hal_pwr_ex.c ****     __WFI ();
1024:../../Drivers/STM32H7xx_HAL_Driver/Src/stm32h7xx_hal_pwr_ex.c ****   }
1025:../../Drivers/STM32H7xx_HAL_Driver/Src/stm32h7xx_hal_pwr_ex.c **** #if defined (PWR_CPUCR_PDDS_D2)
1026:../../Drivers/STM32H7xx_HAL_Driver/Src/stm32h7xx_hal_pwr_ex.c ****   else if (Domain == PWR_D2_DOMAIN)
 784              		.loc 1 1026 8 is_stmt 1 view .LVU190
 785              		.loc 1 1026 11 is_stmt 0 view .LVU191
 786 0004 0128     		cmp	r0, #1
 787 0006 1DD0     		beq	.L82
1027:../../Drivers/STM32H7xx_HAL_Driver/Src/stm32h7xx_hal_pwr_ex.c ****   {
1028:../../Drivers/STM32H7xx_HAL_Driver/Src/stm32h7xx_hal_pwr_ex.c ****     /* Allow DSTANDBY mode when D2 domain enters Deepsleep */
1029:../../Drivers/STM32H7xx_HAL_Driver/Src/stm32h7xx_hal_pwr_ex.c ****     SET_BIT (PWR-> CPUCR, PWR_CPUCR_PDDS_D2);
1030:../../Drivers/STM32H7xx_HAL_Driver/Src/stm32h7xx_hal_pwr_ex.c **** 
1031:../../Drivers/STM32H7xx_HAL_Driver/Src/stm32h7xx_hal_pwr_ex.c **** #if defined (DUAL_CORE)
1032:../../Drivers/STM32H7xx_HAL_Driver/Src/stm32h7xx_hal_pwr_ex.c ****     /* Check current core */
1033:../../Drivers/STM32H7xx_HAL_Driver/Src/stm32h7xx_hal_pwr_ex.c ****     if (HAL_GetCurrentCPUID () != CM4_CPUID)
1034:../../Drivers/STM32H7xx_HAL_Driver/Src/stm32h7xx_hal_pwr_ex.c ****     {
1035:../../Drivers/STM32H7xx_HAL_Driver/Src/stm32h7xx_hal_pwr_ex.c ****       /*
1036:../../Drivers/STM32H7xx_HAL_Driver/Src/stm32h7xx_hal_pwr_ex.c ****          When the domain selected and the cortex-mx don't match, entering
1037:../../Drivers/STM32H7xx_HAL_Driver/Src/stm32h7xx_hal_pwr_ex.c ****          standby mode will not be performed
1038:../../Drivers/STM32H7xx_HAL_Driver/Src/stm32h7xx_hal_pwr_ex.c ****       */
1039:../../Drivers/STM32H7xx_HAL_Driver/Src/stm32h7xx_hal_pwr_ex.c ****       return;
ARM GAS  C:\Users\gigig\AppData\Local\Temp\ccXuJv1Z.s 			page 51


1040:../../Drivers/STM32H7xx_HAL_Driver/Src/stm32h7xx_hal_pwr_ex.c ****     }
1041:../../Drivers/STM32H7xx_HAL_Driver/Src/stm32h7xx_hal_pwr_ex.c **** 
1042:../../Drivers/STM32H7xx_HAL_Driver/Src/stm32h7xx_hal_pwr_ex.c ****     /* Allow DSTANDBY mode when D2 domain enters Deepsleep */
1043:../../Drivers/STM32H7xx_HAL_Driver/Src/stm32h7xx_hal_pwr_ex.c ****     SET_BIT (PWR-> CPU2CR, PWR_CPU2CR_PDDS_D2);
1044:../../Drivers/STM32H7xx_HAL_Driver/Src/stm32h7xx_hal_pwr_ex.c **** 
1045:../../Drivers/STM32H7xx_HAL_Driver/Src/stm32h7xx_hal_pwr_ex.c ****     /* Set SLEEPDEEP bit of Cortex System Control Register */
1046:../../Drivers/STM32H7xx_HAL_Driver/Src/stm32h7xx_hal_pwr_ex.c ****     SET_BIT (SCB->SCR, SCB_SCR_SLEEPDEEP_Msk);
1047:../../Drivers/STM32H7xx_HAL_Driver/Src/stm32h7xx_hal_pwr_ex.c **** 
1048:../../Drivers/STM32H7xx_HAL_Driver/Src/stm32h7xx_hal_pwr_ex.c ****     /* This option is used to ensure that store operations are completed */
1049:../../Drivers/STM32H7xx_HAL_Driver/Src/stm32h7xx_hal_pwr_ex.c **** #if defined (__CC_ARM)
1050:../../Drivers/STM32H7xx_HAL_Driver/Src/stm32h7xx_hal_pwr_ex.c ****     __force_stores ();
1051:../../Drivers/STM32H7xx_HAL_Driver/Src/stm32h7xx_hal_pwr_ex.c **** #endif /* defined (__CC_ARM) */
1052:../../Drivers/STM32H7xx_HAL_Driver/Src/stm32h7xx_hal_pwr_ex.c **** 
1053:../../Drivers/STM32H7xx_HAL_Driver/Src/stm32h7xx_hal_pwr_ex.c ****     /* Request Wait For Interrupt */
1054:../../Drivers/STM32H7xx_HAL_Driver/Src/stm32h7xx_hal_pwr_ex.c ****     __WFI ();
1055:../../Drivers/STM32H7xx_HAL_Driver/Src/stm32h7xx_hal_pwr_ex.c **** #endif /* defined (DUAL_CORE) */
1056:../../Drivers/STM32H7xx_HAL_Driver/Src/stm32h7xx_hal_pwr_ex.c ****   }
1057:../../Drivers/STM32H7xx_HAL_Driver/Src/stm32h7xx_hal_pwr_ex.c **** #endif /* defined (PWR_CPUCR_PDDS_D2) */
1058:../../Drivers/STM32H7xx_HAL_Driver/Src/stm32h7xx_hal_pwr_ex.c ****   else
1059:../../Drivers/STM32H7xx_HAL_Driver/Src/stm32h7xx_hal_pwr_ex.c ****   {
1060:../../Drivers/STM32H7xx_HAL_Driver/Src/stm32h7xx_hal_pwr_ex.c ****     /* Allow DSTANDBY mode when D3/SRD domain enters Deepsleep */
1061:../../Drivers/STM32H7xx_HAL_Driver/Src/stm32h7xx_hal_pwr_ex.c ****     SET_BIT (PWR->CPUCR, PWR_CPUCR_PDDS_D3);
 788              		.loc 1 1061 5 is_stmt 1 view .LVU192
 789 0008 194B     		ldr	r3, .L83
 790 000a 1A69     		ldr	r2, [r3, #16]
 791 000c 42F00402 		orr	r2, r2, #4
 792 0010 1A61     		str	r2, [r3, #16]
1062:../../Drivers/STM32H7xx_HAL_Driver/Src/stm32h7xx_hal_pwr_ex.c **** 
1063:../../Drivers/STM32H7xx_HAL_Driver/Src/stm32h7xx_hal_pwr_ex.c **** #if defined (DUAL_CORE)
1064:../../Drivers/STM32H7xx_HAL_Driver/Src/stm32h7xx_hal_pwr_ex.c ****     /* Allow DSTANDBY mode when D3/SRD domain enters Deepsleep */
1065:../../Drivers/STM32H7xx_HAL_Driver/Src/stm32h7xx_hal_pwr_ex.c ****     SET_BIT (PWR->CPU2CR, PWR_CPU2CR_PDDS_D3);
 793              		.loc 1 1065 5 view .LVU193
 794 0012 5A69     		ldr	r2, [r3, #20]
 795 0014 42F00402 		orr	r2, r2, #4
 796 0018 5A61     		str	r2, [r3, #20]
 797              	.LVL41:
 798              	.L76:
1066:../../Drivers/STM32H7xx_HAL_Driver/Src/stm32h7xx_hal_pwr_ex.c **** #endif /* defined (DUAL_CORE) */
1067:../../Drivers/STM32H7xx_HAL_Driver/Src/stm32h7xx_hal_pwr_ex.c ****   }
1068:../../Drivers/STM32H7xx_HAL_Driver/Src/stm32h7xx_hal_pwr_ex.c **** }
 799              		.loc 1 1068 1 is_stmt 0 view .LVU194
 800 001a 08BD     		pop	{r3, pc}
 801              	.LVL42:
 802              	.L81:
 996:../../Drivers/STM32H7xx_HAL_Driver/Src/stm32h7xx_hal_pwr_ex.c ****     {
 803              		.loc 1 996 5 is_stmt 1 view .LVU195
 996:../../Drivers/STM32H7xx_HAL_Driver/Src/stm32h7xx_hal_pwr_ex.c ****     {
 804              		.loc 1 996 9 is_stmt 0 view .LVU196
 805 001c FFF7FEFF 		bl	HAL_GetCurrentCPUID
 806              	.LVL43:
 996:../../Drivers/STM32H7xx_HAL_Driver/Src/stm32h7xx_hal_pwr_ex.c ****     {
 807              		.loc 1 996 8 view .LVU197
 808 0020 0328     		cmp	r0, #3
 809 0022 FAD1     		bne	.L76
1007:../../Drivers/STM32H7xx_HAL_Driver/Src/stm32h7xx_hal_pwr_ex.c **** 
 810              		.loc 1 1007 5 is_stmt 1 view .LVU198
 811 0024 124B     		ldr	r3, .L83
ARM GAS  C:\Users\gigig\AppData\Local\Temp\ccXuJv1Z.s 			page 52


 812 0026 1A69     		ldr	r2, [r3, #16]
 813 0028 42F00102 		orr	r2, r2, #1
 814 002c 1A61     		str	r2, [r3, #16]
1011:../../Drivers/STM32H7xx_HAL_Driver/Src/stm32h7xx_hal_pwr_ex.c **** #endif /*DUAL_CORE*/
 815              		.loc 1 1011 5 view .LVU199
 816 002e 5A69     		ldr	r2, [r3, #20]
 817 0030 42F00102 		orr	r2, r2, #1
 818 0034 5A61     		str	r2, [r3, #20]
1015:../../Drivers/STM32H7xx_HAL_Driver/Src/stm32h7xx_hal_pwr_ex.c **** 
 819              		.loc 1 1015 5 view .LVU200
 820 0036 0F4A     		ldr	r2, .L83+4
 821 0038 1369     		ldr	r3, [r2, #16]
 822 003a 43F00403 		orr	r3, r3, #4
 823 003e 1361     		str	r3, [r2, #16]
1023:../../Drivers/STM32H7xx_HAL_Driver/Src/stm32h7xx_hal_pwr_ex.c ****   }
 824              		.loc 1 1023 5 view .LVU201
 825              		.syntax unified
 826              	@ 1023 "../../Drivers/STM32H7xx_HAL_Driver/Src/stm32h7xx_hal_pwr_ex.c" 1
 827 0040 30BF     		wfi
 828              	@ 0 "" 2
 829              		.thumb
 830              		.syntax unified
 831 0042 EAE7     		b	.L76
 832              	.LVL44:
 833              	.L82:
1029:../../Drivers/STM32H7xx_HAL_Driver/Src/stm32h7xx_hal_pwr_ex.c **** 
 834              		.loc 1 1029 5 view .LVU202
 835 0044 0A4A     		ldr	r2, .L83
 836 0046 1369     		ldr	r3, [r2, #16]
 837 0048 43F00203 		orr	r3, r3, #2
 838 004c 1361     		str	r3, [r2, #16]
1033:../../Drivers/STM32H7xx_HAL_Driver/Src/stm32h7xx_hal_pwr_ex.c ****     {
 839              		.loc 1 1033 5 view .LVU203
1033:../../Drivers/STM32H7xx_HAL_Driver/Src/stm32h7xx_hal_pwr_ex.c ****     {
 840              		.loc 1 1033 9 is_stmt 0 view .LVU204
 841 004e FFF7FEFF 		bl	HAL_GetCurrentCPUID
 842              	.LVL45:
1033:../../Drivers/STM32H7xx_HAL_Driver/Src/stm32h7xx_hal_pwr_ex.c ****     {
 843              		.loc 1 1033 8 view .LVU205
 844 0052 0128     		cmp	r0, #1
 845 0054 E1D1     		bne	.L76
1043:../../Drivers/STM32H7xx_HAL_Driver/Src/stm32h7xx_hal_pwr_ex.c **** 
 846              		.loc 1 1043 5 is_stmt 1 view .LVU206
 847 0056 064A     		ldr	r2, .L83
 848 0058 5369     		ldr	r3, [r2, #20]
 849 005a 43F00203 		orr	r3, r3, #2
 850 005e 5361     		str	r3, [r2, #20]
1046:../../Drivers/STM32H7xx_HAL_Driver/Src/stm32h7xx_hal_pwr_ex.c **** 
 851              		.loc 1 1046 5 view .LVU207
 852 0060 044A     		ldr	r2, .L83+4
 853 0062 1369     		ldr	r3, [r2, #16]
 854 0064 43F00403 		orr	r3, r3, #4
 855 0068 1361     		str	r3, [r2, #16]
1054:../../Drivers/STM32H7xx_HAL_Driver/Src/stm32h7xx_hal_pwr_ex.c **** #endif /* defined (DUAL_CORE) */
 856              		.loc 1 1054 5 view .LVU208
 857              		.syntax unified
 858              	@ 1054 "../../Drivers/STM32H7xx_HAL_Driver/Src/stm32h7xx_hal_pwr_ex.c" 1
ARM GAS  C:\Users\gigig\AppData\Local\Temp\ccXuJv1Z.s 			page 53


 859 006a 30BF     		wfi
 860              	@ 0 "" 2
 861              		.thumb
 862              		.syntax unified
 863 006c D5E7     		b	.L76
 864              	.L84:
 865 006e 00BF     		.align	2
 866              	.L83:
 867 0070 00480258 		.word	1476544512
 868 0074 00ED00E0 		.word	-536810240
 869              		.cfi_endproc
 870              	.LFE152:
 872              		.section	.text.HAL_PWREx_ConfigD3Domain,"ax",%progbits
 873              		.align	1
 874              		.global	HAL_PWREx_ConfigD3Domain
 875              		.syntax unified
 876              		.thumb
 877              		.thumb_func
 879              	HAL_PWREx_ConfigD3Domain:
 880              	.LVL46:
 881              	.LFB153:
1069:../../Drivers/STM32H7xx_HAL_Driver/Src/stm32h7xx_hal_pwr_ex.c **** 
1070:../../Drivers/STM32H7xx_HAL_Driver/Src/stm32h7xx_hal_pwr_ex.c **** /**
1071:../../Drivers/STM32H7xx_HAL_Driver/Src/stm32h7xx_hal_pwr_ex.c ****   * @brief Configure the D3/SRD Domain state when the System in low power mode.
1072:../../Drivers/STM32H7xx_HAL_Driver/Src/stm32h7xx_hal_pwr_ex.c ****   * @param  D3State : Specifies the D3/SRD state.
1073:../../Drivers/STM32H7xx_HAL_Driver/Src/stm32h7xx_hal_pwr_ex.c ****   *          This parameter can be one of the following values :
1074:../../Drivers/STM32H7xx_HAL_Driver/Src/stm32h7xx_hal_pwr_ex.c ****   *            @arg PWR_D3_DOMAIN_STOP : D3/SRD domain will follow the most deep
1075:../../Drivers/STM32H7xx_HAL_Driver/Src/stm32h7xx_hal_pwr_ex.c ****   *                                      CPU sub-system low power mode.
1076:../../Drivers/STM32H7xx_HAL_Driver/Src/stm32h7xx_hal_pwr_ex.c ****   *            @arg PWR_D3_DOMAIN_RUN : D3/SRD domain will stay in RUN mode
1077:../../Drivers/STM32H7xx_HAL_Driver/Src/stm32h7xx_hal_pwr_ex.c ****   *                                     regardless of the CPU sub-system low
1078:../../Drivers/STM32H7xx_HAL_Driver/Src/stm32h7xx_hal_pwr_ex.c ****   *                                     power mode.
1079:../../Drivers/STM32H7xx_HAL_Driver/Src/stm32h7xx_hal_pwr_ex.c ****   * @retval None
1080:../../Drivers/STM32H7xx_HAL_Driver/Src/stm32h7xx_hal_pwr_ex.c ****   */
1081:../../Drivers/STM32H7xx_HAL_Driver/Src/stm32h7xx_hal_pwr_ex.c **** void HAL_PWREx_ConfigD3Domain (uint32_t D3State)
1082:../../Drivers/STM32H7xx_HAL_Driver/Src/stm32h7xx_hal_pwr_ex.c **** {
 882              		.loc 1 1082 1 view -0
 883              		.cfi_startproc
 884              		@ args = 0, pretend = 0, frame = 0
 885              		@ frame_needed = 0, uses_anonymous_args = 0
 886              		@ link register save eliminated.
1083:../../Drivers/STM32H7xx_HAL_Driver/Src/stm32h7xx_hal_pwr_ex.c ****   /* Check the parameter */
1084:../../Drivers/STM32H7xx_HAL_Driver/Src/stm32h7xx_hal_pwr_ex.c ****   assert_param (IS_D3_STATE (D3State));
 887              		.loc 1 1084 3 view .LVU210
1085:../../Drivers/STM32H7xx_HAL_Driver/Src/stm32h7xx_hal_pwr_ex.c **** 
1086:../../Drivers/STM32H7xx_HAL_Driver/Src/stm32h7xx_hal_pwr_ex.c ****   /* Keep D3/SRD in run mode */
1087:../../Drivers/STM32H7xx_HAL_Driver/Src/stm32h7xx_hal_pwr_ex.c ****   MODIFY_REG (PWR->CPUCR, PWR_CPUCR_RUN_D3, D3State);
 888              		.loc 1 1087 3 view .LVU211
 889 0000 034A     		ldr	r2, .L86
 890 0002 1369     		ldr	r3, [r2, #16]
 891 0004 23F40063 		bic	r3, r3, #2048
 892 0008 0343     		orrs	r3, r3, r0
 893 000a 1361     		str	r3, [r2, #16]
1088:../../Drivers/STM32H7xx_HAL_Driver/Src/stm32h7xx_hal_pwr_ex.c **** }
 894              		.loc 1 1088 1 is_stmt 0 view .LVU212
 895 000c 7047     		bx	lr
 896              	.L87:
 897 000e 00BF     		.align	2
ARM GAS  C:\Users\gigig\AppData\Local\Temp\ccXuJv1Z.s 			page 54


 898              	.L86:
 899 0010 00480258 		.word	1476544512
 900              		.cfi_endproc
 901              	.LFE153:
 903              		.section	.text.HAL_PWREx_ClearDomainFlags,"ax",%progbits
 904              		.align	1
 905              		.global	HAL_PWREx_ClearDomainFlags
 906              		.syntax unified
 907              		.thumb
 908              		.thumb_func
 910              	HAL_PWREx_ClearDomainFlags:
 911              	.LVL47:
 912              	.LFB154:
1089:../../Drivers/STM32H7xx_HAL_Driver/Src/stm32h7xx_hal_pwr_ex.c **** 
1090:../../Drivers/STM32H7xx_HAL_Driver/Src/stm32h7xx_hal_pwr_ex.c **** #if defined (DUAL_CORE)
1091:../../Drivers/STM32H7xx_HAL_Driver/Src/stm32h7xx_hal_pwr_ex.c **** /**
1092:../../Drivers/STM32H7xx_HAL_Driver/Src/stm32h7xx_hal_pwr_ex.c ****   * @brief Clear HOLD2F, HOLD1F, STOPF, SBF, SBF_D1, and SBF_D2 flags for a
1093:../../Drivers/STM32H7xx_HAL_Driver/Src/stm32h7xx_hal_pwr_ex.c ****   *        given domain.
1094:../../Drivers/STM32H7xx_HAL_Driver/Src/stm32h7xx_hal_pwr_ex.c ****   * @param  DomainFlags : Specifies the Domain flags to be cleared.
1095:../../Drivers/STM32H7xx_HAL_Driver/Src/stm32h7xx_hal_pwr_ex.c ****   *          This parameter can be one of the following values:
1096:../../Drivers/STM32H7xx_HAL_Driver/Src/stm32h7xx_hal_pwr_ex.c ****   *            @arg PWR_D1_DOMAIN_FLAGS : Clear D1 Domain flags.
1097:../../Drivers/STM32H7xx_HAL_Driver/Src/stm32h7xx_hal_pwr_ex.c ****   *            @arg PWR_D2_DOMAIN_FLAGS : Clear D2 Domain flags.
1098:../../Drivers/STM32H7xx_HAL_Driver/Src/stm32h7xx_hal_pwr_ex.c ****   *            @arg PWR_ALL_DOMAIN_FLAGS : Clear D1 and D2 Domain flags.
1099:../../Drivers/STM32H7xx_HAL_Driver/Src/stm32h7xx_hal_pwr_ex.c ****   * @retval None.
1100:../../Drivers/STM32H7xx_HAL_Driver/Src/stm32h7xx_hal_pwr_ex.c ****   */
1101:../../Drivers/STM32H7xx_HAL_Driver/Src/stm32h7xx_hal_pwr_ex.c **** void HAL_PWREx_ClearDomainFlags (uint32_t DomainFlags)
1102:../../Drivers/STM32H7xx_HAL_Driver/Src/stm32h7xx_hal_pwr_ex.c **** {
 913              		.loc 1 1102 1 is_stmt 1 view -0
 914              		.cfi_startproc
 915              		@ args = 0, pretend = 0, frame = 0
 916              		@ frame_needed = 0, uses_anonymous_args = 0
 917              		@ link register save eliminated.
1103:../../Drivers/STM32H7xx_HAL_Driver/Src/stm32h7xx_hal_pwr_ex.c ****   /* Check the parameter */
1104:../../Drivers/STM32H7xx_HAL_Driver/Src/stm32h7xx_hal_pwr_ex.c ****   assert_param (IS_PWR_DOMAIN_FLAG (DomainFlags));
 918              		.loc 1 1104 3 view .LVU214
1105:../../Drivers/STM32H7xx_HAL_Driver/Src/stm32h7xx_hal_pwr_ex.c **** 
1106:../../Drivers/STM32H7xx_HAL_Driver/Src/stm32h7xx_hal_pwr_ex.c ****   /* D1 CPU flags */
1107:../../Drivers/STM32H7xx_HAL_Driver/Src/stm32h7xx_hal_pwr_ex.c ****   if (DomainFlags == PWR_D1_DOMAIN_FLAGS)
 919              		.loc 1 1107 3 view .LVU215
 920              		.loc 1 1107 6 is_stmt 0 view .LVU216
 921 0000 28B9     		cbnz	r0, .L89
1108:../../Drivers/STM32H7xx_HAL_Driver/Src/stm32h7xx_hal_pwr_ex.c ****   {
1109:../../Drivers/STM32H7xx_HAL_Driver/Src/stm32h7xx_hal_pwr_ex.c ****     /* Clear D1 domain flags (HOLD2F, STOPF, SBF, SBF_D1, and SBF_D2) */
1110:../../Drivers/STM32H7xx_HAL_Driver/Src/stm32h7xx_hal_pwr_ex.c ****     SET_BIT (PWR->CPUCR, PWR_CPUCR_CSSF);
 922              		.loc 1 1110 5 is_stmt 1 view .LVU217
 923 0002 0C4A     		ldr	r2, .L93
 924 0004 1369     		ldr	r3, [r2, #16]
 925 0006 43F40073 		orr	r3, r3, #512
 926 000a 1361     		str	r3, [r2, #16]
 927 000c 7047     		bx	lr
 928              	.L89:
1111:../../Drivers/STM32H7xx_HAL_Driver/Src/stm32h7xx_hal_pwr_ex.c ****   }
1112:../../Drivers/STM32H7xx_HAL_Driver/Src/stm32h7xx_hal_pwr_ex.c ****   /* D2 CPU flags */
1113:../../Drivers/STM32H7xx_HAL_Driver/Src/stm32h7xx_hal_pwr_ex.c ****   else if (DomainFlags == PWR_D2_DOMAIN_FLAGS)
 929              		.loc 1 1113 8 view .LVU218
 930              		.loc 1 1113 11 is_stmt 0 view .LVU219
 931 000e 0128     		cmp	r0, #1
ARM GAS  C:\Users\gigig\AppData\Local\Temp\ccXuJv1Z.s 			page 55


 932 0010 09D0     		beq	.L92
1114:../../Drivers/STM32H7xx_HAL_Driver/Src/stm32h7xx_hal_pwr_ex.c ****   {
1115:../../Drivers/STM32H7xx_HAL_Driver/Src/stm32h7xx_hal_pwr_ex.c ****     /* Clear D2 domain flags (HOLD1F, STOPF, SBF, SBF_D1, and SBF_D2) */
1116:../../Drivers/STM32H7xx_HAL_Driver/Src/stm32h7xx_hal_pwr_ex.c ****     SET_BIT (PWR->CPU2CR, PWR_CPU2CR_CSSF);
1117:../../Drivers/STM32H7xx_HAL_Driver/Src/stm32h7xx_hal_pwr_ex.c ****   }
1118:../../Drivers/STM32H7xx_HAL_Driver/Src/stm32h7xx_hal_pwr_ex.c ****   else
1119:../../Drivers/STM32H7xx_HAL_Driver/Src/stm32h7xx_hal_pwr_ex.c ****   {
1120:../../Drivers/STM32H7xx_HAL_Driver/Src/stm32h7xx_hal_pwr_ex.c ****     /* Clear D1 domain flags (HOLD2F, STOPF, SBF, SBF_D1, and SBF_D2) */
1121:../../Drivers/STM32H7xx_HAL_Driver/Src/stm32h7xx_hal_pwr_ex.c ****     SET_BIT (PWR->CPUCR, PWR_CPUCR_CSSF);
 933              		.loc 1 1121 5 is_stmt 1 view .LVU220
 934 0012 084B     		ldr	r3, .L93
 935 0014 1A69     		ldr	r2, [r3, #16]
 936 0016 42F40072 		orr	r2, r2, #512
 937 001a 1A61     		str	r2, [r3, #16]
1122:../../Drivers/STM32H7xx_HAL_Driver/Src/stm32h7xx_hal_pwr_ex.c ****     /* Clear D2 domain flags (HOLD1F, STOPF, SBF, SBF_D1, and SBF_D2) */
1123:../../Drivers/STM32H7xx_HAL_Driver/Src/stm32h7xx_hal_pwr_ex.c ****     SET_BIT (PWR->CPU2CR, PWR_CPU2CR_CSSF);
 938              		.loc 1 1123 5 view .LVU221
 939 001c 5A69     		ldr	r2, [r3, #20]
 940 001e 42F40072 		orr	r2, r2, #512
 941 0022 5A61     		str	r2, [r3, #20]
1124:../../Drivers/STM32H7xx_HAL_Driver/Src/stm32h7xx_hal_pwr_ex.c ****   }
1125:../../Drivers/STM32H7xx_HAL_Driver/Src/stm32h7xx_hal_pwr_ex.c **** }
 942              		.loc 1 1125 1 is_stmt 0 view .LVU222
 943 0024 7047     		bx	lr
 944              	.L92:
1116:../../Drivers/STM32H7xx_HAL_Driver/Src/stm32h7xx_hal_pwr_ex.c ****   }
 945              		.loc 1 1116 5 is_stmt 1 view .LVU223
 946 0026 034A     		ldr	r2, .L93
 947 0028 5369     		ldr	r3, [r2, #20]
