ARM GAS  C:\Users\gigig\AppData\Local\Temp\cc4Yyo3b.s 			page 1


   1              		.cpu cortex-m7
   2              		.arch armv7e-m
   3              		.fpu fpv5-d16
   4              		.eabi_attribute 28, 1
   5              		.eabi_attribute 20, 1
   6              		.eabi_attribute 21, 1
   7              		.eabi_attribute 23, 3
   8              		.eabi_attribute 24, 1
   9              		.eabi_attribute 25, 1
  10              		.eabi_attribute 26, 1
  11              		.eabi_attribute 30, 1
  12              		.eabi_attribute 34, 1
  13              		.eabi_attribute 18, 4
  14              		.file	"stm32h7xx_hal_flash.c"
  15              		.text
  16              	.Ltext0:
  17              		.cfi_sections	.debug_frame
  18              		.file 1 "../../Drivers/STM32H7xx_HAL_Driver/Src/stm32h7xx_hal_flash.c"
  19              		.section	.text.HAL_FLASH_EndOfOperationCallback,"ax",%progbits
  20              		.align	1
  21              		.weak	HAL_FLASH_EndOfOperationCallback
  22              		.syntax unified
  23              		.thumb
  24              		.thumb_func
  26              	HAL_FLASH_EndOfOperationCallback:
  27              	.LVL0:
  28              	.LFB147:
   1:../../Drivers/STM32H7xx_HAL_Driver/Src/stm32h7xx_hal_flash.c **** /**
   2:../../Drivers/STM32H7xx_HAL_Driver/Src/stm32h7xx_hal_flash.c ****   ******************************************************************************
   3:../../Drivers/STM32H7xx_HAL_Driver/Src/stm32h7xx_hal_flash.c ****   * @file    stm32h7xx_hal_flash.c
   4:../../Drivers/STM32H7xx_HAL_Driver/Src/stm32h7xx_hal_flash.c ****   * @author  MCD Application Team
   5:../../Drivers/STM32H7xx_HAL_Driver/Src/stm32h7xx_hal_flash.c ****   * @brief   FLASH HAL module driver.
   6:../../Drivers/STM32H7xx_HAL_Driver/Src/stm32h7xx_hal_flash.c ****   *          This file provides firmware functions to manage the following
   7:../../Drivers/STM32H7xx_HAL_Driver/Src/stm32h7xx_hal_flash.c ****   *          functionalities of the internal FLASH memory:
   8:../../Drivers/STM32H7xx_HAL_Driver/Src/stm32h7xx_hal_flash.c ****   *           + Program operations functions
   9:../../Drivers/STM32H7xx_HAL_Driver/Src/stm32h7xx_hal_flash.c ****   *           + Memory Control functions
  10:../../Drivers/STM32H7xx_HAL_Driver/Src/stm32h7xx_hal_flash.c ****   *           + Peripheral Errors functions
  11:../../Drivers/STM32H7xx_HAL_Driver/Src/stm32h7xx_hal_flash.c ****   *
  12:../../Drivers/STM32H7xx_HAL_Driver/Src/stm32h7xx_hal_flash.c ****  @verbatim
  13:../../Drivers/STM32H7xx_HAL_Driver/Src/stm32h7xx_hal_flash.c ****   ==============================================================================
  14:../../Drivers/STM32H7xx_HAL_Driver/Src/stm32h7xx_hal_flash.c ****                         ##### FLASH peripheral features #####
  15:../../Drivers/STM32H7xx_HAL_Driver/Src/stm32h7xx_hal_flash.c ****   ==============================================================================
  16:../../Drivers/STM32H7xx_HAL_Driver/Src/stm32h7xx_hal_flash.c **** 
  17:../../Drivers/STM32H7xx_HAL_Driver/Src/stm32h7xx_hal_flash.c ****   [..] The Flash memory interface manages CPU AXI I-Code and D-Code accesses
  18:../../Drivers/STM32H7xx_HAL_Driver/Src/stm32h7xx_hal_flash.c ****        to the Flash memory. It implements the erase and program Flash memory operations
  19:../../Drivers/STM32H7xx_HAL_Driver/Src/stm32h7xx_hal_flash.c ****        and the read and write protection mechanisms.
  20:../../Drivers/STM32H7xx_HAL_Driver/Src/stm32h7xx_hal_flash.c **** 
  21:../../Drivers/STM32H7xx_HAL_Driver/Src/stm32h7xx_hal_flash.c ****   [..] The FLASH main features are:
  22:../../Drivers/STM32H7xx_HAL_Driver/Src/stm32h7xx_hal_flash.c ****       (+) Flash memory read operations
  23:../../Drivers/STM32H7xx_HAL_Driver/Src/stm32h7xx_hal_flash.c ****       (+) Flash memory program/erase operations
  24:../../Drivers/STM32H7xx_HAL_Driver/Src/stm32h7xx_hal_flash.c ****       (+) Read / write protections
  25:../../Drivers/STM32H7xx_HAL_Driver/Src/stm32h7xx_hal_flash.c ****       (+) Option bytes programming
  26:../../Drivers/STM32H7xx_HAL_Driver/Src/stm32h7xx_hal_flash.c ****       (+) Error code correction (ECC) : Data in flash are 266-bits word
  27:../../Drivers/STM32H7xx_HAL_Driver/Src/stm32h7xx_hal_flash.c ****           (10 bits added per flash word)
  28:../../Drivers/STM32H7xx_HAL_Driver/Src/stm32h7xx_hal_flash.c **** 
  29:../../Drivers/STM32H7xx_HAL_Driver/Src/stm32h7xx_hal_flash.c ****                         ##### How to use this driver #####
  30:../../Drivers/STM32H7xx_HAL_Driver/Src/stm32h7xx_hal_flash.c ****  ==============================================================================
ARM GAS  C:\Users\gigig\AppData\Local\Temp\cc4Yyo3b.s 			page 2


  31:../../Drivers/STM32H7xx_HAL_Driver/Src/stm32h7xx_hal_flash.c ****     [..]
  32:../../Drivers/STM32H7xx_HAL_Driver/Src/stm32h7xx_hal_flash.c ****       This driver provides functions and macros to configure and program the FLASH
  33:../../Drivers/STM32H7xx_HAL_Driver/Src/stm32h7xx_hal_flash.c ****       memory of all STM32H7xx devices.
  34:../../Drivers/STM32H7xx_HAL_Driver/Src/stm32h7xx_hal_flash.c **** 
  35:../../Drivers/STM32H7xx_HAL_Driver/Src/stm32h7xx_hal_flash.c ****       (#) FLASH Memory IO Programming functions:
  36:../../Drivers/STM32H7xx_HAL_Driver/Src/stm32h7xx_hal_flash.c ****            (++) Lock and Unlock the FLASH interface using HAL_FLASH_Unlock() and
  37:../../Drivers/STM32H7xx_HAL_Driver/Src/stm32h7xx_hal_flash.c ****                 HAL_FLASH_Lock() functions
  38:../../Drivers/STM32H7xx_HAL_Driver/Src/stm32h7xx_hal_flash.c ****            (++) Program functions: 256-bit word only
  39:../../Drivers/STM32H7xx_HAL_Driver/Src/stm32h7xx_hal_flash.c ****            (++) There Two modes of programming :
  40:../../Drivers/STM32H7xx_HAL_Driver/Src/stm32h7xx_hal_flash.c ****             (+++) Polling mode using HAL_FLASH_Program() function
  41:../../Drivers/STM32H7xx_HAL_Driver/Src/stm32h7xx_hal_flash.c ****             (+++) Interrupt mode using HAL_FLASH_Program_IT() function
  42:../../Drivers/STM32H7xx_HAL_Driver/Src/stm32h7xx_hal_flash.c **** 
  43:../../Drivers/STM32H7xx_HAL_Driver/Src/stm32h7xx_hal_flash.c ****       (#) Interrupts and flags management functions :
  44:../../Drivers/STM32H7xx_HAL_Driver/Src/stm32h7xx_hal_flash.c ****            (++) Handle FLASH interrupts by calling HAL_FLASH_IRQHandler()
  45:../../Drivers/STM32H7xx_HAL_Driver/Src/stm32h7xx_hal_flash.c ****            (++) Callback functions are called when the flash operations are finished :
  46:../../Drivers/STM32H7xx_HAL_Driver/Src/stm32h7xx_hal_flash.c ****                 HAL_FLASH_EndOfOperationCallback() when everything is ok, otherwise
  47:../../Drivers/STM32H7xx_HAL_Driver/Src/stm32h7xx_hal_flash.c ****                 HAL_FLASH_OperationErrorCallback()
  48:../../Drivers/STM32H7xx_HAL_Driver/Src/stm32h7xx_hal_flash.c ****            (++) Get error flag status by calling HAL_FLASH_GetError()
  49:../../Drivers/STM32H7xx_HAL_Driver/Src/stm32h7xx_hal_flash.c **** 
  50:../../Drivers/STM32H7xx_HAL_Driver/Src/stm32h7xx_hal_flash.c ****       (#) Option bytes management functions :
  51:../../Drivers/STM32H7xx_HAL_Driver/Src/stm32h7xx_hal_flash.c ****            (++) Lock and Unlock the option bytes using HAL_FLASH_OB_Unlock() and
  52:../../Drivers/STM32H7xx_HAL_Driver/Src/stm32h7xx_hal_flash.c ****                 HAL_FLASH_OB_Lock() functions
  53:../../Drivers/STM32H7xx_HAL_Driver/Src/stm32h7xx_hal_flash.c ****            (++) Launch the reload of the option bytes using HAL_FLASH_OB_Launch() function.
  54:../../Drivers/STM32H7xx_HAL_Driver/Src/stm32h7xx_hal_flash.c ****                 In this case, a reset is generated
  55:../../Drivers/STM32H7xx_HAL_Driver/Src/stm32h7xx_hal_flash.c ****     [..]
  56:../../Drivers/STM32H7xx_HAL_Driver/Src/stm32h7xx_hal_flash.c ****       In addition to these functions, this driver includes a set of macros allowing
  57:../../Drivers/STM32H7xx_HAL_Driver/Src/stm32h7xx_hal_flash.c ****       to handle the following operations:
  58:../../Drivers/STM32H7xx_HAL_Driver/Src/stm32h7xx_hal_flash.c ****        (+) Set the latency
  59:../../Drivers/STM32H7xx_HAL_Driver/Src/stm32h7xx_hal_flash.c ****        (+) Enable/Disable the FLASH interrupts
  60:../../Drivers/STM32H7xx_HAL_Driver/Src/stm32h7xx_hal_flash.c ****        (+) Monitor the FLASH flags status
  61:../../Drivers/STM32H7xx_HAL_Driver/Src/stm32h7xx_hal_flash.c ****      [..]
  62:../../Drivers/STM32H7xx_HAL_Driver/Src/stm32h7xx_hal_flash.c ****     (@) For any Flash memory program operation (erase or program), the CPU clock frequency
  63:../../Drivers/STM32H7xx_HAL_Driver/Src/stm32h7xx_hal_flash.c ****         (HCLK) must be at least 1MHz.
  64:../../Drivers/STM32H7xx_HAL_Driver/Src/stm32h7xx_hal_flash.c ****     (@) The contents of the Flash memory are not guaranteed if a device reset occurs during
  65:../../Drivers/STM32H7xx_HAL_Driver/Src/stm32h7xx_hal_flash.c ****         a Flash memory operation.
  66:../../Drivers/STM32H7xx_HAL_Driver/Src/stm32h7xx_hal_flash.c ****     (@) The application can simultaneously request a read and a write operation through each AXI
  67:../../Drivers/STM32H7xx_HAL_Driver/Src/stm32h7xx_hal_flash.c ****         interface.
  68:../../Drivers/STM32H7xx_HAL_Driver/Src/stm32h7xx_hal_flash.c ****         As the Flash memory is divided into two independent banks, the embedded Flash
  69:../../Drivers/STM32H7xx_HAL_Driver/Src/stm32h7xx_hal_flash.c ****         memory interface can drive different operations at the same time on each bank. For
  70:../../Drivers/STM32H7xx_HAL_Driver/Src/stm32h7xx_hal_flash.c ****         example a read, write or erase operation can be executed on bank 1 while another read,
  71:../../Drivers/STM32H7xx_HAL_Driver/Src/stm32h7xx_hal_flash.c ****         write or erase operation is executed on bank 2.
  72:../../Drivers/STM32H7xx_HAL_Driver/Src/stm32h7xx_hal_flash.c **** 
  73:../../Drivers/STM32H7xx_HAL_Driver/Src/stm32h7xx_hal_flash.c ****  @endverbatim
  74:../../Drivers/STM32H7xx_HAL_Driver/Src/stm32h7xx_hal_flash.c ****   ******************************************************************************
  75:../../Drivers/STM32H7xx_HAL_Driver/Src/stm32h7xx_hal_flash.c ****   * @attention
  76:../../Drivers/STM32H7xx_HAL_Driver/Src/stm32h7xx_hal_flash.c ****   *
  77:../../Drivers/STM32H7xx_HAL_Driver/Src/stm32h7xx_hal_flash.c ****   * Copyright (c) 2017 STMicroelectronics.
  78:../../Drivers/STM32H7xx_HAL_Driver/Src/stm32h7xx_hal_flash.c ****   * All rights reserved.
  79:../../Drivers/STM32H7xx_HAL_Driver/Src/stm32h7xx_hal_flash.c ****   *
  80:../../Drivers/STM32H7xx_HAL_Driver/Src/stm32h7xx_hal_flash.c ****   * This software is licensed under terms that can be found in the LICENSE file in
  81:../../Drivers/STM32H7xx_HAL_Driver/Src/stm32h7xx_hal_flash.c ****   * the root directory of this software component.
  82:../../Drivers/STM32H7xx_HAL_Driver/Src/stm32h7xx_hal_flash.c ****   * If no LICENSE file comes with this software, it is provided AS-IS.
  83:../../Drivers/STM32H7xx_HAL_Driver/Src/stm32h7xx_hal_flash.c ****   ******************************************************************************
  84:../../Drivers/STM32H7xx_HAL_Driver/Src/stm32h7xx_hal_flash.c ****   */
  85:../../Drivers/STM32H7xx_HAL_Driver/Src/stm32h7xx_hal_flash.c **** 
  86:../../Drivers/STM32H7xx_HAL_Driver/Src/stm32h7xx_hal_flash.c **** /* Includes ------------------------------------------------------------------*/
  87:../../Drivers/STM32H7xx_HAL_Driver/Src/stm32h7xx_hal_flash.c **** #include "stm32h7xx_hal.h"
ARM GAS  C:\Users\gigig\AppData\Local\Temp\cc4Yyo3b.s 			page 3


  88:../../Drivers/STM32H7xx_HAL_Driver/Src/stm32h7xx_hal_flash.c **** 
  89:../../Drivers/STM32H7xx_HAL_Driver/Src/stm32h7xx_hal_flash.c **** /** @addtogroup STM32H7xx_HAL_Driver
  90:../../Drivers/STM32H7xx_HAL_Driver/Src/stm32h7xx_hal_flash.c ****   * @{
  91:../../Drivers/STM32H7xx_HAL_Driver/Src/stm32h7xx_hal_flash.c ****   */
  92:../../Drivers/STM32H7xx_HAL_Driver/Src/stm32h7xx_hal_flash.c **** 
  93:../../Drivers/STM32H7xx_HAL_Driver/Src/stm32h7xx_hal_flash.c **** /** @defgroup FLASH FLASH
  94:../../Drivers/STM32H7xx_HAL_Driver/Src/stm32h7xx_hal_flash.c ****   * @brief FLASH HAL module driver
  95:../../Drivers/STM32H7xx_HAL_Driver/Src/stm32h7xx_hal_flash.c ****   * @{
  96:../../Drivers/STM32H7xx_HAL_Driver/Src/stm32h7xx_hal_flash.c ****   */
  97:../../Drivers/STM32H7xx_HAL_Driver/Src/stm32h7xx_hal_flash.c **** 
  98:../../Drivers/STM32H7xx_HAL_Driver/Src/stm32h7xx_hal_flash.c **** #ifdef HAL_FLASH_MODULE_ENABLED
  99:../../Drivers/STM32H7xx_HAL_Driver/Src/stm32h7xx_hal_flash.c **** 
 100:../../Drivers/STM32H7xx_HAL_Driver/Src/stm32h7xx_hal_flash.c **** /* Private typedef -----------------------------------------------------------*/
 101:../../Drivers/STM32H7xx_HAL_Driver/Src/stm32h7xx_hal_flash.c **** /* Private define ------------------------------------------------------------*/
 102:../../Drivers/STM32H7xx_HAL_Driver/Src/stm32h7xx_hal_flash.c **** /** @addtogroup FLASH_Private_Constants
 103:../../Drivers/STM32H7xx_HAL_Driver/Src/stm32h7xx_hal_flash.c ****   * @{
 104:../../Drivers/STM32H7xx_HAL_Driver/Src/stm32h7xx_hal_flash.c ****   */
 105:../../Drivers/STM32H7xx_HAL_Driver/Src/stm32h7xx_hal_flash.c **** #define FLASH_TIMEOUT_VALUE              50000U /* 50 s */
 106:../../Drivers/STM32H7xx_HAL_Driver/Src/stm32h7xx_hal_flash.c **** /**
 107:../../Drivers/STM32H7xx_HAL_Driver/Src/stm32h7xx_hal_flash.c ****   * @}
 108:../../Drivers/STM32H7xx_HAL_Driver/Src/stm32h7xx_hal_flash.c ****   */
 109:../../Drivers/STM32H7xx_HAL_Driver/Src/stm32h7xx_hal_flash.c **** /* Private macro -------------------------------------------------------------*/
 110:../../Drivers/STM32H7xx_HAL_Driver/Src/stm32h7xx_hal_flash.c **** /* Private variables ---------------------------------------------------------*/
 111:../../Drivers/STM32H7xx_HAL_Driver/Src/stm32h7xx_hal_flash.c **** /** @addtogroup FLASH_Private_Variables
 112:../../Drivers/STM32H7xx_HAL_Driver/Src/stm32h7xx_hal_flash.c ****   * @{
 113:../../Drivers/STM32H7xx_HAL_Driver/Src/stm32h7xx_hal_flash.c ****   */
 114:../../Drivers/STM32H7xx_HAL_Driver/Src/stm32h7xx_hal_flash.c **** FLASH_ProcessTypeDef pFlash;
 115:../../Drivers/STM32H7xx_HAL_Driver/Src/stm32h7xx_hal_flash.c **** /**
 116:../../Drivers/STM32H7xx_HAL_Driver/Src/stm32h7xx_hal_flash.c ****   * @}
 117:../../Drivers/STM32H7xx_HAL_Driver/Src/stm32h7xx_hal_flash.c ****   */
 118:../../Drivers/STM32H7xx_HAL_Driver/Src/stm32h7xx_hal_flash.c **** /* Private function prototypes -----------------------------------------------*/
 119:../../Drivers/STM32H7xx_HAL_Driver/Src/stm32h7xx_hal_flash.c **** /* Exported functions ---------------------------------------------------------*/
 120:../../Drivers/STM32H7xx_HAL_Driver/Src/stm32h7xx_hal_flash.c **** 
 121:../../Drivers/STM32H7xx_HAL_Driver/Src/stm32h7xx_hal_flash.c **** /** @defgroup FLASH_Exported_Functions FLASH Exported functions
 122:../../Drivers/STM32H7xx_HAL_Driver/Src/stm32h7xx_hal_flash.c ****   * @{
 123:../../Drivers/STM32H7xx_HAL_Driver/Src/stm32h7xx_hal_flash.c ****   */
 124:../../Drivers/STM32H7xx_HAL_Driver/Src/stm32h7xx_hal_flash.c **** 
 125:../../Drivers/STM32H7xx_HAL_Driver/Src/stm32h7xx_hal_flash.c **** /** @defgroup FLASH_Exported_Functions_Group1 Programming operation functions
 126:../../Drivers/STM32H7xx_HAL_Driver/Src/stm32h7xx_hal_flash.c ****  *  @brief   Programming operation functions
 127:../../Drivers/STM32H7xx_HAL_Driver/Src/stm32h7xx_hal_flash.c ****  *
 128:../../Drivers/STM32H7xx_HAL_Driver/Src/stm32h7xx_hal_flash.c **** @verbatim
 129:../../Drivers/STM32H7xx_HAL_Driver/Src/stm32h7xx_hal_flash.c ****  ===============================================================================
 130:../../Drivers/STM32H7xx_HAL_Driver/Src/stm32h7xx_hal_flash.c ****                   ##### Programming operation functions #####
 131:../../Drivers/STM32H7xx_HAL_Driver/Src/stm32h7xx_hal_flash.c ****  ===============================================================================
 132:../../Drivers/STM32H7xx_HAL_Driver/Src/stm32h7xx_hal_flash.c ****     [..]
 133:../../Drivers/STM32H7xx_HAL_Driver/Src/stm32h7xx_hal_flash.c ****     This subsection provides a set of functions allowing to manage the FLASH
 134:../../Drivers/STM32H7xx_HAL_Driver/Src/stm32h7xx_hal_flash.c ****     program operations.
 135:../../Drivers/STM32H7xx_HAL_Driver/Src/stm32h7xx_hal_flash.c **** 
 136:../../Drivers/STM32H7xx_HAL_Driver/Src/stm32h7xx_hal_flash.c **** @endverbatim
 137:../../Drivers/STM32H7xx_HAL_Driver/Src/stm32h7xx_hal_flash.c ****   * @{
 138:../../Drivers/STM32H7xx_HAL_Driver/Src/stm32h7xx_hal_flash.c ****   */
 139:../../Drivers/STM32H7xx_HAL_Driver/Src/stm32h7xx_hal_flash.c **** 
 140:../../Drivers/STM32H7xx_HAL_Driver/Src/stm32h7xx_hal_flash.c **** /**
 141:../../Drivers/STM32H7xx_HAL_Driver/Src/stm32h7xx_hal_flash.c ****   * @brief  Program a flash word at a specified address
 142:../../Drivers/STM32H7xx_HAL_Driver/Src/stm32h7xx_hal_flash.c ****   * @param  TypeProgram Indicate the way to program at a specified address.
 143:../../Drivers/STM32H7xx_HAL_Driver/Src/stm32h7xx_hal_flash.c ****   *         This parameter can be a value of @ref FLASH_Type_Program
 144:../../Drivers/STM32H7xx_HAL_Driver/Src/stm32h7xx_hal_flash.c ****   * @param  FlashAddress specifies the address to be programmed.
ARM GAS  C:\Users\gigig\AppData\Local\Temp\cc4Yyo3b.s 			page 4


 145:../../Drivers/STM32H7xx_HAL_Driver/Src/stm32h7xx_hal_flash.c ****   *         This parameter shall be aligned to the Flash word:
 146:../../Drivers/STM32H7xx_HAL_Driver/Src/stm32h7xx_hal_flash.c ****   *          - 256 bits for STM32H74x/5X devices (8x 32bits words)
 147:../../Drivers/STM32H7xx_HAL_Driver/Src/stm32h7xx_hal_flash.c ****   *          - 128 bits for STM32H7Ax/BX devices (4x 32bits words)
 148:../../Drivers/STM32H7xx_HAL_Driver/Src/stm32h7xx_hal_flash.c ****   *          - 256 bits for STM32H72x/3X devices (8x 32bits words)
 149:../../Drivers/STM32H7xx_HAL_Driver/Src/stm32h7xx_hal_flash.c ****   * @param  DataAddress specifies the address of data to be programmed.
 150:../../Drivers/STM32H7xx_HAL_Driver/Src/stm32h7xx_hal_flash.c ****   *         This parameter shall be 32-bit aligned
 151:../../Drivers/STM32H7xx_HAL_Driver/Src/stm32h7xx_hal_flash.c ****   *
 152:../../Drivers/STM32H7xx_HAL_Driver/Src/stm32h7xx_hal_flash.c ****   * @retval HAL_StatusTypeDef HAL Status
 153:../../Drivers/STM32H7xx_HAL_Driver/Src/stm32h7xx_hal_flash.c ****   */
 154:../../Drivers/STM32H7xx_HAL_Driver/Src/stm32h7xx_hal_flash.c **** HAL_StatusTypeDef HAL_FLASH_Program(uint32_t TypeProgram, uint32_t FlashAddress, uint32_t DataAddre
 155:../../Drivers/STM32H7xx_HAL_Driver/Src/stm32h7xx_hal_flash.c **** {
 156:../../Drivers/STM32H7xx_HAL_Driver/Src/stm32h7xx_hal_flash.c ****   HAL_StatusTypeDef status;
 157:../../Drivers/STM32H7xx_HAL_Driver/Src/stm32h7xx_hal_flash.c ****   __IO uint32_t *dest_addr = (__IO uint32_t *)FlashAddress;
 158:../../Drivers/STM32H7xx_HAL_Driver/Src/stm32h7xx_hal_flash.c ****   __IO uint32_t *src_addr = (__IO uint32_t*)DataAddress;
 159:../../Drivers/STM32H7xx_HAL_Driver/Src/stm32h7xx_hal_flash.c ****   uint32_t bank;
 160:../../Drivers/STM32H7xx_HAL_Driver/Src/stm32h7xx_hal_flash.c ****   uint8_t row_index = FLASH_NB_32BITWORD_IN_FLASHWORD;
 161:../../Drivers/STM32H7xx_HAL_Driver/Src/stm32h7xx_hal_flash.c **** 
 162:../../Drivers/STM32H7xx_HAL_Driver/Src/stm32h7xx_hal_flash.c ****   /* Check the parameters */
 163:../../Drivers/STM32H7xx_HAL_Driver/Src/stm32h7xx_hal_flash.c ****   assert_param(IS_FLASH_TYPEPROGRAM(TypeProgram));
 164:../../Drivers/STM32H7xx_HAL_Driver/Src/stm32h7xx_hal_flash.c ****   assert_param(IS_FLASH_PROGRAM_ADDRESS(FlashAddress));
 165:../../Drivers/STM32H7xx_HAL_Driver/Src/stm32h7xx_hal_flash.c **** 
 166:../../Drivers/STM32H7xx_HAL_Driver/Src/stm32h7xx_hal_flash.c ****   /* Process Locked */
 167:../../Drivers/STM32H7xx_HAL_Driver/Src/stm32h7xx_hal_flash.c ****   __HAL_LOCK(&pFlash);
 168:../../Drivers/STM32H7xx_HAL_Driver/Src/stm32h7xx_hal_flash.c **** 
 169:../../Drivers/STM32H7xx_HAL_Driver/Src/stm32h7xx_hal_flash.c **** #if defined (FLASH_OPTCR_PG_OTP)
 170:../../Drivers/STM32H7xx_HAL_Driver/Src/stm32h7xx_hal_flash.c ****   if((IS_FLASH_PROGRAM_ADDRESS_BANK1(FlashAddress)) || (IS_FLASH_PROGRAM_ADDRESS_OTP(FlashAddress))
 171:../../Drivers/STM32H7xx_HAL_Driver/Src/stm32h7xx_hal_flash.c **** #else
 172:../../Drivers/STM32H7xx_HAL_Driver/Src/stm32h7xx_hal_flash.c ****   if(IS_FLASH_PROGRAM_ADDRESS_BANK1(FlashAddress))
 173:../../Drivers/STM32H7xx_HAL_Driver/Src/stm32h7xx_hal_flash.c **** #endif /* FLASH_OPTCR_PG_OTP */
 174:../../Drivers/STM32H7xx_HAL_Driver/Src/stm32h7xx_hal_flash.c ****   {
 175:../../Drivers/STM32H7xx_HAL_Driver/Src/stm32h7xx_hal_flash.c ****     bank = FLASH_BANK_1;
 176:../../Drivers/STM32H7xx_HAL_Driver/Src/stm32h7xx_hal_flash.c ****   }
 177:../../Drivers/STM32H7xx_HAL_Driver/Src/stm32h7xx_hal_flash.c **** #if defined (DUAL_BANK)
 178:../../Drivers/STM32H7xx_HAL_Driver/Src/stm32h7xx_hal_flash.c ****   else if(IS_FLASH_PROGRAM_ADDRESS_BANK2(FlashAddress))
 179:../../Drivers/STM32H7xx_HAL_Driver/Src/stm32h7xx_hal_flash.c ****   {
 180:../../Drivers/STM32H7xx_HAL_Driver/Src/stm32h7xx_hal_flash.c ****     bank = FLASH_BANK_2;
 181:../../Drivers/STM32H7xx_HAL_Driver/Src/stm32h7xx_hal_flash.c ****   }
 182:../../Drivers/STM32H7xx_HAL_Driver/Src/stm32h7xx_hal_flash.c **** #endif /* DUAL_BANK */
 183:../../Drivers/STM32H7xx_HAL_Driver/Src/stm32h7xx_hal_flash.c ****   else
 184:../../Drivers/STM32H7xx_HAL_Driver/Src/stm32h7xx_hal_flash.c ****   {
 185:../../Drivers/STM32H7xx_HAL_Driver/Src/stm32h7xx_hal_flash.c ****     return HAL_ERROR;
 186:../../Drivers/STM32H7xx_HAL_Driver/Src/stm32h7xx_hal_flash.c ****   }
 187:../../Drivers/STM32H7xx_HAL_Driver/Src/stm32h7xx_hal_flash.c **** 
 188:../../Drivers/STM32H7xx_HAL_Driver/Src/stm32h7xx_hal_flash.c ****   /* Reset error code */
 189:../../Drivers/STM32H7xx_HAL_Driver/Src/stm32h7xx_hal_flash.c ****   pFlash.ErrorCode = HAL_FLASH_ERROR_NONE;
 190:../../Drivers/STM32H7xx_HAL_Driver/Src/stm32h7xx_hal_flash.c **** 
 191:../../Drivers/STM32H7xx_HAL_Driver/Src/stm32h7xx_hal_flash.c ****   /* Wait for last operation to be completed */
 192:../../Drivers/STM32H7xx_HAL_Driver/Src/stm32h7xx_hal_flash.c ****   status = FLASH_WaitForLastOperation((uint32_t)FLASH_TIMEOUT_VALUE, bank);
 193:../../Drivers/STM32H7xx_HAL_Driver/Src/stm32h7xx_hal_flash.c **** 
 194:../../Drivers/STM32H7xx_HAL_Driver/Src/stm32h7xx_hal_flash.c ****   if(status == HAL_OK)
 195:../../Drivers/STM32H7xx_HAL_Driver/Src/stm32h7xx_hal_flash.c ****   {
 196:../../Drivers/STM32H7xx_HAL_Driver/Src/stm32h7xx_hal_flash.c **** #if defined (DUAL_BANK)
 197:../../Drivers/STM32H7xx_HAL_Driver/Src/stm32h7xx_hal_flash.c ****     if(bank == FLASH_BANK_1)
 198:../../Drivers/STM32H7xx_HAL_Driver/Src/stm32h7xx_hal_flash.c ****     {
 199:../../Drivers/STM32H7xx_HAL_Driver/Src/stm32h7xx_hal_flash.c **** #if defined (FLASH_OPTCR_PG_OTP)
 200:../../Drivers/STM32H7xx_HAL_Driver/Src/stm32h7xx_hal_flash.c ****       if (TypeProgram == FLASH_TYPEPROGRAM_OTPWORD)
 201:../../Drivers/STM32H7xx_HAL_Driver/Src/stm32h7xx_hal_flash.c ****       {
ARM GAS  C:\Users\gigig\AppData\Local\Temp\cc4Yyo3b.s 			page 5


 202:../../Drivers/STM32H7xx_HAL_Driver/Src/stm32h7xx_hal_flash.c ****         /* Set OTP_PG bit */
 203:../../Drivers/STM32H7xx_HAL_Driver/Src/stm32h7xx_hal_flash.c ****         SET_BIT(FLASH->OPTCR, FLASH_OPTCR_PG_OTP);
 204:../../Drivers/STM32H7xx_HAL_Driver/Src/stm32h7xx_hal_flash.c ****       }
 205:../../Drivers/STM32H7xx_HAL_Driver/Src/stm32h7xx_hal_flash.c ****       else
 206:../../Drivers/STM32H7xx_HAL_Driver/Src/stm32h7xx_hal_flash.c **** #endif /* FLASH_OPTCR_PG_OTP */
 207:../../Drivers/STM32H7xx_HAL_Driver/Src/stm32h7xx_hal_flash.c ****       {
 208:../../Drivers/STM32H7xx_HAL_Driver/Src/stm32h7xx_hal_flash.c ****         /* Set PG bit */
 209:../../Drivers/STM32H7xx_HAL_Driver/Src/stm32h7xx_hal_flash.c ****         SET_BIT(FLASH->CR1, FLASH_CR_PG);
 210:../../Drivers/STM32H7xx_HAL_Driver/Src/stm32h7xx_hal_flash.c ****       }
 211:../../Drivers/STM32H7xx_HAL_Driver/Src/stm32h7xx_hal_flash.c ****     }
 212:../../Drivers/STM32H7xx_HAL_Driver/Src/stm32h7xx_hal_flash.c ****     else
 213:../../Drivers/STM32H7xx_HAL_Driver/Src/stm32h7xx_hal_flash.c ****     {
 214:../../Drivers/STM32H7xx_HAL_Driver/Src/stm32h7xx_hal_flash.c ****       /* Set PG bit */
 215:../../Drivers/STM32H7xx_HAL_Driver/Src/stm32h7xx_hal_flash.c ****       SET_BIT(FLASH->CR2, FLASH_CR_PG);
 216:../../Drivers/STM32H7xx_HAL_Driver/Src/stm32h7xx_hal_flash.c ****     }
 217:../../Drivers/STM32H7xx_HAL_Driver/Src/stm32h7xx_hal_flash.c **** #else /* Single Bank */
 218:../../Drivers/STM32H7xx_HAL_Driver/Src/stm32h7xx_hal_flash.c **** #if defined (FLASH_OPTCR_PG_OTP)
 219:../../Drivers/STM32H7xx_HAL_Driver/Src/stm32h7xx_hal_flash.c ****       if (TypeProgram == FLASH_TYPEPROGRAM_OTPWORD)
 220:../../Drivers/STM32H7xx_HAL_Driver/Src/stm32h7xx_hal_flash.c ****       {
 221:../../Drivers/STM32H7xx_HAL_Driver/Src/stm32h7xx_hal_flash.c ****         /* Set OTP_PG bit */
 222:../../Drivers/STM32H7xx_HAL_Driver/Src/stm32h7xx_hal_flash.c ****         SET_BIT(FLASH->OPTCR, FLASH_OPTCR_PG_OTP);
 223:../../Drivers/STM32H7xx_HAL_Driver/Src/stm32h7xx_hal_flash.c ****       }
 224:../../Drivers/STM32H7xx_HAL_Driver/Src/stm32h7xx_hal_flash.c ****       else
 225:../../Drivers/STM32H7xx_HAL_Driver/Src/stm32h7xx_hal_flash.c **** #endif /* FLASH_OPTCR_PG_OTP */
 226:../../Drivers/STM32H7xx_HAL_Driver/Src/stm32h7xx_hal_flash.c ****       {
 227:../../Drivers/STM32H7xx_HAL_Driver/Src/stm32h7xx_hal_flash.c ****         /* Set PG bit */
 228:../../Drivers/STM32H7xx_HAL_Driver/Src/stm32h7xx_hal_flash.c ****         SET_BIT(FLASH->CR1, FLASH_CR_PG);
 229:../../Drivers/STM32H7xx_HAL_Driver/Src/stm32h7xx_hal_flash.c ****       }
 230:../../Drivers/STM32H7xx_HAL_Driver/Src/stm32h7xx_hal_flash.c **** #endif /* DUAL_BANK */
 231:../../Drivers/STM32H7xx_HAL_Driver/Src/stm32h7xx_hal_flash.c **** 
 232:../../Drivers/STM32H7xx_HAL_Driver/Src/stm32h7xx_hal_flash.c ****     __ISB();
 233:../../Drivers/STM32H7xx_HAL_Driver/Src/stm32h7xx_hal_flash.c ****     __DSB();
 234:../../Drivers/STM32H7xx_HAL_Driver/Src/stm32h7xx_hal_flash.c **** 
 235:../../Drivers/STM32H7xx_HAL_Driver/Src/stm32h7xx_hal_flash.c **** #if defined (FLASH_OPTCR_PG_OTP)
 236:../../Drivers/STM32H7xx_HAL_Driver/Src/stm32h7xx_hal_flash.c ****     if (TypeProgram == FLASH_TYPEPROGRAM_OTPWORD)
 237:../../Drivers/STM32H7xx_HAL_Driver/Src/stm32h7xx_hal_flash.c ****     {
 238:../../Drivers/STM32H7xx_HAL_Driver/Src/stm32h7xx_hal_flash.c ****       /* Program an OTP word (16 bits) */
 239:../../Drivers/STM32H7xx_HAL_Driver/Src/stm32h7xx_hal_flash.c ****       *(__IO uint16_t *)FlashAddress = *(__IO uint16_t*)DataAddress;
 240:../../Drivers/STM32H7xx_HAL_Driver/Src/stm32h7xx_hal_flash.c ****     }
 241:../../Drivers/STM32H7xx_HAL_Driver/Src/stm32h7xx_hal_flash.c ****     else
 242:../../Drivers/STM32H7xx_HAL_Driver/Src/stm32h7xx_hal_flash.c **** #endif /* FLASH_OPTCR_PG_OTP */
 243:../../Drivers/STM32H7xx_HAL_Driver/Src/stm32h7xx_hal_flash.c ****     {
 244:../../Drivers/STM32H7xx_HAL_Driver/Src/stm32h7xx_hal_flash.c ****       /* Program the flash word */
 245:../../Drivers/STM32H7xx_HAL_Driver/Src/stm32h7xx_hal_flash.c ****       do
 246:../../Drivers/STM32H7xx_HAL_Driver/Src/stm32h7xx_hal_flash.c ****       {
 247:../../Drivers/STM32H7xx_HAL_Driver/Src/stm32h7xx_hal_flash.c ****         *dest_addr = *src_addr;
 248:../../Drivers/STM32H7xx_HAL_Driver/Src/stm32h7xx_hal_flash.c ****         dest_addr++;
 249:../../Drivers/STM32H7xx_HAL_Driver/Src/stm32h7xx_hal_flash.c ****         src_addr++;
 250:../../Drivers/STM32H7xx_HAL_Driver/Src/stm32h7xx_hal_flash.c ****         row_index--;
 251:../../Drivers/STM32H7xx_HAL_Driver/Src/stm32h7xx_hal_flash.c ****      } while (row_index != 0U);
 252:../../Drivers/STM32H7xx_HAL_Driver/Src/stm32h7xx_hal_flash.c ****     }
 253:../../Drivers/STM32H7xx_HAL_Driver/Src/stm32h7xx_hal_flash.c **** 
 254:../../Drivers/STM32H7xx_HAL_Driver/Src/stm32h7xx_hal_flash.c ****     __ISB();
 255:../../Drivers/STM32H7xx_HAL_Driver/Src/stm32h7xx_hal_flash.c ****     __DSB();
 256:../../Drivers/STM32H7xx_HAL_Driver/Src/stm32h7xx_hal_flash.c **** 
 257:../../Drivers/STM32H7xx_HAL_Driver/Src/stm32h7xx_hal_flash.c ****     /* Wait for last operation to be completed */
 258:../../Drivers/STM32H7xx_HAL_Driver/Src/stm32h7xx_hal_flash.c ****     status = FLASH_WaitForLastOperation((uint32_t)FLASH_TIMEOUT_VALUE, bank);
ARM GAS  C:\Users\gigig\AppData\Local\Temp\cc4Yyo3b.s 			page 6


 259:../../Drivers/STM32H7xx_HAL_Driver/Src/stm32h7xx_hal_flash.c **** 
 260:../../Drivers/STM32H7xx_HAL_Driver/Src/stm32h7xx_hal_flash.c **** #if defined (DUAL_BANK)
 261:../../Drivers/STM32H7xx_HAL_Driver/Src/stm32h7xx_hal_flash.c **** #if defined (FLASH_OPTCR_PG_OTP)
 262:../../Drivers/STM32H7xx_HAL_Driver/Src/stm32h7xx_hal_flash.c ****     if (TypeProgram == FLASH_TYPEPROGRAM_OTPWORD)
 263:../../Drivers/STM32H7xx_HAL_Driver/Src/stm32h7xx_hal_flash.c ****     {
 264:../../Drivers/STM32H7xx_HAL_Driver/Src/stm32h7xx_hal_flash.c ****       /* If the program operation is completed, disable the OTP_PG */
 265:../../Drivers/STM32H7xx_HAL_Driver/Src/stm32h7xx_hal_flash.c ****       CLEAR_BIT(FLASH->OPTCR, FLASH_OPTCR_PG_OTP);
 266:../../Drivers/STM32H7xx_HAL_Driver/Src/stm32h7xx_hal_flash.c ****     }
 267:../../Drivers/STM32H7xx_HAL_Driver/Src/stm32h7xx_hal_flash.c ****     else
 268:../../Drivers/STM32H7xx_HAL_Driver/Src/stm32h7xx_hal_flash.c **** #endif /* FLASH_OPTCR_PG_OTP */
 269:../../Drivers/STM32H7xx_HAL_Driver/Src/stm32h7xx_hal_flash.c ****     {
 270:../../Drivers/STM32H7xx_HAL_Driver/Src/stm32h7xx_hal_flash.c ****       if(bank == FLASH_BANK_1)
 271:../../Drivers/STM32H7xx_HAL_Driver/Src/stm32h7xx_hal_flash.c ****       {
 272:../../Drivers/STM32H7xx_HAL_Driver/Src/stm32h7xx_hal_flash.c ****         /* If the program operation is completed, disable the PG */
 273:../../Drivers/STM32H7xx_HAL_Driver/Src/stm32h7xx_hal_flash.c ****         CLEAR_BIT(FLASH->CR1, FLASH_CR_PG);
 274:../../Drivers/STM32H7xx_HAL_Driver/Src/stm32h7xx_hal_flash.c ****       }
 275:../../Drivers/STM32H7xx_HAL_Driver/Src/stm32h7xx_hal_flash.c ****       else
 276:../../Drivers/STM32H7xx_HAL_Driver/Src/stm32h7xx_hal_flash.c ****       {
 277:../../Drivers/STM32H7xx_HAL_Driver/Src/stm32h7xx_hal_flash.c ****         /* If the program operation is completed, disable the PG */
 278:../../Drivers/STM32H7xx_HAL_Driver/Src/stm32h7xx_hal_flash.c ****         CLEAR_BIT(FLASH->CR2, FLASH_CR_PG);
 279:../../Drivers/STM32H7xx_HAL_Driver/Src/stm32h7xx_hal_flash.c ****       }
 280:../../Drivers/STM32H7xx_HAL_Driver/Src/stm32h7xx_hal_flash.c ****     }
 281:../../Drivers/STM32H7xx_HAL_Driver/Src/stm32h7xx_hal_flash.c **** #else /* Single Bank */
 282:../../Drivers/STM32H7xx_HAL_Driver/Src/stm32h7xx_hal_flash.c **** #if defined (FLASH_OPTCR_PG_OTP)
 283:../../Drivers/STM32H7xx_HAL_Driver/Src/stm32h7xx_hal_flash.c ****     if (TypeProgram == FLASH_TYPEPROGRAM_OTPWORD)
 284:../../Drivers/STM32H7xx_HAL_Driver/Src/stm32h7xx_hal_flash.c ****     {
 285:../../Drivers/STM32H7xx_HAL_Driver/Src/stm32h7xx_hal_flash.c ****       /* If the program operation is completed, disable the OTP_PG */
 286:../../Drivers/STM32H7xx_HAL_Driver/Src/stm32h7xx_hal_flash.c ****       CLEAR_BIT(FLASH->OPTCR, FLASH_OPTCR_PG_OTP);
 287:../../Drivers/STM32H7xx_HAL_Driver/Src/stm32h7xx_hal_flash.c ****     }
 288:../../Drivers/STM32H7xx_HAL_Driver/Src/stm32h7xx_hal_flash.c ****     else
 289:../../Drivers/STM32H7xx_HAL_Driver/Src/stm32h7xx_hal_flash.c **** #endif /* FLASH_OPTCR_PG_OTP */
 290:../../Drivers/STM32H7xx_HAL_Driver/Src/stm32h7xx_hal_flash.c ****     {
 291:../../Drivers/STM32H7xx_HAL_Driver/Src/stm32h7xx_hal_flash.c ****       /* If the program operation is completed, disable the PG */
 292:../../Drivers/STM32H7xx_HAL_Driver/Src/stm32h7xx_hal_flash.c ****       CLEAR_BIT(FLASH->CR1, FLASH_CR_PG);
 293:../../Drivers/STM32H7xx_HAL_Driver/Src/stm32h7xx_hal_flash.c ****     }
 294:../../Drivers/STM32H7xx_HAL_Driver/Src/stm32h7xx_hal_flash.c **** #endif /* DUAL_BANK */
 295:../../Drivers/STM32H7xx_HAL_Driver/Src/stm32h7xx_hal_flash.c ****   }
 296:../../Drivers/STM32H7xx_HAL_Driver/Src/stm32h7xx_hal_flash.c **** 
 297:../../Drivers/STM32H7xx_HAL_Driver/Src/stm32h7xx_hal_flash.c ****   /* Process Unlocked */
 298:../../Drivers/STM32H7xx_HAL_Driver/Src/stm32h7xx_hal_flash.c ****   __HAL_UNLOCK(&pFlash);
 299:../../Drivers/STM32H7xx_HAL_Driver/Src/stm32h7xx_hal_flash.c **** 
 300:../../Drivers/STM32H7xx_HAL_Driver/Src/stm32h7xx_hal_flash.c ****   return status;
 301:../../Drivers/STM32H7xx_HAL_Driver/Src/stm32h7xx_hal_flash.c **** }
 302:../../Drivers/STM32H7xx_HAL_Driver/Src/stm32h7xx_hal_flash.c **** 
 303:../../Drivers/STM32H7xx_HAL_Driver/Src/stm32h7xx_hal_flash.c **** /**
 304:../../Drivers/STM32H7xx_HAL_Driver/Src/stm32h7xx_hal_flash.c ****   * @brief  Program a flash word at a specified address with interrupt enabled.
 305:../../Drivers/STM32H7xx_HAL_Driver/Src/stm32h7xx_hal_flash.c ****   * @param  TypeProgram Indicate the way to program at a specified address.
 306:../../Drivers/STM32H7xx_HAL_Driver/Src/stm32h7xx_hal_flash.c ****   *                      This parameter can be a value of @ref FLASH_Type_Program
 307:../../Drivers/STM32H7xx_HAL_Driver/Src/stm32h7xx_hal_flash.c ****   * @param  FlashAddress specifies the address to be programmed.
 308:../../Drivers/STM32H7xx_HAL_Driver/Src/stm32h7xx_hal_flash.c ****   *         This parameter shall be aligned to the Flash word:
 309:../../Drivers/STM32H7xx_HAL_Driver/Src/stm32h7xx_hal_flash.c ****   *          - 256 bits for STM32H74x/5X devices (8x 32bits words)
 310:../../Drivers/STM32H7xx_HAL_Driver/Src/stm32h7xx_hal_flash.c ****   *          - 128 bits for STM32H7Ax/BX devices (4x 32bits words)
 311:../../Drivers/STM32H7xx_HAL_Driver/Src/stm32h7xx_hal_flash.c ****   *          - 256 bits for STM32H72x/3X devices (8x 32bits words)
 312:../../Drivers/STM32H7xx_HAL_Driver/Src/stm32h7xx_hal_flash.c ****   * @param  DataAddress specifies the address of data to be programmed.
 313:../../Drivers/STM32H7xx_HAL_Driver/Src/stm32h7xx_hal_flash.c ****   *         This parameter shall be 32-bit aligned
 314:../../Drivers/STM32H7xx_HAL_Driver/Src/stm32h7xx_hal_flash.c ****   *
 315:../../Drivers/STM32H7xx_HAL_Driver/Src/stm32h7xx_hal_flash.c ****   * @retval HAL Status
ARM GAS  C:\Users\gigig\AppData\Local\Temp\cc4Yyo3b.s 			page 7


 316:../../Drivers/STM32H7xx_HAL_Driver/Src/stm32h7xx_hal_flash.c ****   */
 317:../../Drivers/STM32H7xx_HAL_Driver/Src/stm32h7xx_hal_flash.c **** HAL_StatusTypeDef HAL_FLASH_Program_IT(uint32_t TypeProgram, uint32_t FlashAddress, uint32_t DataAd
 318:../../Drivers/STM32H7xx_HAL_Driver/Src/stm32h7xx_hal_flash.c **** {
 319:../../Drivers/STM32H7xx_HAL_Driver/Src/stm32h7xx_hal_flash.c ****   HAL_StatusTypeDef status;
 320:../../Drivers/STM32H7xx_HAL_Driver/Src/stm32h7xx_hal_flash.c ****   __IO uint32_t *dest_addr = (__IO uint32_t*)FlashAddress;
 321:../../Drivers/STM32H7xx_HAL_Driver/Src/stm32h7xx_hal_flash.c ****   __IO uint32_t *src_addr = (__IO uint32_t*)DataAddress;
 322:../../Drivers/STM32H7xx_HAL_Driver/Src/stm32h7xx_hal_flash.c ****   uint32_t bank;
 323:../../Drivers/STM32H7xx_HAL_Driver/Src/stm32h7xx_hal_flash.c ****   uint8_t row_index = FLASH_NB_32BITWORD_IN_FLASHWORD;
 324:../../Drivers/STM32H7xx_HAL_Driver/Src/stm32h7xx_hal_flash.c **** 
 325:../../Drivers/STM32H7xx_HAL_Driver/Src/stm32h7xx_hal_flash.c ****   /* Check the parameters */
 326:../../Drivers/STM32H7xx_HAL_Driver/Src/stm32h7xx_hal_flash.c ****   assert_param(IS_FLASH_TYPEPROGRAM(TypeProgram));
 327:../../Drivers/STM32H7xx_HAL_Driver/Src/stm32h7xx_hal_flash.c ****   assert_param(IS_FLASH_PROGRAM_ADDRESS(FlashAddress));
 328:../../Drivers/STM32H7xx_HAL_Driver/Src/stm32h7xx_hal_flash.c **** 
 329:../../Drivers/STM32H7xx_HAL_Driver/Src/stm32h7xx_hal_flash.c ****   /* Process Locked */
 330:../../Drivers/STM32H7xx_HAL_Driver/Src/stm32h7xx_hal_flash.c ****   __HAL_LOCK(&pFlash);
 331:../../Drivers/STM32H7xx_HAL_Driver/Src/stm32h7xx_hal_flash.c **** 
 332:../../Drivers/STM32H7xx_HAL_Driver/Src/stm32h7xx_hal_flash.c ****   /* Reset error code */
 333:../../Drivers/STM32H7xx_HAL_Driver/Src/stm32h7xx_hal_flash.c ****   pFlash.ErrorCode = HAL_FLASH_ERROR_NONE;
 334:../../Drivers/STM32H7xx_HAL_Driver/Src/stm32h7xx_hal_flash.c **** 
 335:../../Drivers/STM32H7xx_HAL_Driver/Src/stm32h7xx_hal_flash.c **** #if defined (FLASH_OPTCR_PG_OTP)
 336:../../Drivers/STM32H7xx_HAL_Driver/Src/stm32h7xx_hal_flash.c ****   if((IS_FLASH_PROGRAM_ADDRESS_BANK1(FlashAddress)) || (IS_FLASH_PROGRAM_ADDRESS_OTP(FlashAddress))
 337:../../Drivers/STM32H7xx_HAL_Driver/Src/stm32h7xx_hal_flash.c **** #else
 338:../../Drivers/STM32H7xx_HAL_Driver/Src/stm32h7xx_hal_flash.c ****   if(IS_FLASH_PROGRAM_ADDRESS_BANK1(FlashAddress))
 339:../../Drivers/STM32H7xx_HAL_Driver/Src/stm32h7xx_hal_flash.c **** #endif /* FLASH_OPTCR_PG_OTP */
 340:../../Drivers/STM32H7xx_HAL_Driver/Src/stm32h7xx_hal_flash.c ****   {
 341:../../Drivers/STM32H7xx_HAL_Driver/Src/stm32h7xx_hal_flash.c ****     bank = FLASH_BANK_1;
 342:../../Drivers/STM32H7xx_HAL_Driver/Src/stm32h7xx_hal_flash.c ****   }
 343:../../Drivers/STM32H7xx_HAL_Driver/Src/stm32h7xx_hal_flash.c **** #if defined (DUAL_BANK)
 344:../../Drivers/STM32H7xx_HAL_Driver/Src/stm32h7xx_hal_flash.c ****   else if(IS_FLASH_PROGRAM_ADDRESS_BANK2(FlashAddress))
 345:../../Drivers/STM32H7xx_HAL_Driver/Src/stm32h7xx_hal_flash.c ****   {
 346:../../Drivers/STM32H7xx_HAL_Driver/Src/stm32h7xx_hal_flash.c ****     bank = FLASH_BANK_2;
 347:../../Drivers/STM32H7xx_HAL_Driver/Src/stm32h7xx_hal_flash.c ****   }
 348:../../Drivers/STM32H7xx_HAL_Driver/Src/stm32h7xx_hal_flash.c **** #endif /* DUAL_BANK */
 349:../../Drivers/STM32H7xx_HAL_Driver/Src/stm32h7xx_hal_flash.c ****   else
 350:../../Drivers/STM32H7xx_HAL_Driver/Src/stm32h7xx_hal_flash.c ****   {
 351:../../Drivers/STM32H7xx_HAL_Driver/Src/stm32h7xx_hal_flash.c ****     return HAL_ERROR;
 352:../../Drivers/STM32H7xx_HAL_Driver/Src/stm32h7xx_hal_flash.c ****   }
 353:../../Drivers/STM32H7xx_HAL_Driver/Src/stm32h7xx_hal_flash.c **** 
 354:../../Drivers/STM32H7xx_HAL_Driver/Src/stm32h7xx_hal_flash.c ****   /* Wait for last operation to be completed */
 355:../../Drivers/STM32H7xx_HAL_Driver/Src/stm32h7xx_hal_flash.c ****   status = FLASH_WaitForLastOperation((uint32_t)FLASH_TIMEOUT_VALUE, bank);
 356:../../Drivers/STM32H7xx_HAL_Driver/Src/stm32h7xx_hal_flash.c **** 
 357:../../Drivers/STM32H7xx_HAL_Driver/Src/stm32h7xx_hal_flash.c ****   if (status != HAL_OK)
 358:../../Drivers/STM32H7xx_HAL_Driver/Src/stm32h7xx_hal_flash.c ****   {
 359:../../Drivers/STM32H7xx_HAL_Driver/Src/stm32h7xx_hal_flash.c ****     /* Process Unlocked */
 360:../../Drivers/STM32H7xx_HAL_Driver/Src/stm32h7xx_hal_flash.c ****     __HAL_UNLOCK(&pFlash);
 361:../../Drivers/STM32H7xx_HAL_Driver/Src/stm32h7xx_hal_flash.c ****   }
 362:../../Drivers/STM32H7xx_HAL_Driver/Src/stm32h7xx_hal_flash.c ****   else
 363:../../Drivers/STM32H7xx_HAL_Driver/Src/stm32h7xx_hal_flash.c ****   {
 364:../../Drivers/STM32H7xx_HAL_Driver/Src/stm32h7xx_hal_flash.c ****     pFlash.Address = FlashAddress;
 365:../../Drivers/STM32H7xx_HAL_Driver/Src/stm32h7xx_hal_flash.c **** 
 366:../../Drivers/STM32H7xx_HAL_Driver/Src/stm32h7xx_hal_flash.c **** #if defined (DUAL_BANK)
 367:../../Drivers/STM32H7xx_HAL_Driver/Src/stm32h7xx_hal_flash.c ****     if(bank == FLASH_BANK_1)
 368:../../Drivers/STM32H7xx_HAL_Driver/Src/stm32h7xx_hal_flash.c ****     {
 369:../../Drivers/STM32H7xx_HAL_Driver/Src/stm32h7xx_hal_flash.c ****       /* Set internal variables used by the IRQ handler */
 370:../../Drivers/STM32H7xx_HAL_Driver/Src/stm32h7xx_hal_flash.c ****       pFlash.ProcedureOnGoing = FLASH_PROC_PROGRAM_BANK1;
 371:../../Drivers/STM32H7xx_HAL_Driver/Src/stm32h7xx_hal_flash.c **** 
 372:../../Drivers/STM32H7xx_HAL_Driver/Src/stm32h7xx_hal_flash.c **** #if defined (FLASH_OPTCR_PG_OTP)
ARM GAS  C:\Users\gigig\AppData\Local\Temp\cc4Yyo3b.s 			page 8


 373:../../Drivers/STM32H7xx_HAL_Driver/Src/stm32h7xx_hal_flash.c ****       if (TypeProgram == FLASH_TYPEPROGRAM_OTPWORD)
 374:../../Drivers/STM32H7xx_HAL_Driver/Src/stm32h7xx_hal_flash.c ****       {
 375:../../Drivers/STM32H7xx_HAL_Driver/Src/stm32h7xx_hal_flash.c ****         /* Set OTP_PG bit */
 376:../../Drivers/STM32H7xx_HAL_Driver/Src/stm32h7xx_hal_flash.c ****         SET_BIT(FLASH->OPTCR, FLASH_OPTCR_PG_OTP);
 377:../../Drivers/STM32H7xx_HAL_Driver/Src/stm32h7xx_hal_flash.c ****       }
 378:../../Drivers/STM32H7xx_HAL_Driver/Src/stm32h7xx_hal_flash.c ****       else
 379:../../Drivers/STM32H7xx_HAL_Driver/Src/stm32h7xx_hal_flash.c **** #endif /* FLASH_OPTCR_PG_OTP */
 380:../../Drivers/STM32H7xx_HAL_Driver/Src/stm32h7xx_hal_flash.c ****       {
 381:../../Drivers/STM32H7xx_HAL_Driver/Src/stm32h7xx_hal_flash.c ****         /* Set PG bit */
 382:../../Drivers/STM32H7xx_HAL_Driver/Src/stm32h7xx_hal_flash.c ****         SET_BIT(FLASH->CR1, FLASH_CR_PG);
 383:../../Drivers/STM32H7xx_HAL_Driver/Src/stm32h7xx_hal_flash.c ****       }
 384:../../Drivers/STM32H7xx_HAL_Driver/Src/stm32h7xx_hal_flash.c **** 
 385:../../Drivers/STM32H7xx_HAL_Driver/Src/stm32h7xx_hal_flash.c ****       /* Enable End of Operation and Error interrupts for Bank 1 */
 386:../../Drivers/STM32H7xx_HAL_Driver/Src/stm32h7xx_hal_flash.c **** #if defined (FLASH_CR_OPERRIE)
 387:../../Drivers/STM32H7xx_HAL_Driver/Src/stm32h7xx_hal_flash.c ****       __HAL_FLASH_ENABLE_IT_BANK1(FLASH_IT_EOP_BANK1     | FLASH_IT_WRPERR_BANK1 | FLASH_IT_PGSERR_
 388:../../Drivers/STM32H7xx_HAL_Driver/Src/stm32h7xx_hal_flash.c ****                                   FLASH_IT_STRBERR_BANK1 | FLASH_IT_INCERR_BANK1 | FLASH_IT_OPERR_B
 389:../../Drivers/STM32H7xx_HAL_Driver/Src/stm32h7xx_hal_flash.c **** #else
 390:../../Drivers/STM32H7xx_HAL_Driver/Src/stm32h7xx_hal_flash.c ****       __HAL_FLASH_ENABLE_IT_BANK1(FLASH_IT_EOP_BANK1     | FLASH_IT_WRPERR_BANK1 | FLASH_IT_PGSERR_
 391:../../Drivers/STM32H7xx_HAL_Driver/Src/stm32h7xx_hal_flash.c ****                                   FLASH_IT_STRBERR_BANK1 | FLASH_IT_INCERR_BANK1);
 392:../../Drivers/STM32H7xx_HAL_Driver/Src/stm32h7xx_hal_flash.c **** #endif /* FLASH_CR_OPERRIE */
 393:../../Drivers/STM32H7xx_HAL_Driver/Src/stm32h7xx_hal_flash.c ****     }
 394:../../Drivers/STM32H7xx_HAL_Driver/Src/stm32h7xx_hal_flash.c ****     else
 395:../../Drivers/STM32H7xx_HAL_Driver/Src/stm32h7xx_hal_flash.c ****     {
 396:../../Drivers/STM32H7xx_HAL_Driver/Src/stm32h7xx_hal_flash.c ****       /* Set internal variables used by the IRQ handler */
 397:../../Drivers/STM32H7xx_HAL_Driver/Src/stm32h7xx_hal_flash.c ****       pFlash.ProcedureOnGoing = FLASH_PROC_PROGRAM_BANK2;
 398:../../Drivers/STM32H7xx_HAL_Driver/Src/stm32h7xx_hal_flash.c **** 
 399:../../Drivers/STM32H7xx_HAL_Driver/Src/stm32h7xx_hal_flash.c ****       /* Set PG bit */
 400:../../Drivers/STM32H7xx_HAL_Driver/Src/stm32h7xx_hal_flash.c ****       SET_BIT(FLASH->CR2, FLASH_CR_PG);
 401:../../Drivers/STM32H7xx_HAL_Driver/Src/stm32h7xx_hal_flash.c **** 
 402:../../Drivers/STM32H7xx_HAL_Driver/Src/stm32h7xx_hal_flash.c ****       /* Enable End of Operation and Error interrupts for Bank2 */
 403:../../Drivers/STM32H7xx_HAL_Driver/Src/stm32h7xx_hal_flash.c **** #if defined (FLASH_CR_OPERRIE)
 404:../../Drivers/STM32H7xx_HAL_Driver/Src/stm32h7xx_hal_flash.c ****       __HAL_FLASH_ENABLE_IT_BANK2(FLASH_IT_EOP_BANK2     | FLASH_IT_WRPERR_BANK2 | FLASH_IT_PGSERR_
 405:../../Drivers/STM32H7xx_HAL_Driver/Src/stm32h7xx_hal_flash.c ****                                   FLASH_IT_STRBERR_BANK2 | FLASH_IT_INCERR_BANK2 | FLASH_IT_OPERR_B
 406:../../Drivers/STM32H7xx_HAL_Driver/Src/stm32h7xx_hal_flash.c **** #else
 407:../../Drivers/STM32H7xx_HAL_Driver/Src/stm32h7xx_hal_flash.c ****       __HAL_FLASH_ENABLE_IT_BANK2(FLASH_IT_EOP_BANK2     | FLASH_IT_WRPERR_BANK2 | FLASH_IT_PGSERR_
 408:../../Drivers/STM32H7xx_HAL_Driver/Src/stm32h7xx_hal_flash.c ****                                   FLASH_IT_STRBERR_BANK2 | FLASH_IT_INCERR_BANK2);
 409:../../Drivers/STM32H7xx_HAL_Driver/Src/stm32h7xx_hal_flash.c **** #endif /* FLASH_CR_OPERRIE */
 410:../../Drivers/STM32H7xx_HAL_Driver/Src/stm32h7xx_hal_flash.c ****     }
 411:../../Drivers/STM32H7xx_HAL_Driver/Src/stm32h7xx_hal_flash.c **** #else /* Single Bank */
 412:../../Drivers/STM32H7xx_HAL_Driver/Src/stm32h7xx_hal_flash.c ****     /* Set internal variables used by the IRQ handler */
 413:../../Drivers/STM32H7xx_HAL_Driver/Src/stm32h7xx_hal_flash.c ****     pFlash.ProcedureOnGoing = FLASH_PROC_PROGRAM_BANK1;
 414:../../Drivers/STM32H7xx_HAL_Driver/Src/stm32h7xx_hal_flash.c **** 
 415:../../Drivers/STM32H7xx_HAL_Driver/Src/stm32h7xx_hal_flash.c **** #if defined (FLASH_OPTCR_PG_OTP)
 416:../../Drivers/STM32H7xx_HAL_Driver/Src/stm32h7xx_hal_flash.c ****     if (TypeProgram == FLASH_TYPEPROGRAM_OTPWORD)
 417:../../Drivers/STM32H7xx_HAL_Driver/Src/stm32h7xx_hal_flash.c ****     {
 418:../../Drivers/STM32H7xx_HAL_Driver/Src/stm32h7xx_hal_flash.c ****       /* Set OTP_PG bit */
 419:../../Drivers/STM32H7xx_HAL_Driver/Src/stm32h7xx_hal_flash.c ****       SET_BIT(FLASH->OPTCR, FLASH_OPTCR_PG_OTP);
 420:../../Drivers/STM32H7xx_HAL_Driver/Src/stm32h7xx_hal_flash.c ****     }
 421:../../Drivers/STM32H7xx_HAL_Driver/Src/stm32h7xx_hal_flash.c ****     else
 422:../../Drivers/STM32H7xx_HAL_Driver/Src/stm32h7xx_hal_flash.c **** #endif /* FLASH_OPTCR_PG_OTP */
 423:../../Drivers/STM32H7xx_HAL_Driver/Src/stm32h7xx_hal_flash.c ****     {
 424:../../Drivers/STM32H7xx_HAL_Driver/Src/stm32h7xx_hal_flash.c ****       /* Set PG bit */
 425:../../Drivers/STM32H7xx_HAL_Driver/Src/stm32h7xx_hal_flash.c ****       SET_BIT(FLASH->CR1, FLASH_CR_PG);
 426:../../Drivers/STM32H7xx_HAL_Driver/Src/stm32h7xx_hal_flash.c ****     }
 427:../../Drivers/STM32H7xx_HAL_Driver/Src/stm32h7xx_hal_flash.c **** 
 428:../../Drivers/STM32H7xx_HAL_Driver/Src/stm32h7xx_hal_flash.c ****       /* Enable End of Operation and Error interrupts for Bank 1 */
 429:../../Drivers/STM32H7xx_HAL_Driver/Src/stm32h7xx_hal_flash.c **** #if defined (FLASH_CR_OPERRIE)
ARM GAS  C:\Users\gigig\AppData\Local\Temp\cc4Yyo3b.s 			page 9


 430:../../Drivers/STM32H7xx_HAL_Driver/Src/stm32h7xx_hal_flash.c ****       __HAL_FLASH_ENABLE_IT_BANK1(FLASH_IT_EOP_BANK1     | FLASH_IT_WRPERR_BANK1 | FLASH_IT_PGSERR_
 431:../../Drivers/STM32H7xx_HAL_Driver/Src/stm32h7xx_hal_flash.c ****                                   FLASH_IT_STRBERR_BANK1 | FLASH_IT_INCERR_BANK1 | FLASH_IT_OPERR_B
 432:../../Drivers/STM32H7xx_HAL_Driver/Src/stm32h7xx_hal_flash.c **** #else
 433:../../Drivers/STM32H7xx_HAL_Driver/Src/stm32h7xx_hal_flash.c ****       __HAL_FLASH_ENABLE_IT_BANK1(FLASH_IT_EOP_BANK1     | FLASH_IT_WRPERR_BANK1 | FLASH_IT_PGSERR_
 434:../../Drivers/STM32H7xx_HAL_Driver/Src/stm32h7xx_hal_flash.c ****                                   FLASH_IT_STRBERR_BANK1 | FLASH_IT_INCERR_BANK1);
 435:../../Drivers/STM32H7xx_HAL_Driver/Src/stm32h7xx_hal_flash.c **** #endif /* FLASH_CR_OPERRIE */
 436:../../Drivers/STM32H7xx_HAL_Driver/Src/stm32h7xx_hal_flash.c **** #endif /* DUAL_BANK */
 437:../../Drivers/STM32H7xx_HAL_Driver/Src/stm32h7xx_hal_flash.c **** 
 438:../../Drivers/STM32H7xx_HAL_Driver/Src/stm32h7xx_hal_flash.c ****     __ISB();
 439:../../Drivers/STM32H7xx_HAL_Driver/Src/stm32h7xx_hal_flash.c ****     __DSB();
 440:../../Drivers/STM32H7xx_HAL_Driver/Src/stm32h7xx_hal_flash.c **** 
 441:../../Drivers/STM32H7xx_HAL_Driver/Src/stm32h7xx_hal_flash.c **** #if defined (FLASH_OPTCR_PG_OTP)
 442:../../Drivers/STM32H7xx_HAL_Driver/Src/stm32h7xx_hal_flash.c ****     if (TypeProgram == FLASH_TYPEPROGRAM_OTPWORD)
 443:../../Drivers/STM32H7xx_HAL_Driver/Src/stm32h7xx_hal_flash.c ****     {
 444:../../Drivers/STM32H7xx_HAL_Driver/Src/stm32h7xx_hal_flash.c ****       /* Program an OTP word (16 bits) */
 445:../../Drivers/STM32H7xx_HAL_Driver/Src/stm32h7xx_hal_flash.c ****       *(__IO uint16_t *)FlashAddress = *(__IO uint16_t*)DataAddress;
 446:../../Drivers/STM32H7xx_HAL_Driver/Src/stm32h7xx_hal_flash.c ****     }
 447:../../Drivers/STM32H7xx_HAL_Driver/Src/stm32h7xx_hal_flash.c ****     else
 448:../../Drivers/STM32H7xx_HAL_Driver/Src/stm32h7xx_hal_flash.c **** #endif /* FLASH_OPTCR_PG_OTP */
 449:../../Drivers/STM32H7xx_HAL_Driver/Src/stm32h7xx_hal_flash.c ****     {
 450:../../Drivers/STM32H7xx_HAL_Driver/Src/stm32h7xx_hal_flash.c ****       /* Program the flash word */
 451:../../Drivers/STM32H7xx_HAL_Driver/Src/stm32h7xx_hal_flash.c ****       do
 452:../../Drivers/STM32H7xx_HAL_Driver/Src/stm32h7xx_hal_flash.c ****       {
 453:../../Drivers/STM32H7xx_HAL_Driver/Src/stm32h7xx_hal_flash.c ****         *dest_addr = *src_addr;
 454:../../Drivers/STM32H7xx_HAL_Driver/Src/stm32h7xx_hal_flash.c ****         dest_addr++;
 455:../../Drivers/STM32H7xx_HAL_Driver/Src/stm32h7xx_hal_flash.c ****         src_addr++;
 456:../../Drivers/STM32H7xx_HAL_Driver/Src/stm32h7xx_hal_flash.c ****         row_index--;
 457:../../Drivers/STM32H7xx_HAL_Driver/Src/stm32h7xx_hal_flash.c ****       } while (row_index != 0U);
 458:../../Drivers/STM32H7xx_HAL_Driver/Src/stm32h7xx_hal_flash.c ****     }
 459:../../Drivers/STM32H7xx_HAL_Driver/Src/stm32h7xx_hal_flash.c **** 
 460:../../Drivers/STM32H7xx_HAL_Driver/Src/stm32h7xx_hal_flash.c ****     __ISB();
 461:../../Drivers/STM32H7xx_HAL_Driver/Src/stm32h7xx_hal_flash.c ****     __DSB();
 462:../../Drivers/STM32H7xx_HAL_Driver/Src/stm32h7xx_hal_flash.c ****   }
 463:../../Drivers/STM32H7xx_HAL_Driver/Src/stm32h7xx_hal_flash.c **** 
 464:../../Drivers/STM32H7xx_HAL_Driver/Src/stm32h7xx_hal_flash.c ****   return status;
 465:../../Drivers/STM32H7xx_HAL_Driver/Src/stm32h7xx_hal_flash.c **** }
 466:../../Drivers/STM32H7xx_HAL_Driver/Src/stm32h7xx_hal_flash.c **** 
 467:../../Drivers/STM32H7xx_HAL_Driver/Src/stm32h7xx_hal_flash.c **** /**
 468:../../Drivers/STM32H7xx_HAL_Driver/Src/stm32h7xx_hal_flash.c ****   * @brief This function handles FLASH interrupt request.
 469:../../Drivers/STM32H7xx_HAL_Driver/Src/stm32h7xx_hal_flash.c ****   * @retval None
 470:../../Drivers/STM32H7xx_HAL_Driver/Src/stm32h7xx_hal_flash.c ****   */
 471:../../Drivers/STM32H7xx_HAL_Driver/Src/stm32h7xx_hal_flash.c **** void HAL_FLASH_IRQHandler(void)
 472:../../Drivers/STM32H7xx_HAL_Driver/Src/stm32h7xx_hal_flash.c **** {
 473:../../Drivers/STM32H7xx_HAL_Driver/Src/stm32h7xx_hal_flash.c ****   uint32_t temp;
 474:../../Drivers/STM32H7xx_HAL_Driver/Src/stm32h7xx_hal_flash.c ****   uint32_t errorflag;
 475:../../Drivers/STM32H7xx_HAL_Driver/Src/stm32h7xx_hal_flash.c ****   FLASH_ProcedureTypeDef procedure;
 476:../../Drivers/STM32H7xx_HAL_Driver/Src/stm32h7xx_hal_flash.c **** 
 477:../../Drivers/STM32H7xx_HAL_Driver/Src/stm32h7xx_hal_flash.c ****   /* Check FLASH Bank1 End of Operation flag  */
 478:../../Drivers/STM32H7xx_HAL_Driver/Src/stm32h7xx_hal_flash.c ****   if(__HAL_FLASH_GET_FLAG_BANK1(FLASH_SR_EOP) != RESET)
 479:../../Drivers/STM32H7xx_HAL_Driver/Src/stm32h7xx_hal_flash.c ****   {
 480:../../Drivers/STM32H7xx_HAL_Driver/Src/stm32h7xx_hal_flash.c ****     if(pFlash.ProcedureOnGoing == FLASH_PROC_SECTERASE_BANK1)
 481:../../Drivers/STM32H7xx_HAL_Driver/Src/stm32h7xx_hal_flash.c ****     {
 482:../../Drivers/STM32H7xx_HAL_Driver/Src/stm32h7xx_hal_flash.c ****       /* Nb of sector to erased can be decreased */
 483:../../Drivers/STM32H7xx_HAL_Driver/Src/stm32h7xx_hal_flash.c ****       pFlash.NbSectorsToErase--;
 484:../../Drivers/STM32H7xx_HAL_Driver/Src/stm32h7xx_hal_flash.c **** 
 485:../../Drivers/STM32H7xx_HAL_Driver/Src/stm32h7xx_hal_flash.c ****       /* Check if there are still sectors to erase */
 486:../../Drivers/STM32H7xx_HAL_Driver/Src/stm32h7xx_hal_flash.c ****       if(pFlash.NbSectorsToErase != 0U)
ARM GAS  C:\Users\gigig\AppData\Local\Temp\cc4Yyo3b.s 			page 10


 487:../../Drivers/STM32H7xx_HAL_Driver/Src/stm32h7xx_hal_flash.c ****       {
 488:../../Drivers/STM32H7xx_HAL_Driver/Src/stm32h7xx_hal_flash.c ****         /* Indicate user which sector has been erased */
 489:../../Drivers/STM32H7xx_HAL_Driver/Src/stm32h7xx_hal_flash.c ****         HAL_FLASH_EndOfOperationCallback(pFlash.Sector);
 490:../../Drivers/STM32H7xx_HAL_Driver/Src/stm32h7xx_hal_flash.c **** 
 491:../../Drivers/STM32H7xx_HAL_Driver/Src/stm32h7xx_hal_flash.c ****         /* Clear bank 1 End of Operation pending bit */
 492:../../Drivers/STM32H7xx_HAL_Driver/Src/stm32h7xx_hal_flash.c ****         __HAL_FLASH_CLEAR_FLAG_BANK1(FLASH_FLAG_EOP_BANK1);
 493:../../Drivers/STM32H7xx_HAL_Driver/Src/stm32h7xx_hal_flash.c **** 
 494:../../Drivers/STM32H7xx_HAL_Driver/Src/stm32h7xx_hal_flash.c ****         /* Increment sector number */
 495:../../Drivers/STM32H7xx_HAL_Driver/Src/stm32h7xx_hal_flash.c ****         pFlash.Sector++;
 496:../../Drivers/STM32H7xx_HAL_Driver/Src/stm32h7xx_hal_flash.c ****         temp = pFlash.Sector;
 497:../../Drivers/STM32H7xx_HAL_Driver/Src/stm32h7xx_hal_flash.c ****         FLASH_Erase_Sector(temp, FLASH_BANK_1, pFlash.VoltageForErase);
 498:../../Drivers/STM32H7xx_HAL_Driver/Src/stm32h7xx_hal_flash.c ****       }
 499:../../Drivers/STM32H7xx_HAL_Driver/Src/stm32h7xx_hal_flash.c ****       else
 500:../../Drivers/STM32H7xx_HAL_Driver/Src/stm32h7xx_hal_flash.c ****       {
 501:../../Drivers/STM32H7xx_HAL_Driver/Src/stm32h7xx_hal_flash.c ****         /* No more sectors to Erase, user callback can be called */
 502:../../Drivers/STM32H7xx_HAL_Driver/Src/stm32h7xx_hal_flash.c ****         /* Reset Sector and stop Erase sectors procedure */
 503:../../Drivers/STM32H7xx_HAL_Driver/Src/stm32h7xx_hal_flash.c ****         pFlash.Sector = 0xFFFFFFFFU;
 504:../../Drivers/STM32H7xx_HAL_Driver/Src/stm32h7xx_hal_flash.c ****         pFlash.ProcedureOnGoing = FLASH_PROC_NONE;
 505:../../Drivers/STM32H7xx_HAL_Driver/Src/stm32h7xx_hal_flash.c **** 
 506:../../Drivers/STM32H7xx_HAL_Driver/Src/stm32h7xx_hal_flash.c ****         /* FLASH EOP interrupt user callback */
 507:../../Drivers/STM32H7xx_HAL_Driver/Src/stm32h7xx_hal_flash.c ****         HAL_FLASH_EndOfOperationCallback(pFlash.Sector);
 508:../../Drivers/STM32H7xx_HAL_Driver/Src/stm32h7xx_hal_flash.c **** 
 509:../../Drivers/STM32H7xx_HAL_Driver/Src/stm32h7xx_hal_flash.c ****         /* Clear FLASH End of Operation pending bit */
 510:../../Drivers/STM32H7xx_HAL_Driver/Src/stm32h7xx_hal_flash.c ****         __HAL_FLASH_CLEAR_FLAG_BANK1(FLASH_FLAG_EOP_BANK1);
 511:../../Drivers/STM32H7xx_HAL_Driver/Src/stm32h7xx_hal_flash.c ****       }
 512:../../Drivers/STM32H7xx_HAL_Driver/Src/stm32h7xx_hal_flash.c ****     }
 513:../../Drivers/STM32H7xx_HAL_Driver/Src/stm32h7xx_hal_flash.c ****     else
 514:../../Drivers/STM32H7xx_HAL_Driver/Src/stm32h7xx_hal_flash.c ****     {
 515:../../Drivers/STM32H7xx_HAL_Driver/Src/stm32h7xx_hal_flash.c ****       procedure = pFlash.ProcedureOnGoing;
 516:../../Drivers/STM32H7xx_HAL_Driver/Src/stm32h7xx_hal_flash.c **** 
 517:../../Drivers/STM32H7xx_HAL_Driver/Src/stm32h7xx_hal_flash.c ****       if((procedure == FLASH_PROC_MASSERASE_BANK1) || (procedure == FLASH_PROC_ALLBANK_MASSERASE))
 518:../../Drivers/STM32H7xx_HAL_Driver/Src/stm32h7xx_hal_flash.c ****       {
 519:../../Drivers/STM32H7xx_HAL_Driver/Src/stm32h7xx_hal_flash.c ****         /* MassErase ended. Return the selected bank */
 520:../../Drivers/STM32H7xx_HAL_Driver/Src/stm32h7xx_hal_flash.c ****         /* FLASH EOP interrupt user callback */
 521:../../Drivers/STM32H7xx_HAL_Driver/Src/stm32h7xx_hal_flash.c ****         HAL_FLASH_EndOfOperationCallback(FLASH_BANK_1);
 522:../../Drivers/STM32H7xx_HAL_Driver/Src/stm32h7xx_hal_flash.c ****       }
 523:../../Drivers/STM32H7xx_HAL_Driver/Src/stm32h7xx_hal_flash.c ****       else if(procedure == FLASH_PROC_PROGRAM_BANK1)
 524:../../Drivers/STM32H7xx_HAL_Driver/Src/stm32h7xx_hal_flash.c ****       {
 525:../../Drivers/STM32H7xx_HAL_Driver/Src/stm32h7xx_hal_flash.c ****         /* Program ended. Return the selected address */
 526:../../Drivers/STM32H7xx_HAL_Driver/Src/stm32h7xx_hal_flash.c ****         /* FLASH EOP interrupt user callback */
 527:../../Drivers/STM32H7xx_HAL_Driver/Src/stm32h7xx_hal_flash.c ****         HAL_FLASH_EndOfOperationCallback(pFlash.Address);
 528:../../Drivers/STM32H7xx_HAL_Driver/Src/stm32h7xx_hal_flash.c ****       }
 529:../../Drivers/STM32H7xx_HAL_Driver/Src/stm32h7xx_hal_flash.c ****       else
 530:../../Drivers/STM32H7xx_HAL_Driver/Src/stm32h7xx_hal_flash.c ****       {
 531:../../Drivers/STM32H7xx_HAL_Driver/Src/stm32h7xx_hal_flash.c ****         /* Nothing to do */
 532:../../Drivers/STM32H7xx_HAL_Driver/Src/stm32h7xx_hal_flash.c ****       }
 533:../../Drivers/STM32H7xx_HAL_Driver/Src/stm32h7xx_hal_flash.c **** 
 534:../../Drivers/STM32H7xx_HAL_Driver/Src/stm32h7xx_hal_flash.c ****       if((procedure != FLASH_PROC_SECTERASE_BANK2) && \
 535:../../Drivers/STM32H7xx_HAL_Driver/Src/stm32h7xx_hal_flash.c ****          (procedure != FLASH_PROC_MASSERASE_BANK2) && \
 536:../../Drivers/STM32H7xx_HAL_Driver/Src/stm32h7xx_hal_flash.c ****          (procedure != FLASH_PROC_PROGRAM_BANK2))
 537:../../Drivers/STM32H7xx_HAL_Driver/Src/stm32h7xx_hal_flash.c ****       {
 538:../../Drivers/STM32H7xx_HAL_Driver/Src/stm32h7xx_hal_flash.c ****         pFlash.ProcedureOnGoing = FLASH_PROC_NONE;
 539:../../Drivers/STM32H7xx_HAL_Driver/Src/stm32h7xx_hal_flash.c ****         /* Clear FLASH End of Operation pending bit */
 540:../../Drivers/STM32H7xx_HAL_Driver/Src/stm32h7xx_hal_flash.c ****         __HAL_FLASH_CLEAR_FLAG_BANK1(FLASH_FLAG_EOP_BANK1);
 541:../../Drivers/STM32H7xx_HAL_Driver/Src/stm32h7xx_hal_flash.c ****       }
 542:../../Drivers/STM32H7xx_HAL_Driver/Src/stm32h7xx_hal_flash.c ****     }
 543:../../Drivers/STM32H7xx_HAL_Driver/Src/stm32h7xx_hal_flash.c ****   }
ARM GAS  C:\Users\gigig\AppData\Local\Temp\cc4Yyo3b.s 			page 11


 544:../../Drivers/STM32H7xx_HAL_Driver/Src/stm32h7xx_hal_flash.c **** 
 545:../../Drivers/STM32H7xx_HAL_Driver/Src/stm32h7xx_hal_flash.c **** #if defined (DUAL_BANK)
 546:../../Drivers/STM32H7xx_HAL_Driver/Src/stm32h7xx_hal_flash.c ****  /* Check FLASH Bank2 End of Operation flag  */
 547:../../Drivers/STM32H7xx_HAL_Driver/Src/stm32h7xx_hal_flash.c ****   if(__HAL_FLASH_GET_FLAG_BANK2(FLASH_SR_EOP) != RESET)
 548:../../Drivers/STM32H7xx_HAL_Driver/Src/stm32h7xx_hal_flash.c ****   {
 549:../../Drivers/STM32H7xx_HAL_Driver/Src/stm32h7xx_hal_flash.c ****     if(pFlash.ProcedureOnGoing == FLASH_PROC_SECTERASE_BANK2)
 550:../../Drivers/STM32H7xx_HAL_Driver/Src/stm32h7xx_hal_flash.c ****     {
 551:../../Drivers/STM32H7xx_HAL_Driver/Src/stm32h7xx_hal_flash.c ****       /*Nb of sector to erased can be decreased*/
 552:../../Drivers/STM32H7xx_HAL_Driver/Src/stm32h7xx_hal_flash.c ****       pFlash.NbSectorsToErase--;
 553:../../Drivers/STM32H7xx_HAL_Driver/Src/stm32h7xx_hal_flash.c **** 
 554:../../Drivers/STM32H7xx_HAL_Driver/Src/stm32h7xx_hal_flash.c ****       /* Check if there are still sectors to erase*/
 555:../../Drivers/STM32H7xx_HAL_Driver/Src/stm32h7xx_hal_flash.c ****       if(pFlash.NbSectorsToErase != 0U)
 556:../../Drivers/STM32H7xx_HAL_Driver/Src/stm32h7xx_hal_flash.c ****       {
 557:../../Drivers/STM32H7xx_HAL_Driver/Src/stm32h7xx_hal_flash.c ****         /*Indicate user which sector has been erased*/
 558:../../Drivers/STM32H7xx_HAL_Driver/Src/stm32h7xx_hal_flash.c ****         HAL_FLASH_EndOfOperationCallback(pFlash.Sector);
 559:../../Drivers/STM32H7xx_HAL_Driver/Src/stm32h7xx_hal_flash.c **** 
 560:../../Drivers/STM32H7xx_HAL_Driver/Src/stm32h7xx_hal_flash.c ****         /* Clear bank 2 End of Operation pending bit */
 561:../../Drivers/STM32H7xx_HAL_Driver/Src/stm32h7xx_hal_flash.c ****         __HAL_FLASH_CLEAR_FLAG_BANK2(FLASH_FLAG_EOP_BANK2);
 562:../../Drivers/STM32H7xx_HAL_Driver/Src/stm32h7xx_hal_flash.c **** 
 563:../../Drivers/STM32H7xx_HAL_Driver/Src/stm32h7xx_hal_flash.c ****         /*Increment sector number*/
 564:../../Drivers/STM32H7xx_HAL_Driver/Src/stm32h7xx_hal_flash.c ****         pFlash.Sector++;
 565:../../Drivers/STM32H7xx_HAL_Driver/Src/stm32h7xx_hal_flash.c ****         temp = pFlash.Sector;
 566:../../Drivers/STM32H7xx_HAL_Driver/Src/stm32h7xx_hal_flash.c ****         FLASH_Erase_Sector(temp, FLASH_BANK_2, pFlash.VoltageForErase);
 567:../../Drivers/STM32H7xx_HAL_Driver/Src/stm32h7xx_hal_flash.c ****       }
 568:../../Drivers/STM32H7xx_HAL_Driver/Src/stm32h7xx_hal_flash.c ****       else
 569:../../Drivers/STM32H7xx_HAL_Driver/Src/stm32h7xx_hal_flash.c ****       {
 570:../../Drivers/STM32H7xx_HAL_Driver/Src/stm32h7xx_hal_flash.c ****         /* No more sectors to Erase, user callback can be called */
 571:../../Drivers/STM32H7xx_HAL_Driver/Src/stm32h7xx_hal_flash.c ****         /* Reset Sector and stop Erase sectors procedure */
 572:../../Drivers/STM32H7xx_HAL_Driver/Src/stm32h7xx_hal_flash.c ****         pFlash.Sector = 0xFFFFFFFFU;
 573:../../Drivers/STM32H7xx_HAL_Driver/Src/stm32h7xx_hal_flash.c ****         pFlash.ProcedureOnGoing = FLASH_PROC_NONE;
 574:../../Drivers/STM32H7xx_HAL_Driver/Src/stm32h7xx_hal_flash.c **** 
 575:../../Drivers/STM32H7xx_HAL_Driver/Src/stm32h7xx_hal_flash.c ****         /* FLASH EOP interrupt user callback */
 576:../../Drivers/STM32H7xx_HAL_Driver/Src/stm32h7xx_hal_flash.c ****         HAL_FLASH_EndOfOperationCallback(pFlash.Sector);
 577:../../Drivers/STM32H7xx_HAL_Driver/Src/stm32h7xx_hal_flash.c **** 
 578:../../Drivers/STM32H7xx_HAL_Driver/Src/stm32h7xx_hal_flash.c ****         /* Clear FLASH End of Operation pending bit */
 579:../../Drivers/STM32H7xx_HAL_Driver/Src/stm32h7xx_hal_flash.c ****         __HAL_FLASH_CLEAR_FLAG_BANK2(FLASH_FLAG_EOP_BANK2);
 580:../../Drivers/STM32H7xx_HAL_Driver/Src/stm32h7xx_hal_flash.c ****       }
 581:../../Drivers/STM32H7xx_HAL_Driver/Src/stm32h7xx_hal_flash.c ****     }
 582:../../Drivers/STM32H7xx_HAL_Driver/Src/stm32h7xx_hal_flash.c ****     else
 583:../../Drivers/STM32H7xx_HAL_Driver/Src/stm32h7xx_hal_flash.c ****     {
 584:../../Drivers/STM32H7xx_HAL_Driver/Src/stm32h7xx_hal_flash.c ****       procedure = pFlash.ProcedureOnGoing;
 585:../../Drivers/STM32H7xx_HAL_Driver/Src/stm32h7xx_hal_flash.c **** 
 586:../../Drivers/STM32H7xx_HAL_Driver/Src/stm32h7xx_hal_flash.c ****       if((procedure == FLASH_PROC_MASSERASE_BANK2) || (procedure == FLASH_PROC_ALLBANK_MASSERASE))
 587:../../Drivers/STM32H7xx_HAL_Driver/Src/stm32h7xx_hal_flash.c ****       {
 588:../../Drivers/STM32H7xx_HAL_Driver/Src/stm32h7xx_hal_flash.c ****         /*MassErase ended. Return the selected bank*/
 589:../../Drivers/STM32H7xx_HAL_Driver/Src/stm32h7xx_hal_flash.c ****         /* FLASH EOP interrupt user callback */
 590:../../Drivers/STM32H7xx_HAL_Driver/Src/stm32h7xx_hal_flash.c ****         HAL_FLASH_EndOfOperationCallback(FLASH_BANK_2);
 591:../../Drivers/STM32H7xx_HAL_Driver/Src/stm32h7xx_hal_flash.c ****       }
 592:../../Drivers/STM32H7xx_HAL_Driver/Src/stm32h7xx_hal_flash.c ****       else if(procedure == FLASH_PROC_PROGRAM_BANK2)
 593:../../Drivers/STM32H7xx_HAL_Driver/Src/stm32h7xx_hal_flash.c ****       {
 594:../../Drivers/STM32H7xx_HAL_Driver/Src/stm32h7xx_hal_flash.c ****         /* Program ended. Return the selected address */
 595:../../Drivers/STM32H7xx_HAL_Driver/Src/stm32h7xx_hal_flash.c ****         /* FLASH EOP interrupt user callback */
 596:../../Drivers/STM32H7xx_HAL_Driver/Src/stm32h7xx_hal_flash.c ****         HAL_FLASH_EndOfOperationCallback(pFlash.Address);
 597:../../Drivers/STM32H7xx_HAL_Driver/Src/stm32h7xx_hal_flash.c ****       }
 598:../../Drivers/STM32H7xx_HAL_Driver/Src/stm32h7xx_hal_flash.c ****       else
 599:../../Drivers/STM32H7xx_HAL_Driver/Src/stm32h7xx_hal_flash.c ****       {
 600:../../Drivers/STM32H7xx_HAL_Driver/Src/stm32h7xx_hal_flash.c ****         /* Nothing to do */
ARM GAS  C:\Users\gigig\AppData\Local\Temp\cc4Yyo3b.s 			page 12


 601:../../Drivers/STM32H7xx_HAL_Driver/Src/stm32h7xx_hal_flash.c ****       }
 602:../../Drivers/STM32H7xx_HAL_Driver/Src/stm32h7xx_hal_flash.c **** 
 603:../../Drivers/STM32H7xx_HAL_Driver/Src/stm32h7xx_hal_flash.c ****       if((procedure != FLASH_PROC_SECTERASE_BANK1) && \
 604:../../Drivers/STM32H7xx_HAL_Driver/Src/stm32h7xx_hal_flash.c ****          (procedure != FLASH_PROC_MASSERASE_BANK1) && \
 605:../../Drivers/STM32H7xx_HAL_Driver/Src/stm32h7xx_hal_flash.c ****          (procedure != FLASH_PROC_PROGRAM_BANK1))
 606:../../Drivers/STM32H7xx_HAL_Driver/Src/stm32h7xx_hal_flash.c ****       {
 607:../../Drivers/STM32H7xx_HAL_Driver/Src/stm32h7xx_hal_flash.c ****         pFlash.ProcedureOnGoing = FLASH_PROC_NONE;
 608:../../Drivers/STM32H7xx_HAL_Driver/Src/stm32h7xx_hal_flash.c ****         /* Clear FLASH End of Operation pending bit */
 609:../../Drivers/STM32H7xx_HAL_Driver/Src/stm32h7xx_hal_flash.c ****         __HAL_FLASH_CLEAR_FLAG_BANK2(FLASH_FLAG_EOP_BANK2);
 610:../../Drivers/STM32H7xx_HAL_Driver/Src/stm32h7xx_hal_flash.c ****       }
 611:../../Drivers/STM32H7xx_HAL_Driver/Src/stm32h7xx_hal_flash.c ****     }
 612:../../Drivers/STM32H7xx_HAL_Driver/Src/stm32h7xx_hal_flash.c ****   }
 613:../../Drivers/STM32H7xx_HAL_Driver/Src/stm32h7xx_hal_flash.c **** #endif /* DUAL_BANK */
 614:../../Drivers/STM32H7xx_HAL_Driver/Src/stm32h7xx_hal_flash.c **** 
 615:../../Drivers/STM32H7xx_HAL_Driver/Src/stm32h7xx_hal_flash.c ****   /* Check FLASH Bank1 operation error flags */
 616:../../Drivers/STM32H7xx_HAL_Driver/Src/stm32h7xx_hal_flash.c **** #if defined (FLASH_SR_OPERR)
 617:../../Drivers/STM32H7xx_HAL_Driver/Src/stm32h7xx_hal_flash.c ****   errorflag = FLASH->SR1 & (FLASH_FLAG_WRPERR_BANK1 | FLASH_FLAG_PGSERR_BANK1 | FLASH_FLAG_STRBERR_
 618:../../Drivers/STM32H7xx_HAL_Driver/Src/stm32h7xx_hal_flash.c ****                             FLASH_FLAG_INCERR_BANK1 | FLASH_FLAG_OPERR_BANK1);
 619:../../Drivers/STM32H7xx_HAL_Driver/Src/stm32h7xx_hal_flash.c **** #else
 620:../../Drivers/STM32H7xx_HAL_Driver/Src/stm32h7xx_hal_flash.c ****   errorflag = FLASH->SR1 & (FLASH_FLAG_WRPERR_BANK1 | FLASH_FLAG_PGSERR_BANK1 | FLASH_FLAG_STRBERR_
 621:../../Drivers/STM32H7xx_HAL_Driver/Src/stm32h7xx_hal_flash.c ****                             FLASH_FLAG_INCERR_BANK1);
 622:../../Drivers/STM32H7xx_HAL_Driver/Src/stm32h7xx_hal_flash.c **** #endif /* FLASH_SR_OPERR */
 623:../../Drivers/STM32H7xx_HAL_Driver/Src/stm32h7xx_hal_flash.c **** 
 624:../../Drivers/STM32H7xx_HAL_Driver/Src/stm32h7xx_hal_flash.c ****   if(errorflag != 0U)
 625:../../Drivers/STM32H7xx_HAL_Driver/Src/stm32h7xx_hal_flash.c ****   {
 626:../../Drivers/STM32H7xx_HAL_Driver/Src/stm32h7xx_hal_flash.c ****     /* Save the error code */
 627:../../Drivers/STM32H7xx_HAL_Driver/Src/stm32h7xx_hal_flash.c ****     pFlash.ErrorCode |= errorflag;
 628:../../Drivers/STM32H7xx_HAL_Driver/Src/stm32h7xx_hal_flash.c **** 
 629:../../Drivers/STM32H7xx_HAL_Driver/Src/stm32h7xx_hal_flash.c ****     /* Clear error programming flags */
 630:../../Drivers/STM32H7xx_HAL_Driver/Src/stm32h7xx_hal_flash.c ****     __HAL_FLASH_CLEAR_FLAG_BANK1(errorflag);
 631:../../Drivers/STM32H7xx_HAL_Driver/Src/stm32h7xx_hal_flash.c **** 
 632:../../Drivers/STM32H7xx_HAL_Driver/Src/stm32h7xx_hal_flash.c ****     procedure = pFlash.ProcedureOnGoing;
 633:../../Drivers/STM32H7xx_HAL_Driver/Src/stm32h7xx_hal_flash.c **** 
 634:../../Drivers/STM32H7xx_HAL_Driver/Src/stm32h7xx_hal_flash.c ****     if(procedure == FLASH_PROC_SECTERASE_BANK1)
 635:../../Drivers/STM32H7xx_HAL_Driver/Src/stm32h7xx_hal_flash.c ****     {
 636:../../Drivers/STM32H7xx_HAL_Driver/Src/stm32h7xx_hal_flash.c ****       /* Return the faulty sector */
 637:../../Drivers/STM32H7xx_HAL_Driver/Src/stm32h7xx_hal_flash.c ****       temp = pFlash.Sector;
 638:../../Drivers/STM32H7xx_HAL_Driver/Src/stm32h7xx_hal_flash.c ****       pFlash.Sector = 0xFFFFFFFFU;
 639:../../Drivers/STM32H7xx_HAL_Driver/Src/stm32h7xx_hal_flash.c ****     }
 640:../../Drivers/STM32H7xx_HAL_Driver/Src/stm32h7xx_hal_flash.c ****     else if((procedure == FLASH_PROC_MASSERASE_BANK1) || (procedure == FLASH_PROC_ALLBANK_MASSERASE
 641:../../Drivers/STM32H7xx_HAL_Driver/Src/stm32h7xx_hal_flash.c ****     {
 642:../../Drivers/STM32H7xx_HAL_Driver/Src/stm32h7xx_hal_flash.c ****       /* Return the faulty bank */
 643:../../Drivers/STM32H7xx_HAL_Driver/Src/stm32h7xx_hal_flash.c ****       temp = FLASH_BANK_1;
 644:../../Drivers/STM32H7xx_HAL_Driver/Src/stm32h7xx_hal_flash.c ****     }
 645:../../Drivers/STM32H7xx_HAL_Driver/Src/stm32h7xx_hal_flash.c ****     else
 646:../../Drivers/STM32H7xx_HAL_Driver/Src/stm32h7xx_hal_flash.c ****     {
 647:../../Drivers/STM32H7xx_HAL_Driver/Src/stm32h7xx_hal_flash.c ****       /* Return the faulty address */
 648:../../Drivers/STM32H7xx_HAL_Driver/Src/stm32h7xx_hal_flash.c ****       temp = pFlash.Address;
 649:../../Drivers/STM32H7xx_HAL_Driver/Src/stm32h7xx_hal_flash.c ****     }
 650:../../Drivers/STM32H7xx_HAL_Driver/Src/stm32h7xx_hal_flash.c **** 
 651:../../Drivers/STM32H7xx_HAL_Driver/Src/stm32h7xx_hal_flash.c ****     /* Stop the procedure ongoing*/
 652:../../Drivers/STM32H7xx_HAL_Driver/Src/stm32h7xx_hal_flash.c ****     pFlash.ProcedureOnGoing = FLASH_PROC_NONE;
 653:../../Drivers/STM32H7xx_HAL_Driver/Src/stm32h7xx_hal_flash.c **** 
 654:../../Drivers/STM32H7xx_HAL_Driver/Src/stm32h7xx_hal_flash.c ****     /* FLASH error interrupt user callback */
 655:../../Drivers/STM32H7xx_HAL_Driver/Src/stm32h7xx_hal_flash.c ****     HAL_FLASH_OperationErrorCallback(temp);
 656:../../Drivers/STM32H7xx_HAL_Driver/Src/stm32h7xx_hal_flash.c ****   }
 657:../../Drivers/STM32H7xx_HAL_Driver/Src/stm32h7xx_hal_flash.c **** 
ARM GAS  C:\Users\gigig\AppData\Local\Temp\cc4Yyo3b.s 			page 13


 658:../../Drivers/STM32H7xx_HAL_Driver/Src/stm32h7xx_hal_flash.c **** #if defined (DUAL_BANK)
 659:../../Drivers/STM32H7xx_HAL_Driver/Src/stm32h7xx_hal_flash.c ****   /* Check FLASH Bank2 operation error flags */
 660:../../Drivers/STM32H7xx_HAL_Driver/Src/stm32h7xx_hal_flash.c **** #if defined (FLASH_SR_OPERR)
 661:../../Drivers/STM32H7xx_HAL_Driver/Src/stm32h7xx_hal_flash.c ****   errorflag = FLASH->SR2 & ((FLASH_FLAG_WRPERR_BANK2 | FLASH_FLAG_PGSERR_BANK2 | FLASH_FLAG_STRBERR
 662:../../Drivers/STM32H7xx_HAL_Driver/Src/stm32h7xx_hal_flash.c ****                              FLASH_FLAG_INCERR_BANK2 | FLASH_FLAG_OPERR_BANK2) & 0x7FFFFFFFU);
 663:../../Drivers/STM32H7xx_HAL_Driver/Src/stm32h7xx_hal_flash.c **** #else
 664:../../Drivers/STM32H7xx_HAL_Driver/Src/stm32h7xx_hal_flash.c ****   errorflag = FLASH->SR2 & ((FLASH_FLAG_WRPERR_BANK2 | FLASH_FLAG_PGSERR_BANK2 | FLASH_FLAG_STRBERR
 665:../../Drivers/STM32H7xx_HAL_Driver/Src/stm32h7xx_hal_flash.c ****                              FLASH_FLAG_INCERR_BANK2) & 0x7FFFFFFFU);
 666:../../Drivers/STM32H7xx_HAL_Driver/Src/stm32h7xx_hal_flash.c **** #endif /* FLASH_SR_OPERR */
 667:../../Drivers/STM32H7xx_HAL_Driver/Src/stm32h7xx_hal_flash.c **** 
 668:../../Drivers/STM32H7xx_HAL_Driver/Src/stm32h7xx_hal_flash.c ****   if(errorflag != 0U)
 669:../../Drivers/STM32H7xx_HAL_Driver/Src/stm32h7xx_hal_flash.c ****   {
 670:../../Drivers/STM32H7xx_HAL_Driver/Src/stm32h7xx_hal_flash.c ****     /* Save the error code */
 671:../../Drivers/STM32H7xx_HAL_Driver/Src/stm32h7xx_hal_flash.c ****     pFlash.ErrorCode |= (errorflag | 0x80000000U);
 672:../../Drivers/STM32H7xx_HAL_Driver/Src/stm32h7xx_hal_flash.c **** 
 673:../../Drivers/STM32H7xx_HAL_Driver/Src/stm32h7xx_hal_flash.c ****     /* Clear error programming flags */
 674:../../Drivers/STM32H7xx_HAL_Driver/Src/stm32h7xx_hal_flash.c ****     __HAL_FLASH_CLEAR_FLAG_BANK2(errorflag);
 675:../../Drivers/STM32H7xx_HAL_Driver/Src/stm32h7xx_hal_flash.c **** 
 676:../../Drivers/STM32H7xx_HAL_Driver/Src/stm32h7xx_hal_flash.c ****     procedure = pFlash.ProcedureOnGoing;
 677:../../Drivers/STM32H7xx_HAL_Driver/Src/stm32h7xx_hal_flash.c **** 
 678:../../Drivers/STM32H7xx_HAL_Driver/Src/stm32h7xx_hal_flash.c ****     if(procedure== FLASH_PROC_SECTERASE_BANK2)
 679:../../Drivers/STM32H7xx_HAL_Driver/Src/stm32h7xx_hal_flash.c ****     {
 680:../../Drivers/STM32H7xx_HAL_Driver/Src/stm32h7xx_hal_flash.c ****       /*return the faulty sector*/
 681:../../Drivers/STM32H7xx_HAL_Driver/Src/stm32h7xx_hal_flash.c ****       temp = pFlash.Sector;
 682:../../Drivers/STM32H7xx_HAL_Driver/Src/stm32h7xx_hal_flash.c ****       pFlash.Sector = 0xFFFFFFFFU;
 683:../../Drivers/STM32H7xx_HAL_Driver/Src/stm32h7xx_hal_flash.c ****     }
 684:../../Drivers/STM32H7xx_HAL_Driver/Src/stm32h7xx_hal_flash.c ****     else if((procedure == FLASH_PROC_MASSERASE_BANK2) || (procedure == FLASH_PROC_ALLBANK_MASSERASE
 685:../../Drivers/STM32H7xx_HAL_Driver/Src/stm32h7xx_hal_flash.c ****     {
 686:../../Drivers/STM32H7xx_HAL_Driver/Src/stm32h7xx_hal_flash.c ****       /*return the faulty bank*/
 687:../../Drivers/STM32H7xx_HAL_Driver/Src/stm32h7xx_hal_flash.c ****       temp = FLASH_BANK_2;
 688:../../Drivers/STM32H7xx_HAL_Driver/Src/stm32h7xx_hal_flash.c ****     }
 689:../../Drivers/STM32H7xx_HAL_Driver/Src/stm32h7xx_hal_flash.c ****     else
 690:../../Drivers/STM32H7xx_HAL_Driver/Src/stm32h7xx_hal_flash.c ****     {
 691:../../Drivers/STM32H7xx_HAL_Driver/Src/stm32h7xx_hal_flash.c ****       /*return the faulty address*/
 692:../../Drivers/STM32H7xx_HAL_Driver/Src/stm32h7xx_hal_flash.c ****       temp = pFlash.Address;
 693:../../Drivers/STM32H7xx_HAL_Driver/Src/stm32h7xx_hal_flash.c ****     }
 694:../../Drivers/STM32H7xx_HAL_Driver/Src/stm32h7xx_hal_flash.c **** 
 695:../../Drivers/STM32H7xx_HAL_Driver/Src/stm32h7xx_hal_flash.c ****     /*Stop the procedure ongoing*/
 696:../../Drivers/STM32H7xx_HAL_Driver/Src/stm32h7xx_hal_flash.c ****     pFlash.ProcedureOnGoing = FLASH_PROC_NONE;
 697:../../Drivers/STM32H7xx_HAL_Driver/Src/stm32h7xx_hal_flash.c **** 
 698:../../Drivers/STM32H7xx_HAL_Driver/Src/stm32h7xx_hal_flash.c ****     /* FLASH error interrupt user callback */
 699:../../Drivers/STM32H7xx_HAL_Driver/Src/stm32h7xx_hal_flash.c ****     HAL_FLASH_OperationErrorCallback(temp);
 700:../../Drivers/STM32H7xx_HAL_Driver/Src/stm32h7xx_hal_flash.c ****   }
 701:../../Drivers/STM32H7xx_HAL_Driver/Src/stm32h7xx_hal_flash.c **** #endif /* DUAL_BANK */
 702:../../Drivers/STM32H7xx_HAL_Driver/Src/stm32h7xx_hal_flash.c **** 
 703:../../Drivers/STM32H7xx_HAL_Driver/Src/stm32h7xx_hal_flash.c ****   if(pFlash.ProcedureOnGoing == FLASH_PROC_NONE)
 704:../../Drivers/STM32H7xx_HAL_Driver/Src/stm32h7xx_hal_flash.c ****   {
 705:../../Drivers/STM32H7xx_HAL_Driver/Src/stm32h7xx_hal_flash.c **** #if defined (FLASH_CR_OPERRIE)
 706:../../Drivers/STM32H7xx_HAL_Driver/Src/stm32h7xx_hal_flash.c ****     /* Disable Bank1 Operation and Error source interrupt */
 707:../../Drivers/STM32H7xx_HAL_Driver/Src/stm32h7xx_hal_flash.c ****     __HAL_FLASH_DISABLE_IT_BANK1(FLASH_IT_EOP_BANK1    | FLASH_IT_WRPERR_BANK1 | FLASH_IT_PGSERR_BA
 708:../../Drivers/STM32H7xx_HAL_Driver/Src/stm32h7xx_hal_flash.c ****                                  FLASH_IT_STRBERR_BANK1 | FLASH_IT_INCERR_BANK1 | FLASH_IT_OPERR_BA
 709:../../Drivers/STM32H7xx_HAL_Driver/Src/stm32h7xx_hal_flash.c **** 
 710:../../Drivers/STM32H7xx_HAL_Driver/Src/stm32h7xx_hal_flash.c **** #if defined (DUAL_BANK)
 711:../../Drivers/STM32H7xx_HAL_Driver/Src/stm32h7xx_hal_flash.c ****     /* Disable Bank2 Operation and Error source interrupt */
 712:../../Drivers/STM32H7xx_HAL_Driver/Src/stm32h7xx_hal_flash.c ****     __HAL_FLASH_DISABLE_IT_BANK2(FLASH_IT_EOP_BANK2    | FLASH_IT_WRPERR_BANK2 | FLASH_IT_PGSERR_BA
 713:../../Drivers/STM32H7xx_HAL_Driver/Src/stm32h7xx_hal_flash.c ****                                  FLASH_IT_STRBERR_BANK2 | FLASH_IT_INCERR_BANK2 | FLASH_IT_OPERR_BA
 714:../../Drivers/STM32H7xx_HAL_Driver/Src/stm32h7xx_hal_flash.c **** #endif /* DUAL_BANK */
ARM GAS  C:\Users\gigig\AppData\Local\Temp\cc4Yyo3b.s 			page 14


 715:../../Drivers/STM32H7xx_HAL_Driver/Src/stm32h7xx_hal_flash.c **** #else
 716:../../Drivers/STM32H7xx_HAL_Driver/Src/stm32h7xx_hal_flash.c ****     /* Disable Bank1 Operation and Error source interrupt */
 717:../../Drivers/STM32H7xx_HAL_Driver/Src/stm32h7xx_hal_flash.c ****     __HAL_FLASH_DISABLE_IT_BANK1(FLASH_IT_EOP_BANK1    | FLASH_IT_WRPERR_BANK1 | FLASH_IT_PGSERR_BA
 718:../../Drivers/STM32H7xx_HAL_Driver/Src/stm32h7xx_hal_flash.c ****                                  FLASH_IT_STRBERR_BANK1 | FLASH_IT_INCERR_BANK1);
 719:../../Drivers/STM32H7xx_HAL_Driver/Src/stm32h7xx_hal_flash.c **** 
 720:../../Drivers/STM32H7xx_HAL_Driver/Src/stm32h7xx_hal_flash.c **** #if defined (DUAL_BANK)
 721:../../Drivers/STM32H7xx_HAL_Driver/Src/stm32h7xx_hal_flash.c ****     /* Disable Bank2 Operation and Error source interrupt */
 722:../../Drivers/STM32H7xx_HAL_Driver/Src/stm32h7xx_hal_flash.c ****     __HAL_FLASH_DISABLE_IT_BANK2(FLASH_IT_EOP_BANK2    | FLASH_IT_WRPERR_BANK2 | FLASH_IT_PGSERR_BA
 723:../../Drivers/STM32H7xx_HAL_Driver/Src/stm32h7xx_hal_flash.c ****                                  FLASH_IT_STRBERR_BANK2 | FLASH_IT_INCERR_BANK2);
 724:../../Drivers/STM32H7xx_HAL_Driver/Src/stm32h7xx_hal_flash.c **** #endif /* DUAL_BANK */
 725:../../Drivers/STM32H7xx_HAL_Driver/Src/stm32h7xx_hal_flash.c **** #endif /* FLASH_CR_OPERRIE */
 726:../../Drivers/STM32H7xx_HAL_Driver/Src/stm32h7xx_hal_flash.c **** 
 727:../../Drivers/STM32H7xx_HAL_Driver/Src/stm32h7xx_hal_flash.c ****     /* Process Unlocked */
 728:../../Drivers/STM32H7xx_HAL_Driver/Src/stm32h7xx_hal_flash.c ****     __HAL_UNLOCK(&pFlash);
 729:../../Drivers/STM32H7xx_HAL_Driver/Src/stm32h7xx_hal_flash.c ****   }
 730:../../Drivers/STM32H7xx_HAL_Driver/Src/stm32h7xx_hal_flash.c **** }
 731:../../Drivers/STM32H7xx_HAL_Driver/Src/stm32h7xx_hal_flash.c **** 
 732:../../Drivers/STM32H7xx_HAL_Driver/Src/stm32h7xx_hal_flash.c **** /**
 733:../../Drivers/STM32H7xx_HAL_Driver/Src/stm32h7xx_hal_flash.c ****   * @brief  FLASH end of operation interrupt callback
 734:../../Drivers/STM32H7xx_HAL_Driver/Src/stm32h7xx_hal_flash.c ****   * @param  ReturnValue The value saved in this parameter depends on the ongoing procedure
 735:../../Drivers/STM32H7xx_HAL_Driver/Src/stm32h7xx_hal_flash.c ****   *                  Mass Erase: Bank number which has been requested to erase
 736:../../Drivers/STM32H7xx_HAL_Driver/Src/stm32h7xx_hal_flash.c ****   *                  Sectors Erase: Sector which has been erased
 737:../../Drivers/STM32H7xx_HAL_Driver/Src/stm32h7xx_hal_flash.c ****   *                    (if 0xFFFFFFFF, it means that all the selected sectors have been erased)
 738:../../Drivers/STM32H7xx_HAL_Driver/Src/stm32h7xx_hal_flash.c ****   *                  Program: Address which was selected for data program
 739:../../Drivers/STM32H7xx_HAL_Driver/Src/stm32h7xx_hal_flash.c ****   * @retval None
 740:../../Drivers/STM32H7xx_HAL_Driver/Src/stm32h7xx_hal_flash.c ****   */
 741:../../Drivers/STM32H7xx_HAL_Driver/Src/stm32h7xx_hal_flash.c **** __weak void HAL_FLASH_EndOfOperationCallback(uint32_t ReturnValue)
 742:../../Drivers/STM32H7xx_HAL_Driver/Src/stm32h7xx_hal_flash.c **** {
  29              		.loc 1 742 1 view -0
  30              		.cfi_startproc
  31              		@ args = 0, pretend = 0, frame = 0
  32              		@ frame_needed = 0, uses_anonymous_args = 0
  33              		@ link register save eliminated.
 743:../../Drivers/STM32H7xx_HAL_Driver/Src/stm32h7xx_hal_flash.c ****   /* Prevent unused argument(s) compilation warning */
 744:../../Drivers/STM32H7xx_HAL_Driver/Src/stm32h7xx_hal_flash.c ****   UNUSED(ReturnValue);
  34              		.loc 1 744 3 view .LVU1
 745:../../Drivers/STM32H7xx_HAL_Driver/Src/stm32h7xx_hal_flash.c **** 
 746:../../Drivers/STM32H7xx_HAL_Driver/Src/stm32h7xx_hal_flash.c ****   /* NOTE : This function Should not be modified, when the callback is needed,
 747:../../Drivers/STM32H7xx_HAL_Driver/Src/stm32h7xx_hal_flash.c ****             the HAL_FLASH_EndOfOperationCallback could be implemented in the user file
 748:../../Drivers/STM32H7xx_HAL_Driver/Src/stm32h7xx_hal_flash.c ****    */
 749:../../Drivers/STM32H7xx_HAL_Driver/Src/stm32h7xx_hal_flash.c **** }
  35              		.loc 1 749 1 is_stmt 0 view .LVU2
  36 0000 7047     		bx	lr
  37              		.cfi_endproc
  38              	.LFE147:
  40              		.section	.text.HAL_FLASH_OperationErrorCallback,"ax",%progbits
  41              		.align	1
  42              		.weak	HAL_FLASH_OperationErrorCallback
  43              		.syntax unified
  44              		.thumb
  45              		.thumb_func
  47              	HAL_FLASH_OperationErrorCallback:
  48              	.LVL1:
  49              	.LFB148:
 750:../../Drivers/STM32H7xx_HAL_Driver/Src/stm32h7xx_hal_flash.c **** 
 751:../../Drivers/STM32H7xx_HAL_Driver/Src/stm32h7xx_hal_flash.c **** /**
 752:../../Drivers/STM32H7xx_HAL_Driver/Src/stm32h7xx_hal_flash.c ****   * @brief  FLASH operation error interrupt callback
ARM GAS  C:\Users\gigig\AppData\Local\Temp\cc4Yyo3b.s 			page 15


 753:../../Drivers/STM32H7xx_HAL_Driver/Src/stm32h7xx_hal_flash.c ****   * @param  ReturnValue The value saved in this parameter depends on the ongoing procedure
 754:../../Drivers/STM32H7xx_HAL_Driver/Src/stm32h7xx_hal_flash.c ****   *                 Mass Erase: Bank number which has been requested to erase
 755:../../Drivers/STM32H7xx_HAL_Driver/Src/stm32h7xx_hal_flash.c ****   *                 Sectors Erase: Sector number which returned an error
 756:../../Drivers/STM32H7xx_HAL_Driver/Src/stm32h7xx_hal_flash.c ****   *                 Program: Address which was selected for data program
 757:../../Drivers/STM32H7xx_HAL_Driver/Src/stm32h7xx_hal_flash.c ****   * @retval None
 758:../../Drivers/STM32H7xx_HAL_Driver/Src/stm32h7xx_hal_flash.c ****   */
 759:../../Drivers/STM32H7xx_HAL_Driver/Src/stm32h7xx_hal_flash.c **** __weak void HAL_FLASH_OperationErrorCallback(uint32_t ReturnValue)
 760:../../Drivers/STM32H7xx_HAL_Driver/Src/stm32h7xx_hal_flash.c **** {
  50              		.loc 1 760 1 is_stmt 1 view -0
  51              		.cfi_startproc
  52              		@ args = 0, pretend = 0, frame = 0
  53              		@ frame_needed = 0, uses_anonymous_args = 0
  54              		@ link register save eliminated.
 761:../../Drivers/STM32H7xx_HAL_Driver/Src/stm32h7xx_hal_flash.c ****   /* Prevent unused argument(s) compilation warning */
 762:../../Drivers/STM32H7xx_HAL_Driver/Src/stm32h7xx_hal_flash.c ****   UNUSED(ReturnValue);
  55              		.loc 1 762 3 view .LVU4
 763:../../Drivers/STM32H7xx_HAL_Driver/Src/stm32h7xx_hal_flash.c **** 
 764:../../Drivers/STM32H7xx_HAL_Driver/Src/stm32h7xx_hal_flash.c ****   /* NOTE : This function Should not be modified, when the callback is needed,
 765:../../Drivers/STM32H7xx_HAL_Driver/Src/stm32h7xx_hal_flash.c ****             the HAL_FLASH_OperationErrorCallback could be implemented in the user file
 766:../../Drivers/STM32H7xx_HAL_Driver/Src/stm32h7xx_hal_flash.c ****    */
 767:../../Drivers/STM32H7xx_HAL_Driver/Src/stm32h7xx_hal_flash.c **** }
  56              		.loc 1 767 1 is_stmt 0 view .LVU5
  57 0000 7047     		bx	lr
  58              		.cfi_endproc
  59              	.LFE148:
  61              		.section	.text.HAL_FLASH_IRQHandler,"ax",%progbits
  62              		.align	1
  63              		.global	HAL_FLASH_IRQHandler
  64              		.syntax unified
  65              		.thumb
  66              		.thumb_func
  68              	HAL_FLASH_IRQHandler:
  69              	.LFB146:
 472:../../Drivers/STM32H7xx_HAL_Driver/Src/stm32h7xx_hal_flash.c ****   uint32_t temp;
  70              		.loc 1 472 1 is_stmt 1 view -0
  71              		.cfi_startproc
  72              		@ args = 0, pretend = 0, frame = 0
  73              		@ frame_needed = 0, uses_anonymous_args = 0
  74 0000 10B5     		push	{r4, lr}
  75              	.LCFI0:
  76              		.cfi_def_cfa_offset 8
  77              		.cfi_offset 4, -8
  78              		.cfi_offset 14, -4
 473:../../Drivers/STM32H7xx_HAL_Driver/Src/stm32h7xx_hal_flash.c ****   uint32_t errorflag;
  79              		.loc 1 473 3 view .LVU7
 474:../../Drivers/STM32H7xx_HAL_Driver/Src/stm32h7xx_hal_flash.c ****   FLASH_ProcedureTypeDef procedure;
  80              		.loc 1 474 3 view .LVU8
 475:../../Drivers/STM32H7xx_HAL_Driver/Src/stm32h7xx_hal_flash.c **** 
  81              		.loc 1 475 3 view .LVU9
 478:../../Drivers/STM32H7xx_HAL_Driver/Src/stm32h7xx_hal_flash.c ****   {
  82              		.loc 1 478 3 view .LVU10
 478:../../Drivers/STM32H7xx_HAL_Driver/Src/stm32h7xx_hal_flash.c ****   {
  83              		.loc 1 478 6 is_stmt 0 view .LVU11
  84 0002 7B4B     		ldr	r3, .L32
  85 0004 1B69     		ldr	r3, [r3, #16]
 478:../../Drivers/STM32H7xx_HAL_Driver/Src/stm32h7xx_hal_flash.c ****   {
  86              		.loc 1 478 5 view .LVU12
ARM GAS  C:\Users\gigig\AppData\Local\Temp\cc4Yyo3b.s 			page 16


  87 0006 13F4803F 		tst	r3, #65536
  88 000a 18D0     		beq	.L4
 480:../../Drivers/STM32H7xx_HAL_Driver/Src/stm32h7xx_hal_flash.c ****     {
  89              		.loc 1 480 5 is_stmt 1 view .LVU13
 480:../../Drivers/STM32H7xx_HAL_Driver/Src/stm32h7xx_hal_flash.c ****     {
  90              		.loc 1 480 14 is_stmt 0 view .LVU14
  91 000c 794B     		ldr	r3, .L32+4
  92 000e 1B78     		ldrb	r3, [r3]	@ zero_extendqisi2
  93 0010 DBB2     		uxtb	r3, r3
 480:../../Drivers/STM32H7xx_HAL_Driver/Src/stm32h7xx_hal_flash.c ****     {
  94              		.loc 1 480 7 view .LVU15
  95 0012 012B     		cmp	r3, #1
  96 0014 4AD0     		beq	.L24
 515:../../Drivers/STM32H7xx_HAL_Driver/Src/stm32h7xx_hal_flash.c **** 
  97              		.loc 1 515 7 is_stmt 1 view .LVU16
 515:../../Drivers/STM32H7xx_HAL_Driver/Src/stm32h7xx_hal_flash.c **** 
  98              		.loc 1 515 17 is_stmt 0 view .LVU17
  99 0016 774B     		ldr	r3, .L32+4
 100 0018 1C78     		ldrb	r4, [r3]	@ zero_extendqisi2
 101 001a E4B2     		uxtb	r4, r4
 102              	.LVL2:
 517:../../Drivers/STM32H7xx_HAL_Driver/Src/stm32h7xx_hal_flash.c ****       {
 103              		.loc 1 517 7 is_stmt 1 view .LVU18
 517:../../Drivers/STM32H7xx_HAL_Driver/Src/stm32h7xx_hal_flash.c ****       {
 104              		.loc 1 517 9 is_stmt 0 view .LVU19
 105 001c 072C     		cmp	r4, #7
 106 001e 18BF     		it	ne
 107 0020 022C     		cmpne	r4, #2
 108 0022 68D0     		beq	.L25
 523:../../Drivers/STM32H7xx_HAL_Driver/Src/stm32h7xx_hal_flash.c ****       {
 109              		.loc 1 523 12 is_stmt 1 view .LVU20
 523:../../Drivers/STM32H7xx_HAL_Driver/Src/stm32h7xx_hal_flash.c ****       {
 110              		.loc 1 523 14 is_stmt 0 view .LVU21
 111 0024 032C     		cmp	r4, #3
 112 0026 6AD0     		beq	.L26
 113              	.L8:
 532:../../Drivers/STM32H7xx_HAL_Driver/Src/stm32h7xx_hal_flash.c **** 
 114              		.loc 1 532 7 is_stmt 1 view .LVU22
 534:../../Drivers/STM32H7xx_HAL_Driver/Src/stm32h7xx_hal_flash.c ****          (procedure != FLASH_PROC_MASSERASE_BANK2) && \
 115              		.loc 1 534 7 view .LVU23
 535:../../Drivers/STM32H7xx_HAL_Driver/Src/stm32h7xx_hal_flash.c ****          (procedure != FLASH_PROC_PROGRAM_BANK2))
 116              		.loc 1 535 52 is_stmt 0 view .LVU24
 117 0028 043C     		subs	r4, r4, #4
 118              	.LVL3:
 535:../../Drivers/STM32H7xx_HAL_Driver/Src/stm32h7xx_hal_flash.c ****          (procedure != FLASH_PROC_PROGRAM_BANK2))
 119              		.loc 1 535 52 view .LVU25
 120 002a E4B2     		uxtb	r4, r4
 121              	.LVL4:
 534:../../Drivers/STM32H7xx_HAL_Driver/Src/stm32h7xx_hal_flash.c ****          (procedure != FLASH_PROC_MASSERASE_BANK2) && \
 122              		.loc 1 534 9 view .LVU26
 123 002c 022C     		cmp	r4, #2
 124 002e 06D9     		bls	.L4
 538:../../Drivers/STM32H7xx_HAL_Driver/Src/stm32h7xx_hal_flash.c ****         /* Clear FLASH End of Operation pending bit */
 125              		.loc 1 538 9 is_stmt 1 view .LVU27
 538:../../Drivers/STM32H7xx_HAL_Driver/Src/stm32h7xx_hal_flash.c ****         /* Clear FLASH End of Operation pending bit */
 126              		.loc 1 538 33 is_stmt 0 view .LVU28
 127 0030 704B     		ldr	r3, .L32+4
ARM GAS  C:\Users\gigig\AppData\Local\Temp\cc4Yyo3b.s 			page 17


 128 0032 0022     		movs	r2, #0
 129 0034 1A70     		strb	r2, [r3]
 540:../../Drivers/STM32H7xx_HAL_Driver/Src/stm32h7xx_hal_flash.c ****       }
 130              		.loc 1 540 9 is_stmt 1 view .LVU29
 131 0036 6E4B     		ldr	r3, .L32
 132 0038 4FF48032 		mov	r2, #65536
 133 003c 5A61     		str	r2, [r3, #20]
 134              	.LVL5:
 135              	.L4:
 547:../../Drivers/STM32H7xx_HAL_Driver/Src/stm32h7xx_hal_flash.c ****   {
 136              		.loc 1 547 3 view .LVU30
 547:../../Drivers/STM32H7xx_HAL_Driver/Src/stm32h7xx_hal_flash.c ****   {
 137              		.loc 1 547 6 is_stmt 0 view .LVU31
 138 003e 6C4B     		ldr	r3, .L32
 139 0040 D3F81031 		ldr	r3, [r3, #272]
 547:../../Drivers/STM32H7xx_HAL_Driver/Src/stm32h7xx_hal_flash.c ****   {
 140              		.loc 1 547 5 view .LVU32
 141 0044 13F4803F 		tst	r3, #65536
 142 0048 19D0     		beq	.L9
 549:../../Drivers/STM32H7xx_HAL_Driver/Src/stm32h7xx_hal_flash.c ****     {
 143              		.loc 1 549 5 is_stmt 1 view .LVU33
 549:../../Drivers/STM32H7xx_HAL_Driver/Src/stm32h7xx_hal_flash.c ****     {
 144              		.loc 1 549 14 is_stmt 0 view .LVU34
 145 004a 6A4B     		ldr	r3, .L32+4
 146 004c 1B78     		ldrb	r3, [r3]	@ zero_extendqisi2
 147 004e DBB2     		uxtb	r3, r3
 549:../../Drivers/STM32H7xx_HAL_Driver/Src/stm32h7xx_hal_flash.c ****     {
 148              		.loc 1 549 7 view .LVU35
 149 0050 042B     		cmp	r3, #4
 150 0052 59D0     		beq	.L27
 584:../../Drivers/STM32H7xx_HAL_Driver/Src/stm32h7xx_hal_flash.c **** 
 151              		.loc 1 584 7 is_stmt 1 view .LVU36
 584:../../Drivers/STM32H7xx_HAL_Driver/Src/stm32h7xx_hal_flash.c **** 
 152              		.loc 1 584 17 is_stmt 0 view .LVU37
 153 0054 674B     		ldr	r3, .L32+4
 154 0056 1C78     		ldrb	r4, [r3]	@ zero_extendqisi2
 155 0058 E4B2     		uxtb	r4, r4
 156              	.LVL6:
 586:../../Drivers/STM32H7xx_HAL_Driver/Src/stm32h7xx_hal_flash.c ****       {
 157              		.loc 1 586 7 is_stmt 1 view .LVU38
 586:../../Drivers/STM32H7xx_HAL_Driver/Src/stm32h7xx_hal_flash.c ****       {
 158              		.loc 1 586 9 is_stmt 0 view .LVU39
 159 005a 072C     		cmp	r4, #7
 160 005c 18BF     		it	ne
 161 005e 052C     		cmpne	r4, #5
 162 0060 79D0     		beq	.L28
 592:../../Drivers/STM32H7xx_HAL_Driver/Src/stm32h7xx_hal_flash.c ****       {
 163              		.loc 1 592 12 is_stmt 1 view .LVU40
 592:../../Drivers/STM32H7xx_HAL_Driver/Src/stm32h7xx_hal_flash.c ****       {
 164              		.loc 1 592 14 is_stmt 0 view .LVU41
 165 0062 062C     		cmp	r4, #6
 166 0064 7BD0     		beq	.L29
 167              	.L13:
 601:../../Drivers/STM32H7xx_HAL_Driver/Src/stm32h7xx_hal_flash.c **** 
 168              		.loc 1 601 7 is_stmt 1 view .LVU42
 603:../../Drivers/STM32H7xx_HAL_Driver/Src/stm32h7xx_hal_flash.c ****          (procedure != FLASH_PROC_MASSERASE_BANK1) && \
 169              		.loc 1 603 7 view .LVU43
ARM GAS  C:\Users\gigig\AppData\Local\Temp\cc4Yyo3b.s 			page 18


 604:../../Drivers/STM32H7xx_HAL_Driver/Src/stm32h7xx_hal_flash.c ****          (procedure != FLASH_PROC_PROGRAM_BANK1))
 170              		.loc 1 604 52 is_stmt 0 view .LVU44
 171 0066 013C     		subs	r4, r4, #1
 172              	.LVL7:
 604:../../Drivers/STM32H7xx_HAL_Driver/Src/stm32h7xx_hal_flash.c ****          (procedure != FLASH_PROC_PROGRAM_BANK1))
 173              		.loc 1 604 52 view .LVU45
 174 0068 E4B2     		uxtb	r4, r4
 175              	.LVL8:
 603:../../Drivers/STM32H7xx_HAL_Driver/Src/stm32h7xx_hal_flash.c ****          (procedure != FLASH_PROC_MASSERASE_BANK1) && \
 176              		.loc 1 603 9 view .LVU46
 177 006a 022C     		cmp	r4, #2
 178 006c 07D9     		bls	.L9
 607:../../Drivers/STM32H7xx_HAL_Driver/Src/stm32h7xx_hal_flash.c ****         /* Clear FLASH End of Operation pending bit */
 179              		.loc 1 607 9 is_stmt 1 view .LVU47
 607:../../Drivers/STM32H7xx_HAL_Driver/Src/stm32h7xx_hal_flash.c ****         /* Clear FLASH End of Operation pending bit */
 180              		.loc 1 607 33 is_stmt 0 view .LVU48
 181 006e 614B     		ldr	r3, .L32+4
 182 0070 0022     		movs	r2, #0
 183 0072 1A70     		strb	r2, [r3]
 609:../../Drivers/STM32H7xx_HAL_Driver/Src/stm32h7xx_hal_flash.c ****       }
 184              		.loc 1 609 9 is_stmt 1 view .LVU49
 185 0074 5E4B     		ldr	r3, .L32
 186 0076 4FF48032 		mov	r2, #65536
 187 007a C3F81421 		str	r2, [r3, #276]
 188              	.LVL9:
 189              	.L9:
 617:../../Drivers/STM32H7xx_HAL_Driver/Src/stm32h7xx_hal_flash.c ****                             FLASH_FLAG_INCERR_BANK1 | FLASH_FLAG_OPERR_BANK1);
 190              		.loc 1 617 3 view .LVU50
 617:../../Drivers/STM32H7xx_HAL_Driver/Src/stm32h7xx_hal_flash.c ****                             FLASH_FLAG_INCERR_BANK1 | FLASH_FLAG_OPERR_BANK1);
 191              		.loc 1 617 20 is_stmt 0 view .LVU51
 192 007e 5C4B     		ldr	r3, .L32
 193 0080 1B69     		ldr	r3, [r3, #16]
 194              	.LVL10:
 624:../../Drivers/STM32H7xx_HAL_Driver/Src/stm32h7xx_hal_flash.c ****   {
 195              		.loc 1 624 3 is_stmt 1 view .LVU52
 624:../../Drivers/STM32H7xx_HAL_Driver/Src/stm32h7xx_hal_flash.c ****   {
 196              		.loc 1 624 5 is_stmt 0 view .LVU53
 197 0082 13F4DC03 		ands	r3, r3, #7208960
 198              	.LVL11:
 624:../../Drivers/STM32H7xx_HAL_Driver/Src/stm32h7xx_hal_flash.c ****   {
 199              		.loc 1 624 5 view .LVU54
 200 0086 79D0     		beq	.L14
 627:../../Drivers/STM32H7xx_HAL_Driver/Src/stm32h7xx_hal_flash.c **** 
 201              		.loc 1 627 5 is_stmt 1 view .LVU55
 627:../../Drivers/STM32H7xx_HAL_Driver/Src/stm32h7xx_hal_flash.c **** 
 202              		.loc 1 627 11 is_stmt 0 view .LVU56
 203 0088 5A4A     		ldr	r2, .L32+4
 204 008a 9169     		ldr	r1, [r2, #24]
 627:../../Drivers/STM32H7xx_HAL_Driver/Src/stm32h7xx_hal_flash.c **** 
 205              		.loc 1 627 22 view .LVU57
 206 008c 1943     		orrs	r1, r1, r3
 207 008e 9161     		str	r1, [r2, #24]
 630:../../Drivers/STM32H7xx_HAL_Driver/Src/stm32h7xx_hal_flash.c **** 
 208              		.loc 1 630 5 is_stmt 1 view .LVU58
 209 0090 5749     		ldr	r1, .L32
 210 0092 4B61     		str	r3, [r1, #20]
 632:../../Drivers/STM32H7xx_HAL_Driver/Src/stm32h7xx_hal_flash.c **** 
ARM GAS  C:\Users\gigig\AppData\Local\Temp\cc4Yyo3b.s 			page 19


 211              		.loc 1 632 5 view .LVU59
 632:../../Drivers/STM32H7xx_HAL_Driver/Src/stm32h7xx_hal_flash.c **** 
 212              		.loc 1 632 15 is_stmt 0 view .LVU60
 213 0094 1378     		ldrb	r3, [r2]	@ zero_extendqisi2
 214              	.LVL12:
 632:../../Drivers/STM32H7xx_HAL_Driver/Src/stm32h7xx_hal_flash.c **** 
 215              		.loc 1 632 15 view .LVU61
 216 0096 DBB2     		uxtb	r3, r3
 217              	.LVL13:
 634:../../Drivers/STM32H7xx_HAL_Driver/Src/stm32h7xx_hal_flash.c ****     {
 218              		.loc 1 634 5 is_stmt 1 view .LVU62
 634:../../Drivers/STM32H7xx_HAL_Driver/Src/stm32h7xx_hal_flash.c ****     {
 219              		.loc 1 634 7 is_stmt 0 view .LVU63
 220 0098 012B     		cmp	r3, #1
 221 009a 65D0     		beq	.L30
 640:../../Drivers/STM32H7xx_HAL_Driver/Src/stm32h7xx_hal_flash.c ****     {
 222              		.loc 1 640 10 is_stmt 1 view .LVU64
 640:../../Drivers/STM32H7xx_HAL_Driver/Src/stm32h7xx_hal_flash.c ****     {
 223              		.loc 1 640 12 is_stmt 0 view .LVU65
 224 009c 072B     		cmp	r3, #7
 225 009e 18BF     		it	ne
 226 00a0 022B     		cmpne	r3, #2
 227 00a2 00F08580 		beq	.L21
 648:../../Drivers/STM32H7xx_HAL_Driver/Src/stm32h7xx_hal_flash.c ****     }
 228              		.loc 1 648 7 is_stmt 1 view .LVU66
 648:../../Drivers/STM32H7xx_HAL_Driver/Src/stm32h7xx_hal_flash.c ****     }
 229              		.loc 1 648 12 is_stmt 0 view .LVU67
 230 00a6 534B     		ldr	r3, .L32+4
 231              	.LVL14:
 648:../../Drivers/STM32H7xx_HAL_Driver/Src/stm32h7xx_hal_flash.c ****     }
 232              		.loc 1 648 12 view .LVU68
 233 00a8 1869     		ldr	r0, [r3, #16]
 234              	.LVL15:
 648:../../Drivers/STM32H7xx_HAL_Driver/Src/stm32h7xx_hal_flash.c ****     }
 235              		.loc 1 648 12 view .LVU69
 236 00aa 62E0     		b	.L16
 237              	.LVL16:
 238              	.L24:
 483:../../Drivers/STM32H7xx_HAL_Driver/Src/stm32h7xx_hal_flash.c **** 
 239              		.loc 1 483 7 is_stmt 1 view .LVU70
 483:../../Drivers/STM32H7xx_HAL_Driver/Src/stm32h7xx_hal_flash.c **** 
 240              		.loc 1 483 13 is_stmt 0 view .LVU71
 241 00ac 514B     		ldr	r3, .L32+4
 242 00ae 5A68     		ldr	r2, [r3, #4]
 483:../../Drivers/STM32H7xx_HAL_Driver/Src/stm32h7xx_hal_flash.c **** 
 243              		.loc 1 483 30 view .LVU72
 244 00b0 013A     		subs	r2, r2, #1
 245 00b2 5A60     		str	r2, [r3, #4]
 486:../../Drivers/STM32H7xx_HAL_Driver/Src/stm32h7xx_hal_flash.c ****       {
 246              		.loc 1 486 7 is_stmt 1 view .LVU73
 486:../../Drivers/STM32H7xx_HAL_Driver/Src/stm32h7xx_hal_flash.c ****       {
 247              		.loc 1 486 16 is_stmt 0 view .LVU74
 248 00b4 5B68     		ldr	r3, [r3, #4]
 486:../../Drivers/STM32H7xx_HAL_Driver/Src/stm32h7xx_hal_flash.c ****       {
 249              		.loc 1 486 9 view .LVU75
 250 00b6 83B1     		cbz	r3, .L6
 489:../../Drivers/STM32H7xx_HAL_Driver/Src/stm32h7xx_hal_flash.c **** 
ARM GAS  C:\Users\gigig\AppData\Local\Temp\cc4Yyo3b.s 			page 20


 251              		.loc 1 489 9 is_stmt 1 view .LVU76
 489:../../Drivers/STM32H7xx_HAL_Driver/Src/stm32h7xx_hal_flash.c **** 
 252              		.loc 1 489 48 is_stmt 0 view .LVU77
 253 00b8 4E4C     		ldr	r4, .L32+4
 254 00ba E068     		ldr	r0, [r4, #12]
 489:../../Drivers/STM32H7xx_HAL_Driver/Src/stm32h7xx_hal_flash.c **** 
 255              		.loc 1 489 9 view .LVU78
 256 00bc FFF7FEFF 		bl	HAL_FLASH_EndOfOperationCallback
 257              	.LVL17:
 492:../../Drivers/STM32H7xx_HAL_Driver/Src/stm32h7xx_hal_flash.c **** 
 258              		.loc 1 492 9 is_stmt 1 view .LVU79
 259 00c0 4B4B     		ldr	r3, .L32
 260 00c2 4FF48032 		mov	r2, #65536
 261 00c6 5A61     		str	r2, [r3, #20]
 495:../../Drivers/STM32H7xx_HAL_Driver/Src/stm32h7xx_hal_flash.c ****         temp = pFlash.Sector;
 262              		.loc 1 495 9 view .LVU80
 495:../../Drivers/STM32H7xx_HAL_Driver/Src/stm32h7xx_hal_flash.c ****         temp = pFlash.Sector;
 263              		.loc 1 495 15 is_stmt 0 view .LVU81
 264 00c8 E368     		ldr	r3, [r4, #12]
 495:../../Drivers/STM32H7xx_HAL_Driver/Src/stm32h7xx_hal_flash.c ****         temp = pFlash.Sector;
 265              		.loc 1 495 22 view .LVU82
 266 00ca 0133     		adds	r3, r3, #1
 267 00cc E360     		str	r3, [r4, #12]
 496:../../Drivers/STM32H7xx_HAL_Driver/Src/stm32h7xx_hal_flash.c ****         FLASH_Erase_Sector(temp, FLASH_BANK_1, pFlash.VoltageForErase);
 268              		.loc 1 496 9 is_stmt 1 view .LVU83
 496:../../Drivers/STM32H7xx_HAL_Driver/Src/stm32h7xx_hal_flash.c ****         FLASH_Erase_Sector(temp, FLASH_BANK_1, pFlash.VoltageForErase);
 269              		.loc 1 496 14 is_stmt 0 view .LVU84
 270 00ce E068     		ldr	r0, [r4, #12]
 271              	.LVL18:
 497:../../Drivers/STM32H7xx_HAL_Driver/Src/stm32h7xx_hal_flash.c ****       }
 272              		.loc 1 497 9 is_stmt 1 view .LVU85
 497:../../Drivers/STM32H7xx_HAL_Driver/Src/stm32h7xx_hal_flash.c ****       }
 273              		.loc 1 497 54 is_stmt 0 view .LVU86
 274 00d0 A268     		ldr	r2, [r4, #8]
 497:../../Drivers/STM32H7xx_HAL_Driver/Src/stm32h7xx_hal_flash.c ****       }
 275              		.loc 1 497 9 view .LVU87
 276 00d2 0121     		movs	r1, #1
 277 00d4 FFF7FEFF 		bl	FLASH_Erase_Sector
 278              	.LVL19:
 497:../../Drivers/STM32H7xx_HAL_Driver/Src/stm32h7xx_hal_flash.c ****       }
 279              		.loc 1 497 9 view .LVU88
 280 00d8 B1E7     		b	.L4
 281              	.LVL20:
 282              	.L6:
 503:../../Drivers/STM32H7xx_HAL_Driver/Src/stm32h7xx_hal_flash.c ****         pFlash.ProcedureOnGoing = FLASH_PROC_NONE;
 283              		.loc 1 503 9 is_stmt 1 view .LVU89
 503:../../Drivers/STM32H7xx_HAL_Driver/Src/stm32h7xx_hal_flash.c ****         pFlash.ProcedureOnGoing = FLASH_PROC_NONE;
 284              		.loc 1 503 23 is_stmt 0 view .LVU90
 285 00da 464B     		ldr	r3, .L32+4
 286 00dc 4FF0FF32 		mov	r2, #-1
 287 00e0 DA60     		str	r2, [r3, #12]
 504:../../Drivers/STM32H7xx_HAL_Driver/Src/stm32h7xx_hal_flash.c **** 
 288              		.loc 1 504 9 is_stmt 1 view .LVU91
 504:../../Drivers/STM32H7xx_HAL_Driver/Src/stm32h7xx_hal_flash.c **** 
 289              		.loc 1 504 33 is_stmt 0 view .LVU92
 290 00e2 0022     		movs	r2, #0
 291 00e4 1A70     		strb	r2, [r3]
ARM GAS  C:\Users\gigig\AppData\Local\Temp\cc4Yyo3b.s 			page 21


 507:../../Drivers/STM32H7xx_HAL_Driver/Src/stm32h7xx_hal_flash.c **** 
 292              		.loc 1 507 9 is_stmt 1 view .LVU93
 507:../../Drivers/STM32H7xx_HAL_Driver/Src/stm32h7xx_hal_flash.c **** 
 293              		.loc 1 507 48 is_stmt 0 view .LVU94
 294 00e6 D868     		ldr	r0, [r3, #12]
 507:../../Drivers/STM32H7xx_HAL_Driver/Src/stm32h7xx_hal_flash.c **** 
 295              		.loc 1 507 9 view .LVU95
 296 00e8 FFF7FEFF 		bl	HAL_FLASH_EndOfOperationCallback
 297              	.LVL21:
 510:../../Drivers/STM32H7xx_HAL_Driver/Src/stm32h7xx_hal_flash.c ****       }
 298              		.loc 1 510 9 is_stmt 1 view .LVU96
 299 00ec 404B     		ldr	r3, .L32
 300 00ee 4FF48032 		mov	r2, #65536
 301 00f2 5A61     		str	r2, [r3, #20]
 302 00f4 A3E7     		b	.L4
 303              	.LVL22:
 304              	.L25:
 521:../../Drivers/STM32H7xx_HAL_Driver/Src/stm32h7xx_hal_flash.c ****       }
 305              		.loc 1 521 9 view .LVU97
 306 00f6 0120     		movs	r0, #1
 307 00f8 FFF7FEFF 		bl	HAL_FLASH_EndOfOperationCallback
 308              	.LVL23:
 309 00fc 94E7     		b	.L8
 310              	.L26:
 527:../../Drivers/STM32H7xx_HAL_Driver/Src/stm32h7xx_hal_flash.c ****       }
 311              		.loc 1 527 9 view .LVU98
 527:../../Drivers/STM32H7xx_HAL_Driver/Src/stm32h7xx_hal_flash.c ****       }
 312              		.loc 1 527 48 is_stmt 0 view .LVU99
 313 00fe 3D4B     		ldr	r3, .L32+4
 314 0100 1869     		ldr	r0, [r3, #16]
 527:../../Drivers/STM32H7xx_HAL_Driver/Src/stm32h7xx_hal_flash.c ****       }
 315              		.loc 1 527 9 view .LVU100
 316 0102 FFF7FEFF 		bl	HAL_FLASH_EndOfOperationCallback
 317              	.LVL24:
 318 0106 8FE7     		b	.L8
 319              	.LVL25:
 320              	.L27:
 552:../../Drivers/STM32H7xx_HAL_Driver/Src/stm32h7xx_hal_flash.c **** 
 321              		.loc 1 552 7 is_stmt 1 view .LVU101
 552:../../Drivers/STM32H7xx_HAL_Driver/Src/stm32h7xx_hal_flash.c **** 
 322              		.loc 1 552 13 is_stmt 0 view .LVU102
 323 0108 3A4B     		ldr	r3, .L32+4
 324 010a 5A68     		ldr	r2, [r3, #4]
 552:../../Drivers/STM32H7xx_HAL_Driver/Src/stm32h7xx_hal_flash.c **** 
 325              		.loc 1 552 30 view .LVU103
 326 010c 013A     		subs	r2, r2, #1
 327 010e 5A60     		str	r2, [r3, #4]
 555:../../Drivers/STM32H7xx_HAL_Driver/Src/stm32h7xx_hal_flash.c ****       {
 328              		.loc 1 555 7 is_stmt 1 view .LVU104
 555:../../Drivers/STM32H7xx_HAL_Driver/Src/stm32h7xx_hal_flash.c ****       {
 329              		.loc 1 555 16 is_stmt 0 view .LVU105
 330 0110 5B68     		ldr	r3, [r3, #4]
 555:../../Drivers/STM32H7xx_HAL_Driver/Src/stm32h7xx_hal_flash.c ****       {
 331              		.loc 1 555 9 view .LVU106
 332 0112 8BB1     		cbz	r3, .L11
 558:../../Drivers/STM32H7xx_HAL_Driver/Src/stm32h7xx_hal_flash.c **** 
 333              		.loc 1 558 9 is_stmt 1 view .LVU107
ARM GAS  C:\Users\gigig\AppData\Local\Temp\cc4Yyo3b.s 			page 22


 558:../../Drivers/STM32H7xx_HAL_Driver/Src/stm32h7xx_hal_flash.c **** 
 334              		.loc 1 558 48 is_stmt 0 view .LVU108
 335 0114 374C     		ldr	r4, .L32+4
 336 0116 E068     		ldr	r0, [r4, #12]
 558:../../Drivers/STM32H7xx_HAL_Driver/Src/stm32h7xx_hal_flash.c **** 
 337              		.loc 1 558 9 view .LVU109
 338 0118 FFF7FEFF 		bl	HAL_FLASH_EndOfOperationCallback
 339              	.LVL26:
 561:../../Drivers/STM32H7xx_HAL_Driver/Src/stm32h7xx_hal_flash.c **** 
 340              		.loc 1 561 9 is_stmt 1 view .LVU110
 341 011c 344B     		ldr	r3, .L32
 342 011e 4FF48032 		mov	r2, #65536
 343 0122 C3F81421 		str	r2, [r3, #276]
 564:../../Drivers/STM32H7xx_HAL_Driver/Src/stm32h7xx_hal_flash.c ****         temp = pFlash.Sector;
 344              		.loc 1 564 9 view .LVU111
 564:../../Drivers/STM32H7xx_HAL_Driver/Src/stm32h7xx_hal_flash.c ****         temp = pFlash.Sector;
 345              		.loc 1 564 15 is_stmt 0 view .LVU112
 346 0126 E368     		ldr	r3, [r4, #12]
 564:../../Drivers/STM32H7xx_HAL_Driver/Src/stm32h7xx_hal_flash.c ****         temp = pFlash.Sector;
 347              		.loc 1 564 22 view .LVU113
 348 0128 0133     		adds	r3, r3, #1
 349 012a E360     		str	r3, [r4, #12]
 565:../../Drivers/STM32H7xx_HAL_Driver/Src/stm32h7xx_hal_flash.c ****         FLASH_Erase_Sector(temp, FLASH_BANK_2, pFlash.VoltageForErase);
 350              		.loc 1 565 9 is_stmt 1 view .LVU114
 565:../../Drivers/STM32H7xx_HAL_Driver/Src/stm32h7xx_hal_flash.c ****         FLASH_Erase_Sector(temp, FLASH_BANK_2, pFlash.VoltageForErase);
 351              		.loc 1 565 14 is_stmt 0 view .LVU115
 352 012c E068     		ldr	r0, [r4, #12]
 353              	.LVL27:
 566:../../Drivers/STM32H7xx_HAL_Driver/Src/stm32h7xx_hal_flash.c ****       }
 354              		.loc 1 566 9 is_stmt 1 view .LVU116
 566:../../Drivers/STM32H7xx_HAL_Driver/Src/stm32h7xx_hal_flash.c ****       }
 355              		.loc 1 566 54 is_stmt 0 view .LVU117
 356 012e A268     		ldr	r2, [r4, #8]
 566:../../Drivers/STM32H7xx_HAL_Driver/Src/stm32h7xx_hal_flash.c ****       }
 357              		.loc 1 566 9 view .LVU118
 358 0130 0221     		movs	r1, #2
 359 0132 FFF7FEFF 		bl	FLASH_Erase_Sector
 360              	.LVL28:
 566:../../Drivers/STM32H7xx_HAL_Driver/Src/stm32h7xx_hal_flash.c ****       }
 361              		.loc 1 566 9 view .LVU119
 362 0136 A2E7     		b	.L9
 363              	.LVL29:
 364              	.L11:
 572:../../Drivers/STM32H7xx_HAL_Driver/Src/stm32h7xx_hal_flash.c ****         pFlash.ProcedureOnGoing = FLASH_PROC_NONE;
 365              		.loc 1 572 9 is_stmt 1 view .LVU120
 572:../../Drivers/STM32H7xx_HAL_Driver/Src/stm32h7xx_hal_flash.c ****         pFlash.ProcedureOnGoing = FLASH_PROC_NONE;
 366              		.loc 1 572 23 is_stmt 0 view .LVU121
 367 0138 2E4B     		ldr	r3, .L32+4
 368 013a 4FF0FF32 		mov	r2, #-1
 369 013e DA60     		str	r2, [r3, #12]
 573:../../Drivers/STM32H7xx_HAL_Driver/Src/stm32h7xx_hal_flash.c **** 
 370              		.loc 1 573 9 is_stmt 1 view .LVU122
 573:../../Drivers/STM32H7xx_HAL_Driver/Src/stm32h7xx_hal_flash.c **** 
 371              		.loc 1 573 33 is_stmt 0 view .LVU123
 372 0140 0022     		movs	r2, #0
 373 0142 1A70     		strb	r2, [r3]
 576:../../Drivers/STM32H7xx_HAL_Driver/Src/stm32h7xx_hal_flash.c **** 
ARM GAS  C:\Users\gigig\AppData\Local\Temp\cc4Yyo3b.s 			page 23


 374              		.loc 1 576 9 is_stmt 1 view .LVU124
 576:../../Drivers/STM32H7xx_HAL_Driver/Src/stm32h7xx_hal_flash.c **** 
 375              		.loc 1 576 48 is_stmt 0 view .LVU125
 376 0144 D868     		ldr	r0, [r3, #12]
 576:../../Drivers/STM32H7xx_HAL_Driver/Src/stm32h7xx_hal_flash.c **** 
 377              		.loc 1 576 9 view .LVU126
 378 0146 FFF7FEFF 		bl	HAL_FLASH_EndOfOperationCallback
 379              	.LVL30:
 579:../../Drivers/STM32H7xx_HAL_Driver/Src/stm32h7xx_hal_flash.c ****       }
 380              		.loc 1 579 9 is_stmt 1 view .LVU127
 381 014a 294B     		ldr	r3, .L32
 382 014c 4FF48032 		mov	r2, #65536
 383 0150 C3F81421 		str	r2, [r3, #276]
 384 0154 93E7     		b	.L9
 385              	.LVL31:
 386              	.L28:
 590:../../Drivers/STM32H7xx_HAL_Driver/Src/stm32h7xx_hal_flash.c ****       }
 387              		.loc 1 590 9 view .LVU128
 388 0156 0220     		movs	r0, #2
 389 0158 FFF7FEFF 		bl	HAL_FLASH_EndOfOperationCallback
 390              	.LVL32:
 391 015c 83E7     		b	.L13
 392              	.L29:
 596:../../Drivers/STM32H7xx_HAL_Driver/Src/stm32h7xx_hal_flash.c ****       }
 393              		.loc 1 596 9 view .LVU129
 596:../../Drivers/STM32H7xx_HAL_Driver/Src/stm32h7xx_hal_flash.c ****       }
 394              		.loc 1 596 48 is_stmt 0 view .LVU130
 395 015e 254B     		ldr	r3, .L32+4
 396 0160 1869     		ldr	r0, [r3, #16]
 596:../../Drivers/STM32H7xx_HAL_Driver/Src/stm32h7xx_hal_flash.c ****       }
 397              		.loc 1 596 9 view .LVU131
 398 0162 FFF7FEFF 		bl	HAL_FLASH_EndOfOperationCallback
 399              	.LVL33:
 400 0166 7EE7     		b	.L13
 401              	.LVL34:
 402              	.L30:
 637:../../Drivers/STM32H7xx_HAL_Driver/Src/stm32h7xx_hal_flash.c ****       pFlash.Sector = 0xFFFFFFFFU;
 403              		.loc 1 637 7 is_stmt 1 view .LVU132
 637:../../Drivers/STM32H7xx_HAL_Driver/Src/stm32h7xx_hal_flash.c ****       pFlash.Sector = 0xFFFFFFFFU;
 404              		.loc 1 637 12 is_stmt 0 view .LVU133
 405 0168 1346     		mov	r3, r2
 406              	.LVL35:
 637:../../Drivers/STM32H7xx_HAL_Driver/Src/stm32h7xx_hal_flash.c ****       pFlash.Sector = 0xFFFFFFFFU;
 407              		.loc 1 637 12 view .LVU134
 408 016a D068     		ldr	r0, [r2, #12]
 409              	.LVL36:
 638:../../Drivers/STM32H7xx_HAL_Driver/Src/stm32h7xx_hal_flash.c ****     }
 410              		.loc 1 638 7 is_stmt 1 view .LVU135
 638:../../Drivers/STM32H7xx_HAL_Driver/Src/stm32h7xx_hal_flash.c ****     }
 411              		.loc 1 638 21 is_stmt 0 view .LVU136
 412 016c 4FF0FF32 		mov	r2, #-1
 638:../../Drivers/STM32H7xx_HAL_Driver/Src/stm32h7xx_hal_flash.c ****     }
 413              		.loc 1 638 21 view .LVU137
 414 0170 DA60     		str	r2, [r3, #12]
 415              	.LVL37:
 416              	.L16:
 652:../../Drivers/STM32H7xx_HAL_Driver/Src/stm32h7xx_hal_flash.c **** 
ARM GAS  C:\Users\gigig\AppData\Local\Temp\cc4Yyo3b.s 			page 24


 417              		.loc 1 652 5 is_stmt 1 view .LVU138
 652:../../Drivers/STM32H7xx_HAL_Driver/Src/stm32h7xx_hal_flash.c **** 
 418              		.loc 1 652 29 is_stmt 0 view .LVU139
 419 0172 204B     		ldr	r3, .L32+4
 652:../../Drivers/STM32H7xx_HAL_Driver/Src/stm32h7xx_hal_flash.c **** 
 420              		.loc 1 652 29 view .LVU140
 421 0174 0022     		movs	r2, #0
 422 0176 1A70     		strb	r2, [r3]
 423              	.LVL38:
 655:../../Drivers/STM32H7xx_HAL_Driver/Src/stm32h7xx_hal_flash.c ****   }
 424              		.loc 1 655 5 is_stmt 1 view .LVU141
 425 0178 FFF7FEFF 		bl	HAL_FLASH_OperationErrorCallback
 426              	.LVL39:
 427              	.L14:
 661:../../Drivers/STM32H7xx_HAL_Driver/Src/stm32h7xx_hal_flash.c ****                              FLASH_FLAG_INCERR_BANK2 | FLASH_FLAG_OPERR_BANK2) & 0x7FFFFFFFU);
 428              		.loc 1 661 3 view .LVU142
 661:../../Drivers/STM32H7xx_HAL_Driver/Src/stm32h7xx_hal_flash.c ****                              FLASH_FLAG_INCERR_BANK2 | FLASH_FLAG_OPERR_BANK2) & 0x7FFFFFFFU);
 429              		.loc 1 661 20 is_stmt 0 view .LVU143
 430 017c 1C4B     		ldr	r3, .L32
 431 017e D3F81031 		ldr	r3, [r3, #272]
 432              	.LVL40:
 668:../../Drivers/STM32H7xx_HAL_Driver/Src/stm32h7xx_hal_flash.c ****   {
 433              		.loc 1 668 3 is_stmt 1 view .LVU144
 668:../../Drivers/STM32H7xx_HAL_Driver/Src/stm32h7xx_hal_flash.c ****   {
 434              		.loc 1 668 5 is_stmt 0 view .LVU145
 435 0182 13F4DC03 		ands	r3, r3, #7208960
 436              	.LVL41:
 668:../../Drivers/STM32H7xx_HAL_Driver/Src/stm32h7xx_hal_flash.c ****   {
 437              		.loc 1 668 5 view .LVU146
 438 0186 1ED0     		beq	.L17
 671:../../Drivers/STM32H7xx_HAL_Driver/Src/stm32h7xx_hal_flash.c **** 
 439              		.loc 1 671 5 is_stmt 1 view .LVU147
 671:../../Drivers/STM32H7xx_HAL_Driver/Src/stm32h7xx_hal_flash.c **** 
 440              		.loc 1 671 11 is_stmt 0 view .LVU148
 441 0188 1A49     		ldr	r1, .L32+4
 442 018a 8A69     		ldr	r2, [r1, #24]
 671:../../Drivers/STM32H7xx_HAL_Driver/Src/stm32h7xx_hal_flash.c **** 
 443              		.loc 1 671 22 view .LVU149
 444 018c 1A43     		orrs	r2, r2, r3
 445 018e 42F00042 		orr	r2, r2, #-2147483648
 446 0192 8A61     		str	r2, [r1, #24]
 674:../../Drivers/STM32H7xx_HAL_Driver/Src/stm32h7xx_hal_flash.c **** 
 447              		.loc 1 674 5 is_stmt 1 view .LVU150
 448 0194 164A     		ldr	r2, .L32
 449 0196 C2F81431 		str	r3, [r2, #276]
 676:../../Drivers/STM32H7xx_HAL_Driver/Src/stm32h7xx_hal_flash.c **** 
 450              		.loc 1 676 5 view .LVU151
 676:../../Drivers/STM32H7xx_HAL_Driver/Src/stm32h7xx_hal_flash.c **** 
 451              		.loc 1 676 15 is_stmt 0 view .LVU152
 452 019a 0B78     		ldrb	r3, [r1]	@ zero_extendqisi2
 453              	.LVL42:
 676:../../Drivers/STM32H7xx_HAL_Driver/Src/stm32h7xx_hal_flash.c **** 
 454              		.loc 1 676 15 view .LVU153
 455 019c DBB2     		uxtb	r3, r3
 456              	.LVL43:
 678:../../Drivers/STM32H7xx_HAL_Driver/Src/stm32h7xx_hal_flash.c ****     {
 457              		.loc 1 678 5 is_stmt 1 view .LVU154
ARM GAS  C:\Users\gigig\AppData\Local\Temp\cc4Yyo3b.s 			page 25


 678:../../Drivers/STM32H7xx_HAL_Driver/Src/stm32h7xx_hal_flash.c ****     {
 458              		.loc 1 678 7 is_stmt 0 view .LVU155
 459 019e 042B     		cmp	r3, #4
 460 01a0 08D0     		beq	.L31
 684:../../Drivers/STM32H7xx_HAL_Driver/Src/stm32h7xx_hal_flash.c ****     {
 461              		.loc 1 684 10 is_stmt 1 view .LVU156
 684:../../Drivers/STM32H7xx_HAL_Driver/Src/stm32h7xx_hal_flash.c ****     {
 462              		.loc 1 684 12 is_stmt 0 view .LVU157
 463 01a2 072B     		cmp	r3, #7
 464 01a4 18BF     		it	ne
 465 01a6 052B     		cmpne	r3, #5
 466 01a8 1FD0     		beq	.L22
 692:../../Drivers/STM32H7xx_HAL_Driver/Src/stm32h7xx_hal_flash.c ****     }
 467              		.loc 1 692 7 is_stmt 1 view .LVU158
 692:../../Drivers/STM32H7xx_HAL_Driver/Src/stm32h7xx_hal_flash.c ****     }
 468              		.loc 1 692 12 is_stmt 0 view .LVU159
 469 01aa 124B     		ldr	r3, .L32+4
 470              	.LVL44:
 692:../../Drivers/STM32H7xx_HAL_Driver/Src/stm32h7xx_hal_flash.c ****     }
 471              		.loc 1 692 12 view .LVU160
 472 01ac 1869     		ldr	r0, [r3, #16]
 473              	.LVL45:
 692:../../Drivers/STM32H7xx_HAL_Driver/Src/stm32h7xx_hal_flash.c ****     }
 474              		.loc 1 692 12 view .LVU161
 475 01ae 05E0     		b	.L19
 476              	.LVL46:
 477              	.L21:
 643:../../Drivers/STM32H7xx_HAL_Driver/Src/stm32h7xx_hal_flash.c ****     }
 478              		.loc 1 643 12 view .LVU162
 479 01b0 0120     		movs	r0, #1
 480 01b2 DEE7     		b	.L16
 481              	.LVL47:
 482              	.L31:
 681:../../Drivers/STM32H7xx_HAL_Driver/Src/stm32h7xx_hal_flash.c ****       pFlash.Sector = 0xFFFFFFFFU;
 483              		.loc 1 681 7 is_stmt 1 view .LVU163
 681:../../Drivers/STM32H7xx_HAL_Driver/Src/stm32h7xx_hal_flash.c ****       pFlash.Sector = 0xFFFFFFFFU;
 484              		.loc 1 681 12 is_stmt 0 view .LVU164
 485 01b4 C868     		ldr	r0, [r1, #12]
 486              	.LVL48:
 682:../../Drivers/STM32H7xx_HAL_Driver/Src/stm32h7xx_hal_flash.c ****     }
 487              		.loc 1 682 7 is_stmt 1 view .LVU165
 682:../../Drivers/STM32H7xx_HAL_Driver/Src/stm32h7xx_hal_flash.c ****     }
 488              		.loc 1 682 21 is_stmt 0 view .LVU166
 489 01b6 4FF0FF32 		mov	r2, #-1
 490              	.LVL49:
 682:../../Drivers/STM32H7xx_HAL_Driver/Src/stm32h7xx_hal_flash.c ****     }
 491              		.loc 1 682 21 view .LVU167
 492 01ba CA60     		str	r2, [r1, #12]
 493              	.LVL50:
 494              	.L19:
 696:../../Drivers/STM32H7xx_HAL_Driver/Src/stm32h7xx_hal_flash.c **** 
 495              		.loc 1 696 5 is_stmt 1 view .LVU168
 696:../../Drivers/STM32H7xx_HAL_Driver/Src/stm32h7xx_hal_flash.c **** 
 496              		.loc 1 696 29 is_stmt 0 view .LVU169
 497 01bc 0D4B     		ldr	r3, .L32+4
 498 01be 0022     		movs	r2, #0
 499 01c0 1A70     		strb	r2, [r3]
ARM GAS  C:\Users\gigig\AppData\Local\Temp\cc4Yyo3b.s 			page 26


 500              	.LVL51:
 699:../../Drivers/STM32H7xx_HAL_Driver/Src/stm32h7xx_hal_flash.c ****   }
 501              		.loc 1 699 5 is_stmt 1 view .LVU170
 502 01c2 FFF7FEFF 		bl	HAL_FLASH_OperationErrorCallback
 503              	.LVL52:
 504              	.L17:
 703:../../Drivers/STM32H7xx_HAL_Driver/Src/stm32h7xx_hal_flash.c ****   {
 505              		.loc 1 703 3 view .LVU171
 703:../../Drivers/STM32H7xx_HAL_Driver/Src/stm32h7xx_hal_flash.c ****   {
 506              		.loc 1 703 12 is_stmt 0 view .LVU172
 507 01c6 0B4B     		ldr	r3, .L32+4
 508 01c8 1B78     		ldrb	r3, [r3]	@ zero_extendqisi2
 703:../../Drivers/STM32H7xx_HAL_Driver/Src/stm32h7xx_hal_flash.c ****   {
 509              		.loc 1 703 5 view .LVU173
 510 01ca 6BB9     		cbnz	r3, .L3
 707:../../Drivers/STM32H7xx_HAL_Driver/Src/stm32h7xx_hal_flash.c ****                                  FLASH_IT_STRBERR_BANK1 | FLASH_IT_INCERR_BANK1 | FLASH_IT_OPERR_BA
 511              		.loc 1 707 5 is_stmt 1 view .LVU174
 512 01cc 084B     		ldr	r3, .L32
 513 01ce DA68     		ldr	r2, [r3, #12]
 514 01d0 22F4DE02 		bic	r2, r2, #7274496
 515 01d4 DA60     		str	r2, [r3, #12]
 712:../../Drivers/STM32H7xx_HAL_Driver/Src/stm32h7xx_hal_flash.c ****                                  FLASH_IT_STRBERR_BANK2 | FLASH_IT_INCERR_BANK2 | FLASH_IT_OPERR_BA
 516              		.loc 1 712 5 view .LVU175
 517 01d6 D3F80C21 		ldr	r2, [r3, #268]
 518 01da 22F4DE02 		bic	r2, r2, #7274496
 519 01de C3F80C21 		str	r2, [r3, #268]
 728:../../Drivers/STM32H7xx_HAL_Driver/Src/stm32h7xx_hal_flash.c ****   }
 520              		.loc 1 728 5 view .LVU176
 728:../../Drivers/STM32H7xx_HAL_Driver/Src/stm32h7xx_hal_flash.c ****   }
 521              		.loc 1 728 5 view .LVU177
 522 01e2 044B     		ldr	r3, .L32+4
 523 01e4 0022     		movs	r2, #0
 524 01e6 1A75     		strb	r2, [r3, #20]
 728:../../Drivers/STM32H7xx_HAL_Driver/Src/stm32h7xx_hal_flash.c ****   }
 525              		.loc 1 728 5 view .LVU178
 526              	.L3:
 730:../../Drivers/STM32H7xx_HAL_Driver/Src/stm32h7xx_hal_flash.c **** 
 527              		.loc 1 730 1 is_stmt 0 view .LVU179
 528 01e8 10BD     		pop	{r4, pc}
 529              	.LVL53:
 530              	.L22:
 687:../../Drivers/STM32H7xx_HAL_Driver/Src/stm32h7xx_hal_flash.c ****     }
 531              		.loc 1 687 12 view .LVU180
 532 01ea 0220     		movs	r0, #2
 533 01ec E6E7     		b	.L19
 534              	.L33:
 535 01ee 00BF     		.align	2
 536              	.L32:
 537 01f0 00200052 		.word	1375739904
 538 01f4 00000000 		.word	pFlash
 539              		.cfi_endproc
 540              	.LFE146:
 542              		.section	.text.HAL_FLASH_Unlock,"ax",%progbits
 543              		.align	1
 544              		.global	HAL_FLASH_Unlock
 545              		.syntax unified
 546              		.thumb
ARM GAS  C:\Users\gigig\AppData\Local\Temp\cc4Yyo3b.s 			page 27


 547              		.thumb_func
 549              	HAL_FLASH_Unlock:
 550              	.LFB149:
 768:../../Drivers/STM32H7xx_HAL_Driver/Src/stm32h7xx_hal_flash.c **** 
 769:../../Drivers/STM32H7xx_HAL_Driver/Src/stm32h7xx_hal_flash.c **** /**
 770:../../Drivers/STM32H7xx_HAL_Driver/Src/stm32h7xx_hal_flash.c ****   * @}
 771:../../Drivers/STM32H7xx_HAL_Driver/Src/stm32h7xx_hal_flash.c ****   */
 772:../../Drivers/STM32H7xx_HAL_Driver/Src/stm32h7xx_hal_flash.c **** 
 773:../../Drivers/STM32H7xx_HAL_Driver/Src/stm32h7xx_hal_flash.c **** /** @defgroup FLASH_Exported_Functions_Group2 Peripheral Control functions
 774:../../Drivers/STM32H7xx_HAL_Driver/Src/stm32h7xx_hal_flash.c ****  *  @brief   Management functions
 775:../../Drivers/STM32H7xx_HAL_Driver/Src/stm32h7xx_hal_flash.c ****  *
 776:../../Drivers/STM32H7xx_HAL_Driver/Src/stm32h7xx_hal_flash.c **** @verbatim
 777:../../Drivers/STM32H7xx_HAL_Driver/Src/stm32h7xx_hal_flash.c ****  ===============================================================================
 778:../../Drivers/STM32H7xx_HAL_Driver/Src/stm32h7xx_hal_flash.c ****                       ##### Peripheral Control functions #####
 779:../../Drivers/STM32H7xx_HAL_Driver/Src/stm32h7xx_hal_flash.c ****  ===============================================================================
 780:../../Drivers/STM32H7xx_HAL_Driver/Src/stm32h7xx_hal_flash.c ****     [..]
 781:../../Drivers/STM32H7xx_HAL_Driver/Src/stm32h7xx_hal_flash.c ****     This subsection provides a set of functions allowing to control the FLASH
 782:../../Drivers/STM32H7xx_HAL_Driver/Src/stm32h7xx_hal_flash.c ****     memory operations.
 783:../../Drivers/STM32H7xx_HAL_Driver/Src/stm32h7xx_hal_flash.c **** 
 784:../../Drivers/STM32H7xx_HAL_Driver/Src/stm32h7xx_hal_flash.c **** @endverbatim
 785:../../Drivers/STM32H7xx_HAL_Driver/Src/stm32h7xx_hal_flash.c ****   * @{
 786:../../Drivers/STM32H7xx_HAL_Driver/Src/stm32h7xx_hal_flash.c ****   */
 787:../../Drivers/STM32H7xx_HAL_Driver/Src/stm32h7xx_hal_flash.c **** 
 788:../../Drivers/STM32H7xx_HAL_Driver/Src/stm32h7xx_hal_flash.c **** /**
 789:../../Drivers/STM32H7xx_HAL_Driver/Src/stm32h7xx_hal_flash.c ****   * @brief  Unlock the FLASH control registers access
 790:../../Drivers/STM32H7xx_HAL_Driver/Src/stm32h7xx_hal_flash.c ****   * @retval HAL Status
 791:../../Drivers/STM32H7xx_HAL_Driver/Src/stm32h7xx_hal_flash.c ****   */
 792:../../Drivers/STM32H7xx_HAL_Driver/Src/stm32h7xx_hal_flash.c **** HAL_StatusTypeDef HAL_FLASH_Unlock(void)
 793:../../Drivers/STM32H7xx_HAL_Driver/Src/stm32h7xx_hal_flash.c **** {
 551              		.loc 1 793 1 is_stmt 1 view -0
 552              		.cfi_startproc
 553              		@ args = 0, pretend = 0, frame = 0
 554              		@ frame_needed = 0, uses_anonymous_args = 0
 555              		@ link register save eliminated.
 794:../../Drivers/STM32H7xx_HAL_Driver/Src/stm32h7xx_hal_flash.c ****   if(READ_BIT(FLASH->CR1, FLASH_CR_LOCK) != 0U)
 556              		.loc 1 794 3 view .LVU182
 557              		.loc 1 794 6 is_stmt 0 view .LVU183
 558 0000 144B     		ldr	r3, .L40
 559 0002 DB68     		ldr	r3, [r3, #12]
 560              		.loc 1 794 5 view .LVU184
 561 0004 13F0010F 		tst	r3, #1
 562 0008 09D0     		beq	.L35
 795:../../Drivers/STM32H7xx_HAL_Driver/Src/stm32h7xx_hal_flash.c ****   {
 796:../../Drivers/STM32H7xx_HAL_Driver/Src/stm32h7xx_hal_flash.c ****     /* Authorize the FLASH Bank1 Registers access */
 797:../../Drivers/STM32H7xx_HAL_Driver/Src/stm32h7xx_hal_flash.c ****     WRITE_REG(FLASH->KEYR1, FLASH_KEY1);
 563              		.loc 1 797 5 is_stmt 1 view .LVU185
 564 000a 124B     		ldr	r3, .L40
 565 000c 124A     		ldr	r2, .L40+4
 566 000e 5A60     		str	r2, [r3, #4]
 798:../../Drivers/STM32H7xx_HAL_Driver/Src/stm32h7xx_hal_flash.c ****     WRITE_REG(FLASH->KEYR1, FLASH_KEY2);
 567              		.loc 1 798 5 view .LVU186
 568 0010 02F18832 		add	r2, r2, #-2004318072
 569 0014 5A60     		str	r2, [r3, #4]
 799:../../Drivers/STM32H7xx_HAL_Driver/Src/stm32h7xx_hal_flash.c **** 
 800:../../Drivers/STM32H7xx_HAL_Driver/Src/stm32h7xx_hal_flash.c ****     /* Verify Flash Bank1 is unlocked */
 801:../../Drivers/STM32H7xx_HAL_Driver/Src/stm32h7xx_hal_flash.c ****     if (READ_BIT(FLASH->CR1, FLASH_CR_LOCK) != 0U)
 570              		.loc 1 801 5 view .LVU187
ARM GAS  C:\Users\gigig\AppData\Local\Temp\cc4Yyo3b.s 			page 28


 571              		.loc 1 801 9 is_stmt 0 view .LVU188
 572 0016 DB68     		ldr	r3, [r3, #12]
 573              		.loc 1 801 8 view .LVU189
 574 0018 13F0010F 		tst	r3, #1
 575 001c 14D1     		bne	.L37
 576              	.L35:
 802:../../Drivers/STM32H7xx_HAL_Driver/Src/stm32h7xx_hal_flash.c ****     {
 803:../../Drivers/STM32H7xx_HAL_Driver/Src/stm32h7xx_hal_flash.c ****       return HAL_ERROR;
 804:../../Drivers/STM32H7xx_HAL_Driver/Src/stm32h7xx_hal_flash.c ****     }
 805:../../Drivers/STM32H7xx_HAL_Driver/Src/stm32h7xx_hal_flash.c ****   }
 806:../../Drivers/STM32H7xx_HAL_Driver/Src/stm32h7xx_hal_flash.c **** 
 807:../../Drivers/STM32H7xx_HAL_Driver/Src/stm32h7xx_hal_flash.c **** #if defined (DUAL_BANK)
 808:../../Drivers/STM32H7xx_HAL_Driver/Src/stm32h7xx_hal_flash.c ****   if(READ_BIT(FLASH->CR2, FLASH_CR_LOCK) != 0U)
 577              		.loc 1 808 3 is_stmt 1 view .LVU190
 578              		.loc 1 808 6 is_stmt 0 view .LVU191
 579 001e 0D4B     		ldr	r3, .L40
 580 0020 D3F80C31 		ldr	r3, [r3, #268]
 581              		.loc 1 808 5 view .LVU192
 582 0024 13F0010F 		tst	r3, #1
 583 0028 10D0     		beq	.L38
 809:../../Drivers/STM32H7xx_HAL_Driver/Src/stm32h7xx_hal_flash.c ****   {
 810:../../Drivers/STM32H7xx_HAL_Driver/Src/stm32h7xx_hal_flash.c ****     /* Authorize the FLASH Bank2 Registers access */
 811:../../Drivers/STM32H7xx_HAL_Driver/Src/stm32h7xx_hal_flash.c ****     WRITE_REG(FLASH->KEYR2, FLASH_KEY1);
 584              		.loc 1 811 5 is_stmt 1 view .LVU193
 585 002a 0A4B     		ldr	r3, .L40
 586 002c 0A4A     		ldr	r2, .L40+4
 587 002e C3F80421 		str	r2, [r3, #260]
 812:../../Drivers/STM32H7xx_HAL_Driver/Src/stm32h7xx_hal_flash.c ****     WRITE_REG(FLASH->KEYR2, FLASH_KEY2);
 588              		.loc 1 812 5 view .LVU194
 589 0032 02F18832 		add	r2, r2, #-2004318072
 590 0036 C3F80421 		str	r2, [r3, #260]
 813:../../Drivers/STM32H7xx_HAL_Driver/Src/stm32h7xx_hal_flash.c **** 
 814:../../Drivers/STM32H7xx_HAL_Driver/Src/stm32h7xx_hal_flash.c ****     /* Verify Flash Bank2 is unlocked */
 815:../../Drivers/STM32H7xx_HAL_Driver/Src/stm32h7xx_hal_flash.c ****     if (READ_BIT(FLASH->CR2, FLASH_CR_LOCK) != 0U)
 591              		.loc 1 815 5 view .LVU195
 592              		.loc 1 815 9 is_stmt 0 view .LVU196
 593 003a D3F80C31 		ldr	r3, [r3, #268]
 594              		.loc 1 815 8 view .LVU197
 595 003e 13F0010F 		tst	r3, #1
 596 0042 05D1     		bne	.L39
 816:../../Drivers/STM32H7xx_HAL_Driver/Src/stm32h7xx_hal_flash.c ****     {
 817:../../Drivers/STM32H7xx_HAL_Driver/Src/stm32h7xx_hal_flash.c ****       return HAL_ERROR;
 818:../../Drivers/STM32H7xx_HAL_Driver/Src/stm32h7xx_hal_flash.c ****     }
 819:../../Drivers/STM32H7xx_HAL_Driver/Src/stm32h7xx_hal_flash.c ****   }
 820:../../Drivers/STM32H7xx_HAL_Driver/Src/stm32h7xx_hal_flash.c **** #endif /* DUAL_BANK */
 821:../../Drivers/STM32H7xx_HAL_Driver/Src/stm32h7xx_hal_flash.c **** 
 822:../../Drivers/STM32H7xx_HAL_Driver/Src/stm32h7xx_hal_flash.c ****   return HAL_OK;
 597              		.loc 1 822 10 view .LVU198
 598 0044 0020     		movs	r0, #0
 599 0046 7047     		bx	lr
 600              	.L37:
 803:../../Drivers/STM32H7xx_HAL_Driver/Src/stm32h7xx_hal_flash.c ****     }
 601              		.loc 1 803 14 view .LVU199
 602 0048 0120     		movs	r0, #1
 603 004a 7047     		bx	lr
 604              	.L38:
 605              		.loc 1 822 10 view .LVU200
ARM GAS  C:\Users\gigig\AppData\Local\Temp\cc4Yyo3b.s 			page 29


 606 004c 0020     		movs	r0, #0
 607 004e 7047     		bx	lr
 608              	.L39:
 817:../../Drivers/STM32H7xx_HAL_Driver/Src/stm32h7xx_hal_flash.c ****     }
 609              		.loc 1 817 14 view .LVU201
 610 0050 0120     		movs	r0, #1
 823:../../Drivers/STM32H7xx_HAL_Driver/Src/stm32h7xx_hal_flash.c **** }
 611              		.loc 1 823 1 view .LVU202
 612 0052 7047     		bx	lr
 613              	.L41:
 614              		.align	2
 615              	.L40:
 616 0054 00200052 		.word	1375739904
 617 0058 23016745 		.word	1164378403
 618              		.cfi_endproc
 619              	.LFE149:
 621              		.section	.text.HAL_FLASH_Lock,"ax",%progbits
 622              		.align	1
 623              		.global	HAL_FLASH_Lock
 624              		.syntax unified
 625              		.thumb
 626              		.thumb_func
 628              	HAL_FLASH_Lock:
 629              	.LFB150:
 824:../../Drivers/STM32H7xx_HAL_Driver/Src/stm32h7xx_hal_flash.c **** 
 825:../../Drivers/STM32H7xx_HAL_Driver/Src/stm32h7xx_hal_flash.c **** /**
 826:../../Drivers/STM32H7xx_HAL_Driver/Src/stm32h7xx_hal_flash.c ****   * @brief  Locks the FLASH control registers access
 827:../../Drivers/STM32H7xx_HAL_Driver/Src/stm32h7xx_hal_flash.c ****   * @retval HAL Status
 828:../../Drivers/STM32H7xx_HAL_Driver/Src/stm32h7xx_hal_flash.c ****   */
 829:../../Drivers/STM32H7xx_HAL_Driver/Src/stm32h7xx_hal_flash.c **** HAL_StatusTypeDef HAL_FLASH_Lock(void)
 830:../../Drivers/STM32H7xx_HAL_Driver/Src/stm32h7xx_hal_flash.c **** {
 630              		.loc 1 830 1 is_stmt 1 view -0
 631              		.cfi_startproc
 632              		@ args = 0, pretend = 0, frame = 0
 633              		@ frame_needed = 0, uses_anonymous_args = 0
 634              		@ link register save eliminated.
 831:../../Drivers/STM32H7xx_HAL_Driver/Src/stm32h7xx_hal_flash.c ****   /* Set the LOCK Bit to lock the FLASH Bank1 Control Register access */
 832:../../Drivers/STM32H7xx_HAL_Driver/Src/stm32h7xx_hal_flash.c ****   SET_BIT(FLASH->CR1, FLASH_CR_LOCK);
 635              		.loc 1 832 3 view .LVU204
 636 0000 0D4B     		ldr	r3, .L46
 637 0002 DA68     		ldr	r2, [r3, #12]
 638 0004 42F00102 		orr	r2, r2, #1
 639 0008 DA60     		str	r2, [r3, #12]
 833:../../Drivers/STM32H7xx_HAL_Driver/Src/stm32h7xx_hal_flash.c **** 
 834:../../Drivers/STM32H7xx_HAL_Driver/Src/stm32h7xx_hal_flash.c ****   /* Verify Flash Bank1 is locked */
 835:../../Drivers/STM32H7xx_HAL_Driver/Src/stm32h7xx_hal_flash.c ****   if (READ_BIT(FLASH->CR1, FLASH_CR_LOCK) == 0U)
 640              		.loc 1 835 3 view .LVU205
 641              		.loc 1 835 7 is_stmt 0 view .LVU206
 642 000a DB68     		ldr	r3, [r3, #12]
 643              		.loc 1 835 6 view .LVU207
 644 000c 13F0010F 		tst	r3, #1
 645 0010 0DD0     		beq	.L44
 836:../../Drivers/STM32H7xx_HAL_Driver/Src/stm32h7xx_hal_flash.c ****   {
 837:../../Drivers/STM32H7xx_HAL_Driver/Src/stm32h7xx_hal_flash.c ****     return HAL_ERROR;
 838:../../Drivers/STM32H7xx_HAL_Driver/Src/stm32h7xx_hal_flash.c ****   }
 839:../../Drivers/STM32H7xx_HAL_Driver/Src/stm32h7xx_hal_flash.c **** 
 840:../../Drivers/STM32H7xx_HAL_Driver/Src/stm32h7xx_hal_flash.c **** #if defined (DUAL_BANK)
ARM GAS  C:\Users\gigig\AppData\Local\Temp\cc4Yyo3b.s 			page 30


 841:../../Drivers/STM32H7xx_HAL_Driver/Src/stm32h7xx_hal_flash.c ****   /* Set the LOCK Bit to lock the FLASH Bank2 Control Register access */
 842:../../Drivers/STM32H7xx_HAL_Driver/Src/stm32h7xx_hal_flash.c ****   SET_BIT(FLASH->CR2, FLASH_CR_LOCK);
 646              		.loc 1 842 3 is_stmt 1 view .LVU208
 647 0012 094B     		ldr	r3, .L46
 648 0014 D3F80C21 		ldr	r2, [r3, #268]
 649 0018 42F00102 		orr	r2, r2, #1
 650 001c C3F80C21 		str	r2, [r3, #268]
 843:../../Drivers/STM32H7xx_HAL_Driver/Src/stm32h7xx_hal_flash.c **** 
 844:../../Drivers/STM32H7xx_HAL_Driver/Src/stm32h7xx_hal_flash.c ****   /* Verify Flash Bank2 is locked */
 845:../../Drivers/STM32H7xx_HAL_Driver/Src/stm32h7xx_hal_flash.c ****   if (READ_BIT(FLASH->CR2, FLASH_CR_LOCK) == 0U)
 651              		.loc 1 845 3 view .LVU209
 652              		.loc 1 845 7 is_stmt 0 view .LVU210
 653 0020 D3F80C31 		ldr	r3, [r3, #268]
 654              		.loc 1 845 6 view .LVU211
 655 0024 13F0010F 		tst	r3, #1
 656 0028 03D0     		beq	.L45
 846:../../Drivers/STM32H7xx_HAL_Driver/Src/stm32h7xx_hal_flash.c ****   {
 847:../../Drivers/STM32H7xx_HAL_Driver/Src/stm32h7xx_hal_flash.c ****     return HAL_ERROR;
 848:../../Drivers/STM32H7xx_HAL_Driver/Src/stm32h7xx_hal_flash.c ****   }
 849:../../Drivers/STM32H7xx_HAL_Driver/Src/stm32h7xx_hal_flash.c **** #endif /* DUAL_BANK */
 850:../../Drivers/STM32H7xx_HAL_Driver/Src/stm32h7xx_hal_flash.c **** 
 851:../../Drivers/STM32H7xx_HAL_Driver/Src/stm32h7xx_hal_flash.c ****   return HAL_OK;
 657              		.loc 1 851 10 view .LVU212
 658 002a 0020     		movs	r0, #0
 659 002c 7047     		bx	lr
 660              	.L44:
 837:../../Drivers/STM32H7xx_HAL_Driver/Src/stm32h7xx_hal_flash.c ****   }
 661              		.loc 1 837 12 view .LVU213
 662 002e 0120     		movs	r0, #1
 663 0030 7047     		bx	lr
 664              	.L45:
 847:../../Drivers/STM32H7xx_HAL_Driver/Src/stm32h7xx_hal_flash.c ****   }
 665              		.loc 1 847 12 view .LVU214
 666 0032 0120     		movs	r0, #1
 852:../../Drivers/STM32H7xx_HAL_Driver/Src/stm32h7xx_hal_flash.c **** }
 667              		.loc 1 852 1 view .LVU215
 668 0034 7047     		bx	lr
 669              	.L47:
 670 0036 00BF     		.align	2
 671              	.L46:
 672 0038 00200052 		.word	1375739904
 673              		.cfi_endproc
 674              	.LFE150:
 676              		.section	.text.HAL_FLASH_OB_Unlock,"ax",%progbits
 677              		.align	1
 678              		.global	HAL_FLASH_OB_Unlock
 679              		.syntax unified
 680              		.thumb
 681              		.thumb_func
 683              	HAL_FLASH_OB_Unlock:
 684              	.LFB151:
 853:../../Drivers/STM32H7xx_HAL_Driver/Src/stm32h7xx_hal_flash.c **** 
 854:../../Drivers/STM32H7xx_HAL_Driver/Src/stm32h7xx_hal_flash.c **** /**
 855:../../Drivers/STM32H7xx_HAL_Driver/Src/stm32h7xx_hal_flash.c ****   * @brief  Unlock the FLASH Option Control Registers access.
 856:../../Drivers/STM32H7xx_HAL_Driver/Src/stm32h7xx_hal_flash.c ****   * @retval HAL Status
 857:../../Drivers/STM32H7xx_HAL_Driver/Src/stm32h7xx_hal_flash.c ****   */
 858:../../Drivers/STM32H7xx_HAL_Driver/Src/stm32h7xx_hal_flash.c **** HAL_StatusTypeDef HAL_FLASH_OB_Unlock(void)
ARM GAS  C:\Users\gigig\AppData\Local\Temp\cc4Yyo3b.s 			page 31


 859:../../Drivers/STM32H7xx_HAL_Driver/Src/stm32h7xx_hal_flash.c **** {
 685              		.loc 1 859 1 is_stmt 1 view -0
 686              		.cfi_startproc
 687              		@ args = 0, pretend = 0, frame = 0
 688              		@ frame_needed = 0, uses_anonymous_args = 0
 689              		@ link register save eliminated.
 860:../../Drivers/STM32H7xx_HAL_Driver/Src/stm32h7xx_hal_flash.c ****   if(READ_BIT(FLASH->OPTCR, FLASH_OPTCR_OPTLOCK) != 0U)
 690              		.loc 1 860 3 view .LVU217
 691              		.loc 1 860 6 is_stmt 0 view .LVU218
 692 0000 0A4B     		ldr	r3, .L52
 693 0002 9B69     		ldr	r3, [r3, #24]
 694              		.loc 1 860 5 view .LVU219
 695 0004 13F0010F 		tst	r3, #1
 696 0008 0BD0     		beq	.L50
 861:../../Drivers/STM32H7xx_HAL_Driver/Src/stm32h7xx_hal_flash.c ****   {
 862:../../Drivers/STM32H7xx_HAL_Driver/Src/stm32h7xx_hal_flash.c ****     /* Authorizes the Option Byte registers programming */
 863:../../Drivers/STM32H7xx_HAL_Driver/Src/stm32h7xx_hal_flash.c ****     WRITE_REG(FLASH->OPTKEYR, FLASH_OPT_KEY1);
 697              		.loc 1 863 5 is_stmt 1 view .LVU220
 698 000a 084B     		ldr	r3, .L52
 699 000c 084A     		ldr	r2, .L52+4
 700 000e 9A60     		str	r2, [r3, #8]
 864:../../Drivers/STM32H7xx_HAL_Driver/Src/stm32h7xx_hal_flash.c ****     WRITE_REG(FLASH->OPTKEYR, FLASH_OPT_KEY2);
 701              		.loc 1 864 5 view .LVU221
 702 0010 02F14432 		add	r2, r2, #1145324612
 703 0014 9A60     		str	r2, [r3, #8]
 865:../../Drivers/STM32H7xx_HAL_Driver/Src/stm32h7xx_hal_flash.c **** 
 866:../../Drivers/STM32H7xx_HAL_Driver/Src/stm32h7xx_hal_flash.c ****     /* Verify that the Option Bytes are unlocked */
 867:../../Drivers/STM32H7xx_HAL_Driver/Src/stm32h7xx_hal_flash.c ****     if (READ_BIT(FLASH->OPTCR, FLASH_OPTCR_OPTLOCK) != 0U)
 704              		.loc 1 867 5 view .LVU222
 705              		.loc 1 867 9 is_stmt 0 view .LVU223
 706 0016 9B69     		ldr	r3, [r3, #24]
 707              		.loc 1 867 8 view .LVU224
 708 0018 13F0010F 		tst	r3, #1
 709 001c 03D1     		bne	.L51
 868:../../Drivers/STM32H7xx_HAL_Driver/Src/stm32h7xx_hal_flash.c ****     {
 869:../../Drivers/STM32H7xx_HAL_Driver/Src/stm32h7xx_hal_flash.c ****       return HAL_ERROR;
 870:../../Drivers/STM32H7xx_HAL_Driver/Src/stm32h7xx_hal_flash.c ****     }
 871:../../Drivers/STM32H7xx_HAL_Driver/Src/stm32h7xx_hal_flash.c ****   }
 872:../../Drivers/STM32H7xx_HAL_Driver/Src/stm32h7xx_hal_flash.c **** 
 873:../../Drivers/STM32H7xx_HAL_Driver/Src/stm32h7xx_hal_flash.c ****   return HAL_OK;
 710              		.loc 1 873 10 view .LVU225
 711 001e 0020     		movs	r0, #0
 712 0020 7047     		bx	lr
 713              	.L50:
 714 0022 0020     		movs	r0, #0
 715 0024 7047     		bx	lr
 716              	.L51:
 869:../../Drivers/STM32H7xx_HAL_Driver/Src/stm32h7xx_hal_flash.c ****     }
 717              		.loc 1 869 14 view .LVU226
 718 0026 0120     		movs	r0, #1
 874:../../Drivers/STM32H7xx_HAL_Driver/Src/stm32h7xx_hal_flash.c **** }
 719              		.loc 1 874 1 view .LVU227
 720 0028 7047     		bx	lr
 721              	.L53:
 722 002a 00BF     		.align	2
 723              	.L52:
 724 002c 00200052 		.word	1375739904
ARM GAS  C:\Users\gigig\AppData\Local\Temp\cc4Yyo3b.s 			page 32


 725 0030 3B2A1908 		.word	135866939
 726              		.cfi_endproc
 727              	.LFE151:
 729              		.section	.text.HAL_FLASH_OB_Lock,"ax",%progbits
 730              		.align	1
 731              		.global	HAL_FLASH_OB_Lock
 732              		.syntax unified
 733              		.thumb
 734              		.thumb_func
 736              	HAL_FLASH_OB_Lock:
 737              	.LFB152:
 875:../../Drivers/STM32H7xx_HAL_Driver/Src/stm32h7xx_hal_flash.c **** 
 876:../../Drivers/STM32H7xx_HAL_Driver/Src/stm32h7xx_hal_flash.c **** /**
 877:../../Drivers/STM32H7xx_HAL_Driver/Src/stm32h7xx_hal_flash.c ****   * @brief  Lock the FLASH Option Control Registers access.
 878:../../Drivers/STM32H7xx_HAL_Driver/Src/stm32h7xx_hal_flash.c ****   * @retval HAL Status
 879:../../Drivers/STM32H7xx_HAL_Driver/Src/stm32h7xx_hal_flash.c ****   */
 880:../../Drivers/STM32H7xx_HAL_Driver/Src/stm32h7xx_hal_flash.c **** HAL_StatusTypeDef HAL_FLASH_OB_Lock(void)
 881:../../Drivers/STM32H7xx_HAL_Driver/Src/stm32h7xx_hal_flash.c **** {
 738              		.loc 1 881 1 is_stmt 1 view -0
 739              		.cfi_startproc
 740              		@ args = 0, pretend = 0, frame = 0
 741              		@ frame_needed = 0, uses_anonymous_args = 0
 742              		@ link register save eliminated.
 882:../../Drivers/STM32H7xx_HAL_Driver/Src/stm32h7xx_hal_flash.c ****   /* Set the OPTLOCK Bit to lock the FLASH Option Byte Registers access */
 883:../../Drivers/STM32H7xx_HAL_Driver/Src/stm32h7xx_hal_flash.c ****   SET_BIT(FLASH->OPTCR, FLASH_OPTCR_OPTLOCK);
 743              		.loc 1 883 3 view .LVU229
 744 0000 064B     		ldr	r3, .L57
 745 0002 9A69     		ldr	r2, [r3, #24]
 746 0004 42F00102 		orr	r2, r2, #1
 747 0008 9A61     		str	r2, [r3, #24]
 884:../../Drivers/STM32H7xx_HAL_Driver/Src/stm32h7xx_hal_flash.c **** 
 885:../../Drivers/STM32H7xx_HAL_Driver/Src/stm32h7xx_hal_flash.c ****   /* Verify that the Option Bytes are locked */
 886:../../Drivers/STM32H7xx_HAL_Driver/Src/stm32h7xx_hal_flash.c ****   if (READ_BIT(FLASH->OPTCR, FLASH_OPTCR_OPTLOCK) == 0U)
 748              		.loc 1 886 3 view .LVU230
 749              		.loc 1 886 7 is_stmt 0 view .LVU231
 750 000a 9B69     		ldr	r3, [r3, #24]
 751              		.loc 1 886 6 view .LVU232
 752 000c 13F0010F 		tst	r3, #1
 753 0010 01D0     		beq	.L56
 887:../../Drivers/STM32H7xx_HAL_Driver/Src/stm32h7xx_hal_flash.c ****   {
 888:../../Drivers/STM32H7xx_HAL_Driver/Src/stm32h7xx_hal_flash.c ****     return HAL_ERROR;
 889:../../Drivers/STM32H7xx_HAL_Driver/Src/stm32h7xx_hal_flash.c ****   }
 890:../../Drivers/STM32H7xx_HAL_Driver/Src/stm32h7xx_hal_flash.c **** 
 891:../../Drivers/STM32H7xx_HAL_Driver/Src/stm32h7xx_hal_flash.c ****   return HAL_OK;
 754              		.loc 1 891 10 view .LVU233
 755 0012 0020     		movs	r0, #0
 756 0014 7047     		bx	lr
 757              	.L56:
 888:../../Drivers/STM32H7xx_HAL_Driver/Src/stm32h7xx_hal_flash.c ****   }
 758              		.loc 1 888 12 view .LVU234
 759 0016 0120     		movs	r0, #1
 892:../../Drivers/STM32H7xx_HAL_Driver/Src/stm32h7xx_hal_flash.c **** }
 760              		.loc 1 892 1 view .LVU235
 761 0018 7047     		bx	lr
 762              	.L58:
 763 001a 00BF     		.align	2
 764              	.L57:
ARM GAS  C:\Users\gigig\AppData\Local\Temp\cc4Yyo3b.s 			page 33


 765 001c 00200052 		.word	1375739904
 766              		.cfi_endproc
 767              	.LFE152:
 769              		.section	.text.HAL_FLASH_GetError,"ax",%progbits
 770              		.align	1
 771              		.global	HAL_FLASH_GetError
 772              		.syntax unified
 773              		.thumb
 774              		.thumb_func
 776              	HAL_FLASH_GetError:
 777              	.LFB154:
 893:../../Drivers/STM32H7xx_HAL_Driver/Src/stm32h7xx_hal_flash.c **** 
 894:../../Drivers/STM32H7xx_HAL_Driver/Src/stm32h7xx_hal_flash.c **** /**
 895:../../Drivers/STM32H7xx_HAL_Driver/Src/stm32h7xx_hal_flash.c ****   * @brief  Launch the option bytes loading.
 896:../../Drivers/STM32H7xx_HAL_Driver/Src/stm32h7xx_hal_flash.c ****   * @retval HAL Status
 897:../../Drivers/STM32H7xx_HAL_Driver/Src/stm32h7xx_hal_flash.c ****   */
 898:../../Drivers/STM32H7xx_HAL_Driver/Src/stm32h7xx_hal_flash.c **** HAL_StatusTypeDef HAL_FLASH_OB_Launch(void)
 899:../../Drivers/STM32H7xx_HAL_Driver/Src/stm32h7xx_hal_flash.c **** {
 900:../../Drivers/STM32H7xx_HAL_Driver/Src/stm32h7xx_hal_flash.c ****   HAL_StatusTypeDef status;
 901:../../Drivers/STM32H7xx_HAL_Driver/Src/stm32h7xx_hal_flash.c **** 
 902:../../Drivers/STM32H7xx_HAL_Driver/Src/stm32h7xx_hal_flash.c ****   /* Wait for CRC computation to be completed */
 903:../../Drivers/STM32H7xx_HAL_Driver/Src/stm32h7xx_hal_flash.c ****   if (FLASH_CRC_WaitForLastOperation((uint32_t)FLASH_TIMEOUT_VALUE, FLASH_BANK_1) != HAL_OK)
 904:../../Drivers/STM32H7xx_HAL_Driver/Src/stm32h7xx_hal_flash.c ****   {
 905:../../Drivers/STM32H7xx_HAL_Driver/Src/stm32h7xx_hal_flash.c ****     status = HAL_ERROR;
 906:../../Drivers/STM32H7xx_HAL_Driver/Src/stm32h7xx_hal_flash.c ****   }
 907:../../Drivers/STM32H7xx_HAL_Driver/Src/stm32h7xx_hal_flash.c **** #if defined (DUAL_BANK)
 908:../../Drivers/STM32H7xx_HAL_Driver/Src/stm32h7xx_hal_flash.c ****   else if (FLASH_CRC_WaitForLastOperation((uint32_t)FLASH_TIMEOUT_VALUE, FLASH_BANK_2) != HAL_OK)
 909:../../Drivers/STM32H7xx_HAL_Driver/Src/stm32h7xx_hal_flash.c ****   {
 910:../../Drivers/STM32H7xx_HAL_Driver/Src/stm32h7xx_hal_flash.c ****     status = HAL_ERROR;
 911:../../Drivers/STM32H7xx_HAL_Driver/Src/stm32h7xx_hal_flash.c ****   }
 912:../../Drivers/STM32H7xx_HAL_Driver/Src/stm32h7xx_hal_flash.c **** #endif /* DUAL_BANK */
 913:../../Drivers/STM32H7xx_HAL_Driver/Src/stm32h7xx_hal_flash.c ****   else
 914:../../Drivers/STM32H7xx_HAL_Driver/Src/stm32h7xx_hal_flash.c ****   {
 915:../../Drivers/STM32H7xx_HAL_Driver/Src/stm32h7xx_hal_flash.c ****     status = HAL_OK;
 916:../../Drivers/STM32H7xx_HAL_Driver/Src/stm32h7xx_hal_flash.c ****   }
 917:../../Drivers/STM32H7xx_HAL_Driver/Src/stm32h7xx_hal_flash.c **** 
 918:../../Drivers/STM32H7xx_HAL_Driver/Src/stm32h7xx_hal_flash.c ****   if (status == HAL_OK)
 919:../../Drivers/STM32H7xx_HAL_Driver/Src/stm32h7xx_hal_flash.c ****   {
 920:../../Drivers/STM32H7xx_HAL_Driver/Src/stm32h7xx_hal_flash.c ****     /* Set OPTSTRT Bit */
 921:../../Drivers/STM32H7xx_HAL_Driver/Src/stm32h7xx_hal_flash.c ****     SET_BIT(FLASH->OPTCR, FLASH_OPTCR_OPTSTART);
 922:../../Drivers/STM32H7xx_HAL_Driver/Src/stm32h7xx_hal_flash.c **** 
 923:../../Drivers/STM32H7xx_HAL_Driver/Src/stm32h7xx_hal_flash.c ****     /* Wait for OB change operation to be completed */
 924:../../Drivers/STM32H7xx_HAL_Driver/Src/stm32h7xx_hal_flash.c ****     status = FLASH_OB_WaitForLastOperation((uint32_t)FLASH_TIMEOUT_VALUE);
 925:../../Drivers/STM32H7xx_HAL_Driver/Src/stm32h7xx_hal_flash.c ****   }
 926:../../Drivers/STM32H7xx_HAL_Driver/Src/stm32h7xx_hal_flash.c **** 
 927:../../Drivers/STM32H7xx_HAL_Driver/Src/stm32h7xx_hal_flash.c ****   return status;
 928:../../Drivers/STM32H7xx_HAL_Driver/Src/stm32h7xx_hal_flash.c **** }
 929:../../Drivers/STM32H7xx_HAL_Driver/Src/stm32h7xx_hal_flash.c **** 
 930:../../Drivers/STM32H7xx_HAL_Driver/Src/stm32h7xx_hal_flash.c **** /**
 931:../../Drivers/STM32H7xx_HAL_Driver/Src/stm32h7xx_hal_flash.c ****   * @}
 932:../../Drivers/STM32H7xx_HAL_Driver/Src/stm32h7xx_hal_flash.c ****   */
 933:../../Drivers/STM32H7xx_HAL_Driver/Src/stm32h7xx_hal_flash.c **** 
 934:../../Drivers/STM32H7xx_HAL_Driver/Src/stm32h7xx_hal_flash.c **** /** @defgroup FLASH_Exported_Functions_Group3 Peripheral State and Errors functions
 935:../../Drivers/STM32H7xx_HAL_Driver/Src/stm32h7xx_hal_flash.c ****  *  @brief   Peripheral Errors functions
 936:../../Drivers/STM32H7xx_HAL_Driver/Src/stm32h7xx_hal_flash.c ****  *
 937:../../Drivers/STM32H7xx_HAL_Driver/Src/stm32h7xx_hal_flash.c **** @verbatim
 938:../../Drivers/STM32H7xx_HAL_Driver/Src/stm32h7xx_hal_flash.c ****  ===============================================================================
ARM GAS  C:\Users\gigig\AppData\Local\Temp\cc4Yyo3b.s 			page 34


 939:../../Drivers/STM32H7xx_HAL_Driver/Src/stm32h7xx_hal_flash.c ****                 ##### Peripheral Errors functions #####
 940:../../Drivers/STM32H7xx_HAL_Driver/Src/stm32h7xx_hal_flash.c ****  ===============================================================================
 941:../../Drivers/STM32H7xx_HAL_Driver/Src/stm32h7xx_hal_flash.c ****     [..]
 942:../../Drivers/STM32H7xx_HAL_Driver/Src/stm32h7xx_hal_flash.c ****     This subsection permits to get in run-time Errors of the FLASH peripheral.
 943:../../Drivers/STM32H7xx_HAL_Driver/Src/stm32h7xx_hal_flash.c **** 
 944:../../Drivers/STM32H7xx_HAL_Driver/Src/stm32h7xx_hal_flash.c **** @endverbatim
 945:../../Drivers/STM32H7xx_HAL_Driver/Src/stm32h7xx_hal_flash.c ****   * @{
 946:../../Drivers/STM32H7xx_HAL_Driver/Src/stm32h7xx_hal_flash.c ****   */
 947:../../Drivers/STM32H7xx_HAL_Driver/Src/stm32h7xx_hal_flash.c **** 
 948:../../Drivers/STM32H7xx_HAL_Driver/Src/stm32h7xx_hal_flash.c **** /**
 949:../../Drivers/STM32H7xx_HAL_Driver/Src/stm32h7xx_hal_flash.c ****   * @brief  Get the specific FLASH error flag.
 950:../../Drivers/STM32H7xx_HAL_Driver/Src/stm32h7xx_hal_flash.c ****   * @retval HAL_FLASH_ERRORCode The returned value can be:
 951:../../Drivers/STM32H7xx_HAL_Driver/Src/stm32h7xx_hal_flash.c ****   *            @arg HAL_FLASH_ERROR_NONE       : No error set
 952:../../Drivers/STM32H7xx_HAL_Driver/Src/stm32h7xx_hal_flash.c ****   *
 953:../../Drivers/STM32H7xx_HAL_Driver/Src/stm32h7xx_hal_flash.c ****   *            @arg HAL_FLASH_ERROR_WRP_BANK1  : Write Protection Error on Bank 1
 954:../../Drivers/STM32H7xx_HAL_Driver/Src/stm32h7xx_hal_flash.c ****   *            @arg HAL_FLASH_ERROR_PGS_BANK1  : Program Sequence Error on Bank 1
 955:../../Drivers/STM32H7xx_HAL_Driver/Src/stm32h7xx_hal_flash.c ****   *            @arg HAL_FLASH_ERROR_STRB_BANK1 : Strobe Error on Bank 1
 956:../../Drivers/STM32H7xx_HAL_Driver/Src/stm32h7xx_hal_flash.c ****   *            @arg HAL_FLASH_ERROR_INC_BANK1  : Inconsistency Error on Bank 1
 957:../../Drivers/STM32H7xx_HAL_Driver/Src/stm32h7xx_hal_flash.c ****   *            @arg HAL_FLASH_ERROR_OPE_BANK1  : Operation Error on Bank 1
 958:../../Drivers/STM32H7xx_HAL_Driver/Src/stm32h7xx_hal_flash.c ****   *            @arg HAL_FLASH_ERROR_RDP_BANK1  : Read Protection Error on Bank 1
 959:../../Drivers/STM32H7xx_HAL_Driver/Src/stm32h7xx_hal_flash.c ****   *            @arg HAL_FLASH_ERROR_RDS_BANK1  : Read Secured Error on Bank 1
 960:../../Drivers/STM32H7xx_HAL_Driver/Src/stm32h7xx_hal_flash.c ****   *            @arg HAL_FLASH_ERROR_SNECC_BANK1: ECC Single Correction Error on Bank 1
 961:../../Drivers/STM32H7xx_HAL_Driver/Src/stm32h7xx_hal_flash.c ****   *            @arg HAL_FLASH_ERROR_DBECC_BANK1: ECC Double Detection Error on Bank 1
 962:../../Drivers/STM32H7xx_HAL_Driver/Src/stm32h7xx_hal_flash.c ****   *            @arg HAL_FLASH_ERROR_CRCRD_BANK1: CRC Read Error on Bank 1
 963:../../Drivers/STM32H7xx_HAL_Driver/Src/stm32h7xx_hal_flash.c ****   *
 964:../../Drivers/STM32H7xx_HAL_Driver/Src/stm32h7xx_hal_flash.c ****   *            @arg HAL_FLASH_ERROR_WRP_BANK2  : Write Protection Error on Bank 2
 965:../../Drivers/STM32H7xx_HAL_Driver/Src/stm32h7xx_hal_flash.c ****   *            @arg HAL_FLASH_ERROR_PGS_BANK2  : Program Sequence Error on Bank 2
 966:../../Drivers/STM32H7xx_HAL_Driver/Src/stm32h7xx_hal_flash.c ****   *            @arg HAL_FLASH_ERROR_STRB_BANK2 : Strobe Error on Bank 2
 967:../../Drivers/STM32H7xx_HAL_Driver/Src/stm32h7xx_hal_flash.c ****   *            @arg HAL_FLASH_ERROR_INC_BANK2  : Inconsistency Error on Bank 2
 968:../../Drivers/STM32H7xx_HAL_Driver/Src/stm32h7xx_hal_flash.c ****   *            @arg HAL_FLASH_ERROR_OPE_BANK2  : Operation Error on Bank 2
 969:../../Drivers/STM32H7xx_HAL_Driver/Src/stm32h7xx_hal_flash.c ****   *            @arg HAL_FLASH_ERROR_RDP_BANK2  : Read Protection Error on Bank 2
 970:../../Drivers/STM32H7xx_HAL_Driver/Src/stm32h7xx_hal_flash.c ****   *            @arg HAL_FLASH_ERROR_RDS_BANK2  : Read Secured Error on Bank 2
 971:../../Drivers/STM32H7xx_HAL_Driver/Src/stm32h7xx_hal_flash.c ****   *            @arg HAL_FLASH_ERROR_SNECC_BANK2: SNECC Error on Bank 2
 972:../../Drivers/STM32H7xx_HAL_Driver/Src/stm32h7xx_hal_flash.c ****   *            @arg HAL_FLASH_ERROR_DBECC_BANK2: Double Detection ECC on Bank 2
 973:../../Drivers/STM32H7xx_HAL_Driver/Src/stm32h7xx_hal_flash.c ****   *            @arg HAL_FLASH_ERROR_CRCRD_BANK2: CRC Read Error on Bank 2
 974:../../Drivers/STM32H7xx_HAL_Driver/Src/stm32h7xx_hal_flash.c **** */
 975:../../Drivers/STM32H7xx_HAL_Driver/Src/stm32h7xx_hal_flash.c **** 
 976:../../Drivers/STM32H7xx_HAL_Driver/Src/stm32h7xx_hal_flash.c **** uint32_t HAL_FLASH_GetError(void)
 977:../../Drivers/STM32H7xx_HAL_Driver/Src/stm32h7xx_hal_flash.c **** {
 778              		.loc 1 977 1 is_stmt 1 view -0
 779              		.cfi_startproc
 780              		@ args = 0, pretend = 0, frame = 0
 781              		@ frame_needed = 0, uses_anonymous_args = 0
 782              		@ link register save eliminated.
 978:../../Drivers/STM32H7xx_HAL_Driver/Src/stm32h7xx_hal_flash.c ****    return pFlash.ErrorCode;
 783              		.loc 1 978 4 view .LVU237
 784              		.loc 1 978 17 is_stmt 0 view .LVU238
 785 0000 014B     		ldr	r3, .L60
 786 0002 9869     		ldr	r0, [r3, #24]
 979:../../Drivers/STM32H7xx_HAL_Driver/Src/stm32h7xx_hal_flash.c **** }
 787              		.loc 1 979 1 view .LVU239
 788 0004 7047     		bx	lr
 789              	.L61:
 790 0006 00BF     		.align	2
 791              	.L60:
 792 0008 00000000 		.word	pFlash
 793              		.cfi_endproc
ARM GAS  C:\Users\gigig\AppData\Local\Temp\cc4Yyo3b.s 			page 35


 794              	.LFE154:
 796              		.section	.text.FLASH_WaitForLastOperation,"ax",%progbits
 797              		.align	1
 798              		.global	FLASH_WaitForLastOperation
 799              		.syntax unified
 800              		.thumb
 801              		.thumb_func
 803              	FLASH_WaitForLastOperation:
 804              	.LVL54:
 805              	.LFB155:
 980:../../Drivers/STM32H7xx_HAL_Driver/Src/stm32h7xx_hal_flash.c **** 
 981:../../Drivers/STM32H7xx_HAL_Driver/Src/stm32h7xx_hal_flash.c **** /**
 982:../../Drivers/STM32H7xx_HAL_Driver/Src/stm32h7xx_hal_flash.c ****   * @}
 983:../../Drivers/STM32H7xx_HAL_Driver/Src/stm32h7xx_hal_flash.c ****   */
 984:../../Drivers/STM32H7xx_HAL_Driver/Src/stm32h7xx_hal_flash.c **** 
 985:../../Drivers/STM32H7xx_HAL_Driver/Src/stm32h7xx_hal_flash.c **** /**
 986:../../Drivers/STM32H7xx_HAL_Driver/Src/stm32h7xx_hal_flash.c ****   * @}
 987:../../Drivers/STM32H7xx_HAL_Driver/Src/stm32h7xx_hal_flash.c ****   */
 988:../../Drivers/STM32H7xx_HAL_Driver/Src/stm32h7xx_hal_flash.c **** 
 989:../../Drivers/STM32H7xx_HAL_Driver/Src/stm32h7xx_hal_flash.c **** /* Private functions ---------------------------------------------------------*/
 990:../../Drivers/STM32H7xx_HAL_Driver/Src/stm32h7xx_hal_flash.c **** 
 991:../../Drivers/STM32H7xx_HAL_Driver/Src/stm32h7xx_hal_flash.c **** /** @addtogroup FLASH_Private_Functions
 992:../../Drivers/STM32H7xx_HAL_Driver/Src/stm32h7xx_hal_flash.c ****   * @{
 993:../../Drivers/STM32H7xx_HAL_Driver/Src/stm32h7xx_hal_flash.c ****   */
 994:../../Drivers/STM32H7xx_HAL_Driver/Src/stm32h7xx_hal_flash.c **** 
 995:../../Drivers/STM32H7xx_HAL_Driver/Src/stm32h7xx_hal_flash.c **** /**
 996:../../Drivers/STM32H7xx_HAL_Driver/Src/stm32h7xx_hal_flash.c ****   * @brief  Wait for a FLASH operation to complete.
 997:../../Drivers/STM32H7xx_HAL_Driver/Src/stm32h7xx_hal_flash.c ****   * @param  Timeout maximum flash operation timeout
 998:../../Drivers/STM32H7xx_HAL_Driver/Src/stm32h7xx_hal_flash.c ****   * @param  Bank flash FLASH_BANK_1 or FLASH_BANK_2
 999:../../Drivers/STM32H7xx_HAL_Driver/Src/stm32h7xx_hal_flash.c ****   * @retval HAL_StatusTypeDef HAL Status
1000:../../Drivers/STM32H7xx_HAL_Driver/Src/stm32h7xx_hal_flash.c ****   */
1001:../../Drivers/STM32H7xx_HAL_Driver/Src/stm32h7xx_hal_flash.c **** HAL_StatusTypeDef FLASH_WaitForLastOperation(uint32_t Timeout, uint32_t Bank)
1002:../../Drivers/STM32H7xx_HAL_Driver/Src/stm32h7xx_hal_flash.c **** {
 806              		.loc 1 1002 1 is_stmt 1 view -0
 807              		.cfi_startproc
 808              		@ args = 0, pretend = 0, frame = 0
 809              		@ frame_needed = 0, uses_anonymous_args = 0
 810              		.loc 1 1002 1 is_stmt 0 view .LVU241
 811 0000 F8B5     		push	{r3, r4, r5, r6, r7, lr}
 812              	.LCFI1:
 813              		.cfi_def_cfa_offset 24
 814              		.cfi_offset 3, -24
 815              		.cfi_offset 4, -20
 816              		.cfi_offset 5, -16
 817              		.cfi_offset 6, -12
 818              		.cfi_offset 7, -8
 819              		.cfi_offset 14, -4
 820 0002 0546     		mov	r5, r0
 821 0004 0E46     		mov	r6, r1
1003:../../Drivers/STM32H7xx_HAL_Driver/Src/stm32h7xx_hal_flash.c ****   /* Wait for the FLASH operation to complete by polling on QW flag to be reset.
1004:../../Drivers/STM32H7xx_HAL_Driver/Src/stm32h7xx_hal_flash.c ****      Even if the FLASH operation fails, the QW flag will be reset and an error
1005:../../Drivers/STM32H7xx_HAL_Driver/Src/stm32h7xx_hal_flash.c ****      flag will be set */
1006:../../Drivers/STM32H7xx_HAL_Driver/Src/stm32h7xx_hal_flash.c **** 
1007:../../Drivers/STM32H7xx_HAL_Driver/Src/stm32h7xx_hal_flash.c ****   uint32_t bsyflag = FLASH_FLAG_QW_BANK1;
 822              		.loc 1 1007 3 is_stmt 1 view .LVU242
 823              	.LVL55:
1008:../../Drivers/STM32H7xx_HAL_Driver/Src/stm32h7xx_hal_flash.c ****   uint32_t errorflag = 0;
ARM GAS  C:\Users\gigig\AppData\Local\Temp\cc4Yyo3b.s 			page 36


 824              		.loc 1 1008 3 view .LVU243
1009:../../Drivers/STM32H7xx_HAL_Driver/Src/stm32h7xx_hal_flash.c ****   uint32_t tickstart = HAL_GetTick();
 825              		.loc 1 1009 3 view .LVU244
 826              		.loc 1 1009 24 is_stmt 0 view .LVU245
 827 0006 FFF7FEFF 		bl	HAL_GetTick
 828              	.LVL56:
 829              		.loc 1 1009 24 view .LVU246
 830 000a 0746     		mov	r7, r0
 831              	.LVL57:
1010:../../Drivers/STM32H7xx_HAL_Driver/Src/stm32h7xx_hal_flash.c **** 
1011:../../Drivers/STM32H7xx_HAL_Driver/Src/stm32h7xx_hal_flash.c ****   assert_param(IS_FLASH_BANK_EXCLUSIVE(Bank));
 832              		.loc 1 1011 3 is_stmt 1 view .LVU247
1012:../../Drivers/STM32H7xx_HAL_Driver/Src/stm32h7xx_hal_flash.c **** 
1013:../../Drivers/STM32H7xx_HAL_Driver/Src/stm32h7xx_hal_flash.c **** #if defined (DUAL_BANK)
1014:../../Drivers/STM32H7xx_HAL_Driver/Src/stm32h7xx_hal_flash.c **** 
1015:../../Drivers/STM32H7xx_HAL_Driver/Src/stm32h7xx_hal_flash.c ****   if (Bank == FLASH_BANK_2)
 833              		.loc 1 1015 3 view .LVU248
 834              		.loc 1 1015 6 is_stmt 0 view .LVU249
 835 000c 022E     		cmp	r6, #2
 836 000e 09D0     		beq	.L84
1007:../../Drivers/STM32H7xx_HAL_Driver/Src/stm32h7xx_hal_flash.c ****   uint32_t errorflag = 0;
 837              		.loc 1 1007 12 view .LVU250
 838 0010 0424     		movs	r4, #4
 839 0012 14E0     		b	.L65
 840              	.LVL58:
 841              	.L86:
1016:../../Drivers/STM32H7xx_HAL_Driver/Src/stm32h7xx_hal_flash.c ****   {
1017:../../Drivers/STM32H7xx_HAL_Driver/Src/stm32h7xx_hal_flash.c ****     /* Select bsyflag depending on Bank */
1018:../../Drivers/STM32H7xx_HAL_Driver/Src/stm32h7xx_hal_flash.c ****     bsyflag = FLASH_FLAG_QW_BANK2;
1019:../../Drivers/STM32H7xx_HAL_Driver/Src/stm32h7xx_hal_flash.c ****   }
1020:../../Drivers/STM32H7xx_HAL_Driver/Src/stm32h7xx_hal_flash.c **** #endif /* DUAL_BANK */
1021:../../Drivers/STM32H7xx_HAL_Driver/Src/stm32h7xx_hal_flash.c **** 
1022:../../Drivers/STM32H7xx_HAL_Driver/Src/stm32h7xx_hal_flash.c ****   while(__HAL_FLASH_GET_FLAG(bsyflag))
1023:../../Drivers/STM32H7xx_HAL_Driver/Src/stm32h7xx_hal_flash.c ****   {
1024:../../Drivers/STM32H7xx_HAL_Driver/Src/stm32h7xx_hal_flash.c ****     if(Timeout != HAL_MAX_DELAY)
1025:../../Drivers/STM32H7xx_HAL_Driver/Src/stm32h7xx_hal_flash.c ****     {
1026:../../Drivers/STM32H7xx_HAL_Driver/Src/stm32h7xx_hal_flash.c ****       if(((HAL_GetTick() - tickstart) > Timeout) || (Timeout == 0U))
 842              		.loc 1 1026 7 is_stmt 1 view .LVU251
 843              		.loc 1 1026 12 is_stmt 0 view .LVU252
 844 0014 FFF7FEFF 		bl	HAL_GetTick
 845              	.LVL59:
 846              		.loc 1 1026 26 view .LVU253
 847 0018 C01B     		subs	r0, r0, r7
 848              		.loc 1 1026 9 view .LVU254
 849 001a A842     		cmp	r0, r5
 850 001c 5DD8     		bhi	.L78
 851              		.loc 1 1026 50 discriminator 1 view .LVU255
 852 001e 75B9     		cbnz	r5, .L65
1027:../../Drivers/STM32H7xx_HAL_Driver/Src/stm32h7xx_hal_flash.c ****       {
1028:../../Drivers/STM32H7xx_HAL_Driver/Src/stm32h7xx_hal_flash.c ****         return HAL_TIMEOUT;
 853              		.loc 1 1028 16 view .LVU256
 854 0020 0320     		movs	r0, #3
 855 0022 4AE0     		b	.L66
 856              	.LVL60:
 857              	.L84:
1018:../../Drivers/STM32H7xx_HAL_Driver/Src/stm32h7xx_hal_flash.c ****   }
 858              		.loc 1 1018 13 view .LVU257
ARM GAS  C:\Users\gigig\AppData\Local\Temp\cc4Yyo3b.s 			page 37


 859 0024 304C     		ldr	r4, .L91
 860              	.LVL61:
1018:../../Drivers/STM32H7xx_HAL_Driver/Src/stm32h7xx_hal_flash.c ****   }
 861              		.loc 1 1018 13 view .LVU258
 862 0026 0AE0     		b	.L65
 863              	.LVL62:
 864              	.L87:
1022:../../Drivers/STM32H7xx_HAL_Driver/Src/stm32h7xx_hal_flash.c ****   {
 865              		.loc 1 1022 9 discriminator 1 view .LVU259
 866 0028 304B     		ldr	r3, .L91+4
 867 002a 1B69     		ldr	r3, [r3, #16]
 868 002c 34EA0303 		bics	r3, r4, r3
 869 0030 0CBF     		ite	eq
 870 0032 0123     		moveq	r3, #1
 871 0034 0023     		movne	r3, #0
 872              	.L69:
1022:../../Drivers/STM32H7xx_HAL_Driver/Src/stm32h7xx_hal_flash.c ****   {
 873              		.loc 1 1022 9 discriminator 4 view .LVU260
 874 0036 7BB1     		cbz	r3, .L85
1024:../../Drivers/STM32H7xx_HAL_Driver/Src/stm32h7xx_hal_flash.c ****     {
 875              		.loc 1 1024 5 is_stmt 1 view .LVU261
1024:../../Drivers/STM32H7xx_HAL_Driver/Src/stm32h7xx_hal_flash.c ****     {
 876              		.loc 1 1024 7 is_stmt 0 view .LVU262
 877 0038 B5F1FF3F 		cmp	r5, #-1
 878 003c EAD1     		bne	.L86
 879              	.LVL63:
 880              	.L65:
1022:../../Drivers/STM32H7xx_HAL_Driver/Src/stm32h7xx_hal_flash.c ****   {
 881              		.loc 1 1022 9 is_stmt 1 view .LVU263
 882 003e 002C     		cmp	r4, #0
 883 0040 F2DA     		bge	.L87
1022:../../Drivers/STM32H7xx_HAL_Driver/Src/stm32h7xx_hal_flash.c ****   {
 884              		.loc 1 1022 9 is_stmt 0 discriminator 2 view .LVU264
 885 0042 2A4B     		ldr	r3, .L91+4
 886 0044 D3F81031 		ldr	r3, [r3, #272]
 887 0048 24EA0303 		bic	r3, r4, r3
 888 004c 33F00043 		bics	r3, r3, #-2147483648
 889 0050 0CBF     		ite	eq
 890 0052 0123     		moveq	r3, #1
 891 0054 0023     		movne	r3, #0
 892 0056 EEE7     		b	.L69
 893              	.L85:
1029:../../Drivers/STM32H7xx_HAL_Driver/Src/stm32h7xx_hal_flash.c ****       }
1030:../../Drivers/STM32H7xx_HAL_Driver/Src/stm32h7xx_hal_flash.c ****     }
1031:../../Drivers/STM32H7xx_HAL_Driver/Src/stm32h7xx_hal_flash.c ****   }
1032:../../Drivers/STM32H7xx_HAL_Driver/Src/stm32h7xx_hal_flash.c **** 
1033:../../Drivers/STM32H7xx_HAL_Driver/Src/stm32h7xx_hal_flash.c ****   /* Get Error Flags */
1034:../../Drivers/STM32H7xx_HAL_Driver/Src/stm32h7xx_hal_flash.c ****   if (Bank == FLASH_BANK_1)
 894              		.loc 1 1034 3 is_stmt 1 view .LVU265
 895              		.loc 1 1034 6 is_stmt 0 view .LVU266
 896 0058 012E     		cmp	r6, #1
 897 005a 1CD0     		beq	.L88
1035:../../Drivers/STM32H7xx_HAL_Driver/Src/stm32h7xx_hal_flash.c ****   {
1036:../../Drivers/STM32H7xx_HAL_Driver/Src/stm32h7xx_hal_flash.c ****     errorflag = FLASH->SR1 & FLASH_FLAG_ALL_ERRORS_BANK1;
1037:../../Drivers/STM32H7xx_HAL_Driver/Src/stm32h7xx_hal_flash.c ****   }
1038:../../Drivers/STM32H7xx_HAL_Driver/Src/stm32h7xx_hal_flash.c **** #if defined (DUAL_BANK)
1039:../../Drivers/STM32H7xx_HAL_Driver/Src/stm32h7xx_hal_flash.c ****   else
ARM GAS  C:\Users\gigig\AppData\Local\Temp\cc4Yyo3b.s 			page 38


1040:../../Drivers/STM32H7xx_HAL_Driver/Src/stm32h7xx_hal_flash.c ****   {
1041:../../Drivers/STM32H7xx_HAL_Driver/Src/stm32h7xx_hal_flash.c ****     errorflag = (FLASH->SR2 & FLASH_FLAG_ALL_ERRORS_BANK2) | 0x80000000U;
 898              		.loc 1 1041 5 is_stmt 1 view .LVU267
 899              		.loc 1 1041 23 is_stmt 0 view .LVU268
 900 005c 234B     		ldr	r3, .L91+4
 901 005e D3F81031 		ldr	r3, [r3, #272]
 902              		.loc 1 1041 60 view .LVU269
 903 0062 23F06843 		bic	r3, r3, #-402653184
 904 0066 23F48013 		bic	r3, r3, #1048576
 905 006a 5B0C     		lsrs	r3, r3, #17
 906 006c 5B04     		lsls	r3, r3, #17
 907              		.loc 1 1041 15 view .LVU270
 908 006e 43F00043 		orr	r3, r3, #-2147483648
 909              	.LVL64:
 910              	.L72:
1042:../../Drivers/STM32H7xx_HAL_Driver/Src/stm32h7xx_hal_flash.c ****   }
1043:../../Drivers/STM32H7xx_HAL_Driver/Src/stm32h7xx_hal_flash.c **** #endif /* DUAL_BANK */
1044:../../Drivers/STM32H7xx_HAL_Driver/Src/stm32h7xx_hal_flash.c **** 
1045:../../Drivers/STM32H7xx_HAL_Driver/Src/stm32h7xx_hal_flash.c ****   /* In case of error reported in Flash SR1 or SR2 register */
1046:../../Drivers/STM32H7xx_HAL_Driver/Src/stm32h7xx_hal_flash.c ****   if((errorflag & 0x7FFFFFFFU) != 0U)
 911              		.loc 1 1046 3 is_stmt 1 view .LVU271
 912              		.loc 1 1046 5 is_stmt 0 view .LVU272
 913 0072 33F00041 		bics	r1, r3, #-2147483648
 914 0076 17D1     		bne	.L89
1047:../../Drivers/STM32H7xx_HAL_Driver/Src/stm32h7xx_hal_flash.c ****   {
1048:../../Drivers/STM32H7xx_HAL_Driver/Src/stm32h7xx_hal_flash.c ****     /*Save the error code*/
1049:../../Drivers/STM32H7xx_HAL_Driver/Src/stm32h7xx_hal_flash.c ****     pFlash.ErrorCode |= errorflag;
1050:../../Drivers/STM32H7xx_HAL_Driver/Src/stm32h7xx_hal_flash.c **** 
1051:../../Drivers/STM32H7xx_HAL_Driver/Src/stm32h7xx_hal_flash.c ****     /* Clear error programming flags */
1052:../../Drivers/STM32H7xx_HAL_Driver/Src/stm32h7xx_hal_flash.c ****     __HAL_FLASH_CLEAR_FLAG(errorflag);
1053:../../Drivers/STM32H7xx_HAL_Driver/Src/stm32h7xx_hal_flash.c **** 
1054:../../Drivers/STM32H7xx_HAL_Driver/Src/stm32h7xx_hal_flash.c ****     return HAL_ERROR;
1055:../../Drivers/STM32H7xx_HAL_Driver/Src/stm32h7xx_hal_flash.c ****   }
1056:../../Drivers/STM32H7xx_HAL_Driver/Src/stm32h7xx_hal_flash.c **** 
1057:../../Drivers/STM32H7xx_HAL_Driver/Src/stm32h7xx_hal_flash.c ****   /* Check FLASH End of Operation flag  */
1058:../../Drivers/STM32H7xx_HAL_Driver/Src/stm32h7xx_hal_flash.c ****   if(Bank == FLASH_BANK_1)
 915              		.loc 1 1058 3 is_stmt 1 view .LVU273
 916              		.loc 1 1058 5 is_stmt 0 view .LVU274
 917 0078 012E     		cmp	r6, #1
 918 007a 23D0     		beq	.L90
1059:../../Drivers/STM32H7xx_HAL_Driver/Src/stm32h7xx_hal_flash.c ****   {
1060:../../Drivers/STM32H7xx_HAL_Driver/Src/stm32h7xx_hal_flash.c ****     if (__HAL_FLASH_GET_FLAG_BANK1(FLASH_FLAG_EOP_BANK1))
1061:../../Drivers/STM32H7xx_HAL_Driver/Src/stm32h7xx_hal_flash.c ****     {
1062:../../Drivers/STM32H7xx_HAL_Driver/Src/stm32h7xx_hal_flash.c ****       /* Clear FLASH End of Operation pending bit */
1063:../../Drivers/STM32H7xx_HAL_Driver/Src/stm32h7xx_hal_flash.c ****       __HAL_FLASH_CLEAR_FLAG_BANK1(FLASH_FLAG_EOP_BANK1);
1064:../../Drivers/STM32H7xx_HAL_Driver/Src/stm32h7xx_hal_flash.c ****     }
1065:../../Drivers/STM32H7xx_HAL_Driver/Src/stm32h7xx_hal_flash.c ****   }
1066:../../Drivers/STM32H7xx_HAL_Driver/Src/stm32h7xx_hal_flash.c **** #if defined (DUAL_BANK)
1067:../../Drivers/STM32H7xx_HAL_Driver/Src/stm32h7xx_hal_flash.c ****   else
1068:../../Drivers/STM32H7xx_HAL_Driver/Src/stm32h7xx_hal_flash.c ****   {
1069:../../Drivers/STM32H7xx_HAL_Driver/Src/stm32h7xx_hal_flash.c ****     if (__HAL_FLASH_GET_FLAG_BANK2(FLASH_FLAG_EOP_BANK2))
 919              		.loc 1 1069 5 is_stmt 1 view .LVU275
 920              		.loc 1 1069 9 is_stmt 0 view .LVU276
 921 007c 1B4B     		ldr	r3, .L91+4
 922              	.LVL65:
 923              		.loc 1 1069 9 view .LVU277
 924 007e D3F81031 		ldr	r3, [r3, #272]
ARM GAS  C:\Users\gigig\AppData\Local\Temp\cc4Yyo3b.s 			page 39


 925              		.loc 1 1069 8 view .LVU278
 926 0082 13F4803F 		tst	r3, #65536
 927 0086 2CD0     		beq	.L81
1070:../../Drivers/STM32H7xx_HAL_Driver/Src/stm32h7xx_hal_flash.c ****     {
1071:../../Drivers/STM32H7xx_HAL_Driver/Src/stm32h7xx_hal_flash.c ****       /* Clear FLASH End of Operation pending bit */
1072:../../Drivers/STM32H7xx_HAL_Driver/Src/stm32h7xx_hal_flash.c ****       __HAL_FLASH_CLEAR_FLAG_BANK2(FLASH_FLAG_EOP_BANK2);
 928              		.loc 1 1072 7 is_stmt 1 view .LVU279
 929 0088 184B     		ldr	r3, .L91+4
 930 008a 4FF48032 		mov	r2, #65536
 931 008e C3F81421 		str	r2, [r3, #276]
1073:../../Drivers/STM32H7xx_HAL_Driver/Src/stm32h7xx_hal_flash.c ****     }
1074:../../Drivers/STM32H7xx_HAL_Driver/Src/stm32h7xx_hal_flash.c ****   }
1075:../../Drivers/STM32H7xx_HAL_Driver/Src/stm32h7xx_hal_flash.c **** #endif /* DUAL_BANK */
1076:../../Drivers/STM32H7xx_HAL_Driver/Src/stm32h7xx_hal_flash.c **** 
1077:../../Drivers/STM32H7xx_HAL_Driver/Src/stm32h7xx_hal_flash.c ****   return HAL_OK;
 932              		.loc 1 1077 10 is_stmt 0 view .LVU280
 933 0092 0020     		movs	r0, #0
 934 0094 11E0     		b	.L66
 935              	.LVL66:
 936              	.L88:
1036:../../Drivers/STM32H7xx_HAL_Driver/Src/stm32h7xx_hal_flash.c ****   }
 937              		.loc 1 1036 5 is_stmt 1 view .LVU281
1036:../../Drivers/STM32H7xx_HAL_Driver/Src/stm32h7xx_hal_flash.c ****   }
 938              		.loc 1 1036 22 is_stmt 0 view .LVU282
 939 0096 154B     		ldr	r3, .L91+4
 940 0098 1B69     		ldr	r3, [r3, #16]
1036:../../Drivers/STM32H7xx_HAL_Driver/Src/stm32h7xx_hal_flash.c ****   }
 941              		.loc 1 1036 15 view .LVU283
 942 009a 23F06843 		bic	r3, r3, #-402653184
 943 009e 23F48013 		bic	r3, r3, #1048576
 944 00a2 5B0C     		lsrs	r3, r3, #17
 945 00a4 5B04     		lsls	r3, r3, #17
 946              	.LVL67:
1036:../../Drivers/STM32H7xx_HAL_Driver/Src/stm32h7xx_hal_flash.c ****   }
 947              		.loc 1 1036 15 view .LVU284
 948 00a6 E4E7     		b	.L72
 949              	.L89:
1049:../../Drivers/STM32H7xx_HAL_Driver/Src/stm32h7xx_hal_flash.c **** 
 950              		.loc 1 1049 5 is_stmt 1 view .LVU285
1049:../../Drivers/STM32H7xx_HAL_Driver/Src/stm32h7xx_hal_flash.c **** 
 951              		.loc 1 1049 11 is_stmt 0 view .LVU286
 952 00a8 1148     		ldr	r0, .L91+8
 953 00aa 8269     		ldr	r2, [r0, #24]
1049:../../Drivers/STM32H7xx_HAL_Driver/Src/stm32h7xx_hal_flash.c **** 
 954              		.loc 1 1049 22 view .LVU287
 955 00ac 1A43     		orrs	r2, r2, r3
 956 00ae 8261     		str	r2, [r0, #24]
1052:../../Drivers/STM32H7xx_HAL_Driver/Src/stm32h7xx_hal_flash.c **** 
 957              		.loc 1 1052 5 is_stmt 1 view .LVU288
 958 00b0 002B     		cmp	r3, #0
 959 00b2 03DB     		blt	.L74
1052:../../Drivers/STM32H7xx_HAL_Driver/Src/stm32h7xx_hal_flash.c **** 
 960              		.loc 1 1052 5 is_stmt 0 discriminator 1 view .LVU289
 961 00b4 0D4A     		ldr	r2, .L91+4
 962 00b6 5361     		str	r3, [r2, #20]
 963              	.LVL68:
 964              	.L75:
ARM GAS  C:\Users\gigig\AppData\Local\Temp\cc4Yyo3b.s 			page 40


1054:../../Drivers/STM32H7xx_HAL_Driver/Src/stm32h7xx_hal_flash.c ****   }
 965              		.loc 1 1054 5 is_stmt 1 view .LVU290
1054:../../Drivers/STM32H7xx_HAL_Driver/Src/stm32h7xx_hal_flash.c ****   }
 966              		.loc 1 1054 12 is_stmt 0 view .LVU291
 967 00b8 0120     		movs	r0, #1
 968              	.LVL69:
 969              	.L66:
1078:../../Drivers/STM32H7xx_HAL_Driver/Src/stm32h7xx_hal_flash.c **** }
 970              		.loc 1 1078 1 view .LVU292
 971 00ba F8BD     		pop	{r3, r4, r5, r6, r7, pc}
 972              	.LVL70:
 973              	.L74:
1052:../../Drivers/STM32H7xx_HAL_Driver/Src/stm32h7xx_hal_flash.c **** 
 974              		.loc 1 1052 5 discriminator 2 view .LVU293
 975 00bc 0B4B     		ldr	r3, .L91+4
 976              	.LVL71:
1052:../../Drivers/STM32H7xx_HAL_Driver/Src/stm32h7xx_hal_flash.c **** 
 977              		.loc 1 1052 5 discriminator 2 view .LVU294
 978 00be C3F81411 		str	r1, [r3, #276]
 979 00c2 F9E7     		b	.L75
 980              	.LVL72:
 981              	.L90:
1060:../../Drivers/STM32H7xx_HAL_Driver/Src/stm32h7xx_hal_flash.c ****     {
 982              		.loc 1 1060 5 is_stmt 1 view .LVU295
1060:../../Drivers/STM32H7xx_HAL_Driver/Src/stm32h7xx_hal_flash.c ****     {
 983              		.loc 1 1060 9 is_stmt 0 view .LVU296
 984 00c4 094B     		ldr	r3, .L91+4
 985              	.LVL73:
1060:../../Drivers/STM32H7xx_HAL_Driver/Src/stm32h7xx_hal_flash.c ****     {
 986              		.loc 1 1060 9 view .LVU297
 987 00c6 1B69     		ldr	r3, [r3, #16]
1060:../../Drivers/STM32H7xx_HAL_Driver/Src/stm32h7xx_hal_flash.c ****     {
 988              		.loc 1 1060 8 view .LVU298
 989 00c8 13F4803F 		tst	r3, #65536
 990 00cc 07D0     		beq	.L80
1063:../../Drivers/STM32H7xx_HAL_Driver/Src/stm32h7xx_hal_flash.c ****     }
 991              		.loc 1 1063 7 is_stmt 1 view .LVU299
 992 00ce 074B     		ldr	r3, .L91+4
 993 00d0 4FF48032 		mov	r2, #65536
 994 00d4 5A61     		str	r2, [r3, #20]
1077:../../Drivers/STM32H7xx_HAL_Driver/Src/stm32h7xx_hal_flash.c **** }
 995              		.loc 1 1077 10 is_stmt 0 view .LVU300
 996 00d6 0020     		movs	r0, #0
 997 00d8 EFE7     		b	.L66
 998              	.LVL74:
 999              	.L78:
1028:../../Drivers/STM32H7xx_HAL_Driver/Src/stm32h7xx_hal_flash.c ****       }
 1000              		.loc 1 1028 16 view .LVU301
 1001 00da 0320     		movs	r0, #3
 1002 00dc EDE7     		b	.L66
 1003              	.LVL75:
 1004              	.L80:
1077:../../Drivers/STM32H7xx_HAL_Driver/Src/stm32h7xx_hal_flash.c **** }
 1005              		.loc 1 1077 10 view .LVU302
 1006 00de 0020     		movs	r0, #0
 1007 00e0 EBE7     		b	.L66
 1008              	.L81:
ARM GAS  C:\Users\gigig\AppData\Local\Temp\cc4Yyo3b.s 			page 41


 1009 00e2 0020     		movs	r0, #0
 1010 00e4 E9E7     		b	.L66
 1011              	.L92:
 1012 00e6 00BF     		.align	2
 1013              	.L91:
 1014 00e8 04000080 		.word	-2147483644
 1015 00ec 00200052 		.word	1375739904
 1016 00f0 00000000 		.word	pFlash
 1017              		.cfi_endproc
 1018              	.LFE155:
 1020              		.section	.text.HAL_FLASH_Program,"ax",%progbits
 1021              		.align	1
 1022              		.global	HAL_FLASH_Program
 1023              		.syntax unified
 1024              		.thumb
 1025              		.thumb_func
 1027              	HAL_FLASH_Program:
 1028              	.LVL76:
 1029              	.LFB144:
 155:../../Drivers/STM32H7xx_HAL_Driver/Src/stm32h7xx_hal_flash.c ****   HAL_StatusTypeDef status;
 1030              		.loc 1 155 1 is_stmt 1 view -0
 1031              		.cfi_startproc
 1032              		@ args = 0, pretend = 0, frame = 0
 1033              		@ frame_needed = 0, uses_anonymous_args = 0
 156:../../Drivers/STM32H7xx_HAL_Driver/Src/stm32h7xx_hal_flash.c ****   __IO uint32_t *dest_addr = (__IO uint32_t *)FlashAddress;
 1034              		.loc 1 156 3 view .LVU304
 157:../../Drivers/STM32H7xx_HAL_Driver/Src/stm32h7xx_hal_flash.c ****   __IO uint32_t *src_addr = (__IO uint32_t*)DataAddress;
 1035              		.loc 1 157 3 view .LVU305
 158:../../Drivers/STM32H7xx_HAL_Driver/Src/stm32h7xx_hal_flash.c ****   uint32_t bank;
 1036              		.loc 1 158 3 view .LVU306
 159:../../Drivers/STM32H7xx_HAL_Driver/Src/stm32h7xx_hal_flash.c ****   uint8_t row_index = FLASH_NB_32BITWORD_IN_FLASHWORD;
 1037              		.loc 1 159 3 view .LVU307
 160:../../Drivers/STM32H7xx_HAL_Driver/Src/stm32h7xx_hal_flash.c **** 
 1038              		.loc 1 160 3 view .LVU308
 163:../../Drivers/STM32H7xx_HAL_Driver/Src/stm32h7xx_hal_flash.c ****   assert_param(IS_FLASH_PROGRAM_ADDRESS(FlashAddress));
 1039              		.loc 1 163 3 view .LVU309
 164:../../Drivers/STM32H7xx_HAL_Driver/Src/stm32h7xx_hal_flash.c **** 
 1040              		.loc 1 164 3 view .LVU310
 167:../../Drivers/STM32H7xx_HAL_Driver/Src/stm32h7xx_hal_flash.c **** 
 1041              		.loc 1 167 3 view .LVU311
 167:../../Drivers/STM32H7xx_HAL_Driver/Src/stm32h7xx_hal_flash.c **** 
 1042              		.loc 1 167 3 view .LVU312
 1043 0000 2D4B     		ldr	r3, .L110
 1044 0002 1B7D     		ldrb	r3, [r3, #20]	@ zero_extendqisi2
 1045 0004 012B     		cmp	r3, #1
 1046 0006 53D0     		beq	.L101
 155:../../Drivers/STM32H7xx_HAL_Driver/Src/stm32h7xx_hal_flash.c ****   HAL_StatusTypeDef status;
 1047              		.loc 1 155 1 is_stmt 0 discriminator 2 view .LVU313
 1048 0008 70B5     		push	{r4, r5, r6, lr}
 1049              	.LCFI2:
 1050              		.cfi_def_cfa_offset 16
 1051              		.cfi_offset 4, -16
 1052              		.cfi_offset 5, -12
 1053              		.cfi_offset 6, -8
 1054              		.cfi_offset 14, -4
 1055 000a 0D46     		mov	r5, r1
 1056 000c 1446     		mov	r4, r2
ARM GAS  C:\Users\gigig\AppData\Local\Temp\cc4Yyo3b.s 			page 42


 167:../../Drivers/STM32H7xx_HAL_Driver/Src/stm32h7xx_hal_flash.c **** 
 1057              		.loc 1 167 3 is_stmt 1 discriminator 2 view .LVU314
 1058 000e 2A4B     		ldr	r3, .L110
 1059 0010 0122     		movs	r2, #1
 1060              	.LVL77:
 167:../../Drivers/STM32H7xx_HAL_Driver/Src/stm32h7xx_hal_flash.c **** 
 1061              		.loc 1 167 3 is_stmt 0 discriminator 2 view .LVU315
 1062 0012 1A75     		strb	r2, [r3, #20]
 167:../../Drivers/STM32H7xx_HAL_Driver/Src/stm32h7xx_hal_flash.c **** 
 1063              		.loc 1 167 3 is_stmt 1 discriminator 2 view .LVU316
 172:../../Drivers/STM32H7xx_HAL_Driver/Src/stm32h7xx_hal_flash.c **** #endif /* FLASH_OPTCR_PG_OTP */
 1064              		.loc 1 172 3 discriminator 2 view .LVU317
 172:../../Drivers/STM32H7xx_HAL_Driver/Src/stm32h7xx_hal_flash.c **** #endif /* FLASH_OPTCR_PG_OTP */
 1065              		.loc 1 172 6 is_stmt 0 discriminator 2 view .LVU318
 1066 0014 01F17843 		add	r3, r1, #-134217728
 172:../../Drivers/STM32H7xx_HAL_Driver/Src/stm32h7xx_hal_flash.c **** #endif /* FLASH_OPTCR_PG_OTP */
 1067              		.loc 1 172 5 discriminator 2 view .LVU319
 1068 0018 B3F5801F 		cmp	r3, #1048576
 1069 001c 3AD3     		bcc	.L102
 178:../../Drivers/STM32H7xx_HAL_Driver/Src/stm32h7xx_hal_flash.c ****   {
 1070              		.loc 1 178 8 is_stmt 1 view .LVU320
 178:../../Drivers/STM32H7xx_HAL_Driver/Src/stm32h7xx_hal_flash.c ****   {
 1071              		.loc 1 178 11 is_stmt 0 view .LVU321
 1072 001e A1F10161 		sub	r1, r1, #135266304
 1073              	.LVL78:
 178:../../Drivers/STM32H7xx_HAL_Driver/Src/stm32h7xx_hal_flash.c ****   {
 1074              		.loc 1 178 10 view .LVU322
 1075 0022 B1F5801F 		cmp	r1, #1048576
 1076 0026 45D2     		bcs	.L103
 180:../../Drivers/STM32H7xx_HAL_Driver/Src/stm32h7xx_hal_flash.c ****   }
 1077              		.loc 1 180 10 view .LVU323
 1078 0028 0226     		movs	r6, #2
 1079              	.L95:
 1080              	.LVL79:
 189:../../Drivers/STM32H7xx_HAL_Driver/Src/stm32h7xx_hal_flash.c **** 
 1081              		.loc 1 189 3 is_stmt 1 view .LVU324
 189:../../Drivers/STM32H7xx_HAL_Driver/Src/stm32h7xx_hal_flash.c **** 
 1082              		.loc 1 189 20 is_stmt 0 view .LVU325
 1083 002a 234B     		ldr	r3, .L110
 1084 002c 0022     		movs	r2, #0
 1085 002e 9A61     		str	r2, [r3, #24]
 192:../../Drivers/STM32H7xx_HAL_Driver/Src/stm32h7xx_hal_flash.c **** 
 1086              		.loc 1 192 3 is_stmt 1 view .LVU326
 192:../../Drivers/STM32H7xx_HAL_Driver/Src/stm32h7xx_hal_flash.c **** 
 1087              		.loc 1 192 12 is_stmt 0 view .LVU327
 1088 0030 3146     		mov	r1, r6
 1089 0032 4CF25030 		movw	r0, #50000
 1090              	.LVL80:
 192:../../Drivers/STM32H7xx_HAL_Driver/Src/stm32h7xx_hal_flash.c **** 
 1091              		.loc 1 192 12 view .LVU328
 1092 0036 FFF7FEFF 		bl	FLASH_WaitForLastOperation
 1093              	.LVL81:
 194:../../Drivers/STM32H7xx_HAL_Driver/Src/stm32h7xx_hal_flash.c ****   {
 1094              		.loc 1 194 3 is_stmt 1 view .LVU329
 194:../../Drivers/STM32H7xx_HAL_Driver/Src/stm32h7xx_hal_flash.c ****   {
 1095              		.loc 1 194 5 is_stmt 0 view .LVU330
 1096 003a 38BB     		cbnz	r0, .L96
ARM GAS  C:\Users\gigig\AppData\Local\Temp\cc4Yyo3b.s 			page 43


 197:../../Drivers/STM32H7xx_HAL_Driver/Src/stm32h7xx_hal_flash.c ****     {
 1097              		.loc 1 197 5 is_stmt 1 view .LVU331
 197:../../Drivers/STM32H7xx_HAL_Driver/Src/stm32h7xx_hal_flash.c ****     {
 1098              		.loc 1 197 7 is_stmt 0 view .LVU332
 1099 003c 012E     		cmp	r6, #1
 1100 003e 2BD0     		beq	.L108
 215:../../Drivers/STM32H7xx_HAL_Driver/Src/stm32h7xx_hal_flash.c ****     }
 1101              		.loc 1 215 7 is_stmt 1 view .LVU333
 1102 0040 1E4A     		ldr	r2, .L110+4
 1103 0042 D2F80C31 		ldr	r3, [r2, #268]
 1104 0046 43F00203 		orr	r3, r3, #2
 1105 004a C2F80C31 		str	r3, [r2, #268]
 1106              	.L98:
 232:../../Drivers/STM32H7xx_HAL_Driver/Src/stm32h7xx_hal_flash.c ****     __DSB();
 1107              		.loc 1 232 5 view .LVU334
 1108              	.LBB18:
 1109              	.LBI18:
 1110              		.file 2 "../../Drivers/CMSIS/Include/cmsis_gcc.h"
   1:../../Drivers/CMSIS/Include/cmsis_gcc.h **** /**************************************************************************//**
   2:../../Drivers/CMSIS/Include/cmsis_gcc.h ****  * @file     cmsis_gcc.h
   3:../../Drivers/CMSIS/Include/cmsis_gcc.h ****  * @brief    CMSIS compiler GCC header file
   4:../../Drivers/CMSIS/Include/cmsis_gcc.h ****  * @version  V5.2.0
   5:../../Drivers/CMSIS/Include/cmsis_gcc.h ****  * @date     08. May 2019
   6:../../Drivers/CMSIS/Include/cmsis_gcc.h ****  ******************************************************************************/
   7:../../Drivers/CMSIS/Include/cmsis_gcc.h **** /*
   8:../../Drivers/CMSIS/Include/cmsis_gcc.h ****  * Copyright (c) 2009-2019 Arm Limited. All rights reserved.
   9:../../Drivers/CMSIS/Include/cmsis_gcc.h ****  *
  10:../../Drivers/CMSIS/Include/cmsis_gcc.h ****  * SPDX-License-Identifier: Apache-2.0
  11:../../Drivers/CMSIS/Include/cmsis_gcc.h ****  *
  12:../../Drivers/CMSIS/Include/cmsis_gcc.h ****  * Licensed under the Apache License, Version 2.0 (the License); you may
  13:../../Drivers/CMSIS/Include/cmsis_gcc.h ****  * not use this file except in compliance with the License.
  14:../../Drivers/CMSIS/Include/cmsis_gcc.h ****  * You may obtain a copy of the License at
  15:../../Drivers/CMSIS/Include/cmsis_gcc.h ****  *
  16:../../Drivers/CMSIS/Include/cmsis_gcc.h ****  * www.apache.org/licenses/LICENSE-2.0
  17:../../Drivers/CMSIS/Include/cmsis_gcc.h ****  *
  18:../../Drivers/CMSIS/Include/cmsis_gcc.h ****  * Unless required by applicable law or agreed to in writing, software
  19:../../Drivers/CMSIS/Include/cmsis_gcc.h ****  * distributed under the License is distributed on an AS IS BASIS, WITHOUT
  20:../../Drivers/CMSIS/Include/cmsis_gcc.h ****  * WARRANTIES OR CONDITIONS OF ANY KIND, either express or implied.
  21:../../Drivers/CMSIS/Include/cmsis_gcc.h ****  * See the License for the specific language governing permissions and
  22:../../Drivers/CMSIS/Include/cmsis_gcc.h ****  * limitations under the License.
  23:../../Drivers/CMSIS/Include/cmsis_gcc.h ****  */
  24:../../Drivers/CMSIS/Include/cmsis_gcc.h **** 
  25:../../Drivers/CMSIS/Include/cmsis_gcc.h **** #ifndef __CMSIS_GCC_H
  26:../../Drivers/CMSIS/Include/cmsis_gcc.h **** #define __CMSIS_GCC_H
  27:../../Drivers/CMSIS/Include/cmsis_gcc.h **** 
  28:../../Drivers/CMSIS/Include/cmsis_gcc.h **** /* ignore some GCC warnings */
  29:../../Drivers/CMSIS/Include/cmsis_gcc.h **** #pragma GCC diagnostic push
  30:../../Drivers/CMSIS/Include/cmsis_gcc.h **** #pragma GCC diagnostic ignored "-Wsign-conversion"
  31:../../Drivers/CMSIS/Include/cmsis_gcc.h **** #pragma GCC diagnostic ignored "-Wconversion"
  32:../../Drivers/CMSIS/Include/cmsis_gcc.h **** #pragma GCC diagnostic ignored "-Wunused-parameter"
  33:../../Drivers/CMSIS/Include/cmsis_gcc.h **** 
  34:../../Drivers/CMSIS/Include/cmsis_gcc.h **** /* Fallback for __has_builtin */
  35:../../Drivers/CMSIS/Include/cmsis_gcc.h **** #ifndef __has_builtin
  36:../../Drivers/CMSIS/Include/cmsis_gcc.h ****   #define __has_builtin(x) (0)
  37:../../Drivers/CMSIS/Include/cmsis_gcc.h **** #endif
  38:../../Drivers/CMSIS/Include/cmsis_gcc.h **** 
  39:../../Drivers/CMSIS/Include/cmsis_gcc.h **** /* CMSIS compiler specific defines */
ARM GAS  C:\Users\gigig\AppData\Local\Temp\cc4Yyo3b.s 			page 44


  40:../../Drivers/CMSIS/Include/cmsis_gcc.h **** #ifndef   __ASM
  41:../../Drivers/CMSIS/Include/cmsis_gcc.h ****   #define __ASM                                  __asm
  42:../../Drivers/CMSIS/Include/cmsis_gcc.h **** #endif
  43:../../Drivers/CMSIS/Include/cmsis_gcc.h **** #ifndef   __INLINE
  44:../../Drivers/CMSIS/Include/cmsis_gcc.h ****   #define __INLINE                               inline
  45:../../Drivers/CMSIS/Include/cmsis_gcc.h **** #endif
  46:../../Drivers/CMSIS/Include/cmsis_gcc.h **** #ifndef   __STATIC_INLINE
  47:../../Drivers/CMSIS/Include/cmsis_gcc.h ****   #define __STATIC_INLINE                        static inline
  48:../../Drivers/CMSIS/Include/cmsis_gcc.h **** #endif
  49:../../Drivers/CMSIS/Include/cmsis_gcc.h **** #ifndef   __STATIC_FORCEINLINE                 
  50:../../Drivers/CMSIS/Include/cmsis_gcc.h ****   #define __STATIC_FORCEINLINE                   __attribute__((always_inline)) static inline
  51:../../Drivers/CMSIS/Include/cmsis_gcc.h **** #endif                                           
  52:../../Drivers/CMSIS/Include/cmsis_gcc.h **** #ifndef   __NO_RETURN
  53:../../Drivers/CMSIS/Include/cmsis_gcc.h ****   #define __NO_RETURN                            __attribute__((__noreturn__))
  54:../../Drivers/CMSIS/Include/cmsis_gcc.h **** #endif
  55:../../Drivers/CMSIS/Include/cmsis_gcc.h **** #ifndef   __USED
  56:../../Drivers/CMSIS/Include/cmsis_gcc.h ****   #define __USED                                 __attribute__((used))
  57:../../Drivers/CMSIS/Include/cmsis_gcc.h **** #endif
  58:../../Drivers/CMSIS/Include/cmsis_gcc.h **** #ifndef   __WEAK
  59:../../Drivers/CMSIS/Include/cmsis_gcc.h ****   #define __WEAK                                 __attribute__((weak))
  60:../../Drivers/CMSIS/Include/cmsis_gcc.h **** #endif
  61:../../Drivers/CMSIS/Include/cmsis_gcc.h **** #ifndef   __PACKED
  62:../../Drivers/CMSIS/Include/cmsis_gcc.h ****   #define __PACKED                               __attribute__((packed, aligned(1)))
  63:../../Drivers/CMSIS/Include/cmsis_gcc.h **** #endif
  64:../../Drivers/CMSIS/Include/cmsis_gcc.h **** #ifndef   __PACKED_STRUCT
  65:../../Drivers/CMSIS/Include/cmsis_gcc.h ****   #define __PACKED_STRUCT                        struct __attribute__((packed, aligned(1)))
  66:../../Drivers/CMSIS/Include/cmsis_gcc.h **** #endif
  67:../../Drivers/CMSIS/Include/cmsis_gcc.h **** #ifndef   __PACKED_UNION
  68:../../Drivers/CMSIS/Include/cmsis_gcc.h ****   #define __PACKED_UNION                         union __attribute__((packed, aligned(1)))
  69:../../Drivers/CMSIS/Include/cmsis_gcc.h **** #endif
  70:../../Drivers/CMSIS/Include/cmsis_gcc.h **** #ifndef   __UNALIGNED_UINT32        /* deprecated */
  71:../../Drivers/CMSIS/Include/cmsis_gcc.h ****   #pragma GCC diagnostic push
  72:../../Drivers/CMSIS/Include/cmsis_gcc.h ****   #pragma GCC diagnostic ignored "-Wpacked"
  73:../../Drivers/CMSIS/Include/cmsis_gcc.h ****   #pragma GCC diagnostic ignored "-Wattributes"
  74:../../Drivers/CMSIS/Include/cmsis_gcc.h ****   struct __attribute__((packed)) T_UINT32 { uint32_t v; };
  75:../../Drivers/CMSIS/Include/cmsis_gcc.h ****   #pragma GCC diagnostic pop
  76:../../Drivers/CMSIS/Include/cmsis_gcc.h ****   #define __UNALIGNED_UINT32(x)                  (((struct T_UINT32 *)(x))->v)
  77:../../Drivers/CMSIS/Include/cmsis_gcc.h **** #endif
  78:../../Drivers/CMSIS/Include/cmsis_gcc.h **** #ifndef   __UNALIGNED_UINT16_WRITE
  79:../../Drivers/CMSIS/Include/cmsis_gcc.h ****   #pragma GCC diagnostic push
  80:../../Drivers/CMSIS/Include/cmsis_gcc.h ****   #pragma GCC diagnostic ignored "-Wpacked"
  81:../../Drivers/CMSIS/Include/cmsis_gcc.h ****   #pragma GCC diagnostic ignored "-Wattributes"
  82:../../Drivers/CMSIS/Include/cmsis_gcc.h ****   __PACKED_STRUCT T_UINT16_WRITE { uint16_t v; };
  83:../../Drivers/CMSIS/Include/cmsis_gcc.h ****   #pragma GCC diagnostic pop
  84:../../Drivers/CMSIS/Include/cmsis_gcc.h ****   #define __UNALIGNED_UINT16_WRITE(addr, val)    (void)((((struct T_UINT16_WRITE *)(void *)(addr))-
  85:../../Drivers/CMSIS/Include/cmsis_gcc.h **** #endif
  86:../../Drivers/CMSIS/Include/cmsis_gcc.h **** #ifndef   __UNALIGNED_UINT16_READ
  87:../../Drivers/CMSIS/Include/cmsis_gcc.h ****   #pragma GCC diagnostic push
  88:../../Drivers/CMSIS/Include/cmsis_gcc.h ****   #pragma GCC diagnostic ignored "-Wpacked"
  89:../../Drivers/CMSIS/Include/cmsis_gcc.h ****   #pragma GCC diagnostic ignored "-Wattributes"
  90:../../Drivers/CMSIS/Include/cmsis_gcc.h ****   __PACKED_STRUCT T_UINT16_READ { uint16_t v; };
  91:../../Drivers/CMSIS/Include/cmsis_gcc.h ****   #pragma GCC diagnostic pop
  92:../../Drivers/CMSIS/Include/cmsis_gcc.h ****   #define __UNALIGNED_UINT16_READ(addr)          (((const struct T_UINT16_READ *)(const void *)(add
  93:../../Drivers/CMSIS/Include/cmsis_gcc.h **** #endif
  94:../../Drivers/CMSIS/Include/cmsis_gcc.h **** #ifndef   __UNALIGNED_UINT32_WRITE
  95:../../Drivers/CMSIS/Include/cmsis_gcc.h ****   #pragma GCC diagnostic push
  96:../../Drivers/CMSIS/Include/cmsis_gcc.h ****   #pragma GCC diagnostic ignored "-Wpacked"
ARM GAS  C:\Users\gigig\AppData\Local\Temp\cc4Yyo3b.s 			page 45


  97:../../Drivers/CMSIS/Include/cmsis_gcc.h ****   #pragma GCC diagnostic ignored "-Wattributes"
  98:../../Drivers/CMSIS/Include/cmsis_gcc.h ****   __PACKED_STRUCT T_UINT32_WRITE { uint32_t v; };
  99:../../Drivers/CMSIS/Include/cmsis_gcc.h ****   #pragma GCC diagnostic pop
 100:../../Drivers/CMSIS/Include/cmsis_gcc.h ****   #define __UNALIGNED_UINT32_WRITE(addr, val)    (void)((((struct T_UINT32_WRITE *)(void *)(addr))-
 101:../../Drivers/CMSIS/Include/cmsis_gcc.h **** #endif
 102:../../Drivers/CMSIS/Include/cmsis_gcc.h **** #ifndef   __UNALIGNED_UINT32_READ
 103:../../Drivers/CMSIS/Include/cmsis_gcc.h ****   #pragma GCC diagnostic push
 104:../../Drivers/CMSIS/Include/cmsis_gcc.h ****   #pragma GCC diagnostic ignored "-Wpacked"
 105:../../Drivers/CMSIS/Include/cmsis_gcc.h ****   #pragma GCC diagnostic ignored "-Wattributes"
 106:../../Drivers/CMSIS/Include/cmsis_gcc.h ****   __PACKED_STRUCT T_UINT32_READ { uint32_t v; };
 107:../../Drivers/CMSIS/Include/cmsis_gcc.h ****   #pragma GCC diagnostic pop
 108:../../Drivers/CMSIS/Include/cmsis_gcc.h ****   #define __UNALIGNED_UINT32_READ(addr)          (((const struct T_UINT32_READ *)(const void *)(add
 109:../../Drivers/CMSIS/Include/cmsis_gcc.h **** #endif
 110:../../Drivers/CMSIS/Include/cmsis_gcc.h **** #ifndef   __ALIGNED
 111:../../Drivers/CMSIS/Include/cmsis_gcc.h ****   #define __ALIGNED(x)                           __attribute__((aligned(x)))
 112:../../Drivers/CMSIS/Include/cmsis_gcc.h **** #endif
 113:../../Drivers/CMSIS/Include/cmsis_gcc.h **** #ifndef   __RESTRICT
 114:../../Drivers/CMSIS/Include/cmsis_gcc.h ****   #define __RESTRICT                             __restrict
 115:../../Drivers/CMSIS/Include/cmsis_gcc.h **** #endif
 116:../../Drivers/CMSIS/Include/cmsis_gcc.h **** #ifndef   __COMPILER_BARRIER
 117:../../Drivers/CMSIS/Include/cmsis_gcc.h ****   #define __COMPILER_BARRIER()                   __ASM volatile("":::"memory")
 118:../../Drivers/CMSIS/Include/cmsis_gcc.h **** #endif
 119:../../Drivers/CMSIS/Include/cmsis_gcc.h **** 
 120:../../Drivers/CMSIS/Include/cmsis_gcc.h **** /* #########################  Startup and Lowlevel Init  ######################## */
 121:../../Drivers/CMSIS/Include/cmsis_gcc.h **** 
 122:../../Drivers/CMSIS/Include/cmsis_gcc.h **** #ifndef __PROGRAM_START
 123:../../Drivers/CMSIS/Include/cmsis_gcc.h **** 
 124:../../Drivers/CMSIS/Include/cmsis_gcc.h **** /**
 125:../../Drivers/CMSIS/Include/cmsis_gcc.h ****   \brief   Initializes data and bss sections
 126:../../Drivers/CMSIS/Include/cmsis_gcc.h ****   \details This default implementations initialized all data and additional bss
 127:../../Drivers/CMSIS/Include/cmsis_gcc.h ****            sections relying on .copy.table and .zero.table specified properly
 128:../../Drivers/CMSIS/Include/cmsis_gcc.h ****            in the used linker script.
 129:../../Drivers/CMSIS/Include/cmsis_gcc.h ****   
 130:../../Drivers/CMSIS/Include/cmsis_gcc.h ****  */
 131:../../Drivers/CMSIS/Include/cmsis_gcc.h **** __STATIC_FORCEINLINE __NO_RETURN void __cmsis_start(void)
 132:../../Drivers/CMSIS/Include/cmsis_gcc.h **** {
 133:../../Drivers/CMSIS/Include/cmsis_gcc.h ****   extern void _start(void) __NO_RETURN;
 134:../../Drivers/CMSIS/Include/cmsis_gcc.h ****   
 135:../../Drivers/CMSIS/Include/cmsis_gcc.h ****   typedef struct {
 136:../../Drivers/CMSIS/Include/cmsis_gcc.h ****     uint32_t const* src;
 137:../../Drivers/CMSIS/Include/cmsis_gcc.h ****     uint32_t* dest;
 138:../../Drivers/CMSIS/Include/cmsis_gcc.h ****     uint32_t  wlen;
 139:../../Drivers/CMSIS/Include/cmsis_gcc.h ****   } __copy_table_t;
 140:../../Drivers/CMSIS/Include/cmsis_gcc.h ****   
 141:../../Drivers/CMSIS/Include/cmsis_gcc.h ****   typedef struct {
 142:../../Drivers/CMSIS/Include/cmsis_gcc.h ****     uint32_t* dest;
 143:../../Drivers/CMSIS/Include/cmsis_gcc.h ****     uint32_t  wlen;
 144:../../Drivers/CMSIS/Include/cmsis_gcc.h ****   } __zero_table_t;
 145:../../Drivers/CMSIS/Include/cmsis_gcc.h ****   
 146:../../Drivers/CMSIS/Include/cmsis_gcc.h ****   extern const __copy_table_t __copy_table_start__;
 147:../../Drivers/CMSIS/Include/cmsis_gcc.h ****   extern const __copy_table_t __copy_table_end__;
 148:../../Drivers/CMSIS/Include/cmsis_gcc.h ****   extern const __zero_table_t __zero_table_start__;
 149:../../Drivers/CMSIS/Include/cmsis_gcc.h ****   extern const __zero_table_t __zero_table_end__;
 150:../../Drivers/CMSIS/Include/cmsis_gcc.h **** 
 151:../../Drivers/CMSIS/Include/cmsis_gcc.h ****   for (__copy_table_t const* pTable = &__copy_table_start__; pTable < &__copy_table_end__; ++pTable
 152:../../Drivers/CMSIS/Include/cmsis_gcc.h ****     for(uint32_t i=0u; i<pTable->wlen; ++i) {
 153:../../Drivers/CMSIS/Include/cmsis_gcc.h ****       pTable->dest[i] = pTable->src[i];
ARM GAS  C:\Users\gigig\AppData\Local\Temp\cc4Yyo3b.s 			page 46


 154:../../Drivers/CMSIS/Include/cmsis_gcc.h ****     }
 155:../../Drivers/CMSIS/Include/cmsis_gcc.h ****   }
 156:../../Drivers/CMSIS/Include/cmsis_gcc.h ****  
 157:../../Drivers/CMSIS/Include/cmsis_gcc.h ****   for (__zero_table_t const* pTable = &__zero_table_start__; pTable < &__zero_table_end__; ++pTable
 158:../../Drivers/CMSIS/Include/cmsis_gcc.h ****     for(uint32_t i=0u; i<pTable->wlen; ++i) {
 159:../../Drivers/CMSIS/Include/cmsis_gcc.h ****       pTable->dest[i] = 0u;
 160:../../Drivers/CMSIS/Include/cmsis_gcc.h ****     }
 161:../../Drivers/CMSIS/Include/cmsis_gcc.h ****   }
 162:../../Drivers/CMSIS/Include/cmsis_gcc.h ****  
 163:../../Drivers/CMSIS/Include/cmsis_gcc.h ****   _start();
 164:../../Drivers/CMSIS/Include/cmsis_gcc.h **** }
 165:../../Drivers/CMSIS/Include/cmsis_gcc.h ****   
 166:../../Drivers/CMSIS/Include/cmsis_gcc.h **** #define __PROGRAM_START           __cmsis_start
 167:../../Drivers/CMSIS/Include/cmsis_gcc.h **** #endif
 168:../../Drivers/CMSIS/Include/cmsis_gcc.h **** 
 169:../../Drivers/CMSIS/Include/cmsis_gcc.h **** #ifndef __INITIAL_SP
 170:../../Drivers/CMSIS/Include/cmsis_gcc.h **** #define __INITIAL_SP              __StackTop
 171:../../Drivers/CMSIS/Include/cmsis_gcc.h **** #endif
 172:../../Drivers/CMSIS/Include/cmsis_gcc.h **** 
 173:../../Drivers/CMSIS/Include/cmsis_gcc.h **** #ifndef __STACK_LIMIT
 174:../../Drivers/CMSIS/Include/cmsis_gcc.h **** #define __STACK_LIMIT             __StackLimit
 175:../../Drivers/CMSIS/Include/cmsis_gcc.h **** #endif
 176:../../Drivers/CMSIS/Include/cmsis_gcc.h **** 
 177:../../Drivers/CMSIS/Include/cmsis_gcc.h **** #ifndef __VECTOR_TABLE
 178:../../Drivers/CMSIS/Include/cmsis_gcc.h **** #define __VECTOR_TABLE            __Vectors
 179:../../Drivers/CMSIS/Include/cmsis_gcc.h **** #endif
 180:../../Drivers/CMSIS/Include/cmsis_gcc.h **** 
 181:../../Drivers/CMSIS/Include/cmsis_gcc.h **** #ifndef __VECTOR_TABLE_ATTRIBUTE
 182:../../Drivers/CMSIS/Include/cmsis_gcc.h **** #define __VECTOR_TABLE_ATTRIBUTE  __attribute((used, section(".vectors")))
 183:../../Drivers/CMSIS/Include/cmsis_gcc.h **** #endif
 184:../../Drivers/CMSIS/Include/cmsis_gcc.h **** 
 185:../../Drivers/CMSIS/Include/cmsis_gcc.h **** /* ###########################  Core Function Access  ########################### */
 186:../../Drivers/CMSIS/Include/cmsis_gcc.h **** /** \ingroup  CMSIS_Core_FunctionInterface
 187:../../Drivers/CMSIS/Include/cmsis_gcc.h ****     \defgroup CMSIS_Core_RegAccFunctions CMSIS Core Register Access Functions
 188:../../Drivers/CMSIS/Include/cmsis_gcc.h ****   @{
 189:../../Drivers/CMSIS/Include/cmsis_gcc.h ****  */
 190:../../Drivers/CMSIS/Include/cmsis_gcc.h **** 
 191:../../Drivers/CMSIS/Include/cmsis_gcc.h **** /**
 192:../../Drivers/CMSIS/Include/cmsis_gcc.h ****   \brief   Enable IRQ Interrupts
 193:../../Drivers/CMSIS/Include/cmsis_gcc.h ****   \details Enables IRQ interrupts by clearing the I-bit in the CPSR.
 194:../../Drivers/CMSIS/Include/cmsis_gcc.h ****            Can only be executed in Privileged modes.
 195:../../Drivers/CMSIS/Include/cmsis_gcc.h ****  */
 196:../../Drivers/CMSIS/Include/cmsis_gcc.h **** __STATIC_FORCEINLINE void __enable_irq(void)
 197:../../Drivers/CMSIS/Include/cmsis_gcc.h **** {
 198:../../Drivers/CMSIS/Include/cmsis_gcc.h ****   __ASM volatile ("cpsie i" : : : "memory");
 199:../../Drivers/CMSIS/Include/cmsis_gcc.h **** }
 200:../../Drivers/CMSIS/Include/cmsis_gcc.h **** 
 201:../../Drivers/CMSIS/Include/cmsis_gcc.h **** 
 202:../../Drivers/CMSIS/Include/cmsis_gcc.h **** /**
 203:../../Drivers/CMSIS/Include/cmsis_gcc.h ****   \brief   Disable IRQ Interrupts
 204:../../Drivers/CMSIS/Include/cmsis_gcc.h ****   \details Disables IRQ interrupts by setting the I-bit in the CPSR.
 205:../../Drivers/CMSIS/Include/cmsis_gcc.h ****            Can only be executed in Privileged modes.
 206:../../Drivers/CMSIS/Include/cmsis_gcc.h ****  */
 207:../../Drivers/CMSIS/Include/cmsis_gcc.h **** __STATIC_FORCEINLINE void __disable_irq(void)
 208:../../Drivers/CMSIS/Include/cmsis_gcc.h **** {
 209:../../Drivers/CMSIS/Include/cmsis_gcc.h ****   __ASM volatile ("cpsid i" : : : "memory");
 210:../../Drivers/CMSIS/Include/cmsis_gcc.h **** }
ARM GAS  C:\Users\gigig\AppData\Local\Temp\cc4Yyo3b.s 			page 47


 211:../../Drivers/CMSIS/Include/cmsis_gcc.h **** 
 212:../../Drivers/CMSIS/Include/cmsis_gcc.h **** 
 213:../../Drivers/CMSIS/Include/cmsis_gcc.h **** /**
 214:../../Drivers/CMSIS/Include/cmsis_gcc.h ****   \brief   Get Control Register
 215:../../Drivers/CMSIS/Include/cmsis_gcc.h ****   \details Returns the content of the Control Register.
 216:../../Drivers/CMSIS/Include/cmsis_gcc.h ****   \return               Control Register value
 217:../../Drivers/CMSIS/Include/cmsis_gcc.h ****  */
 218:../../Drivers/CMSIS/Include/cmsis_gcc.h **** __STATIC_FORCEINLINE uint32_t __get_CONTROL(void)
 219:../../Drivers/CMSIS/Include/cmsis_gcc.h **** {
 220:../../Drivers/CMSIS/Include/cmsis_gcc.h ****   uint32_t result;
 221:../../Drivers/CMSIS/Include/cmsis_gcc.h **** 
 222:../../Drivers/CMSIS/Include/cmsis_gcc.h ****   __ASM volatile ("MRS %0, control" : "=r" (result) );
 223:../../Drivers/CMSIS/Include/cmsis_gcc.h ****   return(result);
 224:../../Drivers/CMSIS/Include/cmsis_gcc.h **** }
 225:../../Drivers/CMSIS/Include/cmsis_gcc.h **** 
 226:../../Drivers/CMSIS/Include/cmsis_gcc.h **** 
 227:../../Drivers/CMSIS/Include/cmsis_gcc.h **** #if (defined (__ARM_FEATURE_CMSE ) && (__ARM_FEATURE_CMSE == 3))
 228:../../Drivers/CMSIS/Include/cmsis_gcc.h **** /**
 229:../../Drivers/CMSIS/Include/cmsis_gcc.h ****   \brief   Get Control Register (non-secure)
 230:../../Drivers/CMSIS/Include/cmsis_gcc.h ****   \details Returns the content of the non-secure Control Register when in secure mode.
 231:../../Drivers/CMSIS/Include/cmsis_gcc.h ****   \return               non-secure Control Register value
 232:../../Drivers/CMSIS/Include/cmsis_gcc.h ****  */
 233:../../Drivers/CMSIS/Include/cmsis_gcc.h **** __STATIC_FORCEINLINE uint32_t __TZ_get_CONTROL_NS(void)
 234:../../Drivers/CMSIS/Include/cmsis_gcc.h **** {
 235:../../Drivers/CMSIS/Include/cmsis_gcc.h ****   uint32_t result;
 236:../../Drivers/CMSIS/Include/cmsis_gcc.h **** 
 237:../../Drivers/CMSIS/Include/cmsis_gcc.h ****   __ASM volatile ("MRS %0, control_ns" : "=r" (result) );
 238:../../Drivers/CMSIS/Include/cmsis_gcc.h ****   return(result);
 239:../../Drivers/CMSIS/Include/cmsis_gcc.h **** }
 240:../../Drivers/CMSIS/Include/cmsis_gcc.h **** #endif
 241:../../Drivers/CMSIS/Include/cmsis_gcc.h **** 
 242:../../Drivers/CMSIS/Include/cmsis_gcc.h **** 
 243:../../Drivers/CMSIS/Include/cmsis_gcc.h **** /**
 244:../../Drivers/CMSIS/Include/cmsis_gcc.h ****   \brief   Set Control Register
 245:../../Drivers/CMSIS/Include/cmsis_gcc.h ****   \details Writes the given value to the Control Register.
 246:../../Drivers/CMSIS/Include/cmsis_gcc.h ****   \param [in]    control  Control Register value to set
 247:../../Drivers/CMSIS/Include/cmsis_gcc.h ****  */
 248:../../Drivers/CMSIS/Include/cmsis_gcc.h **** __STATIC_FORCEINLINE void __set_CONTROL(uint32_t control)
 249:../../Drivers/CMSIS/Include/cmsis_gcc.h **** {
 250:../../Drivers/CMSIS/Include/cmsis_gcc.h ****   __ASM volatile ("MSR control, %0" : : "r" (control) : "memory");
 251:../../Drivers/CMSIS/Include/cmsis_gcc.h **** }
 252:../../Drivers/CMSIS/Include/cmsis_gcc.h **** 
 253:../../Drivers/CMSIS/Include/cmsis_gcc.h **** 
 254:../../Drivers/CMSIS/Include/cmsis_gcc.h **** #if (defined (__ARM_FEATURE_CMSE ) && (__ARM_FEATURE_CMSE == 3))
 255:../../Drivers/CMSIS/Include/cmsis_gcc.h **** /**
 256:../../Drivers/CMSIS/Include/cmsis_gcc.h ****   \brief   Set Control Register (non-secure)
 257:../../Drivers/CMSIS/Include/cmsis_gcc.h ****   \details Writes the given value to the non-secure Control Register when in secure state.
 258:../../Drivers/CMSIS/Include/cmsis_gcc.h ****   \param [in]    control  Control Register value to set
 259:../../Drivers/CMSIS/Include/cmsis_gcc.h ****  */
 260:../../Drivers/CMSIS/Include/cmsis_gcc.h **** __STATIC_FORCEINLINE void __TZ_set_CONTROL_NS(uint32_t control)
 261:../../Drivers/CMSIS/Include/cmsis_gcc.h **** {
 262:../../Drivers/CMSIS/Include/cmsis_gcc.h ****   __ASM volatile ("MSR control_ns, %0" : : "r" (control) : "memory");
 263:../../Drivers/CMSIS/Include/cmsis_gcc.h **** }
 264:../../Drivers/CMSIS/Include/cmsis_gcc.h **** #endif
 265:../../Drivers/CMSIS/Include/cmsis_gcc.h **** 
 266:../../Drivers/CMSIS/Include/cmsis_gcc.h **** 
 267:../../Drivers/CMSIS/Include/cmsis_gcc.h **** /**
ARM GAS  C:\Users\gigig\AppData\Local\Temp\cc4Yyo3b.s 			page 48


 268:../../Drivers/CMSIS/Include/cmsis_gcc.h ****   \brief   Get IPSR Register
 269:../../Drivers/CMSIS/Include/cmsis_gcc.h ****   \details Returns the content of the IPSR Register.
 270:../../Drivers/CMSIS/Include/cmsis_gcc.h ****   \return               IPSR Register value
 271:../../Drivers/CMSIS/Include/cmsis_gcc.h ****  */
 272:../../Drivers/CMSIS/Include/cmsis_gcc.h **** __STATIC_FORCEINLINE uint32_t __get_IPSR(void)
 273:../../Drivers/CMSIS/Include/cmsis_gcc.h **** {
 274:../../Drivers/CMSIS/Include/cmsis_gcc.h ****   uint32_t result;
 275:../../Drivers/CMSIS/Include/cmsis_gcc.h **** 
 276:../../Drivers/CMSIS/Include/cmsis_gcc.h ****   __ASM volatile ("MRS %0, ipsr" : "=r" (result) );
 277:../../Drivers/CMSIS/Include/cmsis_gcc.h ****   return(result);
 278:../../Drivers/CMSIS/Include/cmsis_gcc.h **** }
 279:../../Drivers/CMSIS/Include/cmsis_gcc.h **** 
 280:../../Drivers/CMSIS/Include/cmsis_gcc.h **** 
 281:../../Drivers/CMSIS/Include/cmsis_gcc.h **** /**
 282:../../Drivers/CMSIS/Include/cmsis_gcc.h ****   \brief   Get APSR Register
 283:../../Drivers/CMSIS/Include/cmsis_gcc.h ****   \details Returns the content of the APSR Register.
 284:../../Drivers/CMSIS/Include/cmsis_gcc.h ****   \return               APSR Register value
 285:../../Drivers/CMSIS/Include/cmsis_gcc.h ****  */
 286:../../Drivers/CMSIS/Include/cmsis_gcc.h **** __STATIC_FORCEINLINE uint32_t __get_APSR(void)
 287:../../Drivers/CMSIS/Include/cmsis_gcc.h **** {
 288:../../Drivers/CMSIS/Include/cmsis_gcc.h ****   uint32_t result;
 289:../../Drivers/CMSIS/Include/cmsis_gcc.h **** 
 290:../../Drivers/CMSIS/Include/cmsis_gcc.h ****   __ASM volatile ("MRS %0, apsr" : "=r" (result) );
 291:../../Drivers/CMSIS/Include/cmsis_gcc.h ****   return(result);
 292:../../Drivers/CMSIS/Include/cmsis_gcc.h **** }
 293:../../Drivers/CMSIS/Include/cmsis_gcc.h **** 
 294:../../Drivers/CMSIS/Include/cmsis_gcc.h **** 
 295:../../Drivers/CMSIS/Include/cmsis_gcc.h **** /**
 296:../../Drivers/CMSIS/Include/cmsis_gcc.h ****   \brief   Get xPSR Register
 297:../../Drivers/CMSIS/Include/cmsis_gcc.h ****   \details Returns the content of the xPSR Register.
 298:../../Drivers/CMSIS/Include/cmsis_gcc.h ****   \return               xPSR Register value
 299:../../Drivers/CMSIS/Include/cmsis_gcc.h ****  */
 300:../../Drivers/CMSIS/Include/cmsis_gcc.h **** __STATIC_FORCEINLINE uint32_t __get_xPSR(void)
 301:../../Drivers/CMSIS/Include/cmsis_gcc.h **** {
 302:../../Drivers/CMSIS/Include/cmsis_gcc.h ****   uint32_t result;
 303:../../Drivers/CMSIS/Include/cmsis_gcc.h **** 
 304:../../Drivers/CMSIS/Include/cmsis_gcc.h ****   __ASM volatile ("MRS %0, xpsr" : "=r" (result) );
 305:../../Drivers/CMSIS/Include/cmsis_gcc.h ****   return(result);
 306:../../Drivers/CMSIS/Include/cmsis_gcc.h **** }
 307:../../Drivers/CMSIS/Include/cmsis_gcc.h **** 
 308:../../Drivers/CMSIS/Include/cmsis_gcc.h **** 
 309:../../Drivers/CMSIS/Include/cmsis_gcc.h **** /**
 310:../../Drivers/CMSIS/Include/cmsis_gcc.h ****   \brief   Get Process Stack Pointer
 311:../../Drivers/CMSIS/Include/cmsis_gcc.h ****   \details Returns the current value of the Process Stack Pointer (PSP).
 312:../../Drivers/CMSIS/Include/cmsis_gcc.h ****   \return               PSP Register value
 313:../../Drivers/CMSIS/Include/cmsis_gcc.h ****  */
 314:../../Drivers/CMSIS/Include/cmsis_gcc.h **** __STATIC_FORCEINLINE uint32_t __get_PSP(void)
 315:../../Drivers/CMSIS/Include/cmsis_gcc.h **** {
 316:../../Drivers/CMSIS/Include/cmsis_gcc.h ****   uint32_t result;
 317:../../Drivers/CMSIS/Include/cmsis_gcc.h **** 
 318:../../Drivers/CMSIS/Include/cmsis_gcc.h ****   __ASM volatile ("MRS %0, psp"  : "=r" (result) );
 319:../../Drivers/CMSIS/Include/cmsis_gcc.h ****   return(result);
 320:../../Drivers/CMSIS/Include/cmsis_gcc.h **** }
 321:../../Drivers/CMSIS/Include/cmsis_gcc.h **** 
 322:../../Drivers/CMSIS/Include/cmsis_gcc.h **** 
 323:../../Drivers/CMSIS/Include/cmsis_gcc.h **** #if (defined (__ARM_FEATURE_CMSE ) && (__ARM_FEATURE_CMSE == 3))
 324:../../Drivers/CMSIS/Include/cmsis_gcc.h **** /**
ARM GAS  C:\Users\gigig\AppData\Local\Temp\cc4Yyo3b.s 			page 49


 325:../../Drivers/CMSIS/Include/cmsis_gcc.h ****   \brief   Get Process Stack Pointer (non-secure)
 326:../../Drivers/CMSIS/Include/cmsis_gcc.h ****   \details Returns the current value of the non-secure Process Stack Pointer (PSP) when in secure s
 327:../../Drivers/CMSIS/Include/cmsis_gcc.h ****   \return               PSP Register value
 328:../../Drivers/CMSIS/Include/cmsis_gcc.h ****  */
 329:../../Drivers/CMSIS/Include/cmsis_gcc.h **** __STATIC_FORCEINLINE uint32_t __TZ_get_PSP_NS(void)
 330:../../Drivers/CMSIS/Include/cmsis_gcc.h **** {
 331:../../Drivers/CMSIS/Include/cmsis_gcc.h ****   uint32_t result;
 332:../../Drivers/CMSIS/Include/cmsis_gcc.h **** 
 333:../../Drivers/CMSIS/Include/cmsis_gcc.h ****   __ASM volatile ("MRS %0, psp_ns"  : "=r" (result) );
 334:../../Drivers/CMSIS/Include/cmsis_gcc.h ****   return(result);
 335:../../Drivers/CMSIS/Include/cmsis_gcc.h **** }
 336:../../Drivers/CMSIS/Include/cmsis_gcc.h **** #endif
 337:../../Drivers/CMSIS/Include/cmsis_gcc.h **** 
 338:../../Drivers/CMSIS/Include/cmsis_gcc.h **** 
 339:../../Drivers/CMSIS/Include/cmsis_gcc.h **** /**
 340:../../Drivers/CMSIS/Include/cmsis_gcc.h ****   \brief   Set Process Stack Pointer
 341:../../Drivers/CMSIS/Include/cmsis_gcc.h ****   \details Assigns the given value to the Process Stack Pointer (PSP).
 342:../../Drivers/CMSIS/Include/cmsis_gcc.h ****   \param [in]    topOfProcStack  Process Stack Pointer value to set
 343:../../Drivers/CMSIS/Include/cmsis_gcc.h ****  */
 344:../../Drivers/CMSIS/Include/cmsis_gcc.h **** __STATIC_FORCEINLINE void __set_PSP(uint32_t topOfProcStack)
 345:../../Drivers/CMSIS/Include/cmsis_gcc.h **** {
 346:../../Drivers/CMSIS/Include/cmsis_gcc.h ****   __ASM volatile ("MSR psp, %0" : : "r" (topOfProcStack) : );
 347:../../Drivers/CMSIS/Include/cmsis_gcc.h **** }
 348:../../Drivers/CMSIS/Include/cmsis_gcc.h **** 
 349:../../Drivers/CMSIS/Include/cmsis_gcc.h **** 
 350:../../Drivers/CMSIS/Include/cmsis_gcc.h **** #if (defined (__ARM_FEATURE_CMSE ) && (__ARM_FEATURE_CMSE == 3))
 351:../../Drivers/CMSIS/Include/cmsis_gcc.h **** /**
 352:../../Drivers/CMSIS/Include/cmsis_gcc.h ****   \brief   Set Process Stack Pointer (non-secure)
 353:../../Drivers/CMSIS/Include/cmsis_gcc.h ****   \details Assigns the given value to the non-secure Process Stack Pointer (PSP) when in secure sta
 354:../../Drivers/CMSIS/Include/cmsis_gcc.h ****   \param [in]    topOfProcStack  Process Stack Pointer value to set
 355:../../Drivers/CMSIS/Include/cmsis_gcc.h ****  */
 356:../../Drivers/CMSIS/Include/cmsis_gcc.h **** __STATIC_FORCEINLINE void __TZ_set_PSP_NS(uint32_t topOfProcStack)
 357:../../Drivers/CMSIS/Include/cmsis_gcc.h **** {
 358:../../Drivers/CMSIS/Include/cmsis_gcc.h ****   __ASM volatile ("MSR psp_ns, %0" : : "r" (topOfProcStack) : );
 359:../../Drivers/CMSIS/Include/cmsis_gcc.h **** }
 360:../../Drivers/CMSIS/Include/cmsis_gcc.h **** #endif
 361:../../Drivers/CMSIS/Include/cmsis_gcc.h **** 
 362:../../Drivers/CMSIS/Include/cmsis_gcc.h **** 
 363:../../Drivers/CMSIS/Include/cmsis_gcc.h **** /**
 364:../../Drivers/CMSIS/Include/cmsis_gcc.h ****   \brief   Get Main Stack Pointer
 365:../../Drivers/CMSIS/Include/cmsis_gcc.h ****   \details Returns the current value of the Main Stack Pointer (MSP).
 366:../../Drivers/CMSIS/Include/cmsis_gcc.h ****   \return               MSP Register value
 367:../../Drivers/CMSIS/Include/cmsis_gcc.h ****  */
 368:../../Drivers/CMSIS/Include/cmsis_gcc.h **** __STATIC_FORCEINLINE uint32_t __get_MSP(void)
 369:../../Drivers/CMSIS/Include/cmsis_gcc.h **** {
 370:../../Drivers/CMSIS/Include/cmsis_gcc.h ****   uint32_t result;
 371:../../Drivers/CMSIS/Include/cmsis_gcc.h **** 
 372:../../Drivers/CMSIS/Include/cmsis_gcc.h ****   __ASM volatile ("MRS %0, msp" : "=r" (result) );
 373:../../Drivers/CMSIS/Include/cmsis_gcc.h ****   return(result);
 374:../../Drivers/CMSIS/Include/cmsis_gcc.h **** }
 375:../../Drivers/CMSIS/Include/cmsis_gcc.h **** 
 376:../../Drivers/CMSIS/Include/cmsis_gcc.h **** 
 377:../../Drivers/CMSIS/Include/cmsis_gcc.h **** #if (defined (__ARM_FEATURE_CMSE ) && (__ARM_FEATURE_CMSE == 3))
 378:../../Drivers/CMSIS/Include/cmsis_gcc.h **** /**
 379:../../Drivers/CMSIS/Include/cmsis_gcc.h ****   \brief   Get Main Stack Pointer (non-secure)
 380:../../Drivers/CMSIS/Include/cmsis_gcc.h ****   \details Returns the current value of the non-secure Main Stack Pointer (MSP) when in secure stat
 381:../../Drivers/CMSIS/Include/cmsis_gcc.h ****   \return               MSP Register value
ARM GAS  C:\Users\gigig\AppData\Local\Temp\cc4Yyo3b.s 			page 50


 382:../../Drivers/CMSIS/Include/cmsis_gcc.h ****  */
 383:../../Drivers/CMSIS/Include/cmsis_gcc.h **** __STATIC_FORCEINLINE uint32_t __TZ_get_MSP_NS(void)
 384:../../Drivers/CMSIS/Include/cmsis_gcc.h **** {
 385:../../Drivers/CMSIS/Include/cmsis_gcc.h ****   uint32_t result;
 386:../../Drivers/CMSIS/Include/cmsis_gcc.h **** 
 387:../../Drivers/CMSIS/Include/cmsis_gcc.h ****   __ASM volatile ("MRS %0, msp_ns" : "=r" (result) );
 388:../../Drivers/CMSIS/Include/cmsis_gcc.h ****   return(result);
 389:../../Drivers/CMSIS/Include/cmsis_gcc.h **** }
 390:../../Drivers/CMSIS/Include/cmsis_gcc.h **** #endif
 391:../../Drivers/CMSIS/Include/cmsis_gcc.h **** 
 392:../../Drivers/CMSIS/Include/cmsis_gcc.h **** 
 393:../../Drivers/CMSIS/Include/cmsis_gcc.h **** /**
 394:../../Drivers/CMSIS/Include/cmsis_gcc.h ****   \brief   Set Main Stack Pointer
 395:../../Drivers/CMSIS/Include/cmsis_gcc.h ****   \details Assigns the given value to the Main Stack Pointer (MSP).
 396:../../Drivers/CMSIS/Include/cmsis_gcc.h ****   \param [in]    topOfMainStack  Main Stack Pointer value to set
 397:../../Drivers/CMSIS/Include/cmsis_gcc.h ****  */
 398:../../Drivers/CMSIS/Include/cmsis_gcc.h **** __STATIC_FORCEINLINE void __set_MSP(uint32_t topOfMainStack)
 399:../../Drivers/CMSIS/Include/cmsis_gcc.h **** {
 400:../../Drivers/CMSIS/Include/cmsis_gcc.h ****   __ASM volatile ("MSR msp, %0" : : "r" (topOfMainStack) : );
 401:../../Drivers/CMSIS/Include/cmsis_gcc.h **** }
 402:../../Drivers/CMSIS/Include/cmsis_gcc.h **** 
 403:../../Drivers/CMSIS/Include/cmsis_gcc.h **** 
 404:../../Drivers/CMSIS/Include/cmsis_gcc.h **** #if (defined (__ARM_FEATURE_CMSE ) && (__ARM_FEATURE_CMSE == 3))
 405:../../Drivers/CMSIS/Include/cmsis_gcc.h **** /**
 406:../../Drivers/CMSIS/Include/cmsis_gcc.h ****   \brief   Set Main Stack Pointer (non-secure)
 407:../../Drivers/CMSIS/Include/cmsis_gcc.h ****   \details Assigns the given value to the non-secure Main Stack Pointer (MSP) when in secure state.
 408:../../Drivers/CMSIS/Include/cmsis_gcc.h ****   \param [in]    topOfMainStack  Main Stack Pointer value to set
 409:../../Drivers/CMSIS/Include/cmsis_gcc.h ****  */
 410:../../Drivers/CMSIS/Include/cmsis_gcc.h **** __STATIC_FORCEINLINE void __TZ_set_MSP_NS(uint32_t topOfMainStack)
 411:../../Drivers/CMSIS/Include/cmsis_gcc.h **** {
 412:../../Drivers/CMSIS/Include/cmsis_gcc.h ****   __ASM volatile ("MSR msp_ns, %0" : : "r" (topOfMainStack) : );
 413:../../Drivers/CMSIS/Include/cmsis_gcc.h **** }
 414:../../Drivers/CMSIS/Include/cmsis_gcc.h **** #endif
 415:../../Drivers/CMSIS/Include/cmsis_gcc.h **** 
 416:../../Drivers/CMSIS/Include/cmsis_gcc.h **** 
 417:../../Drivers/CMSIS/Include/cmsis_gcc.h **** #if (defined (__ARM_FEATURE_CMSE ) && (__ARM_FEATURE_CMSE == 3))
 418:../../Drivers/CMSIS/Include/cmsis_gcc.h **** /**
 419:../../Drivers/CMSIS/Include/cmsis_gcc.h ****   \brief   Get Stack Pointer (non-secure)
 420:../../Drivers/CMSIS/Include/cmsis_gcc.h ****   \details Returns the current value of the non-secure Stack Pointer (SP) when in secure state.
 421:../../Drivers/CMSIS/Include/cmsis_gcc.h ****   \return               SP Register value
 422:../../Drivers/CMSIS/Include/cmsis_gcc.h ****  */
 423:../../Drivers/CMSIS/Include/cmsis_gcc.h **** __STATIC_FORCEINLINE uint32_t __TZ_get_SP_NS(void)
 424:../../Drivers/CMSIS/Include/cmsis_gcc.h **** {
 425:../../Drivers/CMSIS/Include/cmsis_gcc.h ****   uint32_t result;
 426:../../Drivers/CMSIS/Include/cmsis_gcc.h **** 
 427:../../Drivers/CMSIS/Include/cmsis_gcc.h ****   __ASM volatile ("MRS %0, sp_ns" : "=r" (result) );
 428:../../Drivers/CMSIS/Include/cmsis_gcc.h ****   return(result);
 429:../../Drivers/CMSIS/Include/cmsis_gcc.h **** }
 430:../../Drivers/CMSIS/Include/cmsis_gcc.h **** 
 431:../../Drivers/CMSIS/Include/cmsis_gcc.h **** 
 432:../../Drivers/CMSIS/Include/cmsis_gcc.h **** /**
 433:../../Drivers/CMSIS/Include/cmsis_gcc.h ****   \brief   Set Stack Pointer (non-secure)
 434:../../Drivers/CMSIS/Include/cmsis_gcc.h ****   \details Assigns the given value to the non-secure Stack Pointer (SP) when in secure state.
 435:../../Drivers/CMSIS/Include/cmsis_gcc.h ****   \param [in]    topOfStack  Stack Pointer value to set
 436:../../Drivers/CMSIS/Include/cmsis_gcc.h ****  */
 437:../../Drivers/CMSIS/Include/cmsis_gcc.h **** __STATIC_FORCEINLINE void __TZ_set_SP_NS(uint32_t topOfStack)
 438:../../Drivers/CMSIS/Include/cmsis_gcc.h **** {
ARM GAS  C:\Users\gigig\AppData\Local\Temp\cc4Yyo3b.s 			page 51


 439:../../Drivers/CMSIS/Include/cmsis_gcc.h ****   __ASM volatile ("MSR sp_ns, %0" : : "r" (topOfStack) : );
 440:../../Drivers/CMSIS/Include/cmsis_gcc.h **** }
 441:../../Drivers/CMSIS/Include/cmsis_gcc.h **** #endif
 442:../../Drivers/CMSIS/Include/cmsis_gcc.h **** 
 443:../../Drivers/CMSIS/Include/cmsis_gcc.h **** 
 444:../../Drivers/CMSIS/Include/cmsis_gcc.h **** /**
 445:../../Drivers/CMSIS/Include/cmsis_gcc.h ****   \brief   Get Priority Mask
 446:../../Drivers/CMSIS/Include/cmsis_gcc.h ****   \details Returns the current state of the priority mask bit from the Priority Mask Register.
 447:../../Drivers/CMSIS/Include/cmsis_gcc.h ****   \return               Priority Mask value
 448:../../Drivers/CMSIS/Include/cmsis_gcc.h ****  */
 449:../../Drivers/CMSIS/Include/cmsis_gcc.h **** __STATIC_FORCEINLINE uint32_t __get_PRIMASK(void)
 450:../../Drivers/CMSIS/Include/cmsis_gcc.h **** {
 451:../../Drivers/CMSIS/Include/cmsis_gcc.h ****   uint32_t result;
 452:../../Drivers/CMSIS/Include/cmsis_gcc.h **** 
 453:../../Drivers/CMSIS/Include/cmsis_gcc.h ****   __ASM volatile ("MRS %0, primask" : "=r" (result) :: "memory");
 454:../../Drivers/CMSIS/Include/cmsis_gcc.h ****   return(result);
 455:../../Drivers/CMSIS/Include/cmsis_gcc.h **** }
 456:../../Drivers/CMSIS/Include/cmsis_gcc.h **** 
 457:../../Drivers/CMSIS/Include/cmsis_gcc.h **** 
 458:../../Drivers/CMSIS/Include/cmsis_gcc.h **** #if (defined (__ARM_FEATURE_CMSE ) && (__ARM_FEATURE_CMSE == 3))
 459:../../Drivers/CMSIS/Include/cmsis_gcc.h **** /**
 460:../../Drivers/CMSIS/Include/cmsis_gcc.h ****   \brief   Get Priority Mask (non-secure)
 461:../../Drivers/CMSIS/Include/cmsis_gcc.h ****   \details Returns the current state of the non-secure priority mask bit from the Priority Mask Reg
 462:../../Drivers/CMSIS/Include/cmsis_gcc.h ****   \return               Priority Mask value
 463:../../Drivers/CMSIS/Include/cmsis_gcc.h ****  */
 464:../../Drivers/CMSIS/Include/cmsis_gcc.h **** __STATIC_FORCEINLINE uint32_t __TZ_get_PRIMASK_NS(void)
 465:../../Drivers/CMSIS/Include/cmsis_gcc.h **** {
 466:../../Drivers/CMSIS/Include/cmsis_gcc.h ****   uint32_t result;
 467:../../Drivers/CMSIS/Include/cmsis_gcc.h **** 
 468:../../Drivers/CMSIS/Include/cmsis_gcc.h ****   __ASM volatile ("MRS %0, primask_ns" : "=r" (result) :: "memory");
 469:../../Drivers/CMSIS/Include/cmsis_gcc.h ****   return(result);
 470:../../Drivers/CMSIS/Include/cmsis_gcc.h **** }
 471:../../Drivers/CMSIS/Include/cmsis_gcc.h **** #endif
 472:../../Drivers/CMSIS/Include/cmsis_gcc.h **** 
 473:../../Drivers/CMSIS/Include/cmsis_gcc.h **** 
 474:../../Drivers/CMSIS/Include/cmsis_gcc.h **** /**
 475:../../Drivers/CMSIS/Include/cmsis_gcc.h ****   \brief   Set Priority Mask
 476:../../Drivers/CMSIS/Include/cmsis_gcc.h ****   \details Assigns the given value to the Priority Mask Register.
 477:../../Drivers/CMSIS/Include/cmsis_gcc.h ****   \param [in]    priMask  Priority Mask
 478:../../Drivers/CMSIS/Include/cmsis_gcc.h ****  */
 479:../../Drivers/CMSIS/Include/cmsis_gcc.h **** __STATIC_FORCEINLINE void __set_PRIMASK(uint32_t priMask)
 480:../../Drivers/CMSIS/Include/cmsis_gcc.h **** {
 481:../../Drivers/CMSIS/Include/cmsis_gcc.h ****   __ASM volatile ("MSR primask, %0" : : "r" (priMask) : "memory");
 482:../../Drivers/CMSIS/Include/cmsis_gcc.h **** }
 483:../../Drivers/CMSIS/Include/cmsis_gcc.h **** 
 484:../../Drivers/CMSIS/Include/cmsis_gcc.h **** 
 485:../../Drivers/CMSIS/Include/cmsis_gcc.h **** #if (defined (__ARM_FEATURE_CMSE ) && (__ARM_FEATURE_CMSE == 3))
 486:../../Drivers/CMSIS/Include/cmsis_gcc.h **** /**
 487:../../Drivers/CMSIS/Include/cmsis_gcc.h ****   \brief   Set Priority Mask (non-secure)
 488:../../Drivers/CMSIS/Include/cmsis_gcc.h ****   \details Assigns the given value to the non-secure Priority Mask Register when in secure state.
 489:../../Drivers/CMSIS/Include/cmsis_gcc.h ****   \param [in]    priMask  Priority Mask
 490:../../Drivers/CMSIS/Include/cmsis_gcc.h ****  */
 491:../../Drivers/CMSIS/Include/cmsis_gcc.h **** __STATIC_FORCEINLINE void __TZ_set_PRIMASK_NS(uint32_t priMask)
 492:../../Drivers/CMSIS/Include/cmsis_gcc.h **** {
 493:../../Drivers/CMSIS/Include/cmsis_gcc.h ****   __ASM volatile ("MSR primask_ns, %0" : : "r" (priMask) : "memory");
 494:../../Drivers/CMSIS/Include/cmsis_gcc.h **** }
 495:../../Drivers/CMSIS/Include/cmsis_gcc.h **** #endif
ARM GAS  C:\Users\gigig\AppData\Local\Temp\cc4Yyo3b.s 			page 52


 496:../../Drivers/CMSIS/Include/cmsis_gcc.h **** 
 497:../../Drivers/CMSIS/Include/cmsis_gcc.h **** 
 498:../../Drivers/CMSIS/Include/cmsis_gcc.h **** #if ((defined (__ARM_ARCH_7M__      ) && (__ARM_ARCH_7M__      == 1)) || \
 499:../../Drivers/CMSIS/Include/cmsis_gcc.h ****      (defined (__ARM_ARCH_7EM__     ) && (__ARM_ARCH_7EM__     == 1)) || \
 500:../../Drivers/CMSIS/Include/cmsis_gcc.h ****      (defined (__ARM_ARCH_8M_MAIN__ ) && (__ARM_ARCH_8M_MAIN__ == 1))    )
 501:../../Drivers/CMSIS/Include/cmsis_gcc.h **** /**
 502:../../Drivers/CMSIS/Include/cmsis_gcc.h ****   \brief   Enable FIQ
 503:../../Drivers/CMSIS/Include/cmsis_gcc.h ****   \details Enables FIQ interrupts by clearing the F-bit in the CPSR.
 504:../../Drivers/CMSIS/Include/cmsis_gcc.h ****            Can only be executed in Privileged modes.
 505:../../Drivers/CMSIS/Include/cmsis_gcc.h ****  */
 506:../../Drivers/CMSIS/Include/cmsis_gcc.h **** __STATIC_FORCEINLINE void __enable_fault_irq(void)
 507:../../Drivers/CMSIS/Include/cmsis_gcc.h **** {
 508:../../Drivers/CMSIS/Include/cmsis_gcc.h ****   __ASM volatile ("cpsie f" : : : "memory");
 509:../../Drivers/CMSIS/Include/cmsis_gcc.h **** }
 510:../../Drivers/CMSIS/Include/cmsis_gcc.h **** 
 511:../../Drivers/CMSIS/Include/cmsis_gcc.h **** 
 512:../../Drivers/CMSIS/Include/cmsis_gcc.h **** /**
 513:../../Drivers/CMSIS/Include/cmsis_gcc.h ****   \brief   Disable FIQ
 514:../../Drivers/CMSIS/Include/cmsis_gcc.h ****   \details Disables FIQ interrupts by setting the F-bit in the CPSR.
 515:../../Drivers/CMSIS/Include/cmsis_gcc.h ****            Can only be executed in Privileged modes.
 516:../../Drivers/CMSIS/Include/cmsis_gcc.h ****  */
 517:../../Drivers/CMSIS/Include/cmsis_gcc.h **** __STATIC_FORCEINLINE void __disable_fault_irq(void)
 518:../../Drivers/CMSIS/Include/cmsis_gcc.h **** {
 519:../../Drivers/CMSIS/Include/cmsis_gcc.h ****   __ASM volatile ("cpsid f" : : : "memory");
 520:../../Drivers/CMSIS/Include/cmsis_gcc.h **** }
 521:../../Drivers/CMSIS/Include/cmsis_gcc.h **** 
 522:../../Drivers/CMSIS/Include/cmsis_gcc.h **** 
 523:../../Drivers/CMSIS/Include/cmsis_gcc.h **** /**
 524:../../Drivers/CMSIS/Include/cmsis_gcc.h ****   \brief   Get Base Priority
 525:../../Drivers/CMSIS/Include/cmsis_gcc.h ****   \details Returns the current value of the Base Priority register.
 526:../../Drivers/CMSIS/Include/cmsis_gcc.h ****   \return               Base Priority register value
 527:../../Drivers/CMSIS/Include/cmsis_gcc.h ****  */
 528:../../Drivers/CMSIS/Include/cmsis_gcc.h **** __STATIC_FORCEINLINE uint32_t __get_BASEPRI(void)
 529:../../Drivers/CMSIS/Include/cmsis_gcc.h **** {
 530:../../Drivers/CMSIS/Include/cmsis_gcc.h ****   uint32_t result;
 531:../../Drivers/CMSIS/Include/cmsis_gcc.h **** 
 532:../../Drivers/CMSIS/Include/cmsis_gcc.h ****   __ASM volatile ("MRS %0, basepri" : "=r" (result) );
 533:../../Drivers/CMSIS/Include/cmsis_gcc.h ****   return(result);
 534:../../Drivers/CMSIS/Include/cmsis_gcc.h **** }
 535:../../Drivers/CMSIS/Include/cmsis_gcc.h **** 
 536:../../Drivers/CMSIS/Include/cmsis_gcc.h **** 
 537:../../Drivers/CMSIS/Include/cmsis_gcc.h **** #if (defined (__ARM_FEATURE_CMSE ) && (__ARM_FEATURE_CMSE == 3))
 538:../../Drivers/CMSIS/Include/cmsis_gcc.h **** /**
 539:../../Drivers/CMSIS/Include/cmsis_gcc.h ****   \brief   Get Base Priority (non-secure)
 540:../../Drivers/CMSIS/Include/cmsis_gcc.h ****   \details Returns the current value of the non-secure Base Priority register when in secure state.
 541:../../Drivers/CMSIS/Include/cmsis_gcc.h ****   \return               Base Priority register value
 542:../../Drivers/CMSIS/Include/cmsis_gcc.h ****  */
 543:../../Drivers/CMSIS/Include/cmsis_gcc.h **** __STATIC_FORCEINLINE uint32_t __TZ_get_BASEPRI_NS(void)
 544:../../Drivers/CMSIS/Include/cmsis_gcc.h **** {
 545:../../Drivers/CMSIS/Include/cmsis_gcc.h ****   uint32_t result;
 546:../../Drivers/CMSIS/Include/cmsis_gcc.h **** 
 547:../../Drivers/CMSIS/Include/cmsis_gcc.h ****   __ASM volatile ("MRS %0, basepri_ns" : "=r" (result) );
 548:../../Drivers/CMSIS/Include/cmsis_gcc.h ****   return(result);
 549:../../Drivers/CMSIS/Include/cmsis_gcc.h **** }
 550:../../Drivers/CMSIS/Include/cmsis_gcc.h **** #endif
 551:../../Drivers/CMSIS/Include/cmsis_gcc.h **** 
 552:../../Drivers/CMSIS/Include/cmsis_gcc.h **** 
ARM GAS  C:\Users\gigig\AppData\Local\Temp\cc4Yyo3b.s 			page 53


 553:../../Drivers/CMSIS/Include/cmsis_gcc.h **** /**
 554:../../Drivers/CMSIS/Include/cmsis_gcc.h ****   \brief   Set Base Priority
 555:../../Drivers/CMSIS/Include/cmsis_gcc.h ****   \details Assigns the given value to the Base Priority register.
 556:../../Drivers/CMSIS/Include/cmsis_gcc.h ****   \param [in]    basePri  Base Priority value to set
 557:../../Drivers/CMSIS/Include/cmsis_gcc.h ****  */
 558:../../Drivers/CMSIS/Include/cmsis_gcc.h **** __STATIC_FORCEINLINE void __set_BASEPRI(uint32_t basePri)
 559:../../Drivers/CMSIS/Include/cmsis_gcc.h **** {
 560:../../Drivers/CMSIS/Include/cmsis_gcc.h ****   __ASM volatile ("MSR basepri, %0" : : "r" (basePri) : "memory");
 561:../../Drivers/CMSIS/Include/cmsis_gcc.h **** }
 562:../../Drivers/CMSIS/Include/cmsis_gcc.h **** 
 563:../../Drivers/CMSIS/Include/cmsis_gcc.h **** 
 564:../../Drivers/CMSIS/Include/cmsis_gcc.h **** #if (defined (__ARM_FEATURE_CMSE ) && (__ARM_FEATURE_CMSE == 3))
 565:../../Drivers/CMSIS/Include/cmsis_gcc.h **** /**
 566:../../Drivers/CMSIS/Include/cmsis_gcc.h ****   \brief   Set Base Priority (non-secure)
 567:../../Drivers/CMSIS/Include/cmsis_gcc.h ****   \details Assigns the given value to the non-secure Base Priority register when in secure state.
 568:../../Drivers/CMSIS/Include/cmsis_gcc.h ****   \param [in]    basePri  Base Priority value to set
 569:../../Drivers/CMSIS/Include/cmsis_gcc.h ****  */
 570:../../Drivers/CMSIS/Include/cmsis_gcc.h **** __STATIC_FORCEINLINE void __TZ_set_BASEPRI_NS(uint32_t basePri)
 571:../../Drivers/CMSIS/Include/cmsis_gcc.h **** {
 572:../../Drivers/CMSIS/Include/cmsis_gcc.h ****   __ASM volatile ("MSR basepri_ns, %0" : : "r" (basePri) : "memory");
 573:../../Drivers/CMSIS/Include/cmsis_gcc.h **** }
 574:../../Drivers/CMSIS/Include/cmsis_gcc.h **** #endif
 575:../../Drivers/CMSIS/Include/cmsis_gcc.h **** 
 576:../../Drivers/CMSIS/Include/cmsis_gcc.h **** 
 577:../../Drivers/CMSIS/Include/cmsis_gcc.h **** /**
 578:../../Drivers/CMSIS/Include/cmsis_gcc.h ****   \brief   Set Base Priority with condition
 579:../../Drivers/CMSIS/Include/cmsis_gcc.h ****   \details Assigns the given value to the Base Priority register only if BASEPRI masking is disable
 580:../../Drivers/CMSIS/Include/cmsis_gcc.h ****            or the new value increases the BASEPRI priority level.
 581:../../Drivers/CMSIS/Include/cmsis_gcc.h ****   \param [in]    basePri  Base Priority value to set
 582:../../Drivers/CMSIS/Include/cmsis_gcc.h ****  */
 583:../../Drivers/CMSIS/Include/cmsis_gcc.h **** __STATIC_FORCEINLINE void __set_BASEPRI_MAX(uint32_t basePri)
 584:../../Drivers/CMSIS/Include/cmsis_gcc.h **** {
 585:../../Drivers/CMSIS/Include/cmsis_gcc.h ****   __ASM volatile ("MSR basepri_max, %0" : : "r" (basePri) : "memory");
 586:../../Drivers/CMSIS/Include/cmsis_gcc.h **** }
 587:../../Drivers/CMSIS/Include/cmsis_gcc.h **** 
 588:../../Drivers/CMSIS/Include/cmsis_gcc.h **** 
 589:../../Drivers/CMSIS/Include/cmsis_gcc.h **** /**
 590:../../Drivers/CMSIS/Include/cmsis_gcc.h ****   \brief   Get Fault Mask
 591:../../Drivers/CMSIS/Include/cmsis_gcc.h ****   \details Returns the current value of the Fault Mask register.
 592:../../Drivers/CMSIS/Include/cmsis_gcc.h ****   \return               Fault Mask register value
 593:../../Drivers/CMSIS/Include/cmsis_gcc.h ****  */
 594:../../Drivers/CMSIS/Include/cmsis_gcc.h **** __STATIC_FORCEINLINE uint32_t __get_FAULTMASK(void)
 595:../../Drivers/CMSIS/Include/cmsis_gcc.h **** {
 596:../../Drivers/CMSIS/Include/cmsis_gcc.h ****   uint32_t result;
 597:../../Drivers/CMSIS/Include/cmsis_gcc.h **** 
 598:../../Drivers/CMSIS/Include/cmsis_gcc.h ****   __ASM volatile ("MRS %0, faultmask" : "=r" (result) );
 599:../../Drivers/CMSIS/Include/cmsis_gcc.h ****   return(result);
 600:../../Drivers/CMSIS/Include/cmsis_gcc.h **** }
 601:../../Drivers/CMSIS/Include/cmsis_gcc.h **** 
 602:../../Drivers/CMSIS/Include/cmsis_gcc.h **** 
 603:../../Drivers/CMSIS/Include/cmsis_gcc.h **** #if (defined (__ARM_FEATURE_CMSE ) && (__ARM_FEATURE_CMSE == 3))
 604:../../Drivers/CMSIS/Include/cmsis_gcc.h **** /**
 605:../../Drivers/CMSIS/Include/cmsis_gcc.h ****   \brief   Get Fault Mask (non-secure)
 606:../../Drivers/CMSIS/Include/cmsis_gcc.h ****   \details Returns the current value of the non-secure Fault Mask register when in secure state.
 607:../../Drivers/CMSIS/Include/cmsis_gcc.h ****   \return               Fault Mask register value
 608:../../Drivers/CMSIS/Include/cmsis_gcc.h ****  */
 609:../../Drivers/CMSIS/Include/cmsis_gcc.h **** __STATIC_FORCEINLINE uint32_t __TZ_get_FAULTMASK_NS(void)
ARM GAS  C:\Users\gigig\AppData\Local\Temp\cc4Yyo3b.s 			page 54


 610:../../Drivers/CMSIS/Include/cmsis_gcc.h **** {
 611:../../Drivers/CMSIS/Include/cmsis_gcc.h ****   uint32_t result;
 612:../../Drivers/CMSIS/Include/cmsis_gcc.h **** 
 613:../../Drivers/CMSIS/Include/cmsis_gcc.h ****   __ASM volatile ("MRS %0, faultmask_ns" : "=r" (result) );
 614:../../Drivers/CMSIS/Include/cmsis_gcc.h ****   return(result);
 615:../../Drivers/CMSIS/Include/cmsis_gcc.h **** }
 616:../../Drivers/CMSIS/Include/cmsis_gcc.h **** #endif
 617:../../Drivers/CMSIS/Include/cmsis_gcc.h **** 
 618:../../Drivers/CMSIS/Include/cmsis_gcc.h **** 
 619:../../Drivers/CMSIS/Include/cmsis_gcc.h **** /**
 620:../../Drivers/CMSIS/Include/cmsis_gcc.h ****   \brief   Set Fault Mask
 621:../../Drivers/CMSIS/Include/cmsis_gcc.h ****   \details Assigns the given value to the Fault Mask register.
 622:../../Drivers/CMSIS/Include/cmsis_gcc.h ****   \param [in]    faultMask  Fault Mask value to set
 623:../../Drivers/CMSIS/Include/cmsis_gcc.h ****  */
 624:../../Drivers/CMSIS/Include/cmsis_gcc.h **** __STATIC_FORCEINLINE void __set_FAULTMASK(uint32_t faultMask)
 625:../../Drivers/CMSIS/Include/cmsis_gcc.h **** {
 626:../../Drivers/CMSIS/Include/cmsis_gcc.h ****   __ASM volatile ("MSR faultmask, %0" : : "r" (faultMask) : "memory");
 627:../../Drivers/CMSIS/Include/cmsis_gcc.h **** }
 628:../../Drivers/CMSIS/Include/cmsis_gcc.h **** 
 629:../../Drivers/CMSIS/Include/cmsis_gcc.h **** 
 630:../../Drivers/CMSIS/Include/cmsis_gcc.h **** #if (defined (__ARM_FEATURE_CMSE ) && (__ARM_FEATURE_CMSE == 3))
 631:../../Drivers/CMSIS/Include/cmsis_gcc.h **** /**
 632:../../Drivers/CMSIS/Include/cmsis_gcc.h ****   \brief   Set Fault Mask (non-secure)
 633:../../Drivers/CMSIS/Include/cmsis_gcc.h ****   \details Assigns the given value to the non-secure Fault Mask register when in secure state.
 634:../../Drivers/CMSIS/Include/cmsis_gcc.h ****   \param [in]    faultMask  Fault Mask value to set
 635:../../Drivers/CMSIS/Include/cmsis_gcc.h ****  */
 636:../../Drivers/CMSIS/Include/cmsis_gcc.h **** __STATIC_FORCEINLINE void __TZ_set_FAULTMASK_NS(uint32_t faultMask)
 637:../../Drivers/CMSIS/Include/cmsis_gcc.h **** {
 638:../../Drivers/CMSIS/Include/cmsis_gcc.h ****   __ASM volatile ("MSR faultmask_ns, %0" : : "r" (faultMask) : "memory");
 639:../../Drivers/CMSIS/Include/cmsis_gcc.h **** }
 640:../../Drivers/CMSIS/Include/cmsis_gcc.h **** #endif
 641:../../Drivers/CMSIS/Include/cmsis_gcc.h **** 
 642:../../Drivers/CMSIS/Include/cmsis_gcc.h **** #endif /* ((defined (__ARM_ARCH_7M__      ) && (__ARM_ARCH_7M__      == 1)) || \
 643:../../Drivers/CMSIS/Include/cmsis_gcc.h ****            (defined (__ARM_ARCH_7EM__     ) && (__ARM_ARCH_7EM__     == 1)) || \
 644:../../Drivers/CMSIS/Include/cmsis_gcc.h ****            (defined (__ARM_ARCH_8M_MAIN__ ) && (__ARM_ARCH_8M_MAIN__ == 1))    ) */
 645:../../Drivers/CMSIS/Include/cmsis_gcc.h **** 
 646:../../Drivers/CMSIS/Include/cmsis_gcc.h **** 
 647:../../Drivers/CMSIS/Include/cmsis_gcc.h **** #if ((defined (__ARM_ARCH_8M_MAIN__ ) && (__ARM_ARCH_8M_MAIN__ == 1)) || \
 648:../../Drivers/CMSIS/Include/cmsis_gcc.h ****      (defined (__ARM_ARCH_8M_BASE__ ) && (__ARM_ARCH_8M_BASE__ == 1))    )
 649:../../Drivers/CMSIS/Include/cmsis_gcc.h **** 
 650:../../Drivers/CMSIS/Include/cmsis_gcc.h **** /**
 651:../../Drivers/CMSIS/Include/cmsis_gcc.h ****   \brief   Get Process Stack Pointer Limit
 652:../../Drivers/CMSIS/Include/cmsis_gcc.h ****   Devices without ARMv8-M Main Extensions (i.e. Cortex-M23) lack the non-secure
 653:../../Drivers/CMSIS/Include/cmsis_gcc.h ****   Stack Pointer Limit register hence zero is returned always in non-secure
 654:../../Drivers/CMSIS/Include/cmsis_gcc.h ****   mode.
 655:../../Drivers/CMSIS/Include/cmsis_gcc.h ****   
 656:../../Drivers/CMSIS/Include/cmsis_gcc.h ****   \details Returns the current value of the Process Stack Pointer Limit (PSPLIM).
 657:../../Drivers/CMSIS/Include/cmsis_gcc.h ****   \return               PSPLIM Register value
 658:../../Drivers/CMSIS/Include/cmsis_gcc.h ****  */
 659:../../Drivers/CMSIS/Include/cmsis_gcc.h **** __STATIC_FORCEINLINE uint32_t __get_PSPLIM(void)
 660:../../Drivers/CMSIS/Include/cmsis_gcc.h **** {
 661:../../Drivers/CMSIS/Include/cmsis_gcc.h **** #if (!(defined (__ARM_ARCH_8M_MAIN__ ) && (__ARM_ARCH_8M_MAIN__ == 1)) && \
 662:../../Drivers/CMSIS/Include/cmsis_gcc.h ****     (!defined (__ARM_FEATURE_CMSE) || (__ARM_FEATURE_CMSE < 3)))
 663:../../Drivers/CMSIS/Include/cmsis_gcc.h ****     // without main extensions, the non-secure PSPLIM is RAZ/WI
 664:../../Drivers/CMSIS/Include/cmsis_gcc.h ****   return 0U;
 665:../../Drivers/CMSIS/Include/cmsis_gcc.h **** #else
 666:../../Drivers/CMSIS/Include/cmsis_gcc.h ****   uint32_t result;
ARM GAS  C:\Users\gigig\AppData\Local\Temp\cc4Yyo3b.s 			page 55


 667:../../Drivers/CMSIS/Include/cmsis_gcc.h ****   __ASM volatile ("MRS %0, psplim"  : "=r" (result) );
 668:../../Drivers/CMSIS/Include/cmsis_gcc.h ****   return result;
 669:../../Drivers/CMSIS/Include/cmsis_gcc.h **** #endif
 670:../../Drivers/CMSIS/Include/cmsis_gcc.h **** }
 671:../../Drivers/CMSIS/Include/cmsis_gcc.h **** 
 672:../../Drivers/CMSIS/Include/cmsis_gcc.h **** #if (defined (__ARM_FEATURE_CMSE) && (__ARM_FEATURE_CMSE == 3))
 673:../../Drivers/CMSIS/Include/cmsis_gcc.h **** /**
 674:../../Drivers/CMSIS/Include/cmsis_gcc.h ****   \brief   Get Process Stack Pointer Limit (non-secure)
 675:../../Drivers/CMSIS/Include/cmsis_gcc.h ****   Devices without ARMv8-M Main Extensions (i.e. Cortex-M23) lack the non-secure
 676:../../Drivers/CMSIS/Include/cmsis_gcc.h ****   Stack Pointer Limit register hence zero is returned always.
 677:../../Drivers/CMSIS/Include/cmsis_gcc.h **** 
 678:../../Drivers/CMSIS/Include/cmsis_gcc.h ****   \details Returns the current value of the non-secure Process Stack Pointer Limit (PSPLIM) when in
 679:../../Drivers/CMSIS/Include/cmsis_gcc.h ****   \return               PSPLIM Register value
 680:../../Drivers/CMSIS/Include/cmsis_gcc.h ****  */
 681:../../Drivers/CMSIS/Include/cmsis_gcc.h **** __STATIC_FORCEINLINE uint32_t __TZ_get_PSPLIM_NS(void)
 682:../../Drivers/CMSIS/Include/cmsis_gcc.h **** {
 683:../../Drivers/CMSIS/Include/cmsis_gcc.h **** #if (!(defined (__ARM_ARCH_8M_MAIN__ ) && (__ARM_ARCH_8M_MAIN__ == 1)))
 684:../../Drivers/CMSIS/Include/cmsis_gcc.h ****   // without main extensions, the non-secure PSPLIM is RAZ/WI
 685:../../Drivers/CMSIS/Include/cmsis_gcc.h ****   return 0U;
 686:../../Drivers/CMSIS/Include/cmsis_gcc.h **** #else
 687:../../Drivers/CMSIS/Include/cmsis_gcc.h ****   uint32_t result;
 688:../../Drivers/CMSIS/Include/cmsis_gcc.h ****   __ASM volatile ("MRS %0, psplim_ns"  : "=r" (result) );
 689:../../Drivers/CMSIS/Include/cmsis_gcc.h ****   return result;
 690:../../Drivers/CMSIS/Include/cmsis_gcc.h **** #endif
 691:../../Drivers/CMSIS/Include/cmsis_gcc.h **** }
 692:../../Drivers/CMSIS/Include/cmsis_gcc.h **** #endif
 693:../../Drivers/CMSIS/Include/cmsis_gcc.h **** 
 694:../../Drivers/CMSIS/Include/cmsis_gcc.h **** 
 695:../../Drivers/CMSIS/Include/cmsis_gcc.h **** /**
 696:../../Drivers/CMSIS/Include/cmsis_gcc.h ****   \brief   Set Process Stack Pointer Limit
 697:../../Drivers/CMSIS/Include/cmsis_gcc.h ****   Devices without ARMv8-M Main Extensions (i.e. Cortex-M23) lack the non-secure
 698:../../Drivers/CMSIS/Include/cmsis_gcc.h ****   Stack Pointer Limit register hence the write is silently ignored in non-secure
 699:../../Drivers/CMSIS/Include/cmsis_gcc.h ****   mode.
 700:../../Drivers/CMSIS/Include/cmsis_gcc.h ****   
 701:../../Drivers/CMSIS/Include/cmsis_gcc.h ****   \details Assigns the given value to the Process Stack Pointer Limit (PSPLIM).
 702:../../Drivers/CMSIS/Include/cmsis_gcc.h ****   \param [in]    ProcStackPtrLimit  Process Stack Pointer Limit value to set
 703:../../Drivers/CMSIS/Include/cmsis_gcc.h ****  */
 704:../../Drivers/CMSIS/Include/cmsis_gcc.h **** __STATIC_FORCEINLINE void __set_PSPLIM(uint32_t ProcStackPtrLimit)
 705:../../Drivers/CMSIS/Include/cmsis_gcc.h **** {
 706:../../Drivers/CMSIS/Include/cmsis_gcc.h **** #if (!(defined (__ARM_ARCH_8M_MAIN__ ) && (__ARM_ARCH_8M_MAIN__ == 1)) && \
 707:../../Drivers/CMSIS/Include/cmsis_gcc.h ****     (!defined (__ARM_FEATURE_CMSE) || (__ARM_FEATURE_CMSE < 3)))
 708:../../Drivers/CMSIS/Include/cmsis_gcc.h ****   // without main extensions, the non-secure PSPLIM is RAZ/WI
 709:../../Drivers/CMSIS/Include/cmsis_gcc.h ****   (void)ProcStackPtrLimit;
 710:../../Drivers/CMSIS/Include/cmsis_gcc.h **** #else
 711:../../Drivers/CMSIS/Include/cmsis_gcc.h ****   __ASM volatile ("MSR psplim, %0" : : "r" (ProcStackPtrLimit));
 712:../../Drivers/CMSIS/Include/cmsis_gcc.h **** #endif
 713:../../Drivers/CMSIS/Include/cmsis_gcc.h **** }
 714:../../Drivers/CMSIS/Include/cmsis_gcc.h **** 
 715:../../Drivers/CMSIS/Include/cmsis_gcc.h **** 
 716:../../Drivers/CMSIS/Include/cmsis_gcc.h **** #if (defined (__ARM_FEATURE_CMSE  ) && (__ARM_FEATURE_CMSE   == 3))
 717:../../Drivers/CMSIS/Include/cmsis_gcc.h **** /**
 718:../../Drivers/CMSIS/Include/cmsis_gcc.h ****   \brief   Set Process Stack Pointer (non-secure)
 719:../../Drivers/CMSIS/Include/cmsis_gcc.h ****   Devices without ARMv8-M Main Extensions (i.e. Cortex-M23) lack the non-secure
 720:../../Drivers/CMSIS/Include/cmsis_gcc.h ****   Stack Pointer Limit register hence the write is silently ignored.
 721:../../Drivers/CMSIS/Include/cmsis_gcc.h **** 
 722:../../Drivers/CMSIS/Include/cmsis_gcc.h ****   \details Assigns the given value to the non-secure Process Stack Pointer Limit (PSPLIM) when in s
 723:../../Drivers/CMSIS/Include/cmsis_gcc.h ****   \param [in]    ProcStackPtrLimit  Process Stack Pointer Limit value to set
ARM GAS  C:\Users\gigig\AppData\Local\Temp\cc4Yyo3b.s 			page 56


 724:../../Drivers/CMSIS/Include/cmsis_gcc.h ****  */
 725:../../Drivers/CMSIS/Include/cmsis_gcc.h **** __STATIC_FORCEINLINE void __TZ_set_PSPLIM_NS(uint32_t ProcStackPtrLimit)
 726:../../Drivers/CMSIS/Include/cmsis_gcc.h **** {
 727:../../Drivers/CMSIS/Include/cmsis_gcc.h **** #if (!(defined (__ARM_ARCH_8M_MAIN__ ) && (__ARM_ARCH_8M_MAIN__ == 1)))
 728:../../Drivers/CMSIS/Include/cmsis_gcc.h ****   // without main extensions, the non-secure PSPLIM is RAZ/WI
 729:../../Drivers/CMSIS/Include/cmsis_gcc.h ****   (void)ProcStackPtrLimit;
 730:../../Drivers/CMSIS/Include/cmsis_gcc.h **** #else
 731:../../Drivers/CMSIS/Include/cmsis_gcc.h ****   __ASM volatile ("MSR psplim_ns, %0\n" : : "r" (ProcStackPtrLimit));
 732:../../Drivers/CMSIS/Include/cmsis_gcc.h **** #endif
 733:../../Drivers/CMSIS/Include/cmsis_gcc.h **** }
 734:../../Drivers/CMSIS/Include/cmsis_gcc.h **** #endif
 735:../../Drivers/CMSIS/Include/cmsis_gcc.h **** 
 736:../../Drivers/CMSIS/Include/cmsis_gcc.h **** 
 737:../../Drivers/CMSIS/Include/cmsis_gcc.h **** /**
 738:../../Drivers/CMSIS/Include/cmsis_gcc.h ****   \brief   Get Main Stack Pointer Limit
 739:../../Drivers/CMSIS/Include/cmsis_gcc.h ****   Devices without ARMv8-M Main Extensions (i.e. Cortex-M23) lack the non-secure
 740:../../Drivers/CMSIS/Include/cmsis_gcc.h ****   Stack Pointer Limit register hence zero is returned always in non-secure
 741:../../Drivers/CMSIS/Include/cmsis_gcc.h ****   mode.
 742:../../Drivers/CMSIS/Include/cmsis_gcc.h **** 
 743:../../Drivers/CMSIS/Include/cmsis_gcc.h ****   \details Returns the current value of the Main Stack Pointer Limit (MSPLIM).
 744:../../Drivers/CMSIS/Include/cmsis_gcc.h ****   \return               MSPLIM Register value
 745:../../Drivers/CMSIS/Include/cmsis_gcc.h ****  */
 746:../../Drivers/CMSIS/Include/cmsis_gcc.h **** __STATIC_FORCEINLINE uint32_t __get_MSPLIM(void)
 747:../../Drivers/CMSIS/Include/cmsis_gcc.h **** {
 748:../../Drivers/CMSIS/Include/cmsis_gcc.h **** #if (!(defined (__ARM_ARCH_8M_MAIN__ ) && (__ARM_ARCH_8M_MAIN__ == 1)) && \
 749:../../Drivers/CMSIS/Include/cmsis_gcc.h ****     (!defined (__ARM_FEATURE_CMSE) || (__ARM_FEATURE_CMSE < 3)))
 750:../../Drivers/CMSIS/Include/cmsis_gcc.h ****   // without main extensions, the non-secure MSPLIM is RAZ/WI
 751:../../Drivers/CMSIS/Include/cmsis_gcc.h ****   return 0U;
 752:../../Drivers/CMSIS/Include/cmsis_gcc.h **** #else
 753:../../Drivers/CMSIS/Include/cmsis_gcc.h ****   uint32_t result;
 754:../../Drivers/CMSIS/Include/cmsis_gcc.h ****   __ASM volatile ("MRS %0, msplim" : "=r" (result) );
 755:../../Drivers/CMSIS/Include/cmsis_gcc.h ****   return result;
 756:../../Drivers/CMSIS/Include/cmsis_gcc.h **** #endif
 757:../../Drivers/CMSIS/Include/cmsis_gcc.h **** }
 758:../../Drivers/CMSIS/Include/cmsis_gcc.h **** 
 759:../../Drivers/CMSIS/Include/cmsis_gcc.h **** 
 760:../../Drivers/CMSIS/Include/cmsis_gcc.h **** #if (defined (__ARM_FEATURE_CMSE  ) && (__ARM_FEATURE_CMSE   == 3))
 761:../../Drivers/CMSIS/Include/cmsis_gcc.h **** /**
 762:../../Drivers/CMSIS/Include/cmsis_gcc.h ****   \brief   Get Main Stack Pointer Limit (non-secure)
 763:../../Drivers/CMSIS/Include/cmsis_gcc.h ****   Devices without ARMv8-M Main Extensions (i.e. Cortex-M23) lack the non-secure
 764:../../Drivers/CMSIS/Include/cmsis_gcc.h ****   Stack Pointer Limit register hence zero is returned always.
 765:../../Drivers/CMSIS/Include/cmsis_gcc.h **** 
 766:../../Drivers/CMSIS/Include/cmsis_gcc.h ****   \details Returns the current value of the non-secure Main Stack Pointer Limit(MSPLIM) when in sec
 767:../../Drivers/CMSIS/Include/cmsis_gcc.h ****   \return               MSPLIM Register value
 768:../../Drivers/CMSIS/Include/cmsis_gcc.h ****  */
 769:../../Drivers/CMSIS/Include/cmsis_gcc.h **** __STATIC_FORCEINLINE uint32_t __TZ_get_MSPLIM_NS(void)
 770:../../Drivers/CMSIS/Include/cmsis_gcc.h **** {
 771:../../Drivers/CMSIS/Include/cmsis_gcc.h **** #if (!(defined (__ARM_ARCH_8M_MAIN__ ) && (__ARM_ARCH_8M_MAIN__ == 1)))
 772:../../Drivers/CMSIS/Include/cmsis_gcc.h ****   // without main extensions, the non-secure MSPLIM is RAZ/WI
 773:../../Drivers/CMSIS/Include/cmsis_gcc.h ****   return 0U;
 774:../../Drivers/CMSIS/Include/cmsis_gcc.h **** #else
 775:../../Drivers/CMSIS/Include/cmsis_gcc.h ****   uint32_t result;
 776:../../Drivers/CMSIS/Include/cmsis_gcc.h ****   __ASM volatile ("MRS %0, msplim_ns" : "=r" (result) );
 777:../../Drivers/CMSIS/Include/cmsis_gcc.h ****   return result;
 778:../../Drivers/CMSIS/Include/cmsis_gcc.h **** #endif
 779:../../Drivers/CMSIS/Include/cmsis_gcc.h **** }
 780:../../Drivers/CMSIS/Include/cmsis_gcc.h **** #endif
ARM GAS  C:\Users\gigig\AppData\Local\Temp\cc4Yyo3b.s 			page 57


 781:../../Drivers/CMSIS/Include/cmsis_gcc.h **** 
 782:../../Drivers/CMSIS/Include/cmsis_gcc.h **** 
 783:../../Drivers/CMSIS/Include/cmsis_gcc.h **** /**
 784:../../Drivers/CMSIS/Include/cmsis_gcc.h ****   \brief   Set Main Stack Pointer Limit
 785:../../Drivers/CMSIS/Include/cmsis_gcc.h ****   Devices without ARMv8-M Main Extensions (i.e. Cortex-M23) lack the non-secure
 786:../../Drivers/CMSIS/Include/cmsis_gcc.h ****   Stack Pointer Limit register hence the write is silently ignored in non-secure
 787:../../Drivers/CMSIS/Include/cmsis_gcc.h ****   mode.
 788:../../Drivers/CMSIS/Include/cmsis_gcc.h **** 
 789:../../Drivers/CMSIS/Include/cmsis_gcc.h ****   \details Assigns the given value to the Main Stack Pointer Limit (MSPLIM).
 790:../../Drivers/CMSIS/Include/cmsis_gcc.h ****   \param [in]    MainStackPtrLimit  Main Stack Pointer Limit value to set
 791:../../Drivers/CMSIS/Include/cmsis_gcc.h ****  */
 792:../../Drivers/CMSIS/Include/cmsis_gcc.h **** __STATIC_FORCEINLINE void __set_MSPLIM(uint32_t MainStackPtrLimit)
 793:../../Drivers/CMSIS/Include/cmsis_gcc.h **** {
 794:../../Drivers/CMSIS/Include/cmsis_gcc.h **** #if (!(defined (__ARM_ARCH_8M_MAIN__ ) && (__ARM_ARCH_8M_MAIN__ == 1)) && \
 795:../../Drivers/CMSIS/Include/cmsis_gcc.h ****     (!defined (__ARM_FEATURE_CMSE) || (__ARM_FEATURE_CMSE < 3)))
 796:../../Drivers/CMSIS/Include/cmsis_gcc.h ****   // without main extensions, the non-secure MSPLIM is RAZ/WI
 797:../../Drivers/CMSIS/Include/cmsis_gcc.h ****   (void)MainStackPtrLimit;
 798:../../Drivers/CMSIS/Include/cmsis_gcc.h **** #else
 799:../../Drivers/CMSIS/Include/cmsis_gcc.h ****   __ASM volatile ("MSR msplim, %0" : : "r" (MainStackPtrLimit));
 800:../../Drivers/CMSIS/Include/cmsis_gcc.h **** #endif
 801:../../Drivers/CMSIS/Include/cmsis_gcc.h **** }
 802:../../Drivers/CMSIS/Include/cmsis_gcc.h **** 
 803:../../Drivers/CMSIS/Include/cmsis_gcc.h **** 
 804:../../Drivers/CMSIS/Include/cmsis_gcc.h **** #if (defined (__ARM_FEATURE_CMSE  ) && (__ARM_FEATURE_CMSE   == 3))
 805:../../Drivers/CMSIS/Include/cmsis_gcc.h **** /**
 806:../../Drivers/CMSIS/Include/cmsis_gcc.h ****   \brief   Set Main Stack Pointer Limit (non-secure)
 807:../../Drivers/CMSIS/Include/cmsis_gcc.h ****   Devices without ARMv8-M Main Extensions (i.e. Cortex-M23) lack the non-secure
 808:../../Drivers/CMSIS/Include/cmsis_gcc.h ****   Stack Pointer Limit register hence the write is silently ignored.
 809:../../Drivers/CMSIS/Include/cmsis_gcc.h **** 
 810:../../Drivers/CMSIS/Include/cmsis_gcc.h ****   \details Assigns the given value to the non-secure Main Stack Pointer Limit (MSPLIM) when in secu
 811:../../Drivers/CMSIS/Include/cmsis_gcc.h ****   \param [in]    MainStackPtrLimit  Main Stack Pointer value to set
 812:../../Drivers/CMSIS/Include/cmsis_gcc.h ****  */
 813:../../Drivers/CMSIS/Include/cmsis_gcc.h **** __STATIC_FORCEINLINE void __TZ_set_MSPLIM_NS(uint32_t MainStackPtrLimit)
 814:../../Drivers/CMSIS/Include/cmsis_gcc.h **** {
 815:../../Drivers/CMSIS/Include/cmsis_gcc.h **** #if (!(defined (__ARM_ARCH_8M_MAIN__ ) && (__ARM_ARCH_8M_MAIN__ == 1)))
 816:../../Drivers/CMSIS/Include/cmsis_gcc.h ****   // without main extensions, the non-secure MSPLIM is RAZ/WI
 817:../../Drivers/CMSIS/Include/cmsis_gcc.h ****   (void)MainStackPtrLimit;
 818:../../Drivers/CMSIS/Include/cmsis_gcc.h **** #else
 819:../../Drivers/CMSIS/Include/cmsis_gcc.h ****   __ASM volatile ("MSR msplim_ns, %0" : : "r" (MainStackPtrLimit));
 820:../../Drivers/CMSIS/Include/cmsis_gcc.h **** #endif
 821:../../Drivers/CMSIS/Include/cmsis_gcc.h **** }
 822:../../Drivers/CMSIS/Include/cmsis_gcc.h **** #endif
 823:../../Drivers/CMSIS/Include/cmsis_gcc.h **** 
 824:../../Drivers/CMSIS/Include/cmsis_gcc.h **** #endif /* ((defined (__ARM_ARCH_8M_MAIN__ ) && (__ARM_ARCH_8M_MAIN__ == 1)) || \
 825:../../Drivers/CMSIS/Include/cmsis_gcc.h ****            (defined (__ARM_ARCH_8M_BASE__ ) && (__ARM_ARCH_8M_BASE__ == 1))    ) */
 826:../../Drivers/CMSIS/Include/cmsis_gcc.h **** 
 827:../../Drivers/CMSIS/Include/cmsis_gcc.h **** 
 828:../../Drivers/CMSIS/Include/cmsis_gcc.h **** /**
 829:../../Drivers/CMSIS/Include/cmsis_gcc.h ****   \brief   Get FPSCR
 830:../../Drivers/CMSIS/Include/cmsis_gcc.h ****   \details Returns the current value of the Floating Point Status/Control register.
 831:../../Drivers/CMSIS/Include/cmsis_gcc.h ****   \return               Floating Point Status/Control register value
 832:../../Drivers/CMSIS/Include/cmsis_gcc.h ****  */
 833:../../Drivers/CMSIS/Include/cmsis_gcc.h **** __STATIC_FORCEINLINE uint32_t __get_FPSCR(void)
 834:../../Drivers/CMSIS/Include/cmsis_gcc.h **** {
 835:../../Drivers/CMSIS/Include/cmsis_gcc.h **** #if ((defined (__FPU_PRESENT) && (__FPU_PRESENT == 1U)) && \
 836:../../Drivers/CMSIS/Include/cmsis_gcc.h ****      (defined (__FPU_USED   ) && (__FPU_USED    == 1U))     )
 837:../../Drivers/CMSIS/Include/cmsis_gcc.h **** #if __has_builtin(__builtin_arm_get_fpscr) 
ARM GAS  C:\Users\gigig\AppData\Local\Temp\cc4Yyo3b.s 			page 58


 838:../../Drivers/CMSIS/Include/cmsis_gcc.h **** // Re-enable using built-in when GCC has been fixed
 839:../../Drivers/CMSIS/Include/cmsis_gcc.h **** // || (__GNUC__ > 7) || (__GNUC__ == 7 && __GNUC_MINOR__ >= 2)
 840:../../Drivers/CMSIS/Include/cmsis_gcc.h ****   /* see https://gcc.gnu.org/ml/gcc-patches/2017-04/msg00443.html */
 841:../../Drivers/CMSIS/Include/cmsis_gcc.h ****   return __builtin_arm_get_fpscr();
 842:../../Drivers/CMSIS/Include/cmsis_gcc.h **** #else
 843:../../Drivers/CMSIS/Include/cmsis_gcc.h ****   uint32_t result;
 844:../../Drivers/CMSIS/Include/cmsis_gcc.h **** 
 845:../../Drivers/CMSIS/Include/cmsis_gcc.h ****   __ASM volatile ("VMRS %0, fpscr" : "=r" (result) );
 846:../../Drivers/CMSIS/Include/cmsis_gcc.h ****   return(result);
 847:../../Drivers/CMSIS/Include/cmsis_gcc.h **** #endif
 848:../../Drivers/CMSIS/Include/cmsis_gcc.h **** #else
 849:../../Drivers/CMSIS/Include/cmsis_gcc.h ****   return(0U);
 850:../../Drivers/CMSIS/Include/cmsis_gcc.h **** #endif
 851:../../Drivers/CMSIS/Include/cmsis_gcc.h **** }
 852:../../Drivers/CMSIS/Include/cmsis_gcc.h **** 
 853:../../Drivers/CMSIS/Include/cmsis_gcc.h **** 
 854:../../Drivers/CMSIS/Include/cmsis_gcc.h **** /**
 855:../../Drivers/CMSIS/Include/cmsis_gcc.h ****   \brief   Set FPSCR
 856:../../Drivers/CMSIS/Include/cmsis_gcc.h ****   \details Assigns the given value to the Floating Point Status/Control register.
 857:../../Drivers/CMSIS/Include/cmsis_gcc.h ****   \param [in]    fpscr  Floating Point Status/Control value to set
 858:../../Drivers/CMSIS/Include/cmsis_gcc.h ****  */
 859:../../Drivers/CMSIS/Include/cmsis_gcc.h **** __STATIC_FORCEINLINE void __set_FPSCR(uint32_t fpscr)
 860:../../Drivers/CMSIS/Include/cmsis_gcc.h **** {
 861:../../Drivers/CMSIS/Include/cmsis_gcc.h **** #if ((defined (__FPU_PRESENT) && (__FPU_PRESENT == 1U)) && \
 862:../../Drivers/CMSIS/Include/cmsis_gcc.h ****      (defined (__FPU_USED   ) && (__FPU_USED    == 1U))     )
 863:../../Drivers/CMSIS/Include/cmsis_gcc.h **** #if __has_builtin(__builtin_arm_set_fpscr)
 864:../../Drivers/CMSIS/Include/cmsis_gcc.h **** // Re-enable using built-in when GCC has been fixed
 865:../../Drivers/CMSIS/Include/cmsis_gcc.h **** // || (__GNUC__ > 7) || (__GNUC__ == 7 && __GNUC_MINOR__ >= 2)
 866:../../Drivers/CMSIS/Include/cmsis_gcc.h ****   /* see https://gcc.gnu.org/ml/gcc-patches/2017-04/msg00443.html */
 867:../../Drivers/CMSIS/Include/cmsis_gcc.h ****   __builtin_arm_set_fpscr(fpscr);
 868:../../Drivers/CMSIS/Include/cmsis_gcc.h **** #else
 869:../../Drivers/CMSIS/Include/cmsis_gcc.h ****   __ASM volatile ("VMSR fpscr, %0" : : "r" (fpscr) : "vfpcc", "memory");
 870:../../Drivers/CMSIS/Include/cmsis_gcc.h **** #endif
 871:../../Drivers/CMSIS/Include/cmsis_gcc.h **** #else
 872:../../Drivers/CMSIS/Include/cmsis_gcc.h ****   (void)fpscr;
 873:../../Drivers/CMSIS/Include/cmsis_gcc.h **** #endif
 874:../../Drivers/CMSIS/Include/cmsis_gcc.h **** }
 875:../../Drivers/CMSIS/Include/cmsis_gcc.h **** 
 876:../../Drivers/CMSIS/Include/cmsis_gcc.h **** 
 877:../../Drivers/CMSIS/Include/cmsis_gcc.h **** /*@} end of CMSIS_Core_RegAccFunctions */
 878:../../Drivers/CMSIS/Include/cmsis_gcc.h **** 
 879:../../Drivers/CMSIS/Include/cmsis_gcc.h **** 
 880:../../Drivers/CMSIS/Include/cmsis_gcc.h **** /* ##########################  Core Instruction Access  ######################### */
 881:../../Drivers/CMSIS/Include/cmsis_gcc.h **** /** \defgroup CMSIS_Core_InstructionInterface CMSIS Core Instruction Interface
 882:../../Drivers/CMSIS/Include/cmsis_gcc.h ****   Access to dedicated instructions
 883:../../Drivers/CMSIS/Include/cmsis_gcc.h ****   @{
 884:../../Drivers/CMSIS/Include/cmsis_gcc.h **** */
 885:../../Drivers/CMSIS/Include/cmsis_gcc.h **** 
 886:../../Drivers/CMSIS/Include/cmsis_gcc.h **** /* Define macros for porting to both thumb1 and thumb2.
 887:../../Drivers/CMSIS/Include/cmsis_gcc.h ****  * For thumb1, use low register (r0-r7), specified by constraint "l"
 888:../../Drivers/CMSIS/Include/cmsis_gcc.h ****  * Otherwise, use general registers, specified by constraint "r" */
