ARM GAS  C:\Users\gigig\AppData\Local\Temp\cc3Euy1e.s 			page 1


   1              		.cpu cortex-m7
   2              		.arch armv7e-m
   3              		.fpu fpv5-d16
   4              		.eabi_attribute 28, 1
   5              		.eabi_attribute 20, 1
   6              		.eabi_attribute 21, 1
   7              		.eabi_attribute 23, 3
   8              		.eabi_attribute 24, 1
   9              		.eabi_attribute 25, 1
  10              		.eabi_attribute 26, 1
  11              		.eabi_attribute 30, 1
  12              		.eabi_attribute 34, 1
  13              		.eabi_attribute 18, 4
  14              		.file	"stm32h7xx_hal_timebase_tim.c"
  15              		.text
  16              	.Ltext0:
  17              		.cfi_sections	.debug_frame
  18              		.file 1 "../../CM7/Core/Src/stm32h7xx_hal_timebase_tim.c"
  19              		.section	.text.HAL_InitTick,"ax",%progbits
  20              		.align	1
  21              		.global	HAL_InitTick
  22              		.syntax unified
  23              		.thumb
  24              		.thumb_func
  26              	HAL_InitTick:
  27              	.LVL0:
  28              	.LFB144:
   1:../../CM7/Core/Src/stm32h7xx_hal_timebase_tim.c **** /* USER CODE BEGIN Header */
   2:../../CM7/Core/Src/stm32h7xx_hal_timebase_tim.c **** /**
   3:../../CM7/Core/Src/stm32h7xx_hal_timebase_tim.c ****   ******************************************************************************
   4:../../CM7/Core/Src/stm32h7xx_hal_timebase_tim.c ****   * @file    stm32h7xx_hal_timebase_tim.c
   5:../../CM7/Core/Src/stm32h7xx_hal_timebase_tim.c ****   * @brief   HAL time base based on the hardware TIM.
   6:../../CM7/Core/Src/stm32h7xx_hal_timebase_tim.c ****   ******************************************************************************
   7:../../CM7/Core/Src/stm32h7xx_hal_timebase_tim.c ****   * @attention
   8:../../CM7/Core/Src/stm32h7xx_hal_timebase_tim.c ****   *
   9:../../CM7/Core/Src/stm32h7xx_hal_timebase_tim.c ****   * Copyright (c) 2024 STMicroelectronics.
  10:../../CM7/Core/Src/stm32h7xx_hal_timebase_tim.c ****   * All rights reserved.
  11:../../CM7/Core/Src/stm32h7xx_hal_timebase_tim.c ****   *
  12:../../CM7/Core/Src/stm32h7xx_hal_timebase_tim.c ****   * This software is licensed under terms that can be found in the LICENSE file
  13:../../CM7/Core/Src/stm32h7xx_hal_timebase_tim.c ****   * in the root directory of this software component.
  14:../../CM7/Core/Src/stm32h7xx_hal_timebase_tim.c ****   * If no LICENSE file comes with this software, it is provided AS-IS.
  15:../../CM7/Core/Src/stm32h7xx_hal_timebase_tim.c ****   *
  16:../../CM7/Core/Src/stm32h7xx_hal_timebase_tim.c ****   ******************************************************************************
  17:../../CM7/Core/Src/stm32h7xx_hal_timebase_tim.c ****   */
  18:../../CM7/Core/Src/stm32h7xx_hal_timebase_tim.c **** /* USER CODE END Header */
  19:../../CM7/Core/Src/stm32h7xx_hal_timebase_tim.c **** 
  20:../../CM7/Core/Src/stm32h7xx_hal_timebase_tim.c **** /* Includes ------------------------------------------------------------------*/
  21:../../CM7/Core/Src/stm32h7xx_hal_timebase_tim.c **** #include "stm32h7xx_hal.h"
  22:../../CM7/Core/Src/stm32h7xx_hal_timebase_tim.c **** #include "stm32h7xx_hal_tim.h"
  23:../../CM7/Core/Src/stm32h7xx_hal_timebase_tim.c **** 
  24:../../CM7/Core/Src/stm32h7xx_hal_timebase_tim.c **** /* Private typedef -----------------------------------------------------------*/
  25:../../CM7/Core/Src/stm32h7xx_hal_timebase_tim.c **** /* Private define ------------------------------------------------------------*/
  26:../../CM7/Core/Src/stm32h7xx_hal_timebase_tim.c **** /* Private macro -------------------------------------------------------------*/
  27:../../CM7/Core/Src/stm32h7xx_hal_timebase_tim.c **** /* Private variables ---------------------------------------------------------*/
  28:../../CM7/Core/Src/stm32h7xx_hal_timebase_tim.c **** TIM_HandleTypeDef        htim1;
  29:../../CM7/Core/Src/stm32h7xx_hal_timebase_tim.c **** /* Private function prototypes -----------------------------------------------*/
  30:../../CM7/Core/Src/stm32h7xx_hal_timebase_tim.c **** /* Private functions ---------------------------------------------------------*/
ARM GAS  C:\Users\gigig\AppData\Local\Temp\cc3Euy1e.s 			page 2


  31:../../CM7/Core/Src/stm32h7xx_hal_timebase_tim.c **** 
  32:../../CM7/Core/Src/stm32h7xx_hal_timebase_tim.c **** /**
  33:../../CM7/Core/Src/stm32h7xx_hal_timebase_tim.c ****   * @brief  This function configures the TIM1 as a time base source.
  34:../../CM7/Core/Src/stm32h7xx_hal_timebase_tim.c ****   *         The time source is configured  to have 1ms time base with a dedicated
  35:../../CM7/Core/Src/stm32h7xx_hal_timebase_tim.c ****   *         Tick interrupt priority.
  36:../../CM7/Core/Src/stm32h7xx_hal_timebase_tim.c ****   * @note   This function is called  automatically at the beginning of program after
  37:../../CM7/Core/Src/stm32h7xx_hal_timebase_tim.c ****   *         reset by HAL_Init() or at any time when clock is configured, by HAL_RCC_ClockConfig().
  38:../../CM7/Core/Src/stm32h7xx_hal_timebase_tim.c ****   * @param  TickPriority: Tick interrupt priority.
  39:../../CM7/Core/Src/stm32h7xx_hal_timebase_tim.c ****   * @retval HAL status
  40:../../CM7/Core/Src/stm32h7xx_hal_timebase_tim.c ****   */
  41:../../CM7/Core/Src/stm32h7xx_hal_timebase_tim.c **** HAL_StatusTypeDef HAL_InitTick(uint32_t TickPriority)
  42:../../CM7/Core/Src/stm32h7xx_hal_timebase_tim.c **** {
  29              		.loc 1 42 1 view -0
  30              		.cfi_startproc
  31              		@ args = 0, pretend = 0, frame = 40
  32              		@ frame_needed = 0, uses_anonymous_args = 0
  43:../../CM7/Core/Src/stm32h7xx_hal_timebase_tim.c ****   RCC_ClkInitTypeDef    clkconfig;
  33              		.loc 1 43 3 view .LVU1
  44:../../CM7/Core/Src/stm32h7xx_hal_timebase_tim.c ****   uint32_t              uwTimclock;
  34              		.loc 1 44 3 view .LVU2
  45:../../CM7/Core/Src/stm32h7xx_hal_timebase_tim.c **** 
  46:../../CM7/Core/Src/stm32h7xx_hal_timebase_tim.c ****   uint32_t              uwPrescalerValue;
  35              		.loc 1 46 3 view .LVU3
  47:../../CM7/Core/Src/stm32h7xx_hal_timebase_tim.c ****   uint32_t              pFLatency;
  36              		.loc 1 47 3 view .LVU4
  48:../../CM7/Core/Src/stm32h7xx_hal_timebase_tim.c **** /*Configure the TIM1 IRQ priority */
  49:../../CM7/Core/Src/stm32h7xx_hal_timebase_tim.c ****   if (TickPriority < (1UL << __NVIC_PRIO_BITS))
  37              		.loc 1 49 3 view .LVU5
  38              		.loc 1 49 6 is_stmt 0 view .LVU6
  39 0000 0F28     		cmp	r0, #15
  40 0002 01D9     		bls	.L9
  50:../../CM7/Core/Src/stm32h7xx_hal_timebase_tim.c ****   {
  51:../../CM7/Core/Src/stm32h7xx_hal_timebase_tim.c ****   HAL_NVIC_SetPriority(TIM1_UP_IRQn, TickPriority ,0U);
  52:../../CM7/Core/Src/stm32h7xx_hal_timebase_tim.c **** 
  53:../../CM7/Core/Src/stm32h7xx_hal_timebase_tim.c ****   /* Enable the TIM1 global Interrupt */
  54:../../CM7/Core/Src/stm32h7xx_hal_timebase_tim.c ****   HAL_NVIC_EnableIRQ(TIM1_UP_IRQn);
  55:../../CM7/Core/Src/stm32h7xx_hal_timebase_tim.c ****     uwTickPrio = TickPriority;
  56:../../CM7/Core/Src/stm32h7xx_hal_timebase_tim.c ****     }
  57:../../CM7/Core/Src/stm32h7xx_hal_timebase_tim.c ****   else
  58:../../CM7/Core/Src/stm32h7xx_hal_timebase_tim.c ****   {
  59:../../CM7/Core/Src/stm32h7xx_hal_timebase_tim.c ****     return HAL_ERROR;
  41              		.loc 1 59 12 view .LVU7
  42 0004 0120     		movs	r0, #1
  43              	.LVL1:
  60:../../CM7/Core/Src/stm32h7xx_hal_timebase_tim.c ****   }
  61:../../CM7/Core/Src/stm32h7xx_hal_timebase_tim.c **** 
  62:../../CM7/Core/Src/stm32h7xx_hal_timebase_tim.c ****   /* Enable TIM1 clock */
  63:../../CM7/Core/Src/stm32h7xx_hal_timebase_tim.c ****   __HAL_RCC_TIM1_CLK_ENABLE();
  64:../../CM7/Core/Src/stm32h7xx_hal_timebase_tim.c **** 
  65:../../CM7/Core/Src/stm32h7xx_hal_timebase_tim.c ****   /* Get clock configuration */
  66:../../CM7/Core/Src/stm32h7xx_hal_timebase_tim.c ****   HAL_RCC_GetClockConfig(&clkconfig, &pFLatency);
  67:../../CM7/Core/Src/stm32h7xx_hal_timebase_tim.c **** 
  68:../../CM7/Core/Src/stm32h7xx_hal_timebase_tim.c ****   /* Compute TIM1 clock */
  69:../../CM7/Core/Src/stm32h7xx_hal_timebase_tim.c ****       uwTimclock = HAL_RCC_GetPCLK2Freq();
  70:../../CM7/Core/Src/stm32h7xx_hal_timebase_tim.c **** 
  71:../../CM7/Core/Src/stm32h7xx_hal_timebase_tim.c ****   /* Compute the prescaler value to have TIM1 counter clock equal to 1MHz */
  72:../../CM7/Core/Src/stm32h7xx_hal_timebase_tim.c ****   uwPrescalerValue = (uint32_t) ((uwTimclock / 1000000U) - 1U);
ARM GAS  C:\Users\gigig\AppData\Local\Temp\cc3Euy1e.s 			page 3


  73:../../CM7/Core/Src/stm32h7xx_hal_timebase_tim.c **** 
  74:../../CM7/Core/Src/stm32h7xx_hal_timebase_tim.c ****   /* Initialize TIM1 */
  75:../../CM7/Core/Src/stm32h7xx_hal_timebase_tim.c ****   htim1.Instance = TIM1;
  76:../../CM7/Core/Src/stm32h7xx_hal_timebase_tim.c **** 
  77:../../CM7/Core/Src/stm32h7xx_hal_timebase_tim.c ****   /* Initialize TIMx peripheral as follow:
  78:../../CM7/Core/Src/stm32h7xx_hal_timebase_tim.c **** 
  79:../../CM7/Core/Src/stm32h7xx_hal_timebase_tim.c ****   + Period = [(TIM1CLK/1000) - 1]. to have a (1/1000) s time base.
  80:../../CM7/Core/Src/stm32h7xx_hal_timebase_tim.c ****   + Prescaler = (uwTimclock/1000000 - 1) to have a 1MHz counter clock.
  81:../../CM7/Core/Src/stm32h7xx_hal_timebase_tim.c ****   + ClockDivision = 0
  82:../../CM7/Core/Src/stm32h7xx_hal_timebase_tim.c ****   + Counter direction = Up
  83:../../CM7/Core/Src/stm32h7xx_hal_timebase_tim.c ****   */
  84:../../CM7/Core/Src/stm32h7xx_hal_timebase_tim.c ****   htim1.Init.Period = (1000000U / 1000U) - 1U;
  85:../../CM7/Core/Src/stm32h7xx_hal_timebase_tim.c ****   htim1.Init.Prescaler = uwPrescalerValue;
  86:../../CM7/Core/Src/stm32h7xx_hal_timebase_tim.c ****   htim1.Init.ClockDivision = 0;
  87:../../CM7/Core/Src/stm32h7xx_hal_timebase_tim.c ****   htim1.Init.CounterMode = TIM_COUNTERMODE_UP;
  88:../../CM7/Core/Src/stm32h7xx_hal_timebase_tim.c **** 
  89:../../CM7/Core/Src/stm32h7xx_hal_timebase_tim.c ****   if(HAL_TIM_Base_Init(&htim1) == HAL_OK)
  90:../../CM7/Core/Src/stm32h7xx_hal_timebase_tim.c ****   {
  91:../../CM7/Core/Src/stm32h7xx_hal_timebase_tim.c ****     /* Start the TIM time Base generation in interrupt mode */
  92:../../CM7/Core/Src/stm32h7xx_hal_timebase_tim.c ****     return HAL_TIM_Base_Start_IT(&htim1);
  93:../../CM7/Core/Src/stm32h7xx_hal_timebase_tim.c ****   }
  94:../../CM7/Core/Src/stm32h7xx_hal_timebase_tim.c **** 
  95:../../CM7/Core/Src/stm32h7xx_hal_timebase_tim.c ****   /* Return function status */
  96:../../CM7/Core/Src/stm32h7xx_hal_timebase_tim.c ****   return HAL_ERROR;
  97:../../CM7/Core/Src/stm32h7xx_hal_timebase_tim.c **** }
  44              		.loc 1 97 1 view .LVU8
  45 0006 7047     		bx	lr
  46              	.LVL2:
  47              	.L9:
  42:../../CM7/Core/Src/stm32h7xx_hal_timebase_tim.c ****   RCC_ClkInitTypeDef    clkconfig;
  48              		.loc 1 42 1 view .LVU9
  49 0008 10B5     		push	{r4, lr}
  50              	.LCFI0:
  51              		.cfi_def_cfa_offset 8
  52              		.cfi_offset 4, -8
  53              		.cfi_offset 14, -4
  54 000a 8AB0     		sub	sp, sp, #40
  55              	.LCFI1:
  56              		.cfi_def_cfa_offset 48
  57 000c 0446     		mov	r4, r0
  51:../../CM7/Core/Src/stm32h7xx_hal_timebase_tim.c **** 
  58              		.loc 1 51 3 is_stmt 1 view .LVU10
  59 000e 0022     		movs	r2, #0
  60 0010 0146     		mov	r1, r0
  61 0012 1920     		movs	r0, #25
  62              	.LVL3:
  51:../../CM7/Core/Src/stm32h7xx_hal_timebase_tim.c **** 
  63              		.loc 1 51 3 is_stmt 0 view .LVU11
  64 0014 FFF7FEFF 		bl	HAL_NVIC_SetPriority
  65              	.LVL4:
  54:../../CM7/Core/Src/stm32h7xx_hal_timebase_tim.c ****     uwTickPrio = TickPriority;
  66              		.loc 1 54 3 is_stmt 1 view .LVU12
  67 0018 1920     		movs	r0, #25
  68 001a FFF7FEFF 		bl	HAL_NVIC_EnableIRQ
  69              	.LVL5:
  55:../../CM7/Core/Src/stm32h7xx_hal_timebase_tim.c ****     }
  70              		.loc 1 55 5 view .LVU13
ARM GAS  C:\Users\gigig\AppData\Local\Temp\cc3Euy1e.s 			page 4


  55:../../CM7/Core/Src/stm32h7xx_hal_timebase_tim.c ****     }
  71              		.loc 1 55 16 is_stmt 0 view .LVU14
  72 001e 174B     		ldr	r3, .L11
  73 0020 1C60     		str	r4, [r3]
  63:../../CM7/Core/Src/stm32h7xx_hal_timebase_tim.c **** 
  74              		.loc 1 63 3 is_stmt 1 view .LVU15
  75              	.LBB2:
  63:../../CM7/Core/Src/stm32h7xx_hal_timebase_tim.c **** 
  76              		.loc 1 63 3 view .LVU16
  63:../../CM7/Core/Src/stm32h7xx_hal_timebase_tim.c **** 
  77              		.loc 1 63 3 view .LVU17
  78 0022 174B     		ldr	r3, .L11+4
  79 0024 D3F8F020 		ldr	r2, [r3, #240]
  80 0028 42F00102 		orr	r2, r2, #1
  81 002c C3F8F020 		str	r2, [r3, #240]
  63:../../CM7/Core/Src/stm32h7xx_hal_timebase_tim.c **** 
  82              		.loc 1 63 3 view .LVU18
  83 0030 D3F8F030 		ldr	r3, [r3, #240]
  84 0034 03F00103 		and	r3, r3, #1
  85 0038 0093     		str	r3, [sp]
  63:../../CM7/Core/Src/stm32h7xx_hal_timebase_tim.c **** 
  86              		.loc 1 63 3 view .LVU19
  87 003a 009B     		ldr	r3, [sp]
  88              	.LBE2:
  63:../../CM7/Core/Src/stm32h7xx_hal_timebase_tim.c **** 
  89              		.loc 1 63 3 view .LVU20
  66:../../CM7/Core/Src/stm32h7xx_hal_timebase_tim.c **** 
  90              		.loc 1 66 3 view .LVU21
  91 003c 01A9     		add	r1, sp, #4
  92 003e 02A8     		add	r0, sp, #8
  93 0040 FFF7FEFF 		bl	HAL_RCC_GetClockConfig
  94              	.LVL6:
  69:../../CM7/Core/Src/stm32h7xx_hal_timebase_tim.c **** 
  95              		.loc 1 69 7 view .LVU22
  69:../../CM7/Core/Src/stm32h7xx_hal_timebase_tim.c **** 
  96              		.loc 1 69 20 is_stmt 0 view .LVU23
  97 0044 FFF7FEFF 		bl	HAL_RCC_GetPCLK2Freq
  98              	.LVL7:
  72:../../CM7/Core/Src/stm32h7xx_hal_timebase_tim.c **** 
  99              		.loc 1 72 3 is_stmt 1 view .LVU24
  72:../../CM7/Core/Src/stm32h7xx_hal_timebase_tim.c **** 
 100              		.loc 1 72 46 is_stmt 0 view .LVU25
 101 0048 0E4B     		ldr	r3, .L11+8
 102 004a A3FB0023 		umull	r2, r3, r3, r0
 103 004e 9B0C     		lsrs	r3, r3, #18
  72:../../CM7/Core/Src/stm32h7xx_hal_timebase_tim.c **** 
 104              		.loc 1 72 20 view .LVU26
 105 0050 013B     		subs	r3, r3, #1
 106              	.LVL8:
  75:../../CM7/Core/Src/stm32h7xx_hal_timebase_tim.c **** 
 107              		.loc 1 75 3 is_stmt 1 view .LVU27
  75:../../CM7/Core/Src/stm32h7xx_hal_timebase_tim.c **** 
 108              		.loc 1 75 18 is_stmt 0 view .LVU28
 109 0052 0D48     		ldr	r0, .L11+12
 110              	.LVL9:
  75:../../CM7/Core/Src/stm32h7xx_hal_timebase_tim.c **** 
 111              		.loc 1 75 18 view .LVU29
ARM GAS  C:\Users\gigig\AppData\Local\Temp\cc3Euy1e.s 			page 5


 112 0054 0D4A     		ldr	r2, .L11+16
 113 0056 0260     		str	r2, [r0]
  84:../../CM7/Core/Src/stm32h7xx_hal_timebase_tim.c ****   htim1.Init.Prescaler = uwPrescalerValue;
 114              		.loc 1 84 3 is_stmt 1 view .LVU30
  84:../../CM7/Core/Src/stm32h7xx_hal_timebase_tim.c ****   htim1.Init.Prescaler = uwPrescalerValue;
 115              		.loc 1 84 21 is_stmt 0 view .LVU31
 116 0058 40F2E732 		movw	r2, #999
 117 005c C260     		str	r2, [r0, #12]
  85:../../CM7/Core/Src/stm32h7xx_hal_timebase_tim.c ****   htim1.Init.ClockDivision = 0;
 118              		.loc 1 85 3 is_stmt 1 view .LVU32
  85:../../CM7/Core/Src/stm32h7xx_hal_timebase_tim.c ****   htim1.Init.ClockDivision = 0;
 119              		.loc 1 85 24 is_stmt 0 view .LVU33
 120 005e 4360     		str	r3, [r0, #4]
  86:../../CM7/Core/Src/stm32h7xx_hal_timebase_tim.c ****   htim1.Init.CounterMode = TIM_COUNTERMODE_UP;
 121              		.loc 1 86 3 is_stmt 1 view .LVU34
  86:../../CM7/Core/Src/stm32h7xx_hal_timebase_tim.c ****   htim1.Init.CounterMode = TIM_COUNTERMODE_UP;
 122              		.loc 1 86 28 is_stmt 0 view .LVU35
 123 0060 0023     		movs	r3, #0
 124              	.LVL10:
  86:../../CM7/Core/Src/stm32h7xx_hal_timebase_tim.c ****   htim1.Init.CounterMode = TIM_COUNTERMODE_UP;
 125              		.loc 1 86 28 view .LVU36
 126 0062 0361     		str	r3, [r0, #16]
  87:../../CM7/Core/Src/stm32h7xx_hal_timebase_tim.c **** 
 127              		.loc 1 87 3 is_stmt 1 view .LVU37
  87:../../CM7/Core/Src/stm32h7xx_hal_timebase_tim.c **** 
 128              		.loc 1 87 26 is_stmt 0 view .LVU38
 129 0064 8360     		str	r3, [r0, #8]
  89:../../CM7/Core/Src/stm32h7xx_hal_timebase_tim.c ****   {
 130              		.loc 1 89 3 is_stmt 1 view .LVU39
  89:../../CM7/Core/Src/stm32h7xx_hal_timebase_tim.c ****   {
 131              		.loc 1 89 6 is_stmt 0 view .LVU40
 132 0066 FFF7FEFF 		bl	HAL_TIM_Base_Init
 133              	.LVL11:
  89:../../CM7/Core/Src/stm32h7xx_hal_timebase_tim.c ****   {
 134              		.loc 1 89 5 view .LVU41
 135 006a 10B1     		cbz	r0, .L10
  96:../../CM7/Core/Src/stm32h7xx_hal_timebase_tim.c **** }
 136              		.loc 1 96 10 view .LVU42
 137 006c 0120     		movs	r0, #1
 138              	.L2:
 139              		.loc 1 97 1 view .LVU43
 140 006e 0AB0     		add	sp, sp, #40
 141              	.LCFI2:
 142              		.cfi_remember_state
 143              		.cfi_def_cfa_offset 8
 144              		@ sp needed
 145 0070 10BD     		pop	{r4, pc}
 146              	.LVL12:
 147              	.L10:
 148              	.LCFI3:
 149              		.cfi_restore_state
  92:../../CM7/Core/Src/stm32h7xx_hal_timebase_tim.c ****   }
 150              		.loc 1 92 5 is_stmt 1 view .LVU44
  92:../../CM7/Core/Src/stm32h7xx_hal_timebase_tim.c ****   }
 151              		.loc 1 92 12 is_stmt 0 view .LVU45
 152 0072 0548     		ldr	r0, .L11+12
 153 0074 FFF7FEFF 		bl	HAL_TIM_Base_Start_IT
ARM GAS  C:\Users\gigig\AppData\Local\Temp\cc3Euy1e.s 			page 6


 154              	.LVL13:
 155 0078 F9E7     		b	.L2
 156              	.L12:
 157 007a 00BF     		.align	2
 158              	.L11:
 159 007c 00000000 		.word	uwTickPrio
 160 0080 00440258 		.word	1476543488
 161 0084 83DE1B43 		.word	1125899907
 162 0088 00000000 		.word	htim1
 163 008c 00000140 		.word	1073807360
 164              		.cfi_endproc
 165              	.LFE144:
 167              		.section	.text.HAL_SuspendTick,"ax",%progbits
 168              		.align	1
 169              		.global	HAL_SuspendTick
 170              		.syntax unified
 171              		.thumb
 172              		.thumb_func
 174              	HAL_SuspendTick:
 175              	.LFB145:
  98:../../CM7/Core/Src/stm32h7xx_hal_timebase_tim.c **** 
  99:../../CM7/Core/Src/stm32h7xx_hal_timebase_tim.c **** /**
 100:../../CM7/Core/Src/stm32h7xx_hal_timebase_tim.c ****   * @brief  Suspend Tick increment.
 101:../../CM7/Core/Src/stm32h7xx_hal_timebase_tim.c ****   * @note   Disable the tick increment by disabling TIM1 update interrupt.
 102:../../CM7/Core/Src/stm32h7xx_hal_timebase_tim.c ****   * @param  None
 103:../../CM7/Core/Src/stm32h7xx_hal_timebase_tim.c ****   * @retval None
 104:../../CM7/Core/Src/stm32h7xx_hal_timebase_tim.c ****   */
 105:../../CM7/Core/Src/stm32h7xx_hal_timebase_tim.c **** void HAL_SuspendTick(void)
 106:../../CM7/Core/Src/stm32h7xx_hal_timebase_tim.c **** {
 176              		.loc 1 106 1 is_stmt 1 view -0
 177              		.cfi_startproc
 178              		@ args = 0, pretend = 0, frame = 0
 179              		@ frame_needed = 0, uses_anonymous_args = 0
 180              		@ link register save eliminated.
 107:../../CM7/Core/Src/stm32h7xx_hal_timebase_tim.c ****   /* Disable TIM1 update Interrupt */
 108:../../CM7/Core/Src/stm32h7xx_hal_timebase_tim.c ****   __HAL_TIM_DISABLE_IT(&htim1, TIM_IT_UPDATE);
 181              		.loc 1 108 3 view .LVU47
 182 0000 034B     		ldr	r3, .L14
 183 0002 1A68     		ldr	r2, [r3]
 184 0004 D368     		ldr	r3, [r2, #12]
 185 0006 23F00103 		bic	r3, r3, #1
 186 000a D360     		str	r3, [r2, #12]
 109:../../CM7/Core/Src/stm32h7xx_hal_timebase_tim.c **** }
 187              		.loc 1 109 1 is_stmt 0 view .LVU48
 188 000c 7047     		bx	lr
 189              	.L15:
 190 000e 00BF     		.align	2
 191              	.L14:
 192 0010 00000000 		.word	htim1
 193              		.cfi_endproc
 194              	.LFE145:
 196              		.section	.text.HAL_ResumeTick,"ax",%progbits
 197              		.align	1
 198              		.global	HAL_ResumeTick
 199              		.syntax unified
 200              		.thumb
 201              		.thumb_func
ARM GAS  C:\Users\gigig\AppData\Local\Temp\cc3Euy1e.s 			page 7


 203              	HAL_ResumeTick:
 204              	.LFB146:
 110:../../CM7/Core/Src/stm32h7xx_hal_timebase_tim.c **** 
 111:../../CM7/Core/Src/stm32h7xx_hal_timebase_tim.c **** /**
 112:../../CM7/Core/Src/stm32h7xx_hal_timebase_tim.c ****   * @brief  Resume Tick increment.
 113:../../CM7/Core/Src/stm32h7xx_hal_timebase_tim.c ****   * @note   Enable the tick increment by Enabling TIM1 update interrupt.
 114:../../CM7/Core/Src/stm32h7xx_hal_timebase_tim.c ****   * @param  None
 115:../../CM7/Core/Src/stm32h7xx_hal_timebase_tim.c ****   * @retval None
 116:../../CM7/Core/Src/stm32h7xx_hal_timebase_tim.c ****   */
 117:../../CM7/Core/Src/stm32h7xx_hal_timebase_tim.c **** void HAL_ResumeTick(void)
 118:../../CM7/Core/Src/stm32h7xx_hal_timebase_tim.c **** {
 205              		.loc 1 118 1 is_stmt 1 view -0
 206              		.cfi_startproc
 207              		@ args = 0, pretend = 0, frame = 0
 208              		@ frame_needed = 0, uses_anonymous_args = 0
 209              		@ link register save eliminated.
 119:../../CM7/Core/Src/stm32h7xx_hal_timebase_tim.c ****   /* Enable TIM1 Update interrupt */
 120:../../CM7/Core/Src/stm32h7xx_hal_timebase_tim.c ****   __HAL_TIM_ENABLE_IT(&htim1, TIM_IT_UPDATE);
 210              		.loc 1 120 3 view .LVU50
 211 0000 034B     		ldr	r3, .L17
 212 0002 1A68     		ldr	r2, [r3]
 213 0004 D368     		ldr	r3, [r2, #12]
 214 0006 43F00103 		orr	r3, r3, #1
 215 000a D360     		str	r3, [r2, #12]
 121:../../CM7/Core/Src/stm32h7xx_hal_timebase_tim.c **** }
 216              		.loc 1 121 1 is_stmt 0 view .LVU51
 217 000c 7047     		bx	lr
 218              	.L18:
 219 000e 00BF     		.align	2
 220              	.L17:
 221 0010 00000000 		.word	htim1
 222              		.cfi_endproc
 223              	.LFE146:
 225              		.global	htim1
 226              		.section	.bss.htim1,"aw",%nobits
 227              		.align	2
 230              	htim1:
 231 0000 00000000 		.space	76
 231      00000000 
 231      00000000 
 231      00000000 
 231      00000000 
 232              		.text
 233              	.Letext0:
 234              		.file 2 "../../Drivers/CMSIS/Device/ST/STM32H7xx/Include/stm32h755xx.h"
 235              		.file 3 "c:\\program files (x86)\\arm gnu toolchain arm-none-eabi\\12.2 rel1\\arm-none-eabi\\inclu
 236              		.file 4 "c:\\program files (x86)\\arm gnu toolchain arm-none-eabi\\12.2 rel1\\arm-none-eabi\\inclu
 237              		.file 5 "../../Drivers/STM32H7xx_HAL_Driver/Inc/stm32h7xx_hal_def.h"
 238              		.file 6 "../../Drivers/STM32H7xx_HAL_Driver/Inc/stm32h7xx_hal_rcc.h"
 239              		.file 7 "../../Drivers/STM32H7xx_HAL_Driver/Inc/stm32h7xx_hal_dma.h"
 240              		.file 8 "../../Drivers/STM32H7xx_HAL_Driver/Inc/stm32h7xx_hal_tim.h"
 241              		.file 9 "../../Drivers/STM32H7xx_HAL_Driver/Inc/stm32h7xx_hal.h"
 242              		.file 10 "../../Drivers/STM32H7xx_HAL_Driver/Inc/stm32h7xx_hal_cortex.h"
ARM GAS  C:\Users\gigig\AppData\Local\Temp\cc3Euy1e.s 			page 8

