ARM GAS  C:\Users\gigig\AppData\Local\Temp\ccWnrG0a.s 			page 1


   1              		.cpu cortex-m4
   2              		.arch armv7e-m
   3              		.fpu fpv4-sp-d16
   4              		.eabi_attribute 27, 1
   5              		.eabi_attribute 28, 1
   6              		.eabi_attribute 20, 1
   7              		.eabi_attribute 21, 1
   8              		.eabi_attribute 23, 3
   9              		.eabi_attribute 24, 1
  10              		.eabi_attribute 25, 1
  11              		.eabi_attribute 26, 1
  12              		.eabi_attribute 30, 1
  13              		.eabi_attribute 34, 1
  14              		.eabi_attribute 18, 4
  15              		.file	"stm32l4xx_ll_usb.c"
  16              		.text
  17              	.Ltext0:
  18              		.cfi_sections	.debug_frame
  19              		.file 1 "Drivers/STM32L4xx_HAL_Driver/Src/stm32l4xx_ll_usb.c"
  20              		.section	.text.USB_CoreReset,"ax",%progbits
  21              		.align	1
  22              		.syntax unified
  23              		.thumb
  24              		.thumb_func
  26              	USB_CoreReset:
  27              	.LVL0:
  28              	.LFB166:
   1:Drivers/STM32L4xx_HAL_Driver/Src/stm32l4xx_ll_usb.c **** /**
   2:Drivers/STM32L4xx_HAL_Driver/Src/stm32l4xx_ll_usb.c ****   ******************************************************************************
   3:Drivers/STM32L4xx_HAL_Driver/Src/stm32l4xx_ll_usb.c ****   * @file    stm32l4xx_ll_usb.c
   4:Drivers/STM32L4xx_HAL_Driver/Src/stm32l4xx_ll_usb.c ****   * @author  MCD Application Team
   5:Drivers/STM32L4xx_HAL_Driver/Src/stm32l4xx_ll_usb.c ****   * @brief   USB Low Layer HAL module driver.
   6:Drivers/STM32L4xx_HAL_Driver/Src/stm32l4xx_ll_usb.c ****   *
   7:Drivers/STM32L4xx_HAL_Driver/Src/stm32l4xx_ll_usb.c ****   *          This file provides firmware functions to manage the following
   8:Drivers/STM32L4xx_HAL_Driver/Src/stm32l4xx_ll_usb.c ****   *          functionalities of the USB Peripheral Controller:
   9:Drivers/STM32L4xx_HAL_Driver/Src/stm32l4xx_ll_usb.c ****   *           + Initialization/de-initialization functions
  10:Drivers/STM32L4xx_HAL_Driver/Src/stm32l4xx_ll_usb.c ****   *           + I/O operation functions
  11:Drivers/STM32L4xx_HAL_Driver/Src/stm32l4xx_ll_usb.c ****   *           + Peripheral Control functions
  12:Drivers/STM32L4xx_HAL_Driver/Src/stm32l4xx_ll_usb.c ****   *           + Peripheral State functions
  13:Drivers/STM32L4xx_HAL_Driver/Src/stm32l4xx_ll_usb.c ****   *
  14:Drivers/STM32L4xx_HAL_Driver/Src/stm32l4xx_ll_usb.c ****   ******************************************************************************
  15:Drivers/STM32L4xx_HAL_Driver/Src/stm32l4xx_ll_usb.c ****   * @attention
  16:Drivers/STM32L4xx_HAL_Driver/Src/stm32l4xx_ll_usb.c ****   *
  17:Drivers/STM32L4xx_HAL_Driver/Src/stm32l4xx_ll_usb.c ****   * Copyright (c) 2017 STMicroelectronics.
  18:Drivers/STM32L4xx_HAL_Driver/Src/stm32l4xx_ll_usb.c ****   * All rights reserved.
  19:Drivers/STM32L4xx_HAL_Driver/Src/stm32l4xx_ll_usb.c ****   *
  20:Drivers/STM32L4xx_HAL_Driver/Src/stm32l4xx_ll_usb.c ****   * This software is licensed under terms that can be found in the LICENSE file
  21:Drivers/STM32L4xx_HAL_Driver/Src/stm32l4xx_ll_usb.c ****   * in the root directory of this software component.
  22:Drivers/STM32L4xx_HAL_Driver/Src/stm32l4xx_ll_usb.c ****   * If no LICENSE file comes with this software, it is provided AS-IS.
  23:Drivers/STM32L4xx_HAL_Driver/Src/stm32l4xx_ll_usb.c ****   *
  24:Drivers/STM32L4xx_HAL_Driver/Src/stm32l4xx_ll_usb.c ****   ******************************************************************************
  25:Drivers/STM32L4xx_HAL_Driver/Src/stm32l4xx_ll_usb.c ****   @verbatim
  26:Drivers/STM32L4xx_HAL_Driver/Src/stm32l4xx_ll_usb.c ****   ==============================================================================
  27:Drivers/STM32L4xx_HAL_Driver/Src/stm32l4xx_ll_usb.c ****                     ##### How to use this driver #####
  28:Drivers/STM32L4xx_HAL_Driver/Src/stm32l4xx_ll_usb.c ****   ==============================================================================
  29:Drivers/STM32L4xx_HAL_Driver/Src/stm32l4xx_ll_usb.c ****     [..]
  30:Drivers/STM32L4xx_HAL_Driver/Src/stm32l4xx_ll_usb.c ****       (#) Fill parameters of Init structure in USB_CfgTypeDef structure.
ARM GAS  C:\Users\gigig\AppData\Local\Temp\ccWnrG0a.s 			page 2


  31:Drivers/STM32L4xx_HAL_Driver/Src/stm32l4xx_ll_usb.c **** 
  32:Drivers/STM32L4xx_HAL_Driver/Src/stm32l4xx_ll_usb.c ****       (#) Call USB_CoreInit() API to initialize the USB Core peripheral.
  33:Drivers/STM32L4xx_HAL_Driver/Src/stm32l4xx_ll_usb.c **** 
  34:Drivers/STM32L4xx_HAL_Driver/Src/stm32l4xx_ll_usb.c ****       (#) The upper HAL HCD/PCD driver will call the right routines for its internal processes.
  35:Drivers/STM32L4xx_HAL_Driver/Src/stm32l4xx_ll_usb.c **** 
  36:Drivers/STM32L4xx_HAL_Driver/Src/stm32l4xx_ll_usb.c ****   @endverbatim
  37:Drivers/STM32L4xx_HAL_Driver/Src/stm32l4xx_ll_usb.c **** 
  38:Drivers/STM32L4xx_HAL_Driver/Src/stm32l4xx_ll_usb.c ****   ******************************************************************************
  39:Drivers/STM32L4xx_HAL_Driver/Src/stm32l4xx_ll_usb.c ****   */
  40:Drivers/STM32L4xx_HAL_Driver/Src/stm32l4xx_ll_usb.c **** 
  41:Drivers/STM32L4xx_HAL_Driver/Src/stm32l4xx_ll_usb.c **** /* Includes ------------------------------------------------------------------*/
  42:Drivers/STM32L4xx_HAL_Driver/Src/stm32l4xx_ll_usb.c **** #include "stm32l4xx_hal.h"
  43:Drivers/STM32L4xx_HAL_Driver/Src/stm32l4xx_ll_usb.c **** 
  44:Drivers/STM32L4xx_HAL_Driver/Src/stm32l4xx_ll_usb.c **** /** @addtogroup STM32L4xx_LL_USB_DRIVER
  45:Drivers/STM32L4xx_HAL_Driver/Src/stm32l4xx_ll_usb.c ****   * @{
  46:Drivers/STM32L4xx_HAL_Driver/Src/stm32l4xx_ll_usb.c ****   */
  47:Drivers/STM32L4xx_HAL_Driver/Src/stm32l4xx_ll_usb.c **** 
  48:Drivers/STM32L4xx_HAL_Driver/Src/stm32l4xx_ll_usb.c **** #if defined (HAL_PCD_MODULE_ENABLED) || defined (HAL_HCD_MODULE_ENABLED)
  49:Drivers/STM32L4xx_HAL_Driver/Src/stm32l4xx_ll_usb.c **** #if defined (USB) || defined (USB_OTG_FS)
  50:Drivers/STM32L4xx_HAL_Driver/Src/stm32l4xx_ll_usb.c **** /* Private typedef -----------------------------------------------------------*/
  51:Drivers/STM32L4xx_HAL_Driver/Src/stm32l4xx_ll_usb.c **** /* Private define ------------------------------------------------------------*/
  52:Drivers/STM32L4xx_HAL_Driver/Src/stm32l4xx_ll_usb.c **** /* Private macro -------------------------------------------------------------*/
  53:Drivers/STM32L4xx_HAL_Driver/Src/stm32l4xx_ll_usb.c **** /* Private variables ---------------------------------------------------------*/
  54:Drivers/STM32L4xx_HAL_Driver/Src/stm32l4xx_ll_usb.c **** /* Private function prototypes -----------------------------------------------*/
  55:Drivers/STM32L4xx_HAL_Driver/Src/stm32l4xx_ll_usb.c **** /* Private functions ---------------------------------------------------------*/
  56:Drivers/STM32L4xx_HAL_Driver/Src/stm32l4xx_ll_usb.c **** #if defined (USB_OTG_FS)
  57:Drivers/STM32L4xx_HAL_Driver/Src/stm32l4xx_ll_usb.c **** static HAL_StatusTypeDef USB_CoreReset(USB_OTG_GlobalTypeDef *USBx);
  58:Drivers/STM32L4xx_HAL_Driver/Src/stm32l4xx_ll_usb.c **** 
  59:Drivers/STM32L4xx_HAL_Driver/Src/stm32l4xx_ll_usb.c **** /* Exported functions --------------------------------------------------------*/
  60:Drivers/STM32L4xx_HAL_Driver/Src/stm32l4xx_ll_usb.c **** /** @defgroup USB_LL_Exported_Functions USB Low Layer Exported Functions
  61:Drivers/STM32L4xx_HAL_Driver/Src/stm32l4xx_ll_usb.c ****   * @{
  62:Drivers/STM32L4xx_HAL_Driver/Src/stm32l4xx_ll_usb.c ****   */
  63:Drivers/STM32L4xx_HAL_Driver/Src/stm32l4xx_ll_usb.c **** 
  64:Drivers/STM32L4xx_HAL_Driver/Src/stm32l4xx_ll_usb.c **** /** @defgroup USB_LL_Exported_Functions_Group1 Initialization/de-initialization functions
  65:Drivers/STM32L4xx_HAL_Driver/Src/stm32l4xx_ll_usb.c ****   *  @brief    Initialization and Configuration functions
  66:Drivers/STM32L4xx_HAL_Driver/Src/stm32l4xx_ll_usb.c ****   *
  67:Drivers/STM32L4xx_HAL_Driver/Src/stm32l4xx_ll_usb.c **** @verbatim
  68:Drivers/STM32L4xx_HAL_Driver/Src/stm32l4xx_ll_usb.c ****  ===============================================================================
  69:Drivers/STM32L4xx_HAL_Driver/Src/stm32l4xx_ll_usb.c ****                       ##### Initialization/de-initialization functions #####
  70:Drivers/STM32L4xx_HAL_Driver/Src/stm32l4xx_ll_usb.c ****  ===============================================================================
  71:Drivers/STM32L4xx_HAL_Driver/Src/stm32l4xx_ll_usb.c **** 
  72:Drivers/STM32L4xx_HAL_Driver/Src/stm32l4xx_ll_usb.c **** @endverbatim
  73:Drivers/STM32L4xx_HAL_Driver/Src/stm32l4xx_ll_usb.c ****   * @{
  74:Drivers/STM32L4xx_HAL_Driver/Src/stm32l4xx_ll_usb.c ****   */
  75:Drivers/STM32L4xx_HAL_Driver/Src/stm32l4xx_ll_usb.c **** 
  76:Drivers/STM32L4xx_HAL_Driver/Src/stm32l4xx_ll_usb.c **** /**
  77:Drivers/STM32L4xx_HAL_Driver/Src/stm32l4xx_ll_usb.c ****   * @brief  Initializes the USB Core
  78:Drivers/STM32L4xx_HAL_Driver/Src/stm32l4xx_ll_usb.c ****   * @param  USBx USB Instance
  79:Drivers/STM32L4xx_HAL_Driver/Src/stm32l4xx_ll_usb.c ****   * @param  cfg pointer to a USB_OTG_CfgTypeDef structure that contains
  80:Drivers/STM32L4xx_HAL_Driver/Src/stm32l4xx_ll_usb.c ****   *         the configuration information for the specified USBx peripheral.
  81:Drivers/STM32L4xx_HAL_Driver/Src/stm32l4xx_ll_usb.c ****   * @retval HAL status
  82:Drivers/STM32L4xx_HAL_Driver/Src/stm32l4xx_ll_usb.c ****   */
  83:Drivers/STM32L4xx_HAL_Driver/Src/stm32l4xx_ll_usb.c **** HAL_StatusTypeDef USB_CoreInit(USB_OTG_GlobalTypeDef *USBx, USB_OTG_CfgTypeDef cfg)
  84:Drivers/STM32L4xx_HAL_Driver/Src/stm32l4xx_ll_usb.c **** {
  85:Drivers/STM32L4xx_HAL_Driver/Src/stm32l4xx_ll_usb.c ****   HAL_StatusTypeDef ret;
  86:Drivers/STM32L4xx_HAL_Driver/Src/stm32l4xx_ll_usb.c **** 
  87:Drivers/STM32L4xx_HAL_Driver/Src/stm32l4xx_ll_usb.c ****   /* Select FS Embedded PHY */
ARM GAS  C:\Users\gigig\AppData\Local\Temp\ccWnrG0a.s 			page 3


  88:Drivers/STM32L4xx_HAL_Driver/Src/stm32l4xx_ll_usb.c ****   USBx->GUSBCFG |= USB_OTG_GUSBCFG_PHYSEL;
  89:Drivers/STM32L4xx_HAL_Driver/Src/stm32l4xx_ll_usb.c **** 
  90:Drivers/STM32L4xx_HAL_Driver/Src/stm32l4xx_ll_usb.c ****   /* Reset after a PHY select */
  91:Drivers/STM32L4xx_HAL_Driver/Src/stm32l4xx_ll_usb.c ****   ret = USB_CoreReset(USBx);
  92:Drivers/STM32L4xx_HAL_Driver/Src/stm32l4xx_ll_usb.c **** 
  93:Drivers/STM32L4xx_HAL_Driver/Src/stm32l4xx_ll_usb.c ****   if (cfg.battery_charging_enable == 0U)
  94:Drivers/STM32L4xx_HAL_Driver/Src/stm32l4xx_ll_usb.c ****   {
  95:Drivers/STM32L4xx_HAL_Driver/Src/stm32l4xx_ll_usb.c ****     /* Activate the USB Transceiver */
  96:Drivers/STM32L4xx_HAL_Driver/Src/stm32l4xx_ll_usb.c ****     USBx->GCCFG |= USB_OTG_GCCFG_PWRDWN;
  97:Drivers/STM32L4xx_HAL_Driver/Src/stm32l4xx_ll_usb.c ****   }
  98:Drivers/STM32L4xx_HAL_Driver/Src/stm32l4xx_ll_usb.c ****   else
  99:Drivers/STM32L4xx_HAL_Driver/Src/stm32l4xx_ll_usb.c ****   {
 100:Drivers/STM32L4xx_HAL_Driver/Src/stm32l4xx_ll_usb.c ****     /* Deactivate the USB Transceiver */
 101:Drivers/STM32L4xx_HAL_Driver/Src/stm32l4xx_ll_usb.c ****     USBx->GCCFG &= ~(USB_OTG_GCCFG_PWRDWN);
 102:Drivers/STM32L4xx_HAL_Driver/Src/stm32l4xx_ll_usb.c ****   }
 103:Drivers/STM32L4xx_HAL_Driver/Src/stm32l4xx_ll_usb.c **** 
 104:Drivers/STM32L4xx_HAL_Driver/Src/stm32l4xx_ll_usb.c ****   return ret;
 105:Drivers/STM32L4xx_HAL_Driver/Src/stm32l4xx_ll_usb.c **** }
 106:Drivers/STM32L4xx_HAL_Driver/Src/stm32l4xx_ll_usb.c **** 
 107:Drivers/STM32L4xx_HAL_Driver/Src/stm32l4xx_ll_usb.c **** 
 108:Drivers/STM32L4xx_HAL_Driver/Src/stm32l4xx_ll_usb.c **** /**
 109:Drivers/STM32L4xx_HAL_Driver/Src/stm32l4xx_ll_usb.c ****   * @brief  Set the USB turnaround time
 110:Drivers/STM32L4xx_HAL_Driver/Src/stm32l4xx_ll_usb.c ****   * @param  USBx USB Instance
 111:Drivers/STM32L4xx_HAL_Driver/Src/stm32l4xx_ll_usb.c ****   * @param  hclk: AHB clock frequency
 112:Drivers/STM32L4xx_HAL_Driver/Src/stm32l4xx_ll_usb.c ****   * @retval USB turnaround time In PHY Clocks number
 113:Drivers/STM32L4xx_HAL_Driver/Src/stm32l4xx_ll_usb.c ****   */
 114:Drivers/STM32L4xx_HAL_Driver/Src/stm32l4xx_ll_usb.c **** HAL_StatusTypeDef USB_SetTurnaroundTime(USB_OTG_GlobalTypeDef *USBx,
 115:Drivers/STM32L4xx_HAL_Driver/Src/stm32l4xx_ll_usb.c ****                                         uint32_t hclk, uint8_t speed)
 116:Drivers/STM32L4xx_HAL_Driver/Src/stm32l4xx_ll_usb.c **** {
 117:Drivers/STM32L4xx_HAL_Driver/Src/stm32l4xx_ll_usb.c ****   uint32_t UsbTrd;
 118:Drivers/STM32L4xx_HAL_Driver/Src/stm32l4xx_ll_usb.c **** 
 119:Drivers/STM32L4xx_HAL_Driver/Src/stm32l4xx_ll_usb.c ****   /* The USBTRD is configured according to the tables below, depending on AHB frequency
 120:Drivers/STM32L4xx_HAL_Driver/Src/stm32l4xx_ll_usb.c ****   used by application. In the low AHB frequency range it is used to stretch enough the USB response
 121:Drivers/STM32L4xx_HAL_Driver/Src/stm32l4xx_ll_usb.c ****   time to IN tokens, the USB turnaround time, so to compensate for the longer AHB read access
 122:Drivers/STM32L4xx_HAL_Driver/Src/stm32l4xx_ll_usb.c ****   latency to the Data FIFO */
 123:Drivers/STM32L4xx_HAL_Driver/Src/stm32l4xx_ll_usb.c ****   if (speed == USBD_FS_SPEED)
 124:Drivers/STM32L4xx_HAL_Driver/Src/stm32l4xx_ll_usb.c ****   {
 125:Drivers/STM32L4xx_HAL_Driver/Src/stm32l4xx_ll_usb.c ****     if ((hclk >= 14200000U) && (hclk < 15000000U))
 126:Drivers/STM32L4xx_HAL_Driver/Src/stm32l4xx_ll_usb.c ****     {
 127:Drivers/STM32L4xx_HAL_Driver/Src/stm32l4xx_ll_usb.c ****       /* hclk Clock Range between 14.2-15 MHz */
 128:Drivers/STM32L4xx_HAL_Driver/Src/stm32l4xx_ll_usb.c ****       UsbTrd = 0xFU;
 129:Drivers/STM32L4xx_HAL_Driver/Src/stm32l4xx_ll_usb.c ****     }
 130:Drivers/STM32L4xx_HAL_Driver/Src/stm32l4xx_ll_usb.c ****     else if ((hclk >= 15000000U) && (hclk < 16000000U))
 131:Drivers/STM32L4xx_HAL_Driver/Src/stm32l4xx_ll_usb.c ****     {
 132:Drivers/STM32L4xx_HAL_Driver/Src/stm32l4xx_ll_usb.c ****       /* hclk Clock Range between 15-16 MHz */
 133:Drivers/STM32L4xx_HAL_Driver/Src/stm32l4xx_ll_usb.c ****       UsbTrd = 0xEU;
 134:Drivers/STM32L4xx_HAL_Driver/Src/stm32l4xx_ll_usb.c ****     }
 135:Drivers/STM32L4xx_HAL_Driver/Src/stm32l4xx_ll_usb.c ****     else if ((hclk >= 16000000U) && (hclk < 17200000U))
 136:Drivers/STM32L4xx_HAL_Driver/Src/stm32l4xx_ll_usb.c ****     {
 137:Drivers/STM32L4xx_HAL_Driver/Src/stm32l4xx_ll_usb.c ****       /* hclk Clock Range between 16-17.2 MHz */
 138:Drivers/STM32L4xx_HAL_Driver/Src/stm32l4xx_ll_usb.c ****       UsbTrd = 0xDU;
 139:Drivers/STM32L4xx_HAL_Driver/Src/stm32l4xx_ll_usb.c ****     }
 140:Drivers/STM32L4xx_HAL_Driver/Src/stm32l4xx_ll_usb.c ****     else if ((hclk >= 17200000U) && (hclk < 18500000U))
 141:Drivers/STM32L4xx_HAL_Driver/Src/stm32l4xx_ll_usb.c ****     {
 142:Drivers/STM32L4xx_HAL_Driver/Src/stm32l4xx_ll_usb.c ****       /* hclk Clock Range between 17.2-18.5 MHz */
 143:Drivers/STM32L4xx_HAL_Driver/Src/stm32l4xx_ll_usb.c ****       UsbTrd = 0xCU;
 144:Drivers/STM32L4xx_HAL_Driver/Src/stm32l4xx_ll_usb.c ****     }
ARM GAS  C:\Users\gigig\AppData\Local\Temp\ccWnrG0a.s 			page 4


 145:Drivers/STM32L4xx_HAL_Driver/Src/stm32l4xx_ll_usb.c ****     else if ((hclk >= 18500000U) && (hclk < 20000000U))
 146:Drivers/STM32L4xx_HAL_Driver/Src/stm32l4xx_ll_usb.c ****     {
 147:Drivers/STM32L4xx_HAL_Driver/Src/stm32l4xx_ll_usb.c ****       /* hclk Clock Range between 18.5-20 MHz */
 148:Drivers/STM32L4xx_HAL_Driver/Src/stm32l4xx_ll_usb.c ****       UsbTrd = 0xBU;
 149:Drivers/STM32L4xx_HAL_Driver/Src/stm32l4xx_ll_usb.c ****     }
 150:Drivers/STM32L4xx_HAL_Driver/Src/stm32l4xx_ll_usb.c ****     else if ((hclk >= 20000000U) && (hclk < 21800000U))
 151:Drivers/STM32L4xx_HAL_Driver/Src/stm32l4xx_ll_usb.c ****     {
 152:Drivers/STM32L4xx_HAL_Driver/Src/stm32l4xx_ll_usb.c ****       /* hclk Clock Range between 20-21.8 MHz */
 153:Drivers/STM32L4xx_HAL_Driver/Src/stm32l4xx_ll_usb.c ****       UsbTrd = 0xAU;
 154:Drivers/STM32L4xx_HAL_Driver/Src/stm32l4xx_ll_usb.c ****     }
 155:Drivers/STM32L4xx_HAL_Driver/Src/stm32l4xx_ll_usb.c ****     else if ((hclk >= 21800000U) && (hclk < 24000000U))
 156:Drivers/STM32L4xx_HAL_Driver/Src/stm32l4xx_ll_usb.c ****     {
 157:Drivers/STM32L4xx_HAL_Driver/Src/stm32l4xx_ll_usb.c ****       /* hclk Clock Range between 21.8-24 MHz */
 158:Drivers/STM32L4xx_HAL_Driver/Src/stm32l4xx_ll_usb.c ****       UsbTrd = 0x9U;
 159:Drivers/STM32L4xx_HAL_Driver/Src/stm32l4xx_ll_usb.c ****     }
 160:Drivers/STM32L4xx_HAL_Driver/Src/stm32l4xx_ll_usb.c ****     else if ((hclk >= 24000000U) && (hclk < 27700000U))
 161:Drivers/STM32L4xx_HAL_Driver/Src/stm32l4xx_ll_usb.c ****     {
 162:Drivers/STM32L4xx_HAL_Driver/Src/stm32l4xx_ll_usb.c ****       /* hclk Clock Range between 24-27.7 MHz */
 163:Drivers/STM32L4xx_HAL_Driver/Src/stm32l4xx_ll_usb.c ****       UsbTrd = 0x8U;
 164:Drivers/STM32L4xx_HAL_Driver/Src/stm32l4xx_ll_usb.c ****     }
 165:Drivers/STM32L4xx_HAL_Driver/Src/stm32l4xx_ll_usb.c ****     else if ((hclk >= 27700000U) && (hclk < 32000000U))
 166:Drivers/STM32L4xx_HAL_Driver/Src/stm32l4xx_ll_usb.c ****     {
 167:Drivers/STM32L4xx_HAL_Driver/Src/stm32l4xx_ll_usb.c ****       /* hclk Clock Range between 27.7-32 MHz */
 168:Drivers/STM32L4xx_HAL_Driver/Src/stm32l4xx_ll_usb.c ****       UsbTrd = 0x7U;
 169:Drivers/STM32L4xx_HAL_Driver/Src/stm32l4xx_ll_usb.c ****     }
 170:Drivers/STM32L4xx_HAL_Driver/Src/stm32l4xx_ll_usb.c ****     else /* if(hclk >= 32000000) */
 171:Drivers/STM32L4xx_HAL_Driver/Src/stm32l4xx_ll_usb.c ****     {
 172:Drivers/STM32L4xx_HAL_Driver/Src/stm32l4xx_ll_usb.c ****       /* hclk Clock Range between 32-200 MHz */
 173:Drivers/STM32L4xx_HAL_Driver/Src/stm32l4xx_ll_usb.c ****       UsbTrd = 0x6U;
 174:Drivers/STM32L4xx_HAL_Driver/Src/stm32l4xx_ll_usb.c ****     }
 175:Drivers/STM32L4xx_HAL_Driver/Src/stm32l4xx_ll_usb.c ****   }
 176:Drivers/STM32L4xx_HAL_Driver/Src/stm32l4xx_ll_usb.c ****   else
 177:Drivers/STM32L4xx_HAL_Driver/Src/stm32l4xx_ll_usb.c ****   {
 178:Drivers/STM32L4xx_HAL_Driver/Src/stm32l4xx_ll_usb.c ****     UsbTrd = USBD_DEFAULT_TRDT_VALUE;
 179:Drivers/STM32L4xx_HAL_Driver/Src/stm32l4xx_ll_usb.c ****   }
 180:Drivers/STM32L4xx_HAL_Driver/Src/stm32l4xx_ll_usb.c **** 
 181:Drivers/STM32L4xx_HAL_Driver/Src/stm32l4xx_ll_usb.c ****   USBx->GUSBCFG &= ~USB_OTG_GUSBCFG_TRDT;
 182:Drivers/STM32L4xx_HAL_Driver/Src/stm32l4xx_ll_usb.c ****   USBx->GUSBCFG |= (uint32_t)((UsbTrd << 10) & USB_OTG_GUSBCFG_TRDT);
 183:Drivers/STM32L4xx_HAL_Driver/Src/stm32l4xx_ll_usb.c **** 
 184:Drivers/STM32L4xx_HAL_Driver/Src/stm32l4xx_ll_usb.c ****   return HAL_OK;
 185:Drivers/STM32L4xx_HAL_Driver/Src/stm32l4xx_ll_usb.c **** }
 186:Drivers/STM32L4xx_HAL_Driver/Src/stm32l4xx_ll_usb.c **** 
 187:Drivers/STM32L4xx_HAL_Driver/Src/stm32l4xx_ll_usb.c **** /**
 188:Drivers/STM32L4xx_HAL_Driver/Src/stm32l4xx_ll_usb.c ****   * @brief  USB_EnableGlobalInt
 189:Drivers/STM32L4xx_HAL_Driver/Src/stm32l4xx_ll_usb.c ****   *         Enables the controller's Global Int in the AHB Config reg
 190:Drivers/STM32L4xx_HAL_Driver/Src/stm32l4xx_ll_usb.c ****   * @param  USBx  Selected device
 191:Drivers/STM32L4xx_HAL_Driver/Src/stm32l4xx_ll_usb.c ****   * @retval HAL status
 192:Drivers/STM32L4xx_HAL_Driver/Src/stm32l4xx_ll_usb.c ****   */
 193:Drivers/STM32L4xx_HAL_Driver/Src/stm32l4xx_ll_usb.c **** HAL_StatusTypeDef USB_EnableGlobalInt(USB_OTG_GlobalTypeDef *USBx)
 194:Drivers/STM32L4xx_HAL_Driver/Src/stm32l4xx_ll_usb.c **** {
 195:Drivers/STM32L4xx_HAL_Driver/Src/stm32l4xx_ll_usb.c ****   USBx->GAHBCFG |= USB_OTG_GAHBCFG_GINT;
 196:Drivers/STM32L4xx_HAL_Driver/Src/stm32l4xx_ll_usb.c ****   return HAL_OK;
 197:Drivers/STM32L4xx_HAL_Driver/Src/stm32l4xx_ll_usb.c **** }
 198:Drivers/STM32L4xx_HAL_Driver/Src/stm32l4xx_ll_usb.c **** 
 199:Drivers/STM32L4xx_HAL_Driver/Src/stm32l4xx_ll_usb.c **** /**
 200:Drivers/STM32L4xx_HAL_Driver/Src/stm32l4xx_ll_usb.c ****   * @brief  USB_DisableGlobalInt
 201:Drivers/STM32L4xx_HAL_Driver/Src/stm32l4xx_ll_usb.c ****   *         Disable the controller's Global Int in the AHB Config reg
ARM GAS  C:\Users\gigig\AppData\Local\Temp\ccWnrG0a.s 			page 5


 202:Drivers/STM32L4xx_HAL_Driver/Src/stm32l4xx_ll_usb.c ****   * @param  USBx  Selected device
 203:Drivers/STM32L4xx_HAL_Driver/Src/stm32l4xx_ll_usb.c ****   * @retval HAL status
 204:Drivers/STM32L4xx_HAL_Driver/Src/stm32l4xx_ll_usb.c ****   */
 205:Drivers/STM32L4xx_HAL_Driver/Src/stm32l4xx_ll_usb.c **** HAL_StatusTypeDef USB_DisableGlobalInt(USB_OTG_GlobalTypeDef *USBx)
 206:Drivers/STM32L4xx_HAL_Driver/Src/stm32l4xx_ll_usb.c **** {
 207:Drivers/STM32L4xx_HAL_Driver/Src/stm32l4xx_ll_usb.c ****   USBx->GAHBCFG &= ~USB_OTG_GAHBCFG_GINT;
 208:Drivers/STM32L4xx_HAL_Driver/Src/stm32l4xx_ll_usb.c ****   return HAL_OK;
 209:Drivers/STM32L4xx_HAL_Driver/Src/stm32l4xx_ll_usb.c **** }
 210:Drivers/STM32L4xx_HAL_Driver/Src/stm32l4xx_ll_usb.c **** 
 211:Drivers/STM32L4xx_HAL_Driver/Src/stm32l4xx_ll_usb.c **** /**
 212:Drivers/STM32L4xx_HAL_Driver/Src/stm32l4xx_ll_usb.c ****   * @brief  USB_SetCurrentMode Set functional mode
 213:Drivers/STM32L4xx_HAL_Driver/Src/stm32l4xx_ll_usb.c ****   * @param  USBx  Selected device
 214:Drivers/STM32L4xx_HAL_Driver/Src/stm32l4xx_ll_usb.c ****   * @param  mode  current core mode
 215:Drivers/STM32L4xx_HAL_Driver/Src/stm32l4xx_ll_usb.c ****   *          This parameter can be one of these values:
 216:Drivers/STM32L4xx_HAL_Driver/Src/stm32l4xx_ll_usb.c ****   *            @arg USB_DEVICE_MODE Peripheral mode
 217:Drivers/STM32L4xx_HAL_Driver/Src/stm32l4xx_ll_usb.c ****   *            @arg USB_HOST_MODE Host mode
 218:Drivers/STM32L4xx_HAL_Driver/Src/stm32l4xx_ll_usb.c ****   * @retval HAL status
 219:Drivers/STM32L4xx_HAL_Driver/Src/stm32l4xx_ll_usb.c ****   */
 220:Drivers/STM32L4xx_HAL_Driver/Src/stm32l4xx_ll_usb.c **** HAL_StatusTypeDef USB_SetCurrentMode(USB_OTG_GlobalTypeDef *USBx, USB_ModeTypeDef mode)
 221:Drivers/STM32L4xx_HAL_Driver/Src/stm32l4xx_ll_usb.c **** {
 222:Drivers/STM32L4xx_HAL_Driver/Src/stm32l4xx_ll_usb.c ****   uint32_t ms = 0U;
 223:Drivers/STM32L4xx_HAL_Driver/Src/stm32l4xx_ll_usb.c **** 
 224:Drivers/STM32L4xx_HAL_Driver/Src/stm32l4xx_ll_usb.c ****   USBx->GUSBCFG &= ~(USB_OTG_GUSBCFG_FHMOD | USB_OTG_GUSBCFG_FDMOD);
 225:Drivers/STM32L4xx_HAL_Driver/Src/stm32l4xx_ll_usb.c **** 
 226:Drivers/STM32L4xx_HAL_Driver/Src/stm32l4xx_ll_usb.c ****   if (mode == USB_HOST_MODE)
 227:Drivers/STM32L4xx_HAL_Driver/Src/stm32l4xx_ll_usb.c ****   {
 228:Drivers/STM32L4xx_HAL_Driver/Src/stm32l4xx_ll_usb.c ****     USBx->GUSBCFG |= USB_OTG_GUSBCFG_FHMOD;
 229:Drivers/STM32L4xx_HAL_Driver/Src/stm32l4xx_ll_usb.c **** 
 230:Drivers/STM32L4xx_HAL_Driver/Src/stm32l4xx_ll_usb.c ****     do
 231:Drivers/STM32L4xx_HAL_Driver/Src/stm32l4xx_ll_usb.c ****     {
 232:Drivers/STM32L4xx_HAL_Driver/Src/stm32l4xx_ll_usb.c ****       HAL_Delay(1U);
 233:Drivers/STM32L4xx_HAL_Driver/Src/stm32l4xx_ll_usb.c ****       ms++;
 234:Drivers/STM32L4xx_HAL_Driver/Src/stm32l4xx_ll_usb.c ****     } while ((USB_GetMode(USBx) != (uint32_t)USB_HOST_MODE) && (ms < 50U));
 235:Drivers/STM32L4xx_HAL_Driver/Src/stm32l4xx_ll_usb.c ****   }
 236:Drivers/STM32L4xx_HAL_Driver/Src/stm32l4xx_ll_usb.c ****   else if (mode == USB_DEVICE_MODE)
 237:Drivers/STM32L4xx_HAL_Driver/Src/stm32l4xx_ll_usb.c ****   {
 238:Drivers/STM32L4xx_HAL_Driver/Src/stm32l4xx_ll_usb.c ****     USBx->GUSBCFG |= USB_OTG_GUSBCFG_FDMOD;
 239:Drivers/STM32L4xx_HAL_Driver/Src/stm32l4xx_ll_usb.c **** 
 240:Drivers/STM32L4xx_HAL_Driver/Src/stm32l4xx_ll_usb.c ****     do
 241:Drivers/STM32L4xx_HAL_Driver/Src/stm32l4xx_ll_usb.c ****     {
 242:Drivers/STM32L4xx_HAL_Driver/Src/stm32l4xx_ll_usb.c ****       HAL_Delay(1U);
 243:Drivers/STM32L4xx_HAL_Driver/Src/stm32l4xx_ll_usb.c ****       ms++;
 244:Drivers/STM32L4xx_HAL_Driver/Src/stm32l4xx_ll_usb.c ****     } while ((USB_GetMode(USBx) != (uint32_t)USB_DEVICE_MODE) && (ms < 50U));
 245:Drivers/STM32L4xx_HAL_Driver/Src/stm32l4xx_ll_usb.c ****   }
 246:Drivers/STM32L4xx_HAL_Driver/Src/stm32l4xx_ll_usb.c ****   else
 247:Drivers/STM32L4xx_HAL_Driver/Src/stm32l4xx_ll_usb.c ****   {
 248:Drivers/STM32L4xx_HAL_Driver/Src/stm32l4xx_ll_usb.c ****     return HAL_ERROR;
 249:Drivers/STM32L4xx_HAL_Driver/Src/stm32l4xx_ll_usb.c ****   }
 250:Drivers/STM32L4xx_HAL_Driver/Src/stm32l4xx_ll_usb.c **** 
 251:Drivers/STM32L4xx_HAL_Driver/Src/stm32l4xx_ll_usb.c ****   if (ms == 50U)
 252:Drivers/STM32L4xx_HAL_Driver/Src/stm32l4xx_ll_usb.c ****   {
 253:Drivers/STM32L4xx_HAL_Driver/Src/stm32l4xx_ll_usb.c ****     return HAL_ERROR;
 254:Drivers/STM32L4xx_HAL_Driver/Src/stm32l4xx_ll_usb.c ****   }
 255:Drivers/STM32L4xx_HAL_Driver/Src/stm32l4xx_ll_usb.c **** 
 256:Drivers/STM32L4xx_HAL_Driver/Src/stm32l4xx_ll_usb.c ****   return HAL_OK;
 257:Drivers/STM32L4xx_HAL_Driver/Src/stm32l4xx_ll_usb.c **** }
 258:Drivers/STM32L4xx_HAL_Driver/Src/stm32l4xx_ll_usb.c **** 
ARM GAS  C:\Users\gigig\AppData\Local\Temp\ccWnrG0a.s 			page 6


 259:Drivers/STM32L4xx_HAL_Driver/Src/stm32l4xx_ll_usb.c **** /**
 260:Drivers/STM32L4xx_HAL_Driver/Src/stm32l4xx_ll_usb.c ****   * @brief  USB_DevInit Initializes the USB_OTG controller registers
 261:Drivers/STM32L4xx_HAL_Driver/Src/stm32l4xx_ll_usb.c ****   *         for device mode
 262:Drivers/STM32L4xx_HAL_Driver/Src/stm32l4xx_ll_usb.c ****   * @param  USBx  Selected device
 263:Drivers/STM32L4xx_HAL_Driver/Src/stm32l4xx_ll_usb.c ****   * @param  cfg   pointer to a USB_OTG_CfgTypeDef structure that contains
 264:Drivers/STM32L4xx_HAL_Driver/Src/stm32l4xx_ll_usb.c ****   *         the configuration information for the specified USBx peripheral.
 265:Drivers/STM32L4xx_HAL_Driver/Src/stm32l4xx_ll_usb.c ****   * @retval HAL status
 266:Drivers/STM32L4xx_HAL_Driver/Src/stm32l4xx_ll_usb.c ****   */
 267:Drivers/STM32L4xx_HAL_Driver/Src/stm32l4xx_ll_usb.c **** HAL_StatusTypeDef USB_DevInit(USB_OTG_GlobalTypeDef *USBx, USB_OTG_CfgTypeDef cfg)
 268:Drivers/STM32L4xx_HAL_Driver/Src/stm32l4xx_ll_usb.c **** {
 269:Drivers/STM32L4xx_HAL_Driver/Src/stm32l4xx_ll_usb.c ****   HAL_StatusTypeDef ret = HAL_OK;
 270:Drivers/STM32L4xx_HAL_Driver/Src/stm32l4xx_ll_usb.c ****   uint32_t USBx_BASE = (uint32_t)USBx;
 271:Drivers/STM32L4xx_HAL_Driver/Src/stm32l4xx_ll_usb.c ****   uint32_t i;
 272:Drivers/STM32L4xx_HAL_Driver/Src/stm32l4xx_ll_usb.c **** 
 273:Drivers/STM32L4xx_HAL_Driver/Src/stm32l4xx_ll_usb.c ****   for (i = 0U; i < 15U; i++)
 274:Drivers/STM32L4xx_HAL_Driver/Src/stm32l4xx_ll_usb.c ****   {
 275:Drivers/STM32L4xx_HAL_Driver/Src/stm32l4xx_ll_usb.c ****     USBx->DIEPTXF[i] = 0U;
 276:Drivers/STM32L4xx_HAL_Driver/Src/stm32l4xx_ll_usb.c ****   }
 277:Drivers/STM32L4xx_HAL_Driver/Src/stm32l4xx_ll_usb.c **** 
 278:Drivers/STM32L4xx_HAL_Driver/Src/stm32l4xx_ll_usb.c ****   /* VBUS Sensing setup */
 279:Drivers/STM32L4xx_HAL_Driver/Src/stm32l4xx_ll_usb.c ****   if (cfg.vbus_sensing_enable == 0U)
 280:Drivers/STM32L4xx_HAL_Driver/Src/stm32l4xx_ll_usb.c ****   {
 281:Drivers/STM32L4xx_HAL_Driver/Src/stm32l4xx_ll_usb.c ****     USBx_DEVICE->DCTL |= USB_OTG_DCTL_SDIS;
 282:Drivers/STM32L4xx_HAL_Driver/Src/stm32l4xx_ll_usb.c **** 
 283:Drivers/STM32L4xx_HAL_Driver/Src/stm32l4xx_ll_usb.c ****     /* Deactivate VBUS Sensing B */
 284:Drivers/STM32L4xx_HAL_Driver/Src/stm32l4xx_ll_usb.c ****     USBx->GCCFG &= ~USB_OTG_GCCFG_VBDEN;
 285:Drivers/STM32L4xx_HAL_Driver/Src/stm32l4xx_ll_usb.c **** 
 286:Drivers/STM32L4xx_HAL_Driver/Src/stm32l4xx_ll_usb.c ****     /* B-peripheral session valid override enable */
 287:Drivers/STM32L4xx_HAL_Driver/Src/stm32l4xx_ll_usb.c ****     USBx->GOTGCTL |= USB_OTG_GOTGCTL_BVALOEN;
 288:Drivers/STM32L4xx_HAL_Driver/Src/stm32l4xx_ll_usb.c ****     USBx->GOTGCTL |= USB_OTG_GOTGCTL_BVALOVAL;
 289:Drivers/STM32L4xx_HAL_Driver/Src/stm32l4xx_ll_usb.c ****   }
 290:Drivers/STM32L4xx_HAL_Driver/Src/stm32l4xx_ll_usb.c ****   else
 291:Drivers/STM32L4xx_HAL_Driver/Src/stm32l4xx_ll_usb.c ****   {
 292:Drivers/STM32L4xx_HAL_Driver/Src/stm32l4xx_ll_usb.c ****     /* Enable HW VBUS sensing */
 293:Drivers/STM32L4xx_HAL_Driver/Src/stm32l4xx_ll_usb.c ****     USBx->GCCFG |= USB_OTG_GCCFG_VBDEN;
 294:Drivers/STM32L4xx_HAL_Driver/Src/stm32l4xx_ll_usb.c ****   }
 295:Drivers/STM32L4xx_HAL_Driver/Src/stm32l4xx_ll_usb.c **** 
 296:Drivers/STM32L4xx_HAL_Driver/Src/stm32l4xx_ll_usb.c ****   /* Restart the Phy Clock */
 297:Drivers/STM32L4xx_HAL_Driver/Src/stm32l4xx_ll_usb.c ****   USBx_PCGCCTL = 0U;
 298:Drivers/STM32L4xx_HAL_Driver/Src/stm32l4xx_ll_usb.c **** 
 299:Drivers/STM32L4xx_HAL_Driver/Src/stm32l4xx_ll_usb.c ****   /* Set Core speed to Full speed mode */
 300:Drivers/STM32L4xx_HAL_Driver/Src/stm32l4xx_ll_usb.c ****   (void)USB_SetDevSpeed(USBx, USB_OTG_SPEED_FULL);
 301:Drivers/STM32L4xx_HAL_Driver/Src/stm32l4xx_ll_usb.c **** 
 302:Drivers/STM32L4xx_HAL_Driver/Src/stm32l4xx_ll_usb.c ****   /* Flush the FIFOs */
 303:Drivers/STM32L4xx_HAL_Driver/Src/stm32l4xx_ll_usb.c ****   if (USB_FlushTxFifo(USBx, 0x10U) != HAL_OK) /* all Tx FIFOs */
 304:Drivers/STM32L4xx_HAL_Driver/Src/stm32l4xx_ll_usb.c ****   {
 305:Drivers/STM32L4xx_HAL_Driver/Src/stm32l4xx_ll_usb.c ****     ret = HAL_ERROR;
 306:Drivers/STM32L4xx_HAL_Driver/Src/stm32l4xx_ll_usb.c ****   }
 307:Drivers/STM32L4xx_HAL_Driver/Src/stm32l4xx_ll_usb.c **** 
 308:Drivers/STM32L4xx_HAL_Driver/Src/stm32l4xx_ll_usb.c ****   if (USB_FlushRxFifo(USBx) != HAL_OK)
 309:Drivers/STM32L4xx_HAL_Driver/Src/stm32l4xx_ll_usb.c ****   {
 310:Drivers/STM32L4xx_HAL_Driver/Src/stm32l4xx_ll_usb.c ****     ret = HAL_ERROR;
 311:Drivers/STM32L4xx_HAL_Driver/Src/stm32l4xx_ll_usb.c ****   }
 312:Drivers/STM32L4xx_HAL_Driver/Src/stm32l4xx_ll_usb.c **** 
 313:Drivers/STM32L4xx_HAL_Driver/Src/stm32l4xx_ll_usb.c ****   /* Clear all pending Device Interrupts */
 314:Drivers/STM32L4xx_HAL_Driver/Src/stm32l4xx_ll_usb.c ****   USBx_DEVICE->DIEPMSK = 0U;
 315:Drivers/STM32L4xx_HAL_Driver/Src/stm32l4xx_ll_usb.c ****   USBx_DEVICE->DOEPMSK = 0U;
ARM GAS  C:\Users\gigig\AppData\Local\Temp\ccWnrG0a.s 			page 7


 316:Drivers/STM32L4xx_HAL_Driver/Src/stm32l4xx_ll_usb.c ****   USBx_DEVICE->DAINTMSK = 0U;
 317:Drivers/STM32L4xx_HAL_Driver/Src/stm32l4xx_ll_usb.c **** 
 318:Drivers/STM32L4xx_HAL_Driver/Src/stm32l4xx_ll_usb.c ****   for (i = 0U; i < cfg.dev_endpoints; i++)
 319:Drivers/STM32L4xx_HAL_Driver/Src/stm32l4xx_ll_usb.c ****   {
 320:Drivers/STM32L4xx_HAL_Driver/Src/stm32l4xx_ll_usb.c ****     if ((USBx_INEP(i)->DIEPCTL & USB_OTG_DIEPCTL_EPENA) == USB_OTG_DIEPCTL_EPENA)
 321:Drivers/STM32L4xx_HAL_Driver/Src/stm32l4xx_ll_usb.c ****     {
 322:Drivers/STM32L4xx_HAL_Driver/Src/stm32l4xx_ll_usb.c ****       if (i == 0U)
 323:Drivers/STM32L4xx_HAL_Driver/Src/stm32l4xx_ll_usb.c ****       {
 324:Drivers/STM32L4xx_HAL_Driver/Src/stm32l4xx_ll_usb.c ****         USBx_INEP(i)->DIEPCTL = USB_OTG_DIEPCTL_SNAK;
 325:Drivers/STM32L4xx_HAL_Driver/Src/stm32l4xx_ll_usb.c ****       }
 326:Drivers/STM32L4xx_HAL_Driver/Src/stm32l4xx_ll_usb.c ****       else
 327:Drivers/STM32L4xx_HAL_Driver/Src/stm32l4xx_ll_usb.c ****       {
 328:Drivers/STM32L4xx_HAL_Driver/Src/stm32l4xx_ll_usb.c ****         USBx_INEP(i)->DIEPCTL = USB_OTG_DIEPCTL_EPDIS | USB_OTG_DIEPCTL_SNAK;
 329:Drivers/STM32L4xx_HAL_Driver/Src/stm32l4xx_ll_usb.c ****       }
 330:Drivers/STM32L4xx_HAL_Driver/Src/stm32l4xx_ll_usb.c ****     }
 331:Drivers/STM32L4xx_HAL_Driver/Src/stm32l4xx_ll_usb.c ****     else
 332:Drivers/STM32L4xx_HAL_Driver/Src/stm32l4xx_ll_usb.c ****     {
 333:Drivers/STM32L4xx_HAL_Driver/Src/stm32l4xx_ll_usb.c ****       USBx_INEP(i)->DIEPCTL = 0U;
 334:Drivers/STM32L4xx_HAL_Driver/Src/stm32l4xx_ll_usb.c ****     }
 335:Drivers/STM32L4xx_HAL_Driver/Src/stm32l4xx_ll_usb.c **** 
 336:Drivers/STM32L4xx_HAL_Driver/Src/stm32l4xx_ll_usb.c ****     USBx_INEP(i)->DIEPTSIZ = 0U;
 337:Drivers/STM32L4xx_HAL_Driver/Src/stm32l4xx_ll_usb.c ****     USBx_INEP(i)->DIEPINT  = 0xFB7FU;
 338:Drivers/STM32L4xx_HAL_Driver/Src/stm32l4xx_ll_usb.c ****   }
 339:Drivers/STM32L4xx_HAL_Driver/Src/stm32l4xx_ll_usb.c **** 
 340:Drivers/STM32L4xx_HAL_Driver/Src/stm32l4xx_ll_usb.c ****   for (i = 0U; i < cfg.dev_endpoints; i++)
 341:Drivers/STM32L4xx_HAL_Driver/Src/stm32l4xx_ll_usb.c ****   {
 342:Drivers/STM32L4xx_HAL_Driver/Src/stm32l4xx_ll_usb.c ****     if ((USBx_OUTEP(i)->DOEPCTL & USB_OTG_DOEPCTL_EPENA) == USB_OTG_DOEPCTL_EPENA)
 343:Drivers/STM32L4xx_HAL_Driver/Src/stm32l4xx_ll_usb.c ****     {
 344:Drivers/STM32L4xx_HAL_Driver/Src/stm32l4xx_ll_usb.c ****       if (i == 0U)
 345:Drivers/STM32L4xx_HAL_Driver/Src/stm32l4xx_ll_usb.c ****       {
 346:Drivers/STM32L4xx_HAL_Driver/Src/stm32l4xx_ll_usb.c ****         USBx_OUTEP(i)->DOEPCTL = USB_OTG_DOEPCTL_SNAK;
 347:Drivers/STM32L4xx_HAL_Driver/Src/stm32l4xx_ll_usb.c ****       }
 348:Drivers/STM32L4xx_HAL_Driver/Src/stm32l4xx_ll_usb.c ****       else
 349:Drivers/STM32L4xx_HAL_Driver/Src/stm32l4xx_ll_usb.c ****       {
 350:Drivers/STM32L4xx_HAL_Driver/Src/stm32l4xx_ll_usb.c ****         USBx_OUTEP(i)->DOEPCTL = USB_OTG_DOEPCTL_EPDIS | USB_OTG_DOEPCTL_SNAK;
 351:Drivers/STM32L4xx_HAL_Driver/Src/stm32l4xx_ll_usb.c ****       }
 352:Drivers/STM32L4xx_HAL_Driver/Src/stm32l4xx_ll_usb.c ****     }
 353:Drivers/STM32L4xx_HAL_Driver/Src/stm32l4xx_ll_usb.c ****     else
 354:Drivers/STM32L4xx_HAL_Driver/Src/stm32l4xx_ll_usb.c ****     {
 355:Drivers/STM32L4xx_HAL_Driver/Src/stm32l4xx_ll_usb.c ****       USBx_OUTEP(i)->DOEPCTL = 0U;
 356:Drivers/STM32L4xx_HAL_Driver/Src/stm32l4xx_ll_usb.c ****     }
 357:Drivers/STM32L4xx_HAL_Driver/Src/stm32l4xx_ll_usb.c **** 
 358:Drivers/STM32L4xx_HAL_Driver/Src/stm32l4xx_ll_usb.c ****     USBx_OUTEP(i)->DOEPTSIZ = 0U;
 359:Drivers/STM32L4xx_HAL_Driver/Src/stm32l4xx_ll_usb.c ****     USBx_OUTEP(i)->DOEPINT  = 0xFB7FU;
 360:Drivers/STM32L4xx_HAL_Driver/Src/stm32l4xx_ll_usb.c ****   }
 361:Drivers/STM32L4xx_HAL_Driver/Src/stm32l4xx_ll_usb.c **** 
 362:Drivers/STM32L4xx_HAL_Driver/Src/stm32l4xx_ll_usb.c ****   USBx_DEVICE->DIEPMSK &= ~(USB_OTG_DIEPMSK_TXFURM);
 363:Drivers/STM32L4xx_HAL_Driver/Src/stm32l4xx_ll_usb.c **** 
 364:Drivers/STM32L4xx_HAL_Driver/Src/stm32l4xx_ll_usb.c ****   /* Disable all interrupts. */
 365:Drivers/STM32L4xx_HAL_Driver/Src/stm32l4xx_ll_usb.c ****   USBx->GINTMSK = 0U;
 366:Drivers/STM32L4xx_HAL_Driver/Src/stm32l4xx_ll_usb.c **** 
 367:Drivers/STM32L4xx_HAL_Driver/Src/stm32l4xx_ll_usb.c ****   /* Clear any pending interrupts */
 368:Drivers/STM32L4xx_HAL_Driver/Src/stm32l4xx_ll_usb.c ****   USBx->GINTSTS = 0xBFFFFFFFU;
 369:Drivers/STM32L4xx_HAL_Driver/Src/stm32l4xx_ll_usb.c **** 
 370:Drivers/STM32L4xx_HAL_Driver/Src/stm32l4xx_ll_usb.c ****   /* Enable the common interrupts */
 371:Drivers/STM32L4xx_HAL_Driver/Src/stm32l4xx_ll_usb.c ****   USBx->GINTMSK |= USB_OTG_GINTMSK_RXFLVLM;
 372:Drivers/STM32L4xx_HAL_Driver/Src/stm32l4xx_ll_usb.c **** 
ARM GAS  C:\Users\gigig\AppData\Local\Temp\ccWnrG0a.s 			page 8


 373:Drivers/STM32L4xx_HAL_Driver/Src/stm32l4xx_ll_usb.c ****   /* Enable interrupts matching to the Device mode ONLY */
 374:Drivers/STM32L4xx_HAL_Driver/Src/stm32l4xx_ll_usb.c ****   USBx->GINTMSK |= USB_OTG_GINTMSK_USBSUSPM | USB_OTG_GINTMSK_USBRST |
 375:Drivers/STM32L4xx_HAL_Driver/Src/stm32l4xx_ll_usb.c ****                    USB_OTG_GINTMSK_ENUMDNEM | USB_OTG_GINTMSK_IEPINT |
 376:Drivers/STM32L4xx_HAL_Driver/Src/stm32l4xx_ll_usb.c ****                    USB_OTG_GINTMSK_OEPINT   | USB_OTG_GINTMSK_IISOIXFRM |
 377:Drivers/STM32L4xx_HAL_Driver/Src/stm32l4xx_ll_usb.c ****                    USB_OTG_GINTMSK_PXFRM_IISOOXFRM | USB_OTG_GINTMSK_WUIM;
 378:Drivers/STM32L4xx_HAL_Driver/Src/stm32l4xx_ll_usb.c **** 
 379:Drivers/STM32L4xx_HAL_Driver/Src/stm32l4xx_ll_usb.c ****   if (cfg.Sof_enable != 0U)
 380:Drivers/STM32L4xx_HAL_Driver/Src/stm32l4xx_ll_usb.c ****   {
 381:Drivers/STM32L4xx_HAL_Driver/Src/stm32l4xx_ll_usb.c ****     USBx->GINTMSK |= USB_OTG_GINTMSK_SOFM;
 382:Drivers/STM32L4xx_HAL_Driver/Src/stm32l4xx_ll_usb.c ****   }
 383:Drivers/STM32L4xx_HAL_Driver/Src/stm32l4xx_ll_usb.c **** 
 384:Drivers/STM32L4xx_HAL_Driver/Src/stm32l4xx_ll_usb.c ****   if (cfg.vbus_sensing_enable == 1U)
 385:Drivers/STM32L4xx_HAL_Driver/Src/stm32l4xx_ll_usb.c ****   {
 386:Drivers/STM32L4xx_HAL_Driver/Src/stm32l4xx_ll_usb.c ****     USBx->GINTMSK |= (USB_OTG_GINTMSK_SRQIM | USB_OTG_GINTMSK_OTGINT);
 387:Drivers/STM32L4xx_HAL_Driver/Src/stm32l4xx_ll_usb.c ****   }
 388:Drivers/STM32L4xx_HAL_Driver/Src/stm32l4xx_ll_usb.c **** 
 389:Drivers/STM32L4xx_HAL_Driver/Src/stm32l4xx_ll_usb.c ****   return ret;
 390:Drivers/STM32L4xx_HAL_Driver/Src/stm32l4xx_ll_usb.c **** }
 391:Drivers/STM32L4xx_HAL_Driver/Src/stm32l4xx_ll_usb.c **** 
 392:Drivers/STM32L4xx_HAL_Driver/Src/stm32l4xx_ll_usb.c **** /**
 393:Drivers/STM32L4xx_HAL_Driver/Src/stm32l4xx_ll_usb.c ****   * @brief  USB_FlushTxFifo Flush a Tx FIFO
 394:Drivers/STM32L4xx_HAL_Driver/Src/stm32l4xx_ll_usb.c ****   * @param  USBx  Selected device
 395:Drivers/STM32L4xx_HAL_Driver/Src/stm32l4xx_ll_usb.c ****   * @param  num  FIFO number
 396:Drivers/STM32L4xx_HAL_Driver/Src/stm32l4xx_ll_usb.c ****   *         This parameter can be a value from 1 to 15
 397:Drivers/STM32L4xx_HAL_Driver/Src/stm32l4xx_ll_usb.c ****             15 means Flush all Tx FIFOs
 398:Drivers/STM32L4xx_HAL_Driver/Src/stm32l4xx_ll_usb.c ****   * @retval HAL status
 399:Drivers/STM32L4xx_HAL_Driver/Src/stm32l4xx_ll_usb.c ****   */
 400:Drivers/STM32L4xx_HAL_Driver/Src/stm32l4xx_ll_usb.c **** HAL_StatusTypeDef USB_FlushTxFifo(USB_OTG_GlobalTypeDef *USBx, uint32_t num)
 401:Drivers/STM32L4xx_HAL_Driver/Src/stm32l4xx_ll_usb.c **** {
 402:Drivers/STM32L4xx_HAL_Driver/Src/stm32l4xx_ll_usb.c ****   __IO uint32_t count = 0U;
 403:Drivers/STM32L4xx_HAL_Driver/Src/stm32l4xx_ll_usb.c **** 
 404:Drivers/STM32L4xx_HAL_Driver/Src/stm32l4xx_ll_usb.c ****   /* Wait for AHB master IDLE state. */
 405:Drivers/STM32L4xx_HAL_Driver/Src/stm32l4xx_ll_usb.c ****   do
 406:Drivers/STM32L4xx_HAL_Driver/Src/stm32l4xx_ll_usb.c ****   {
 407:Drivers/STM32L4xx_HAL_Driver/Src/stm32l4xx_ll_usb.c ****     count++;
 408:Drivers/STM32L4xx_HAL_Driver/Src/stm32l4xx_ll_usb.c **** 
 409:Drivers/STM32L4xx_HAL_Driver/Src/stm32l4xx_ll_usb.c ****     if (count > 200000U)
 410:Drivers/STM32L4xx_HAL_Driver/Src/stm32l4xx_ll_usb.c ****     {
 411:Drivers/STM32L4xx_HAL_Driver/Src/stm32l4xx_ll_usb.c ****       return HAL_TIMEOUT;
 412:Drivers/STM32L4xx_HAL_Driver/Src/stm32l4xx_ll_usb.c ****     }
 413:Drivers/STM32L4xx_HAL_Driver/Src/stm32l4xx_ll_usb.c ****   } while ((USBx->GRSTCTL & USB_OTG_GRSTCTL_AHBIDL) == 0U);
 414:Drivers/STM32L4xx_HAL_Driver/Src/stm32l4xx_ll_usb.c **** 
 415:Drivers/STM32L4xx_HAL_Driver/Src/stm32l4xx_ll_usb.c ****   /* Flush TX Fifo */
 416:Drivers/STM32L4xx_HAL_Driver/Src/stm32l4xx_ll_usb.c ****   count = 0U;
 417:Drivers/STM32L4xx_HAL_Driver/Src/stm32l4xx_ll_usb.c ****   USBx->GRSTCTL = (USB_OTG_GRSTCTL_TXFFLSH | (num << 6));
 418:Drivers/STM32L4xx_HAL_Driver/Src/stm32l4xx_ll_usb.c **** 
 419:Drivers/STM32L4xx_HAL_Driver/Src/stm32l4xx_ll_usb.c ****   do
 420:Drivers/STM32L4xx_HAL_Driver/Src/stm32l4xx_ll_usb.c ****   {
 421:Drivers/STM32L4xx_HAL_Driver/Src/stm32l4xx_ll_usb.c ****     count++;
 422:Drivers/STM32L4xx_HAL_Driver/Src/stm32l4xx_ll_usb.c **** 
 423:Drivers/STM32L4xx_HAL_Driver/Src/stm32l4xx_ll_usb.c ****     if (count > 200000U)
 424:Drivers/STM32L4xx_HAL_Driver/Src/stm32l4xx_ll_usb.c ****     {
 425:Drivers/STM32L4xx_HAL_Driver/Src/stm32l4xx_ll_usb.c ****       return HAL_TIMEOUT;
 426:Drivers/STM32L4xx_HAL_Driver/Src/stm32l4xx_ll_usb.c ****     }
 427:Drivers/STM32L4xx_HAL_Driver/Src/stm32l4xx_ll_usb.c ****   } while ((USBx->GRSTCTL & USB_OTG_GRSTCTL_TXFFLSH) == USB_OTG_GRSTCTL_TXFFLSH);
 428:Drivers/STM32L4xx_HAL_Driver/Src/stm32l4xx_ll_usb.c **** 
 429:Drivers/STM32L4xx_HAL_Driver/Src/stm32l4xx_ll_usb.c ****   return HAL_OK;
ARM GAS  C:\Users\gigig\AppData\Local\Temp\ccWnrG0a.s 			page 9


 430:Drivers/STM32L4xx_HAL_Driver/Src/stm32l4xx_ll_usb.c **** }
 431:Drivers/STM32L4xx_HAL_Driver/Src/stm32l4xx_ll_usb.c **** 
 432:Drivers/STM32L4xx_HAL_Driver/Src/stm32l4xx_ll_usb.c **** /**
 433:Drivers/STM32L4xx_HAL_Driver/Src/stm32l4xx_ll_usb.c ****   * @brief  USB_FlushRxFifo  Flush Rx FIFO
 434:Drivers/STM32L4xx_HAL_Driver/Src/stm32l4xx_ll_usb.c ****   * @param  USBx  Selected device
 435:Drivers/STM32L4xx_HAL_Driver/Src/stm32l4xx_ll_usb.c ****   * @retval HAL status
 436:Drivers/STM32L4xx_HAL_Driver/Src/stm32l4xx_ll_usb.c ****   */
 437:Drivers/STM32L4xx_HAL_Driver/Src/stm32l4xx_ll_usb.c **** HAL_StatusTypeDef USB_FlushRxFifo(USB_OTG_GlobalTypeDef *USBx)
 438:Drivers/STM32L4xx_HAL_Driver/Src/stm32l4xx_ll_usb.c **** {
 439:Drivers/STM32L4xx_HAL_Driver/Src/stm32l4xx_ll_usb.c ****   __IO uint32_t count = 0U;
 440:Drivers/STM32L4xx_HAL_Driver/Src/stm32l4xx_ll_usb.c **** 
 441:Drivers/STM32L4xx_HAL_Driver/Src/stm32l4xx_ll_usb.c ****   /* Wait for AHB master IDLE state. */
 442:Drivers/STM32L4xx_HAL_Driver/Src/stm32l4xx_ll_usb.c ****   do
 443:Drivers/STM32L4xx_HAL_Driver/Src/stm32l4xx_ll_usb.c ****   {
 444:Drivers/STM32L4xx_HAL_Driver/Src/stm32l4xx_ll_usb.c ****     count++;
 445:Drivers/STM32L4xx_HAL_Driver/Src/stm32l4xx_ll_usb.c **** 
 446:Drivers/STM32L4xx_HAL_Driver/Src/stm32l4xx_ll_usb.c ****     if (count > 200000U)
 447:Drivers/STM32L4xx_HAL_Driver/Src/stm32l4xx_ll_usb.c ****     {
 448:Drivers/STM32L4xx_HAL_Driver/Src/stm32l4xx_ll_usb.c ****       return HAL_TIMEOUT;
 449:Drivers/STM32L4xx_HAL_Driver/Src/stm32l4xx_ll_usb.c ****     }
 450:Drivers/STM32L4xx_HAL_Driver/Src/stm32l4xx_ll_usb.c ****   } while ((USBx->GRSTCTL & USB_OTG_GRSTCTL_AHBIDL) == 0U);
 451:Drivers/STM32L4xx_HAL_Driver/Src/stm32l4xx_ll_usb.c **** 
 452:Drivers/STM32L4xx_HAL_Driver/Src/stm32l4xx_ll_usb.c ****   /* Flush RX Fifo */
 453:Drivers/STM32L4xx_HAL_Driver/Src/stm32l4xx_ll_usb.c ****   count = 0U;
 454:Drivers/STM32L4xx_HAL_Driver/Src/stm32l4xx_ll_usb.c ****   USBx->GRSTCTL = USB_OTG_GRSTCTL_RXFFLSH;
 455:Drivers/STM32L4xx_HAL_Driver/Src/stm32l4xx_ll_usb.c **** 
 456:Drivers/STM32L4xx_HAL_Driver/Src/stm32l4xx_ll_usb.c ****   do
 457:Drivers/STM32L4xx_HAL_Driver/Src/stm32l4xx_ll_usb.c ****   {
 458:Drivers/STM32L4xx_HAL_Driver/Src/stm32l4xx_ll_usb.c ****     count++;
 459:Drivers/STM32L4xx_HAL_Driver/Src/stm32l4xx_ll_usb.c **** 
 460:Drivers/STM32L4xx_HAL_Driver/Src/stm32l4xx_ll_usb.c ****     if (count > 200000U)
 461:Drivers/STM32L4xx_HAL_Driver/Src/stm32l4xx_ll_usb.c ****     {
 462:Drivers/STM32L4xx_HAL_Driver/Src/stm32l4xx_ll_usb.c ****       return HAL_TIMEOUT;
 463:Drivers/STM32L4xx_HAL_Driver/Src/stm32l4xx_ll_usb.c ****     }
 464:Drivers/STM32L4xx_HAL_Driver/Src/stm32l4xx_ll_usb.c ****   } while ((USBx->GRSTCTL & USB_OTG_GRSTCTL_RXFFLSH) == USB_OTG_GRSTCTL_RXFFLSH);
 465:Drivers/STM32L4xx_HAL_Driver/Src/stm32l4xx_ll_usb.c **** 
 466:Drivers/STM32L4xx_HAL_Driver/Src/stm32l4xx_ll_usb.c ****   return HAL_OK;
 467:Drivers/STM32L4xx_HAL_Driver/Src/stm32l4xx_ll_usb.c **** }
 468:Drivers/STM32L4xx_HAL_Driver/Src/stm32l4xx_ll_usb.c **** 
 469:Drivers/STM32L4xx_HAL_Driver/Src/stm32l4xx_ll_usb.c **** /**
 470:Drivers/STM32L4xx_HAL_Driver/Src/stm32l4xx_ll_usb.c ****   * @brief  USB_SetDevSpeed  Initializes the DevSpd field of DCFG register
 471:Drivers/STM32L4xx_HAL_Driver/Src/stm32l4xx_ll_usb.c ****   *         depending the PHY type and the enumeration speed of the device.
 472:Drivers/STM32L4xx_HAL_Driver/Src/stm32l4xx_ll_usb.c ****   * @param  USBx  Selected device
 473:Drivers/STM32L4xx_HAL_Driver/Src/stm32l4xx_ll_usb.c ****   * @param  speed  device speed
 474:Drivers/STM32L4xx_HAL_Driver/Src/stm32l4xx_ll_usb.c ****   *          This parameter can be one of these values:
 475:Drivers/STM32L4xx_HAL_Driver/Src/stm32l4xx_ll_usb.c ****   *            @arg USB_OTG_SPEED_FULL: Full speed mode
 476:Drivers/STM32L4xx_HAL_Driver/Src/stm32l4xx_ll_usb.c ****   * @retval  Hal status
 477:Drivers/STM32L4xx_HAL_Driver/Src/stm32l4xx_ll_usb.c ****   */
 478:Drivers/STM32L4xx_HAL_Driver/Src/stm32l4xx_ll_usb.c **** HAL_StatusTypeDef USB_SetDevSpeed(USB_OTG_GlobalTypeDef *USBx, uint8_t speed)
 479:Drivers/STM32L4xx_HAL_Driver/Src/stm32l4xx_ll_usb.c **** {
 480:Drivers/STM32L4xx_HAL_Driver/Src/stm32l4xx_ll_usb.c ****   uint32_t USBx_BASE = (uint32_t)USBx;
 481:Drivers/STM32L4xx_HAL_Driver/Src/stm32l4xx_ll_usb.c **** 
 482:Drivers/STM32L4xx_HAL_Driver/Src/stm32l4xx_ll_usb.c ****   USBx_DEVICE->DCFG |= speed;
 483:Drivers/STM32L4xx_HAL_Driver/Src/stm32l4xx_ll_usb.c ****   return HAL_OK;
 484:Drivers/STM32L4xx_HAL_Driver/Src/stm32l4xx_ll_usb.c **** }
 485:Drivers/STM32L4xx_HAL_Driver/Src/stm32l4xx_ll_usb.c **** 
 486:Drivers/STM32L4xx_HAL_Driver/Src/stm32l4xx_ll_usb.c **** /**
ARM GAS  C:\Users\gigig\AppData\Local\Temp\ccWnrG0a.s 			page 10


 487:Drivers/STM32L4xx_HAL_Driver/Src/stm32l4xx_ll_usb.c ****   * @brief  USB_GetDevSpeed  Return the Dev Speed
 488:Drivers/STM32L4xx_HAL_Driver/Src/stm32l4xx_ll_usb.c ****   * @param  USBx  Selected device
 489:Drivers/STM32L4xx_HAL_Driver/Src/stm32l4xx_ll_usb.c ****   * @retval speed  device speed
 490:Drivers/STM32L4xx_HAL_Driver/Src/stm32l4xx_ll_usb.c ****   *          This parameter can be one of these values:
 491:Drivers/STM32L4xx_HAL_Driver/Src/stm32l4xx_ll_usb.c ****   *            @arg USBD_FS_SPEED: Full speed mode
 492:Drivers/STM32L4xx_HAL_Driver/Src/stm32l4xx_ll_usb.c ****   */
 493:Drivers/STM32L4xx_HAL_Driver/Src/stm32l4xx_ll_usb.c **** uint8_t USB_GetDevSpeed(USB_OTG_GlobalTypeDef *USBx)
 494:Drivers/STM32L4xx_HAL_Driver/Src/stm32l4xx_ll_usb.c **** {
 495:Drivers/STM32L4xx_HAL_Driver/Src/stm32l4xx_ll_usb.c ****   uint32_t USBx_BASE = (uint32_t)USBx;
 496:Drivers/STM32L4xx_HAL_Driver/Src/stm32l4xx_ll_usb.c ****   uint8_t speed;
 497:Drivers/STM32L4xx_HAL_Driver/Src/stm32l4xx_ll_usb.c ****   uint32_t DevEnumSpeed = USBx_DEVICE->DSTS & USB_OTG_DSTS_ENUMSPD;
 498:Drivers/STM32L4xx_HAL_Driver/Src/stm32l4xx_ll_usb.c **** 
 499:Drivers/STM32L4xx_HAL_Driver/Src/stm32l4xx_ll_usb.c ****   if ((DevEnumSpeed == DSTS_ENUMSPD_FS_PHY_30MHZ_OR_60MHZ) ||
 500:Drivers/STM32L4xx_HAL_Driver/Src/stm32l4xx_ll_usb.c ****       (DevEnumSpeed == DSTS_ENUMSPD_FS_PHY_48MHZ))
 501:Drivers/STM32L4xx_HAL_Driver/Src/stm32l4xx_ll_usb.c ****   {
 502:Drivers/STM32L4xx_HAL_Driver/Src/stm32l4xx_ll_usb.c ****     speed = USBD_FS_SPEED;
 503:Drivers/STM32L4xx_HAL_Driver/Src/stm32l4xx_ll_usb.c ****   }
 504:Drivers/STM32L4xx_HAL_Driver/Src/stm32l4xx_ll_usb.c ****   else
 505:Drivers/STM32L4xx_HAL_Driver/Src/stm32l4xx_ll_usb.c ****   {
 506:Drivers/STM32L4xx_HAL_Driver/Src/stm32l4xx_ll_usb.c ****     speed = 0xFU;
 507:Drivers/STM32L4xx_HAL_Driver/Src/stm32l4xx_ll_usb.c ****   }
 508:Drivers/STM32L4xx_HAL_Driver/Src/stm32l4xx_ll_usb.c **** 
 509:Drivers/STM32L4xx_HAL_Driver/Src/stm32l4xx_ll_usb.c ****   return speed;
 510:Drivers/STM32L4xx_HAL_Driver/Src/stm32l4xx_ll_usb.c **** }
 511:Drivers/STM32L4xx_HAL_Driver/Src/stm32l4xx_ll_usb.c **** 
 512:Drivers/STM32L4xx_HAL_Driver/Src/stm32l4xx_ll_usb.c **** /**
 513:Drivers/STM32L4xx_HAL_Driver/Src/stm32l4xx_ll_usb.c ****   * @brief  Activate and configure an endpoint
 514:Drivers/STM32L4xx_HAL_Driver/Src/stm32l4xx_ll_usb.c ****   * @param  USBx  Selected device
 515:Drivers/STM32L4xx_HAL_Driver/Src/stm32l4xx_ll_usb.c ****   * @param  ep pointer to endpoint structure
 516:Drivers/STM32L4xx_HAL_Driver/Src/stm32l4xx_ll_usb.c ****   * @retval HAL status
 517:Drivers/STM32L4xx_HAL_Driver/Src/stm32l4xx_ll_usb.c ****   */
 518:Drivers/STM32L4xx_HAL_Driver/Src/stm32l4xx_ll_usb.c **** HAL_StatusTypeDef USB_ActivateEndpoint(USB_OTG_GlobalTypeDef *USBx, USB_OTG_EPTypeDef *ep)
 519:Drivers/STM32L4xx_HAL_Driver/Src/stm32l4xx_ll_usb.c **** {
 520:Drivers/STM32L4xx_HAL_Driver/Src/stm32l4xx_ll_usb.c ****   uint32_t USBx_BASE = (uint32_t)USBx;
 521:Drivers/STM32L4xx_HAL_Driver/Src/stm32l4xx_ll_usb.c ****   uint32_t epnum = (uint32_t)ep->num;
 522:Drivers/STM32L4xx_HAL_Driver/Src/stm32l4xx_ll_usb.c **** 
 523:Drivers/STM32L4xx_HAL_Driver/Src/stm32l4xx_ll_usb.c ****   if (ep->is_in == 1U)
 524:Drivers/STM32L4xx_HAL_Driver/Src/stm32l4xx_ll_usb.c ****   {
 525:Drivers/STM32L4xx_HAL_Driver/Src/stm32l4xx_ll_usb.c ****     USBx_DEVICE->DAINTMSK |= USB_OTG_DAINTMSK_IEPM & (uint32_t)(1UL << (ep->num & EP_ADDR_MSK));
 526:Drivers/STM32L4xx_HAL_Driver/Src/stm32l4xx_ll_usb.c **** 
 527:Drivers/STM32L4xx_HAL_Driver/Src/stm32l4xx_ll_usb.c ****     if ((USBx_INEP(epnum)->DIEPCTL & USB_OTG_DIEPCTL_USBAEP) == 0U)
 528:Drivers/STM32L4xx_HAL_Driver/Src/stm32l4xx_ll_usb.c ****     {
 529:Drivers/STM32L4xx_HAL_Driver/Src/stm32l4xx_ll_usb.c ****       USBx_INEP(epnum)->DIEPCTL |= (ep->maxpacket & USB_OTG_DIEPCTL_MPSIZ) |
 530:Drivers/STM32L4xx_HAL_Driver/Src/stm32l4xx_ll_usb.c ****                                    ((uint32_t)ep->type << 18) | (epnum << 22) |
 531:Drivers/STM32L4xx_HAL_Driver/Src/stm32l4xx_ll_usb.c ****                                    USB_OTG_DIEPCTL_SD0PID_SEVNFRM |
 532:Drivers/STM32L4xx_HAL_Driver/Src/stm32l4xx_ll_usb.c ****                                    USB_OTG_DIEPCTL_USBAEP;
 533:Drivers/STM32L4xx_HAL_Driver/Src/stm32l4xx_ll_usb.c ****     }
 534:Drivers/STM32L4xx_HAL_Driver/Src/stm32l4xx_ll_usb.c ****   }
 535:Drivers/STM32L4xx_HAL_Driver/Src/stm32l4xx_ll_usb.c ****   else
 536:Drivers/STM32L4xx_HAL_Driver/Src/stm32l4xx_ll_usb.c ****   {
 537:Drivers/STM32L4xx_HAL_Driver/Src/stm32l4xx_ll_usb.c ****     USBx_DEVICE->DAINTMSK |= USB_OTG_DAINTMSK_OEPM & ((uint32_t)(1UL << (ep->num & EP_ADDR_MSK)) <<
 538:Drivers/STM32L4xx_HAL_Driver/Src/stm32l4xx_ll_usb.c **** 
 539:Drivers/STM32L4xx_HAL_Driver/Src/stm32l4xx_ll_usb.c ****     if (((USBx_OUTEP(epnum)->DOEPCTL) & USB_OTG_DOEPCTL_USBAEP) == 0U)
 540:Drivers/STM32L4xx_HAL_Driver/Src/stm32l4xx_ll_usb.c ****     {
 541:Drivers/STM32L4xx_HAL_Driver/Src/stm32l4xx_ll_usb.c ****       USBx_OUTEP(epnum)->DOEPCTL |= (ep->maxpacket & USB_OTG_DOEPCTL_MPSIZ) |
 542:Drivers/STM32L4xx_HAL_Driver/Src/stm32l4xx_ll_usb.c ****                                     ((uint32_t)ep->type << 18) |
 543:Drivers/STM32L4xx_HAL_Driver/Src/stm32l4xx_ll_usb.c ****                                     USB_OTG_DIEPCTL_SD0PID_SEVNFRM |
ARM GAS  C:\Users\gigig\AppData\Local\Temp\ccWnrG0a.s 			page 11


 544:Drivers/STM32L4xx_HAL_Driver/Src/stm32l4xx_ll_usb.c ****                                     USB_OTG_DOEPCTL_USBAEP;
 545:Drivers/STM32L4xx_HAL_Driver/Src/stm32l4xx_ll_usb.c ****     }
 546:Drivers/STM32L4xx_HAL_Driver/Src/stm32l4xx_ll_usb.c ****   }
 547:Drivers/STM32L4xx_HAL_Driver/Src/stm32l4xx_ll_usb.c ****   return HAL_OK;
 548:Drivers/STM32L4xx_HAL_Driver/Src/stm32l4xx_ll_usb.c **** }
 549:Drivers/STM32L4xx_HAL_Driver/Src/stm32l4xx_ll_usb.c **** 
 550:Drivers/STM32L4xx_HAL_Driver/Src/stm32l4xx_ll_usb.c **** /**
 551:Drivers/STM32L4xx_HAL_Driver/Src/stm32l4xx_ll_usb.c ****   * @brief  Activate and configure a dedicated endpoint
 552:Drivers/STM32L4xx_HAL_Driver/Src/stm32l4xx_ll_usb.c ****   * @param  USBx  Selected device
 553:Drivers/STM32L4xx_HAL_Driver/Src/stm32l4xx_ll_usb.c ****   * @param  ep pointer to endpoint structure
 554:Drivers/STM32L4xx_HAL_Driver/Src/stm32l4xx_ll_usb.c ****   * @retval HAL status
 555:Drivers/STM32L4xx_HAL_Driver/Src/stm32l4xx_ll_usb.c ****   */
 556:Drivers/STM32L4xx_HAL_Driver/Src/stm32l4xx_ll_usb.c **** HAL_StatusTypeDef USB_ActivateDedicatedEndpoint(USB_OTG_GlobalTypeDef *USBx, USB_OTG_EPTypeDef *ep)
 557:Drivers/STM32L4xx_HAL_Driver/Src/stm32l4xx_ll_usb.c **** {
 558:Drivers/STM32L4xx_HAL_Driver/Src/stm32l4xx_ll_usb.c ****   uint32_t USBx_BASE = (uint32_t)USBx;
 559:Drivers/STM32L4xx_HAL_Driver/Src/stm32l4xx_ll_usb.c ****   uint32_t epnum = (uint32_t)ep->num;
 560:Drivers/STM32L4xx_HAL_Driver/Src/stm32l4xx_ll_usb.c **** 
 561:Drivers/STM32L4xx_HAL_Driver/Src/stm32l4xx_ll_usb.c ****   /* Read DEPCTLn register */
 562:Drivers/STM32L4xx_HAL_Driver/Src/stm32l4xx_ll_usb.c ****   if (ep->is_in == 1U)
 563:Drivers/STM32L4xx_HAL_Driver/Src/stm32l4xx_ll_usb.c ****   {
 564:Drivers/STM32L4xx_HAL_Driver/Src/stm32l4xx_ll_usb.c ****     if (((USBx_INEP(epnum)->DIEPCTL) & USB_OTG_DIEPCTL_USBAEP) == 0U)
 565:Drivers/STM32L4xx_HAL_Driver/Src/stm32l4xx_ll_usb.c ****     {
 566:Drivers/STM32L4xx_HAL_Driver/Src/stm32l4xx_ll_usb.c ****       USBx_INEP(epnum)->DIEPCTL |= (ep->maxpacket & USB_OTG_DIEPCTL_MPSIZ) |
 567:Drivers/STM32L4xx_HAL_Driver/Src/stm32l4xx_ll_usb.c ****                                    ((uint32_t)ep->type << 18) | (epnum << 22) |
 568:Drivers/STM32L4xx_HAL_Driver/Src/stm32l4xx_ll_usb.c ****                                    USB_OTG_DIEPCTL_SD0PID_SEVNFRM |
 569:Drivers/STM32L4xx_HAL_Driver/Src/stm32l4xx_ll_usb.c ****                                    USB_OTG_DIEPCTL_USBAEP;
 570:Drivers/STM32L4xx_HAL_Driver/Src/stm32l4xx_ll_usb.c ****     }
 571:Drivers/STM32L4xx_HAL_Driver/Src/stm32l4xx_ll_usb.c **** 
 572:Drivers/STM32L4xx_HAL_Driver/Src/stm32l4xx_ll_usb.c ****     USBx_DEVICE->DEACHMSK |= USB_OTG_DAINTMSK_IEPM & (uint32_t)(1UL << (ep->num & EP_ADDR_MSK));
 573:Drivers/STM32L4xx_HAL_Driver/Src/stm32l4xx_ll_usb.c ****   }
 574:Drivers/STM32L4xx_HAL_Driver/Src/stm32l4xx_ll_usb.c ****   else
 575:Drivers/STM32L4xx_HAL_Driver/Src/stm32l4xx_ll_usb.c ****   {
 576:Drivers/STM32L4xx_HAL_Driver/Src/stm32l4xx_ll_usb.c ****     if (((USBx_OUTEP(epnum)->DOEPCTL) & USB_OTG_DOEPCTL_USBAEP) == 0U)
 577:Drivers/STM32L4xx_HAL_Driver/Src/stm32l4xx_ll_usb.c ****     {
 578:Drivers/STM32L4xx_HAL_Driver/Src/stm32l4xx_ll_usb.c ****       USBx_OUTEP(epnum)->DOEPCTL |= (ep->maxpacket & USB_OTG_DOEPCTL_MPSIZ) |
 579:Drivers/STM32L4xx_HAL_Driver/Src/stm32l4xx_ll_usb.c ****                                     ((uint32_t)ep->type << 18) | (epnum << 22) |
 580:Drivers/STM32L4xx_HAL_Driver/Src/stm32l4xx_ll_usb.c ****                                     USB_OTG_DOEPCTL_USBAEP;
 581:Drivers/STM32L4xx_HAL_Driver/Src/stm32l4xx_ll_usb.c ****     }
 582:Drivers/STM32L4xx_HAL_Driver/Src/stm32l4xx_ll_usb.c **** 
 583:Drivers/STM32L4xx_HAL_Driver/Src/stm32l4xx_ll_usb.c ****     USBx_DEVICE->DEACHMSK |= USB_OTG_DAINTMSK_OEPM & ((uint32_t)(1UL << (ep->num & EP_ADDR_MSK)) <<
 584:Drivers/STM32L4xx_HAL_Driver/Src/stm32l4xx_ll_usb.c ****   }
 585:Drivers/STM32L4xx_HAL_Driver/Src/stm32l4xx_ll_usb.c **** 
 586:Drivers/STM32L4xx_HAL_Driver/Src/stm32l4xx_ll_usb.c ****   return HAL_OK;
 587:Drivers/STM32L4xx_HAL_Driver/Src/stm32l4xx_ll_usb.c **** }
 588:Drivers/STM32L4xx_HAL_Driver/Src/stm32l4xx_ll_usb.c **** 
 589:Drivers/STM32L4xx_HAL_Driver/Src/stm32l4xx_ll_usb.c **** /**
 590:Drivers/STM32L4xx_HAL_Driver/Src/stm32l4xx_ll_usb.c ****   * @brief  De-activate and de-initialize an endpoint
 591:Drivers/STM32L4xx_HAL_Driver/Src/stm32l4xx_ll_usb.c ****   * @param  USBx  Selected device
 592:Drivers/STM32L4xx_HAL_Driver/Src/stm32l4xx_ll_usb.c ****   * @param  ep pointer to endpoint structure
 593:Drivers/STM32L4xx_HAL_Driver/Src/stm32l4xx_ll_usb.c ****   * @retval HAL status
 594:Drivers/STM32L4xx_HAL_Driver/Src/stm32l4xx_ll_usb.c ****   */
 595:Drivers/STM32L4xx_HAL_Driver/Src/stm32l4xx_ll_usb.c **** HAL_StatusTypeDef USB_DeactivateEndpoint(USB_OTG_GlobalTypeDef *USBx, USB_OTG_EPTypeDef *ep)
 596:Drivers/STM32L4xx_HAL_Driver/Src/stm32l4xx_ll_usb.c **** {
 597:Drivers/STM32L4xx_HAL_Driver/Src/stm32l4xx_ll_usb.c ****   uint32_t USBx_BASE = (uint32_t)USBx;
 598:Drivers/STM32L4xx_HAL_Driver/Src/stm32l4xx_ll_usb.c ****   uint32_t epnum = (uint32_t)ep->num;
 599:Drivers/STM32L4xx_HAL_Driver/Src/stm32l4xx_ll_usb.c **** 
 600:Drivers/STM32L4xx_HAL_Driver/Src/stm32l4xx_ll_usb.c ****   /* Read DEPCTLn register */
ARM GAS  C:\Users\gigig\AppData\Local\Temp\ccWnrG0a.s 			page 12


 601:Drivers/STM32L4xx_HAL_Driver/Src/stm32l4xx_ll_usb.c ****   if (ep->is_in == 1U)
 602:Drivers/STM32L4xx_HAL_Driver/Src/stm32l4xx_ll_usb.c ****   {
 603:Drivers/STM32L4xx_HAL_Driver/Src/stm32l4xx_ll_usb.c ****     if ((USBx_INEP(epnum)->DIEPCTL & USB_OTG_DIEPCTL_EPENA) == USB_OTG_DIEPCTL_EPENA)
 604:Drivers/STM32L4xx_HAL_Driver/Src/stm32l4xx_ll_usb.c ****     {
 605:Drivers/STM32L4xx_HAL_Driver/Src/stm32l4xx_ll_usb.c ****       USBx_INEP(epnum)->DIEPCTL |= USB_OTG_DIEPCTL_SNAK;
 606:Drivers/STM32L4xx_HAL_Driver/Src/stm32l4xx_ll_usb.c ****       USBx_INEP(epnum)->DIEPCTL |= USB_OTG_DIEPCTL_EPDIS;
 607:Drivers/STM32L4xx_HAL_Driver/Src/stm32l4xx_ll_usb.c ****     }
 608:Drivers/STM32L4xx_HAL_Driver/Src/stm32l4xx_ll_usb.c **** 
 609:Drivers/STM32L4xx_HAL_Driver/Src/stm32l4xx_ll_usb.c ****     USBx_DEVICE->DEACHMSK &= ~(USB_OTG_DAINTMSK_IEPM & (uint32_t)(1UL << (ep->num & EP_ADDR_MSK)));
 610:Drivers/STM32L4xx_HAL_Driver/Src/stm32l4xx_ll_usb.c ****     USBx_DEVICE->DAINTMSK &= ~(USB_OTG_DAINTMSK_IEPM & (uint32_t)(1UL << (ep->num & EP_ADDR_MSK)));
 611:Drivers/STM32L4xx_HAL_Driver/Src/stm32l4xx_ll_usb.c ****     USBx_INEP(epnum)->DIEPCTL &= ~(USB_OTG_DIEPCTL_USBAEP |
 612:Drivers/STM32L4xx_HAL_Driver/Src/stm32l4xx_ll_usb.c ****                                    USB_OTG_DIEPCTL_MPSIZ |
 613:Drivers/STM32L4xx_HAL_Driver/Src/stm32l4xx_ll_usb.c ****                                    USB_OTG_DIEPCTL_TXFNUM |
 614:Drivers/STM32L4xx_HAL_Driver/Src/stm32l4xx_ll_usb.c ****                                    USB_OTG_DIEPCTL_SD0PID_SEVNFRM |
 615:Drivers/STM32L4xx_HAL_Driver/Src/stm32l4xx_ll_usb.c ****                                    USB_OTG_DIEPCTL_EPTYP);
 616:Drivers/STM32L4xx_HAL_Driver/Src/stm32l4xx_ll_usb.c ****   }
 617:Drivers/STM32L4xx_HAL_Driver/Src/stm32l4xx_ll_usb.c ****   else
 618:Drivers/STM32L4xx_HAL_Driver/Src/stm32l4xx_ll_usb.c ****   {
 619:Drivers/STM32L4xx_HAL_Driver/Src/stm32l4xx_ll_usb.c ****     if ((USBx_OUTEP(epnum)->DOEPCTL & USB_OTG_DOEPCTL_EPENA) == USB_OTG_DOEPCTL_EPENA)
 620:Drivers/STM32L4xx_HAL_Driver/Src/stm32l4xx_ll_usb.c ****     {
 621:Drivers/STM32L4xx_HAL_Driver/Src/stm32l4xx_ll_usb.c ****       USBx_OUTEP(epnum)->DOEPCTL |= USB_OTG_DOEPCTL_SNAK;
 622:Drivers/STM32L4xx_HAL_Driver/Src/stm32l4xx_ll_usb.c ****       USBx_OUTEP(epnum)->DOEPCTL |= USB_OTG_DOEPCTL_EPDIS;
 623:Drivers/STM32L4xx_HAL_Driver/Src/stm32l4xx_ll_usb.c ****     }
 624:Drivers/STM32L4xx_HAL_Driver/Src/stm32l4xx_ll_usb.c **** 
 625:Drivers/STM32L4xx_HAL_Driver/Src/stm32l4xx_ll_usb.c ****     USBx_DEVICE->DEACHMSK &= ~(USB_OTG_DAINTMSK_OEPM & ((uint32_t)(1UL << (ep->num & EP_ADDR_MSK)) 
 626:Drivers/STM32L4xx_HAL_Driver/Src/stm32l4xx_ll_usb.c ****     USBx_DEVICE->DAINTMSK &= ~(USB_OTG_DAINTMSK_OEPM & ((uint32_t)(1UL << (ep->num & EP_ADDR_MSK)) 
 627:Drivers/STM32L4xx_HAL_Driver/Src/stm32l4xx_ll_usb.c ****     USBx_OUTEP(epnum)->DOEPCTL &= ~(USB_OTG_DOEPCTL_USBAEP |
 628:Drivers/STM32L4xx_HAL_Driver/Src/stm32l4xx_ll_usb.c ****                                     USB_OTG_DOEPCTL_MPSIZ |
 629:Drivers/STM32L4xx_HAL_Driver/Src/stm32l4xx_ll_usb.c ****                                     USB_OTG_DOEPCTL_SD0PID_SEVNFRM |
 630:Drivers/STM32L4xx_HAL_Driver/Src/stm32l4xx_ll_usb.c ****                                     USB_OTG_DOEPCTL_EPTYP);
 631:Drivers/STM32L4xx_HAL_Driver/Src/stm32l4xx_ll_usb.c ****   }
 632:Drivers/STM32L4xx_HAL_Driver/Src/stm32l4xx_ll_usb.c **** 
 633:Drivers/STM32L4xx_HAL_Driver/Src/stm32l4xx_ll_usb.c ****   return HAL_OK;
 634:Drivers/STM32L4xx_HAL_Driver/Src/stm32l4xx_ll_usb.c **** }
 635:Drivers/STM32L4xx_HAL_Driver/Src/stm32l4xx_ll_usb.c **** 
 636:Drivers/STM32L4xx_HAL_Driver/Src/stm32l4xx_ll_usb.c **** /**
 637:Drivers/STM32L4xx_HAL_Driver/Src/stm32l4xx_ll_usb.c ****   * @brief  De-activate and de-initialize a dedicated endpoint
 638:Drivers/STM32L4xx_HAL_Driver/Src/stm32l4xx_ll_usb.c ****   * @param  USBx  Selected device
 639:Drivers/STM32L4xx_HAL_Driver/Src/stm32l4xx_ll_usb.c ****   * @param  ep pointer to endpoint structure
 640:Drivers/STM32L4xx_HAL_Driver/Src/stm32l4xx_ll_usb.c ****   * @retval HAL status
 641:Drivers/STM32L4xx_HAL_Driver/Src/stm32l4xx_ll_usb.c ****   */
 642:Drivers/STM32L4xx_HAL_Driver/Src/stm32l4xx_ll_usb.c **** HAL_StatusTypeDef USB_DeactivateDedicatedEndpoint(USB_OTG_GlobalTypeDef *USBx, USB_OTG_EPTypeDef *e
 643:Drivers/STM32L4xx_HAL_Driver/Src/stm32l4xx_ll_usb.c **** {
 644:Drivers/STM32L4xx_HAL_Driver/Src/stm32l4xx_ll_usb.c ****   uint32_t USBx_BASE = (uint32_t)USBx;
 645:Drivers/STM32L4xx_HAL_Driver/Src/stm32l4xx_ll_usb.c ****   uint32_t epnum = (uint32_t)ep->num;
 646:Drivers/STM32L4xx_HAL_Driver/Src/stm32l4xx_ll_usb.c **** 
 647:Drivers/STM32L4xx_HAL_Driver/Src/stm32l4xx_ll_usb.c ****   /* Read DEPCTLn register */
 648:Drivers/STM32L4xx_HAL_Driver/Src/stm32l4xx_ll_usb.c ****   if (ep->is_in == 1U)
 649:Drivers/STM32L4xx_HAL_Driver/Src/stm32l4xx_ll_usb.c ****   {
 650:Drivers/STM32L4xx_HAL_Driver/Src/stm32l4xx_ll_usb.c ****     if ((USBx_INEP(epnum)->DIEPCTL & USB_OTG_DIEPCTL_EPENA) == USB_OTG_DIEPCTL_EPENA)
 651:Drivers/STM32L4xx_HAL_Driver/Src/stm32l4xx_ll_usb.c ****     {
 652:Drivers/STM32L4xx_HAL_Driver/Src/stm32l4xx_ll_usb.c ****       USBx_INEP(epnum)->DIEPCTL  |= USB_OTG_DIEPCTL_SNAK;
 653:Drivers/STM32L4xx_HAL_Driver/Src/stm32l4xx_ll_usb.c ****       USBx_INEP(epnum)->DIEPCTL  |= USB_OTG_DIEPCTL_EPDIS;
 654:Drivers/STM32L4xx_HAL_Driver/Src/stm32l4xx_ll_usb.c ****     }
 655:Drivers/STM32L4xx_HAL_Driver/Src/stm32l4xx_ll_usb.c **** 
 656:Drivers/STM32L4xx_HAL_Driver/Src/stm32l4xx_ll_usb.c ****     USBx_INEP(epnum)->DIEPCTL &= ~ USB_OTG_DIEPCTL_USBAEP;
 657:Drivers/STM32L4xx_HAL_Driver/Src/stm32l4xx_ll_usb.c ****     USBx_DEVICE->DAINTMSK &= ~(USB_OTG_DAINTMSK_IEPM & (uint32_t)(1UL << (ep->num & EP_ADDR_MSK)));
ARM GAS  C:\Users\gigig\AppData\Local\Temp\ccWnrG0a.s 			page 13


 658:Drivers/STM32L4xx_HAL_Driver/Src/stm32l4xx_ll_usb.c ****   }
 659:Drivers/STM32L4xx_HAL_Driver/Src/stm32l4xx_ll_usb.c ****   else
 660:Drivers/STM32L4xx_HAL_Driver/Src/stm32l4xx_ll_usb.c ****   {
 661:Drivers/STM32L4xx_HAL_Driver/Src/stm32l4xx_ll_usb.c ****     if ((USBx_OUTEP(epnum)->DOEPCTL & USB_OTG_DOEPCTL_EPENA) == USB_OTG_DOEPCTL_EPENA)
 662:Drivers/STM32L4xx_HAL_Driver/Src/stm32l4xx_ll_usb.c ****     {
 663:Drivers/STM32L4xx_HAL_Driver/Src/stm32l4xx_ll_usb.c ****       USBx_OUTEP(epnum)->DOEPCTL  |= USB_OTG_DOEPCTL_SNAK;
 664:Drivers/STM32L4xx_HAL_Driver/Src/stm32l4xx_ll_usb.c ****       USBx_OUTEP(epnum)->DOEPCTL  |= USB_OTG_DOEPCTL_EPDIS;
 665:Drivers/STM32L4xx_HAL_Driver/Src/stm32l4xx_ll_usb.c ****     }
 666:Drivers/STM32L4xx_HAL_Driver/Src/stm32l4xx_ll_usb.c **** 
 667:Drivers/STM32L4xx_HAL_Driver/Src/stm32l4xx_ll_usb.c ****     USBx_OUTEP(epnum)->DOEPCTL &= ~USB_OTG_DOEPCTL_USBAEP;
 668:Drivers/STM32L4xx_HAL_Driver/Src/stm32l4xx_ll_usb.c ****     USBx_DEVICE->DAINTMSK &= ~(USB_OTG_DAINTMSK_OEPM & ((uint32_t)(1UL << (ep->num & EP_ADDR_MSK)) 
 669:Drivers/STM32L4xx_HAL_Driver/Src/stm32l4xx_ll_usb.c ****   }
 670:Drivers/STM32L4xx_HAL_Driver/Src/stm32l4xx_ll_usb.c **** 
 671:Drivers/STM32L4xx_HAL_Driver/Src/stm32l4xx_ll_usb.c ****   return HAL_OK;
 672:Drivers/STM32L4xx_HAL_Driver/Src/stm32l4xx_ll_usb.c **** }
 673:Drivers/STM32L4xx_HAL_Driver/Src/stm32l4xx_ll_usb.c **** 
 674:Drivers/STM32L4xx_HAL_Driver/Src/stm32l4xx_ll_usb.c **** /**
 675:Drivers/STM32L4xx_HAL_Driver/Src/stm32l4xx_ll_usb.c ****   * @brief  USB_EPStartXfer : setup and starts a transfer over an EP
 676:Drivers/STM32L4xx_HAL_Driver/Src/stm32l4xx_ll_usb.c ****   * @param  USBx  Selected device
 677:Drivers/STM32L4xx_HAL_Driver/Src/stm32l4xx_ll_usb.c ****   * @param  ep pointer to endpoint structure
 678:Drivers/STM32L4xx_HAL_Driver/Src/stm32l4xx_ll_usb.c ****   * @retval HAL status
 679:Drivers/STM32L4xx_HAL_Driver/Src/stm32l4xx_ll_usb.c ****   */
 680:Drivers/STM32L4xx_HAL_Driver/Src/stm32l4xx_ll_usb.c **** HAL_StatusTypeDef USB_EPStartXfer(USB_OTG_GlobalTypeDef *USBx, USB_OTG_EPTypeDef *ep)
 681:Drivers/STM32L4xx_HAL_Driver/Src/stm32l4xx_ll_usb.c **** {
 682:Drivers/STM32L4xx_HAL_Driver/Src/stm32l4xx_ll_usb.c ****   uint32_t USBx_BASE = (uint32_t)USBx;
 683:Drivers/STM32L4xx_HAL_Driver/Src/stm32l4xx_ll_usb.c ****   uint32_t epnum = (uint32_t)ep->num;
 684:Drivers/STM32L4xx_HAL_Driver/Src/stm32l4xx_ll_usb.c ****   uint16_t pktcnt;
 685:Drivers/STM32L4xx_HAL_Driver/Src/stm32l4xx_ll_usb.c **** 
 686:Drivers/STM32L4xx_HAL_Driver/Src/stm32l4xx_ll_usb.c ****   /* IN endpoint */
 687:Drivers/STM32L4xx_HAL_Driver/Src/stm32l4xx_ll_usb.c ****   if (ep->is_in == 1U)
 688:Drivers/STM32L4xx_HAL_Driver/Src/stm32l4xx_ll_usb.c ****   {
 689:Drivers/STM32L4xx_HAL_Driver/Src/stm32l4xx_ll_usb.c ****     /* Zero Length Packet? */
 690:Drivers/STM32L4xx_HAL_Driver/Src/stm32l4xx_ll_usb.c ****     if (ep->xfer_len == 0U)
 691:Drivers/STM32L4xx_HAL_Driver/Src/stm32l4xx_ll_usb.c ****     {
 692:Drivers/STM32L4xx_HAL_Driver/Src/stm32l4xx_ll_usb.c ****       USBx_INEP(epnum)->DIEPTSIZ &= ~(USB_OTG_DIEPTSIZ_PKTCNT);
 693:Drivers/STM32L4xx_HAL_Driver/Src/stm32l4xx_ll_usb.c ****       USBx_INEP(epnum)->DIEPTSIZ |= (USB_OTG_DIEPTSIZ_PKTCNT & (1U << 19));
 694:Drivers/STM32L4xx_HAL_Driver/Src/stm32l4xx_ll_usb.c ****       USBx_INEP(epnum)->DIEPTSIZ &= ~(USB_OTG_DIEPTSIZ_XFRSIZ);
 695:Drivers/STM32L4xx_HAL_Driver/Src/stm32l4xx_ll_usb.c ****     }
 696:Drivers/STM32L4xx_HAL_Driver/Src/stm32l4xx_ll_usb.c ****     else
 697:Drivers/STM32L4xx_HAL_Driver/Src/stm32l4xx_ll_usb.c ****     {
 698:Drivers/STM32L4xx_HAL_Driver/Src/stm32l4xx_ll_usb.c ****       /* Program the transfer size and packet count
 699:Drivers/STM32L4xx_HAL_Driver/Src/stm32l4xx_ll_usb.c ****       * as follows: xfersize = N * maxpacket +
 700:Drivers/STM32L4xx_HAL_Driver/Src/stm32l4xx_ll_usb.c ****       * short_packet pktcnt = N + (short_packet
 701:Drivers/STM32L4xx_HAL_Driver/Src/stm32l4xx_ll_usb.c ****       * exist ? 1 : 0)
 702:Drivers/STM32L4xx_HAL_Driver/Src/stm32l4xx_ll_usb.c ****       */
 703:Drivers/STM32L4xx_HAL_Driver/Src/stm32l4xx_ll_usb.c ****       USBx_INEP(epnum)->DIEPTSIZ &= ~(USB_OTG_DIEPTSIZ_XFRSIZ);
 704:Drivers/STM32L4xx_HAL_Driver/Src/stm32l4xx_ll_usb.c ****       USBx_INEP(epnum)->DIEPTSIZ &= ~(USB_OTG_DIEPTSIZ_PKTCNT);
 705:Drivers/STM32L4xx_HAL_Driver/Src/stm32l4xx_ll_usb.c **** 
 706:Drivers/STM32L4xx_HAL_Driver/Src/stm32l4xx_ll_usb.c ****       if (epnum == 0U)
 707:Drivers/STM32L4xx_HAL_Driver/Src/stm32l4xx_ll_usb.c ****       {
 708:Drivers/STM32L4xx_HAL_Driver/Src/stm32l4xx_ll_usb.c ****         if (ep->xfer_len > ep->maxpacket)
 709:Drivers/STM32L4xx_HAL_Driver/Src/stm32l4xx_ll_usb.c ****         {
 710:Drivers/STM32L4xx_HAL_Driver/Src/stm32l4xx_ll_usb.c ****           ep->xfer_len = ep->maxpacket;
 711:Drivers/STM32L4xx_HAL_Driver/Src/stm32l4xx_ll_usb.c ****         }
 712:Drivers/STM32L4xx_HAL_Driver/Src/stm32l4xx_ll_usb.c **** 
 713:Drivers/STM32L4xx_HAL_Driver/Src/stm32l4xx_ll_usb.c ****         USBx_INEP(epnum)->DIEPTSIZ |= (USB_OTG_DIEPTSIZ_PKTCNT & (1U << 19));
 714:Drivers/STM32L4xx_HAL_Driver/Src/stm32l4xx_ll_usb.c ****       }
ARM GAS  C:\Users\gigig\AppData\Local\Temp\ccWnrG0a.s 			page 14


 715:Drivers/STM32L4xx_HAL_Driver/Src/stm32l4xx_ll_usb.c ****       else
 716:Drivers/STM32L4xx_HAL_Driver/Src/stm32l4xx_ll_usb.c ****       {
 717:Drivers/STM32L4xx_HAL_Driver/Src/stm32l4xx_ll_usb.c ****         USBx_INEP(epnum)->DIEPTSIZ |= (USB_OTG_DIEPTSIZ_PKTCNT &
 718:Drivers/STM32L4xx_HAL_Driver/Src/stm32l4xx_ll_usb.c ****                                        (((ep->xfer_len + ep->maxpacket - 1U) / ep->maxpacket) << 19
 719:Drivers/STM32L4xx_HAL_Driver/Src/stm32l4xx_ll_usb.c ****       }
 720:Drivers/STM32L4xx_HAL_Driver/Src/stm32l4xx_ll_usb.c **** 
 721:Drivers/STM32L4xx_HAL_Driver/Src/stm32l4xx_ll_usb.c ****       USBx_INEP(epnum)->DIEPTSIZ |= (USB_OTG_DIEPTSIZ_XFRSIZ & ep->xfer_len);
 722:Drivers/STM32L4xx_HAL_Driver/Src/stm32l4xx_ll_usb.c **** 
 723:Drivers/STM32L4xx_HAL_Driver/Src/stm32l4xx_ll_usb.c ****       if (ep->type == EP_TYPE_ISOC)
 724:Drivers/STM32L4xx_HAL_Driver/Src/stm32l4xx_ll_usb.c ****       {
 725:Drivers/STM32L4xx_HAL_Driver/Src/stm32l4xx_ll_usb.c ****         USBx_INEP(epnum)->DIEPTSIZ &= ~(USB_OTG_DIEPTSIZ_MULCNT);
 726:Drivers/STM32L4xx_HAL_Driver/Src/stm32l4xx_ll_usb.c ****         USBx_INEP(epnum)->DIEPTSIZ |= (USB_OTG_DIEPTSIZ_MULCNT & (1U << 29));
 727:Drivers/STM32L4xx_HAL_Driver/Src/stm32l4xx_ll_usb.c ****       }
 728:Drivers/STM32L4xx_HAL_Driver/Src/stm32l4xx_ll_usb.c ****     }
 729:Drivers/STM32L4xx_HAL_Driver/Src/stm32l4xx_ll_usb.c ****     /* EP enable, IN data in FIFO */
 730:Drivers/STM32L4xx_HAL_Driver/Src/stm32l4xx_ll_usb.c ****     USBx_INEP(epnum)->DIEPCTL |= (USB_OTG_DIEPCTL_CNAK | USB_OTG_DIEPCTL_EPENA);
 731:Drivers/STM32L4xx_HAL_Driver/Src/stm32l4xx_ll_usb.c **** 
 732:Drivers/STM32L4xx_HAL_Driver/Src/stm32l4xx_ll_usb.c ****     if (ep->type != EP_TYPE_ISOC)
 733:Drivers/STM32L4xx_HAL_Driver/Src/stm32l4xx_ll_usb.c ****     {
 734:Drivers/STM32L4xx_HAL_Driver/Src/stm32l4xx_ll_usb.c ****       /* Enable the Tx FIFO Empty Interrupt for this EP */
 735:Drivers/STM32L4xx_HAL_Driver/Src/stm32l4xx_ll_usb.c ****       if (ep->xfer_len > 0U)
 736:Drivers/STM32L4xx_HAL_Driver/Src/stm32l4xx_ll_usb.c ****       {
 737:Drivers/STM32L4xx_HAL_Driver/Src/stm32l4xx_ll_usb.c ****         USBx_DEVICE->DIEPEMPMSK |= 1UL << (ep->num & EP_ADDR_MSK);
 738:Drivers/STM32L4xx_HAL_Driver/Src/stm32l4xx_ll_usb.c ****       }
 739:Drivers/STM32L4xx_HAL_Driver/Src/stm32l4xx_ll_usb.c ****     }
 740:Drivers/STM32L4xx_HAL_Driver/Src/stm32l4xx_ll_usb.c ****     else
 741:Drivers/STM32L4xx_HAL_Driver/Src/stm32l4xx_ll_usb.c ****     {
 742:Drivers/STM32L4xx_HAL_Driver/Src/stm32l4xx_ll_usb.c ****       if ((USBx_DEVICE->DSTS & (1U << 8)) == 0U)
 743:Drivers/STM32L4xx_HAL_Driver/Src/stm32l4xx_ll_usb.c ****       {
 744:Drivers/STM32L4xx_HAL_Driver/Src/stm32l4xx_ll_usb.c ****         USBx_INEP(epnum)->DIEPCTL |= USB_OTG_DIEPCTL_SODDFRM;
 745:Drivers/STM32L4xx_HAL_Driver/Src/stm32l4xx_ll_usb.c ****       }
 746:Drivers/STM32L4xx_HAL_Driver/Src/stm32l4xx_ll_usb.c ****       else
 747:Drivers/STM32L4xx_HAL_Driver/Src/stm32l4xx_ll_usb.c ****       {
 748:Drivers/STM32L4xx_HAL_Driver/Src/stm32l4xx_ll_usb.c ****         USBx_INEP(epnum)->DIEPCTL |= USB_OTG_DIEPCTL_SD0PID_SEVNFRM;
 749:Drivers/STM32L4xx_HAL_Driver/Src/stm32l4xx_ll_usb.c ****       }
 750:Drivers/STM32L4xx_HAL_Driver/Src/stm32l4xx_ll_usb.c **** 
 751:Drivers/STM32L4xx_HAL_Driver/Src/stm32l4xx_ll_usb.c ****       (void)USB_WritePacket(USBx, ep->xfer_buff, ep->num, (uint16_t)ep->xfer_len);
 752:Drivers/STM32L4xx_HAL_Driver/Src/stm32l4xx_ll_usb.c ****     }
 753:Drivers/STM32L4xx_HAL_Driver/Src/stm32l4xx_ll_usb.c ****   }
 754:Drivers/STM32L4xx_HAL_Driver/Src/stm32l4xx_ll_usb.c ****   else /* OUT endpoint */
 755:Drivers/STM32L4xx_HAL_Driver/Src/stm32l4xx_ll_usb.c ****   {
 756:Drivers/STM32L4xx_HAL_Driver/Src/stm32l4xx_ll_usb.c ****     /* Program the transfer size and packet count as follows:
 757:Drivers/STM32L4xx_HAL_Driver/Src/stm32l4xx_ll_usb.c ****     * pktcnt = N
 758:Drivers/STM32L4xx_HAL_Driver/Src/stm32l4xx_ll_usb.c ****     * xfersize = N * maxpacket
 759:Drivers/STM32L4xx_HAL_Driver/Src/stm32l4xx_ll_usb.c ****     */
 760:Drivers/STM32L4xx_HAL_Driver/Src/stm32l4xx_ll_usb.c ****     USBx_OUTEP(epnum)->DOEPTSIZ &= ~(USB_OTG_DOEPTSIZ_XFRSIZ);
 761:Drivers/STM32L4xx_HAL_Driver/Src/stm32l4xx_ll_usb.c ****     USBx_OUTEP(epnum)->DOEPTSIZ &= ~(USB_OTG_DOEPTSIZ_PKTCNT);
 762:Drivers/STM32L4xx_HAL_Driver/Src/stm32l4xx_ll_usb.c **** 
 763:Drivers/STM32L4xx_HAL_Driver/Src/stm32l4xx_ll_usb.c ****     if (epnum == 0U)
 764:Drivers/STM32L4xx_HAL_Driver/Src/stm32l4xx_ll_usb.c ****     {
 765:Drivers/STM32L4xx_HAL_Driver/Src/stm32l4xx_ll_usb.c ****       if (ep->xfer_len > 0U)
 766:Drivers/STM32L4xx_HAL_Driver/Src/stm32l4xx_ll_usb.c ****       {
 767:Drivers/STM32L4xx_HAL_Driver/Src/stm32l4xx_ll_usb.c ****         ep->xfer_len = ep->maxpacket;
 768:Drivers/STM32L4xx_HAL_Driver/Src/stm32l4xx_ll_usb.c ****       }
 769:Drivers/STM32L4xx_HAL_Driver/Src/stm32l4xx_ll_usb.c **** 
 770:Drivers/STM32L4xx_HAL_Driver/Src/stm32l4xx_ll_usb.c ****       /* Store transfer size, for EP0 this is equal to endpoint max packet size */
 771:Drivers/STM32L4xx_HAL_Driver/Src/stm32l4xx_ll_usb.c ****       ep->xfer_size = ep->maxpacket;
ARM GAS  C:\Users\gigig\AppData\Local\Temp\ccWnrG0a.s 			page 15


 772:Drivers/STM32L4xx_HAL_Driver/Src/stm32l4xx_ll_usb.c **** 
 773:Drivers/STM32L4xx_HAL_Driver/Src/stm32l4xx_ll_usb.c ****       USBx_OUTEP(epnum)->DOEPTSIZ |= (USB_OTG_DOEPTSIZ_XFRSIZ & ep->xfer_size);
 774:Drivers/STM32L4xx_HAL_Driver/Src/stm32l4xx_ll_usb.c ****       USBx_OUTEP(epnum)->DOEPTSIZ |= (USB_OTG_DOEPTSIZ_PKTCNT & (1U << 19));
 775:Drivers/STM32L4xx_HAL_Driver/Src/stm32l4xx_ll_usb.c ****     }
 776:Drivers/STM32L4xx_HAL_Driver/Src/stm32l4xx_ll_usb.c ****     else
 777:Drivers/STM32L4xx_HAL_Driver/Src/stm32l4xx_ll_usb.c ****     {
 778:Drivers/STM32L4xx_HAL_Driver/Src/stm32l4xx_ll_usb.c ****       if (ep->xfer_len == 0U)
 779:Drivers/STM32L4xx_HAL_Driver/Src/stm32l4xx_ll_usb.c ****       {
 780:Drivers/STM32L4xx_HAL_Driver/Src/stm32l4xx_ll_usb.c ****         USBx_OUTEP(epnum)->DOEPTSIZ |= (USB_OTG_DOEPTSIZ_XFRSIZ & ep->maxpacket);
 781:Drivers/STM32L4xx_HAL_Driver/Src/stm32l4xx_ll_usb.c ****         USBx_OUTEP(epnum)->DOEPTSIZ |= (USB_OTG_DOEPTSIZ_PKTCNT & (1U << 19));
 782:Drivers/STM32L4xx_HAL_Driver/Src/stm32l4xx_ll_usb.c ****       }
 783:Drivers/STM32L4xx_HAL_Driver/Src/stm32l4xx_ll_usb.c ****       else
 784:Drivers/STM32L4xx_HAL_Driver/Src/stm32l4xx_ll_usb.c ****       {
 785:Drivers/STM32L4xx_HAL_Driver/Src/stm32l4xx_ll_usb.c ****         pktcnt = (uint16_t)((ep->xfer_len + ep->maxpacket - 1U) / ep->maxpacket);
 786:Drivers/STM32L4xx_HAL_Driver/Src/stm32l4xx_ll_usb.c ****         ep->xfer_size = ep->maxpacket * pktcnt;
 787:Drivers/STM32L4xx_HAL_Driver/Src/stm32l4xx_ll_usb.c **** 
 788:Drivers/STM32L4xx_HAL_Driver/Src/stm32l4xx_ll_usb.c ****         USBx_OUTEP(epnum)->DOEPTSIZ |= USB_OTG_DOEPTSIZ_PKTCNT & ((uint32_t)pktcnt << 19);
 789:Drivers/STM32L4xx_HAL_Driver/Src/stm32l4xx_ll_usb.c ****         USBx_OUTEP(epnum)->DOEPTSIZ |= USB_OTG_DOEPTSIZ_XFRSIZ & ep->xfer_size;
 790:Drivers/STM32L4xx_HAL_Driver/Src/stm32l4xx_ll_usb.c ****       }
 791:Drivers/STM32L4xx_HAL_Driver/Src/stm32l4xx_ll_usb.c ****     }
 792:Drivers/STM32L4xx_HAL_Driver/Src/stm32l4xx_ll_usb.c **** 
 793:Drivers/STM32L4xx_HAL_Driver/Src/stm32l4xx_ll_usb.c ****     if (ep->type == EP_TYPE_ISOC)
 794:Drivers/STM32L4xx_HAL_Driver/Src/stm32l4xx_ll_usb.c ****     {
 795:Drivers/STM32L4xx_HAL_Driver/Src/stm32l4xx_ll_usb.c ****       if ((USBx_DEVICE->DSTS & (1U << 8)) == 0U)
 796:Drivers/STM32L4xx_HAL_Driver/Src/stm32l4xx_ll_usb.c ****       {
 797:Drivers/STM32L4xx_HAL_Driver/Src/stm32l4xx_ll_usb.c ****         USBx_OUTEP(epnum)->DOEPCTL |= USB_OTG_DOEPCTL_SODDFRM;
 798:Drivers/STM32L4xx_HAL_Driver/Src/stm32l4xx_ll_usb.c ****       }
 799:Drivers/STM32L4xx_HAL_Driver/Src/stm32l4xx_ll_usb.c ****       else
 800:Drivers/STM32L4xx_HAL_Driver/Src/stm32l4xx_ll_usb.c ****       {
 801:Drivers/STM32L4xx_HAL_Driver/Src/stm32l4xx_ll_usb.c ****         USBx_OUTEP(epnum)->DOEPCTL |= USB_OTG_DOEPCTL_SD0PID_SEVNFRM;
 802:Drivers/STM32L4xx_HAL_Driver/Src/stm32l4xx_ll_usb.c ****       }
 803:Drivers/STM32L4xx_HAL_Driver/Src/stm32l4xx_ll_usb.c ****     }
 804:Drivers/STM32L4xx_HAL_Driver/Src/stm32l4xx_ll_usb.c ****     /* EP enable */
 805:Drivers/STM32L4xx_HAL_Driver/Src/stm32l4xx_ll_usb.c ****     USBx_OUTEP(epnum)->DOEPCTL |= (USB_OTG_DOEPCTL_CNAK | USB_OTG_DOEPCTL_EPENA);
 806:Drivers/STM32L4xx_HAL_Driver/Src/stm32l4xx_ll_usb.c ****   }
 807:Drivers/STM32L4xx_HAL_Driver/Src/stm32l4xx_ll_usb.c **** 
 808:Drivers/STM32L4xx_HAL_Driver/Src/stm32l4xx_ll_usb.c ****   return HAL_OK;
 809:Drivers/STM32L4xx_HAL_Driver/Src/stm32l4xx_ll_usb.c **** }
 810:Drivers/STM32L4xx_HAL_Driver/Src/stm32l4xx_ll_usb.c **** 
 811:Drivers/STM32L4xx_HAL_Driver/Src/stm32l4xx_ll_usb.c **** 
 812:Drivers/STM32L4xx_HAL_Driver/Src/stm32l4xx_ll_usb.c **** /**
 813:Drivers/STM32L4xx_HAL_Driver/Src/stm32l4xx_ll_usb.c ****    * @brief  USB_EPStoptXfer  Stop transfer on an EP
 814:Drivers/STM32L4xx_HAL_Driver/Src/stm32l4xx_ll_usb.c ****    * @param  USBx  usb device instance
 815:Drivers/STM32L4xx_HAL_Driver/Src/stm32l4xx_ll_usb.c ****    * @param  ep pointer to endpoint structure
 816:Drivers/STM32L4xx_HAL_Driver/Src/stm32l4xx_ll_usb.c ****    * @retval HAL status
 817:Drivers/STM32L4xx_HAL_Driver/Src/stm32l4xx_ll_usb.c ****    */
 818:Drivers/STM32L4xx_HAL_Driver/Src/stm32l4xx_ll_usb.c **** HAL_StatusTypeDef USB_EPStopXfer(USB_OTG_GlobalTypeDef *USBx, USB_OTG_EPTypeDef *ep)
 819:Drivers/STM32L4xx_HAL_Driver/Src/stm32l4xx_ll_usb.c **** {
 820:Drivers/STM32L4xx_HAL_Driver/Src/stm32l4xx_ll_usb.c ****   __IO uint32_t count = 0U;
 821:Drivers/STM32L4xx_HAL_Driver/Src/stm32l4xx_ll_usb.c ****   HAL_StatusTypeDef ret = HAL_OK;
 822:Drivers/STM32L4xx_HAL_Driver/Src/stm32l4xx_ll_usb.c ****   uint32_t USBx_BASE = (uint32_t)USBx;
 823:Drivers/STM32L4xx_HAL_Driver/Src/stm32l4xx_ll_usb.c **** 
 824:Drivers/STM32L4xx_HAL_Driver/Src/stm32l4xx_ll_usb.c ****   /* IN endpoint */
 825:Drivers/STM32L4xx_HAL_Driver/Src/stm32l4xx_ll_usb.c ****   if (ep->is_in == 1U)
 826:Drivers/STM32L4xx_HAL_Driver/Src/stm32l4xx_ll_usb.c ****   {
 827:Drivers/STM32L4xx_HAL_Driver/Src/stm32l4xx_ll_usb.c ****     /* EP enable, IN data in FIFO */
 828:Drivers/STM32L4xx_HAL_Driver/Src/stm32l4xx_ll_usb.c ****     if (((USBx_INEP(ep->num)->DIEPCTL) & USB_OTG_DIEPCTL_EPENA) == USB_OTG_DIEPCTL_EPENA)
ARM GAS  C:\Users\gigig\AppData\Local\Temp\ccWnrG0a.s 			page 16


 829:Drivers/STM32L4xx_HAL_Driver/Src/stm32l4xx_ll_usb.c ****     {
 830:Drivers/STM32L4xx_HAL_Driver/Src/stm32l4xx_ll_usb.c ****       USBx_INEP(ep->num)->DIEPCTL |= (USB_OTG_DIEPCTL_SNAK);
 831:Drivers/STM32L4xx_HAL_Driver/Src/stm32l4xx_ll_usb.c ****       USBx_INEP(ep->num)->DIEPCTL |= (USB_OTG_DIEPCTL_EPDIS);
 832:Drivers/STM32L4xx_HAL_Driver/Src/stm32l4xx_ll_usb.c **** 
 833:Drivers/STM32L4xx_HAL_Driver/Src/stm32l4xx_ll_usb.c ****       do
 834:Drivers/STM32L4xx_HAL_Driver/Src/stm32l4xx_ll_usb.c ****       {
 835:Drivers/STM32L4xx_HAL_Driver/Src/stm32l4xx_ll_usb.c ****         count++;
 836:Drivers/STM32L4xx_HAL_Driver/Src/stm32l4xx_ll_usb.c **** 
 837:Drivers/STM32L4xx_HAL_Driver/Src/stm32l4xx_ll_usb.c ****         if (count > 10000U)
 838:Drivers/STM32L4xx_HAL_Driver/Src/stm32l4xx_ll_usb.c ****         {
 839:Drivers/STM32L4xx_HAL_Driver/Src/stm32l4xx_ll_usb.c ****           ret = HAL_ERROR;
 840:Drivers/STM32L4xx_HAL_Driver/Src/stm32l4xx_ll_usb.c ****           break;
 841:Drivers/STM32L4xx_HAL_Driver/Src/stm32l4xx_ll_usb.c ****         }
 842:Drivers/STM32L4xx_HAL_Driver/Src/stm32l4xx_ll_usb.c ****       } while (((USBx_INEP(ep->num)->DIEPCTL) & USB_OTG_DIEPCTL_EPENA) ==  USB_OTG_DIEPCTL_EPENA);
 843:Drivers/STM32L4xx_HAL_Driver/Src/stm32l4xx_ll_usb.c ****     }
 844:Drivers/STM32L4xx_HAL_Driver/Src/stm32l4xx_ll_usb.c ****   }
 845:Drivers/STM32L4xx_HAL_Driver/Src/stm32l4xx_ll_usb.c ****   else /* OUT endpoint */
 846:Drivers/STM32L4xx_HAL_Driver/Src/stm32l4xx_ll_usb.c ****   {
 847:Drivers/STM32L4xx_HAL_Driver/Src/stm32l4xx_ll_usb.c ****     if (((USBx_OUTEP(ep->num)->DOEPCTL) & USB_OTG_DOEPCTL_EPENA) == USB_OTG_DOEPCTL_EPENA)
 848:Drivers/STM32L4xx_HAL_Driver/Src/stm32l4xx_ll_usb.c ****     {
 849:Drivers/STM32L4xx_HAL_Driver/Src/stm32l4xx_ll_usb.c ****       USBx_OUTEP(ep->num)->DOEPCTL |= (USB_OTG_DOEPCTL_SNAK);
 850:Drivers/STM32L4xx_HAL_Driver/Src/stm32l4xx_ll_usb.c ****       USBx_OUTEP(ep->num)->DOEPCTL |= (USB_OTG_DOEPCTL_EPDIS);
 851:Drivers/STM32L4xx_HAL_Driver/Src/stm32l4xx_ll_usb.c **** 
 852:Drivers/STM32L4xx_HAL_Driver/Src/stm32l4xx_ll_usb.c ****       do
 853:Drivers/STM32L4xx_HAL_Driver/Src/stm32l4xx_ll_usb.c ****       {
 854:Drivers/STM32L4xx_HAL_Driver/Src/stm32l4xx_ll_usb.c ****         count++;
 855:Drivers/STM32L4xx_HAL_Driver/Src/stm32l4xx_ll_usb.c **** 
 856:Drivers/STM32L4xx_HAL_Driver/Src/stm32l4xx_ll_usb.c ****         if (count > 10000U)
 857:Drivers/STM32L4xx_HAL_Driver/Src/stm32l4xx_ll_usb.c ****         {
 858:Drivers/STM32L4xx_HAL_Driver/Src/stm32l4xx_ll_usb.c ****           ret = HAL_ERROR;
 859:Drivers/STM32L4xx_HAL_Driver/Src/stm32l4xx_ll_usb.c ****           break;
 860:Drivers/STM32L4xx_HAL_Driver/Src/stm32l4xx_ll_usb.c ****         }
 861:Drivers/STM32L4xx_HAL_Driver/Src/stm32l4xx_ll_usb.c ****       } while (((USBx_OUTEP(ep->num)->DOEPCTL) & USB_OTG_DOEPCTL_EPENA) ==  USB_OTG_DOEPCTL_EPENA);
 862:Drivers/STM32L4xx_HAL_Driver/Src/stm32l4xx_ll_usb.c ****     }
 863:Drivers/STM32L4xx_HAL_Driver/Src/stm32l4xx_ll_usb.c ****   }
 864:Drivers/STM32L4xx_HAL_Driver/Src/stm32l4xx_ll_usb.c **** 
 865:Drivers/STM32L4xx_HAL_Driver/Src/stm32l4xx_ll_usb.c ****   return ret;
 866:Drivers/STM32L4xx_HAL_Driver/Src/stm32l4xx_ll_usb.c **** }
 867:Drivers/STM32L4xx_HAL_Driver/Src/stm32l4xx_ll_usb.c **** 
 868:Drivers/STM32L4xx_HAL_Driver/Src/stm32l4xx_ll_usb.c **** 
 869:Drivers/STM32L4xx_HAL_Driver/Src/stm32l4xx_ll_usb.c **** /**
 870:Drivers/STM32L4xx_HAL_Driver/Src/stm32l4xx_ll_usb.c ****   * @brief  USB_WritePacket : Writes a packet into the Tx FIFO associated
 871:Drivers/STM32L4xx_HAL_Driver/Src/stm32l4xx_ll_usb.c ****   *         with the EP/channel
 872:Drivers/STM32L4xx_HAL_Driver/Src/stm32l4xx_ll_usb.c ****   * @param  USBx  Selected device
 873:Drivers/STM32L4xx_HAL_Driver/Src/stm32l4xx_ll_usb.c ****   * @param  src   pointer to source buffer
 874:Drivers/STM32L4xx_HAL_Driver/Src/stm32l4xx_ll_usb.c ****   * @param  ch_ep_num  endpoint or host channel number
 875:Drivers/STM32L4xx_HAL_Driver/Src/stm32l4xx_ll_usb.c ****   * @param  len  Number of bytes to write
 876:Drivers/STM32L4xx_HAL_Driver/Src/stm32l4xx_ll_usb.c ****   * @retval HAL status
 877:Drivers/STM32L4xx_HAL_Driver/Src/stm32l4xx_ll_usb.c ****   */
 878:Drivers/STM32L4xx_HAL_Driver/Src/stm32l4xx_ll_usb.c **** HAL_StatusTypeDef USB_WritePacket(USB_OTG_GlobalTypeDef *USBx, uint8_t *src,
 879:Drivers/STM32L4xx_HAL_Driver/Src/stm32l4xx_ll_usb.c ****                                   uint8_t ch_ep_num, uint16_t len)
 880:Drivers/STM32L4xx_HAL_Driver/Src/stm32l4xx_ll_usb.c **** {
 881:Drivers/STM32L4xx_HAL_Driver/Src/stm32l4xx_ll_usb.c ****   uint32_t USBx_BASE = (uint32_t)USBx;
 882:Drivers/STM32L4xx_HAL_Driver/Src/stm32l4xx_ll_usb.c ****   uint8_t *pSrc = src;
 883:Drivers/STM32L4xx_HAL_Driver/Src/stm32l4xx_ll_usb.c ****   uint32_t count32b;
 884:Drivers/STM32L4xx_HAL_Driver/Src/stm32l4xx_ll_usb.c ****   uint32_t i;
 885:Drivers/STM32L4xx_HAL_Driver/Src/stm32l4xx_ll_usb.c **** 
ARM GAS  C:\Users\gigig\AppData\Local\Temp\ccWnrG0a.s 			page 17


 886:Drivers/STM32L4xx_HAL_Driver/Src/stm32l4xx_ll_usb.c ****   count32b = ((uint32_t)len + 3U) / 4U;
 887:Drivers/STM32L4xx_HAL_Driver/Src/stm32l4xx_ll_usb.c ****   for (i = 0U; i < count32b; i++)
 888:Drivers/STM32L4xx_HAL_Driver/Src/stm32l4xx_ll_usb.c ****   {
 889:Drivers/STM32L4xx_HAL_Driver/Src/stm32l4xx_ll_usb.c ****     USBx_DFIFO((uint32_t)ch_ep_num) = __UNALIGNED_UINT32_READ(pSrc);
 890:Drivers/STM32L4xx_HAL_Driver/Src/stm32l4xx_ll_usb.c ****     pSrc++;
 891:Drivers/STM32L4xx_HAL_Driver/Src/stm32l4xx_ll_usb.c ****     pSrc++;
 892:Drivers/STM32L4xx_HAL_Driver/Src/stm32l4xx_ll_usb.c ****     pSrc++;
 893:Drivers/STM32L4xx_HAL_Driver/Src/stm32l4xx_ll_usb.c ****     pSrc++;
 894:Drivers/STM32L4xx_HAL_Driver/Src/stm32l4xx_ll_usb.c ****   }
 895:Drivers/STM32L4xx_HAL_Driver/Src/stm32l4xx_ll_usb.c **** 
 896:Drivers/STM32L4xx_HAL_Driver/Src/stm32l4xx_ll_usb.c ****   return HAL_OK;
 897:Drivers/STM32L4xx_HAL_Driver/Src/stm32l4xx_ll_usb.c **** }
 898:Drivers/STM32L4xx_HAL_Driver/Src/stm32l4xx_ll_usb.c **** 
 899:Drivers/STM32L4xx_HAL_Driver/Src/stm32l4xx_ll_usb.c **** /**
 900:Drivers/STM32L4xx_HAL_Driver/Src/stm32l4xx_ll_usb.c ****   * @brief  USB_ReadPacket : read a packet from the RX FIFO
 901:Drivers/STM32L4xx_HAL_Driver/Src/stm32l4xx_ll_usb.c ****   * @param  USBx  Selected device
 902:Drivers/STM32L4xx_HAL_Driver/Src/stm32l4xx_ll_usb.c ****   * @param  dest  source pointer
 903:Drivers/STM32L4xx_HAL_Driver/Src/stm32l4xx_ll_usb.c ****   * @param  len  Number of bytes to read
 904:Drivers/STM32L4xx_HAL_Driver/Src/stm32l4xx_ll_usb.c ****   * @retval pointer to destination buffer
 905:Drivers/STM32L4xx_HAL_Driver/Src/stm32l4xx_ll_usb.c ****   */
 906:Drivers/STM32L4xx_HAL_Driver/Src/stm32l4xx_ll_usb.c **** void *USB_ReadPacket(USB_OTG_GlobalTypeDef *USBx, uint8_t *dest, uint16_t len)
 907:Drivers/STM32L4xx_HAL_Driver/Src/stm32l4xx_ll_usb.c **** {
 908:Drivers/STM32L4xx_HAL_Driver/Src/stm32l4xx_ll_usb.c ****   uint32_t USBx_BASE = (uint32_t)USBx;
 909:Drivers/STM32L4xx_HAL_Driver/Src/stm32l4xx_ll_usb.c ****   uint8_t *pDest = dest;
 910:Drivers/STM32L4xx_HAL_Driver/Src/stm32l4xx_ll_usb.c ****   uint32_t pData;
 911:Drivers/STM32L4xx_HAL_Driver/Src/stm32l4xx_ll_usb.c ****   uint32_t i;
 912:Drivers/STM32L4xx_HAL_Driver/Src/stm32l4xx_ll_usb.c ****   uint32_t count32b = (uint32_t)len >> 2U;
 913:Drivers/STM32L4xx_HAL_Driver/Src/stm32l4xx_ll_usb.c ****   uint16_t remaining_bytes = len % 4U;
 914:Drivers/STM32L4xx_HAL_Driver/Src/stm32l4xx_ll_usb.c **** 
 915:Drivers/STM32L4xx_HAL_Driver/Src/stm32l4xx_ll_usb.c ****   for (i = 0U; i < count32b; i++)
 916:Drivers/STM32L4xx_HAL_Driver/Src/stm32l4xx_ll_usb.c ****   {
 917:Drivers/STM32L4xx_HAL_Driver/Src/stm32l4xx_ll_usb.c ****     __UNALIGNED_UINT32_WRITE(pDest, USBx_DFIFO(0U));
 918:Drivers/STM32L4xx_HAL_Driver/Src/stm32l4xx_ll_usb.c ****     pDest++;
 919:Drivers/STM32L4xx_HAL_Driver/Src/stm32l4xx_ll_usb.c ****     pDest++;
 920:Drivers/STM32L4xx_HAL_Driver/Src/stm32l4xx_ll_usb.c ****     pDest++;
 921:Drivers/STM32L4xx_HAL_Driver/Src/stm32l4xx_ll_usb.c ****     pDest++;
 922:Drivers/STM32L4xx_HAL_Driver/Src/stm32l4xx_ll_usb.c ****   }
 923:Drivers/STM32L4xx_HAL_Driver/Src/stm32l4xx_ll_usb.c **** 
 924:Drivers/STM32L4xx_HAL_Driver/Src/stm32l4xx_ll_usb.c ****   /* When Number of data is not word aligned, read the remaining byte */
 925:Drivers/STM32L4xx_HAL_Driver/Src/stm32l4xx_ll_usb.c ****   if (remaining_bytes != 0U)
 926:Drivers/STM32L4xx_HAL_Driver/Src/stm32l4xx_ll_usb.c ****   {
 927:Drivers/STM32L4xx_HAL_Driver/Src/stm32l4xx_ll_usb.c ****     i = 0U;
 928:Drivers/STM32L4xx_HAL_Driver/Src/stm32l4xx_ll_usb.c ****     __UNALIGNED_UINT32_WRITE(&pData, USBx_DFIFO(0U));
 929:Drivers/STM32L4xx_HAL_Driver/Src/stm32l4xx_ll_usb.c **** 
 930:Drivers/STM32L4xx_HAL_Driver/Src/stm32l4xx_ll_usb.c ****     do
 931:Drivers/STM32L4xx_HAL_Driver/Src/stm32l4xx_ll_usb.c ****     {
 932:Drivers/STM32L4xx_HAL_Driver/Src/stm32l4xx_ll_usb.c ****       *(uint8_t *)pDest = (uint8_t)(pData >> (8U * (uint8_t)(i)));
 933:Drivers/STM32L4xx_HAL_Driver/Src/stm32l4xx_ll_usb.c ****       i++;
 934:Drivers/STM32L4xx_HAL_Driver/Src/stm32l4xx_ll_usb.c ****       pDest++;
 935:Drivers/STM32L4xx_HAL_Driver/Src/stm32l4xx_ll_usb.c ****       remaining_bytes--;
 936:Drivers/STM32L4xx_HAL_Driver/Src/stm32l4xx_ll_usb.c ****     } while (remaining_bytes != 0U);
 937:Drivers/STM32L4xx_HAL_Driver/Src/stm32l4xx_ll_usb.c ****   }
 938:Drivers/STM32L4xx_HAL_Driver/Src/stm32l4xx_ll_usb.c **** 
 939:Drivers/STM32L4xx_HAL_Driver/Src/stm32l4xx_ll_usb.c ****   return ((void *)pDest);
 940:Drivers/STM32L4xx_HAL_Driver/Src/stm32l4xx_ll_usb.c **** }
 941:Drivers/STM32L4xx_HAL_Driver/Src/stm32l4xx_ll_usb.c **** 
 942:Drivers/STM32L4xx_HAL_Driver/Src/stm32l4xx_ll_usb.c **** /**
ARM GAS  C:\Users\gigig\AppData\Local\Temp\ccWnrG0a.s 			page 18


 943:Drivers/STM32L4xx_HAL_Driver/Src/stm32l4xx_ll_usb.c ****   * @brief  USB_EPSetStall : set a stall condition over an EP
 944:Drivers/STM32L4xx_HAL_Driver/Src/stm32l4xx_ll_usb.c ****   * @param  USBx  Selected device
 945:Drivers/STM32L4xx_HAL_Driver/Src/stm32l4xx_ll_usb.c ****   * @param  ep pointer to endpoint structure
 946:Drivers/STM32L4xx_HAL_Driver/Src/stm32l4xx_ll_usb.c ****   * @retval HAL status
 947:Drivers/STM32L4xx_HAL_Driver/Src/stm32l4xx_ll_usb.c ****   */
 948:Drivers/STM32L4xx_HAL_Driver/Src/stm32l4xx_ll_usb.c **** HAL_StatusTypeDef USB_EPSetStall(USB_OTG_GlobalTypeDef *USBx, USB_OTG_EPTypeDef *ep)
 949:Drivers/STM32L4xx_HAL_Driver/Src/stm32l4xx_ll_usb.c **** {
 950:Drivers/STM32L4xx_HAL_Driver/Src/stm32l4xx_ll_usb.c ****   uint32_t USBx_BASE = (uint32_t)USBx;
 951:Drivers/STM32L4xx_HAL_Driver/Src/stm32l4xx_ll_usb.c ****   uint32_t epnum = (uint32_t)ep->num;
 952:Drivers/STM32L4xx_HAL_Driver/Src/stm32l4xx_ll_usb.c **** 
 953:Drivers/STM32L4xx_HAL_Driver/Src/stm32l4xx_ll_usb.c ****   if (ep->is_in == 1U)
 954:Drivers/STM32L4xx_HAL_Driver/Src/stm32l4xx_ll_usb.c ****   {
 955:Drivers/STM32L4xx_HAL_Driver/Src/stm32l4xx_ll_usb.c ****     if (((USBx_INEP(epnum)->DIEPCTL & USB_OTG_DIEPCTL_EPENA) == 0U) && (epnum != 0U))
 956:Drivers/STM32L4xx_HAL_Driver/Src/stm32l4xx_ll_usb.c ****     {
 957:Drivers/STM32L4xx_HAL_Driver/Src/stm32l4xx_ll_usb.c ****       USBx_INEP(epnum)->DIEPCTL &= ~(USB_OTG_DIEPCTL_EPDIS);
 958:Drivers/STM32L4xx_HAL_Driver/Src/stm32l4xx_ll_usb.c ****     }
 959:Drivers/STM32L4xx_HAL_Driver/Src/stm32l4xx_ll_usb.c ****     USBx_INEP(epnum)->DIEPCTL |= USB_OTG_DIEPCTL_STALL;
 960:Drivers/STM32L4xx_HAL_Driver/Src/stm32l4xx_ll_usb.c ****   }
 961:Drivers/STM32L4xx_HAL_Driver/Src/stm32l4xx_ll_usb.c ****   else
 962:Drivers/STM32L4xx_HAL_Driver/Src/stm32l4xx_ll_usb.c ****   {
 963:Drivers/STM32L4xx_HAL_Driver/Src/stm32l4xx_ll_usb.c ****     if (((USBx_OUTEP(epnum)->DOEPCTL & USB_OTG_DOEPCTL_EPENA) == 0U) && (epnum != 0U))
 964:Drivers/STM32L4xx_HAL_Driver/Src/stm32l4xx_ll_usb.c ****     {
 965:Drivers/STM32L4xx_HAL_Driver/Src/stm32l4xx_ll_usb.c ****       USBx_OUTEP(epnum)->DOEPCTL &= ~(USB_OTG_DOEPCTL_EPDIS);
 966:Drivers/STM32L4xx_HAL_Driver/Src/stm32l4xx_ll_usb.c ****     }
 967:Drivers/STM32L4xx_HAL_Driver/Src/stm32l4xx_ll_usb.c ****     USBx_OUTEP(epnum)->DOEPCTL |= USB_OTG_DOEPCTL_STALL;
 968:Drivers/STM32L4xx_HAL_Driver/Src/stm32l4xx_ll_usb.c ****   }
 969:Drivers/STM32L4xx_HAL_Driver/Src/stm32l4xx_ll_usb.c **** 
 970:Drivers/STM32L4xx_HAL_Driver/Src/stm32l4xx_ll_usb.c ****   return HAL_OK;
 971:Drivers/STM32L4xx_HAL_Driver/Src/stm32l4xx_ll_usb.c **** }
 972:Drivers/STM32L4xx_HAL_Driver/Src/stm32l4xx_ll_usb.c **** 
 973:Drivers/STM32L4xx_HAL_Driver/Src/stm32l4xx_ll_usb.c **** /**
 974:Drivers/STM32L4xx_HAL_Driver/Src/stm32l4xx_ll_usb.c ****   * @brief  USB_EPClearStall : Clear a stall condition over an EP
 975:Drivers/STM32L4xx_HAL_Driver/Src/stm32l4xx_ll_usb.c ****   * @param  USBx  Selected device
 976:Drivers/STM32L4xx_HAL_Driver/Src/stm32l4xx_ll_usb.c ****   * @param  ep pointer to endpoint structure
 977:Drivers/STM32L4xx_HAL_Driver/Src/stm32l4xx_ll_usb.c ****   * @retval HAL status
 978:Drivers/STM32L4xx_HAL_Driver/Src/stm32l4xx_ll_usb.c ****   */
 979:Drivers/STM32L4xx_HAL_Driver/Src/stm32l4xx_ll_usb.c **** HAL_StatusTypeDef USB_EPClearStall(USB_OTG_GlobalTypeDef *USBx, USB_OTG_EPTypeDef *ep)
 980:Drivers/STM32L4xx_HAL_Driver/Src/stm32l4xx_ll_usb.c **** {
 981:Drivers/STM32L4xx_HAL_Driver/Src/stm32l4xx_ll_usb.c ****   uint32_t USBx_BASE = (uint32_t)USBx;
 982:Drivers/STM32L4xx_HAL_Driver/Src/stm32l4xx_ll_usb.c ****   uint32_t epnum = (uint32_t)ep->num;
 983:Drivers/STM32L4xx_HAL_Driver/Src/stm32l4xx_ll_usb.c **** 
 984:Drivers/STM32L4xx_HAL_Driver/Src/stm32l4xx_ll_usb.c ****   if (ep->is_in == 1U)
 985:Drivers/STM32L4xx_HAL_Driver/Src/stm32l4xx_ll_usb.c ****   {
 986:Drivers/STM32L4xx_HAL_Driver/Src/stm32l4xx_ll_usb.c ****     USBx_INEP(epnum)->DIEPCTL &= ~USB_OTG_DIEPCTL_STALL;
 987:Drivers/STM32L4xx_HAL_Driver/Src/stm32l4xx_ll_usb.c ****     if ((ep->type == EP_TYPE_INTR) || (ep->type == EP_TYPE_BULK))
 988:Drivers/STM32L4xx_HAL_Driver/Src/stm32l4xx_ll_usb.c ****     {
 989:Drivers/STM32L4xx_HAL_Driver/Src/stm32l4xx_ll_usb.c ****       USBx_INEP(epnum)->DIEPCTL |= USB_OTG_DIEPCTL_SD0PID_SEVNFRM; /* DATA0 */
 990:Drivers/STM32L4xx_HAL_Driver/Src/stm32l4xx_ll_usb.c ****     }
 991:Drivers/STM32L4xx_HAL_Driver/Src/stm32l4xx_ll_usb.c ****   }
 992:Drivers/STM32L4xx_HAL_Driver/Src/stm32l4xx_ll_usb.c ****   else
 993:Drivers/STM32L4xx_HAL_Driver/Src/stm32l4xx_ll_usb.c ****   {
 994:Drivers/STM32L4xx_HAL_Driver/Src/stm32l4xx_ll_usb.c ****     USBx_OUTEP(epnum)->DOEPCTL &= ~USB_OTG_DOEPCTL_STALL;
 995:Drivers/STM32L4xx_HAL_Driver/Src/stm32l4xx_ll_usb.c ****     if ((ep->type == EP_TYPE_INTR) || (ep->type == EP_TYPE_BULK))
 996:Drivers/STM32L4xx_HAL_Driver/Src/stm32l4xx_ll_usb.c ****     {
 997:Drivers/STM32L4xx_HAL_Driver/Src/stm32l4xx_ll_usb.c ****       USBx_OUTEP(epnum)->DOEPCTL |= USB_OTG_DOEPCTL_SD0PID_SEVNFRM; /* DATA0 */
 998:Drivers/STM32L4xx_HAL_Driver/Src/stm32l4xx_ll_usb.c ****     }
 999:Drivers/STM32L4xx_HAL_Driver/Src/stm32l4xx_ll_usb.c ****   }
ARM GAS  C:\Users\gigig\AppData\Local\Temp\ccWnrG0a.s 			page 19


1000:Drivers/STM32L4xx_HAL_Driver/Src/stm32l4xx_ll_usb.c ****   return HAL_OK;
1001:Drivers/STM32L4xx_HAL_Driver/Src/stm32l4xx_ll_usb.c **** }
1002:Drivers/STM32L4xx_HAL_Driver/Src/stm32l4xx_ll_usb.c **** 
1003:Drivers/STM32L4xx_HAL_Driver/Src/stm32l4xx_ll_usb.c **** /**
1004:Drivers/STM32L4xx_HAL_Driver/Src/stm32l4xx_ll_usb.c ****   * @brief  USB_StopDevice : Stop the usb device mode
1005:Drivers/STM32L4xx_HAL_Driver/Src/stm32l4xx_ll_usb.c ****   * @param  USBx  Selected device
1006:Drivers/STM32L4xx_HAL_Driver/Src/stm32l4xx_ll_usb.c ****   * @retval HAL status
1007:Drivers/STM32L4xx_HAL_Driver/Src/stm32l4xx_ll_usb.c ****   */
1008:Drivers/STM32L4xx_HAL_Driver/Src/stm32l4xx_ll_usb.c **** HAL_StatusTypeDef USB_StopDevice(USB_OTG_GlobalTypeDef *USBx)
1009:Drivers/STM32L4xx_HAL_Driver/Src/stm32l4xx_ll_usb.c **** {
1010:Drivers/STM32L4xx_HAL_Driver/Src/stm32l4xx_ll_usb.c ****   HAL_StatusTypeDef ret;
1011:Drivers/STM32L4xx_HAL_Driver/Src/stm32l4xx_ll_usb.c ****   uint32_t USBx_BASE = (uint32_t)USBx;
1012:Drivers/STM32L4xx_HAL_Driver/Src/stm32l4xx_ll_usb.c ****   uint32_t i;
1013:Drivers/STM32L4xx_HAL_Driver/Src/stm32l4xx_ll_usb.c **** 
1014:Drivers/STM32L4xx_HAL_Driver/Src/stm32l4xx_ll_usb.c ****   /* Clear Pending interrupt */
1015:Drivers/STM32L4xx_HAL_Driver/Src/stm32l4xx_ll_usb.c ****   for (i = 0U; i < 15U; i++)
1016:Drivers/STM32L4xx_HAL_Driver/Src/stm32l4xx_ll_usb.c ****   {
1017:Drivers/STM32L4xx_HAL_Driver/Src/stm32l4xx_ll_usb.c ****     USBx_INEP(i)->DIEPINT = 0xFB7FU;
1018:Drivers/STM32L4xx_HAL_Driver/Src/stm32l4xx_ll_usb.c ****     USBx_OUTEP(i)->DOEPINT = 0xFB7FU;
1019:Drivers/STM32L4xx_HAL_Driver/Src/stm32l4xx_ll_usb.c ****   }
1020:Drivers/STM32L4xx_HAL_Driver/Src/stm32l4xx_ll_usb.c **** 
1021:Drivers/STM32L4xx_HAL_Driver/Src/stm32l4xx_ll_usb.c ****   /* Clear interrupt masks */
1022:Drivers/STM32L4xx_HAL_Driver/Src/stm32l4xx_ll_usb.c ****   USBx_DEVICE->DIEPMSK  = 0U;
1023:Drivers/STM32L4xx_HAL_Driver/Src/stm32l4xx_ll_usb.c ****   USBx_DEVICE->DOEPMSK  = 0U;
1024:Drivers/STM32L4xx_HAL_Driver/Src/stm32l4xx_ll_usb.c ****   USBx_DEVICE->DAINTMSK = 0U;
1025:Drivers/STM32L4xx_HAL_Driver/Src/stm32l4xx_ll_usb.c **** 
1026:Drivers/STM32L4xx_HAL_Driver/Src/stm32l4xx_ll_usb.c ****   /* Flush the FIFO */
1027:Drivers/STM32L4xx_HAL_Driver/Src/stm32l4xx_ll_usb.c ****   ret = USB_FlushRxFifo(USBx);
1028:Drivers/STM32L4xx_HAL_Driver/Src/stm32l4xx_ll_usb.c ****   if (ret != HAL_OK)
1029:Drivers/STM32L4xx_HAL_Driver/Src/stm32l4xx_ll_usb.c ****   {
1030:Drivers/STM32L4xx_HAL_Driver/Src/stm32l4xx_ll_usb.c ****     return ret;
1031:Drivers/STM32L4xx_HAL_Driver/Src/stm32l4xx_ll_usb.c ****   }
1032:Drivers/STM32L4xx_HAL_Driver/Src/stm32l4xx_ll_usb.c **** 
1033:Drivers/STM32L4xx_HAL_Driver/Src/stm32l4xx_ll_usb.c ****   ret = USB_FlushTxFifo(USBx,  0x10U);
1034:Drivers/STM32L4xx_HAL_Driver/Src/stm32l4xx_ll_usb.c ****   if (ret != HAL_OK)
1035:Drivers/STM32L4xx_HAL_Driver/Src/stm32l4xx_ll_usb.c ****   {
1036:Drivers/STM32L4xx_HAL_Driver/Src/stm32l4xx_ll_usb.c ****     return ret;
1037:Drivers/STM32L4xx_HAL_Driver/Src/stm32l4xx_ll_usb.c ****   }
1038:Drivers/STM32L4xx_HAL_Driver/Src/stm32l4xx_ll_usb.c **** 
1039:Drivers/STM32L4xx_HAL_Driver/Src/stm32l4xx_ll_usb.c ****   return ret;
1040:Drivers/STM32L4xx_HAL_Driver/Src/stm32l4xx_ll_usb.c **** }
1041:Drivers/STM32L4xx_HAL_Driver/Src/stm32l4xx_ll_usb.c **** 
1042:Drivers/STM32L4xx_HAL_Driver/Src/stm32l4xx_ll_usb.c **** /**
1043:Drivers/STM32L4xx_HAL_Driver/Src/stm32l4xx_ll_usb.c ****   * @brief  USB_SetDevAddress : Stop the usb device mode
1044:Drivers/STM32L4xx_HAL_Driver/Src/stm32l4xx_ll_usb.c ****   * @param  USBx  Selected device
1045:Drivers/STM32L4xx_HAL_Driver/Src/stm32l4xx_ll_usb.c ****   * @param  address  new device address to be assigned
1046:Drivers/STM32L4xx_HAL_Driver/Src/stm32l4xx_ll_usb.c ****   *          This parameter can be a value from 0 to 255
1047:Drivers/STM32L4xx_HAL_Driver/Src/stm32l4xx_ll_usb.c ****   * @retval HAL status
1048:Drivers/STM32L4xx_HAL_Driver/Src/stm32l4xx_ll_usb.c ****   */
1049:Drivers/STM32L4xx_HAL_Driver/Src/stm32l4xx_ll_usb.c **** HAL_StatusTypeDef USB_SetDevAddress(USB_OTG_GlobalTypeDef *USBx, uint8_t address)
1050:Drivers/STM32L4xx_HAL_Driver/Src/stm32l4xx_ll_usb.c **** {
1051:Drivers/STM32L4xx_HAL_Driver/Src/stm32l4xx_ll_usb.c ****   uint32_t USBx_BASE = (uint32_t)USBx;
1052:Drivers/STM32L4xx_HAL_Driver/Src/stm32l4xx_ll_usb.c **** 
1053:Drivers/STM32L4xx_HAL_Driver/Src/stm32l4xx_ll_usb.c ****   USBx_DEVICE->DCFG &= ~(USB_OTG_DCFG_DAD);
1054:Drivers/STM32L4xx_HAL_Driver/Src/stm32l4xx_ll_usb.c ****   USBx_DEVICE->DCFG |= ((uint32_t)address << 4) & USB_OTG_DCFG_DAD;
1055:Drivers/STM32L4xx_HAL_Driver/Src/stm32l4xx_ll_usb.c **** 
1056:Drivers/STM32L4xx_HAL_Driver/Src/stm32l4xx_ll_usb.c ****   return HAL_OK;
ARM GAS  C:\Users\gigig\AppData\Local\Temp\ccWnrG0a.s 			page 20


1057:Drivers/STM32L4xx_HAL_Driver/Src/stm32l4xx_ll_usb.c **** }
1058:Drivers/STM32L4xx_HAL_Driver/Src/stm32l4xx_ll_usb.c **** 
1059:Drivers/STM32L4xx_HAL_Driver/Src/stm32l4xx_ll_usb.c **** /**
1060:Drivers/STM32L4xx_HAL_Driver/Src/stm32l4xx_ll_usb.c ****   * @brief  USB_DevConnect : Connect the USB device by enabling Rpu
1061:Drivers/STM32L4xx_HAL_Driver/Src/stm32l4xx_ll_usb.c ****   * @param  USBx  Selected device
1062:Drivers/STM32L4xx_HAL_Driver/Src/stm32l4xx_ll_usb.c ****   * @retval HAL status
1063:Drivers/STM32L4xx_HAL_Driver/Src/stm32l4xx_ll_usb.c ****   */
1064:Drivers/STM32L4xx_HAL_Driver/Src/stm32l4xx_ll_usb.c **** HAL_StatusTypeDef USB_DevConnect(USB_OTG_GlobalTypeDef *USBx)
1065:Drivers/STM32L4xx_HAL_Driver/Src/stm32l4xx_ll_usb.c **** {
1066:Drivers/STM32L4xx_HAL_Driver/Src/stm32l4xx_ll_usb.c ****   uint32_t USBx_BASE = (uint32_t)USBx;
1067:Drivers/STM32L4xx_HAL_Driver/Src/stm32l4xx_ll_usb.c **** 
1068:Drivers/STM32L4xx_HAL_Driver/Src/stm32l4xx_ll_usb.c ****   /* In case phy is stopped, ensure to ungate and restore the phy CLK */
1069:Drivers/STM32L4xx_HAL_Driver/Src/stm32l4xx_ll_usb.c ****   USBx_PCGCCTL &= ~(USB_OTG_PCGCCTL_STOPCLK | USB_OTG_PCGCCTL_GATECLK);
1070:Drivers/STM32L4xx_HAL_Driver/Src/stm32l4xx_ll_usb.c **** 
1071:Drivers/STM32L4xx_HAL_Driver/Src/stm32l4xx_ll_usb.c ****   USBx_DEVICE->DCTL &= ~USB_OTG_DCTL_SDIS;
1072:Drivers/STM32L4xx_HAL_Driver/Src/stm32l4xx_ll_usb.c **** 
1073:Drivers/STM32L4xx_HAL_Driver/Src/stm32l4xx_ll_usb.c ****   return HAL_OK;
1074:Drivers/STM32L4xx_HAL_Driver/Src/stm32l4xx_ll_usb.c **** }
1075:Drivers/STM32L4xx_HAL_Driver/Src/stm32l4xx_ll_usb.c **** 
1076:Drivers/STM32L4xx_HAL_Driver/Src/stm32l4xx_ll_usb.c **** /**
1077:Drivers/STM32L4xx_HAL_Driver/Src/stm32l4xx_ll_usb.c ****   * @brief  USB_DevDisconnect : Disconnect the USB device by disabling Rpu
1078:Drivers/STM32L4xx_HAL_Driver/Src/stm32l4xx_ll_usb.c ****   * @param  USBx  Selected device
1079:Drivers/STM32L4xx_HAL_Driver/Src/stm32l4xx_ll_usb.c ****   * @retval HAL status
1080:Drivers/STM32L4xx_HAL_Driver/Src/stm32l4xx_ll_usb.c ****   */
1081:Drivers/STM32L4xx_HAL_Driver/Src/stm32l4xx_ll_usb.c **** HAL_StatusTypeDef USB_DevDisconnect(USB_OTG_GlobalTypeDef *USBx)
1082:Drivers/STM32L4xx_HAL_Driver/Src/stm32l4xx_ll_usb.c **** {
1083:Drivers/STM32L4xx_HAL_Driver/Src/stm32l4xx_ll_usb.c ****   uint32_t USBx_BASE = (uint32_t)USBx;
1084:Drivers/STM32L4xx_HAL_Driver/Src/stm32l4xx_ll_usb.c **** 
1085:Drivers/STM32L4xx_HAL_Driver/Src/stm32l4xx_ll_usb.c ****   /* In case phy is stopped, ensure to ungate and restore the phy CLK */
1086:Drivers/STM32L4xx_HAL_Driver/Src/stm32l4xx_ll_usb.c ****   USBx_PCGCCTL &= ~(USB_OTG_PCGCCTL_STOPCLK | USB_OTG_PCGCCTL_GATECLK);
1087:Drivers/STM32L4xx_HAL_Driver/Src/stm32l4xx_ll_usb.c **** 
1088:Drivers/STM32L4xx_HAL_Driver/Src/stm32l4xx_ll_usb.c ****   USBx_DEVICE->DCTL |= USB_OTG_DCTL_SDIS;
1089:Drivers/STM32L4xx_HAL_Driver/Src/stm32l4xx_ll_usb.c **** 
1090:Drivers/STM32L4xx_HAL_Driver/Src/stm32l4xx_ll_usb.c ****   return HAL_OK;
1091:Drivers/STM32L4xx_HAL_Driver/Src/stm32l4xx_ll_usb.c **** }
1092:Drivers/STM32L4xx_HAL_Driver/Src/stm32l4xx_ll_usb.c **** 
1093:Drivers/STM32L4xx_HAL_Driver/Src/stm32l4xx_ll_usb.c **** /**
1094:Drivers/STM32L4xx_HAL_Driver/Src/stm32l4xx_ll_usb.c ****   * @brief  USB_ReadInterrupts: return the global USB interrupt status
1095:Drivers/STM32L4xx_HAL_Driver/Src/stm32l4xx_ll_usb.c ****   * @param  USBx  Selected device
1096:Drivers/STM32L4xx_HAL_Driver/Src/stm32l4xx_ll_usb.c ****   * @retval USB Global Interrupt status
1097:Drivers/STM32L4xx_HAL_Driver/Src/stm32l4xx_ll_usb.c ****   */
1098:Drivers/STM32L4xx_HAL_Driver/Src/stm32l4xx_ll_usb.c **** uint32_t USB_ReadInterrupts(USB_OTG_GlobalTypeDef const *USBx)
1099:Drivers/STM32L4xx_HAL_Driver/Src/stm32l4xx_ll_usb.c **** {
1100:Drivers/STM32L4xx_HAL_Driver/Src/stm32l4xx_ll_usb.c ****   uint32_t tmpreg;
1101:Drivers/STM32L4xx_HAL_Driver/Src/stm32l4xx_ll_usb.c **** 
1102:Drivers/STM32L4xx_HAL_Driver/Src/stm32l4xx_ll_usb.c ****   tmpreg = USBx->GINTSTS;
1103:Drivers/STM32L4xx_HAL_Driver/Src/stm32l4xx_ll_usb.c ****   tmpreg &= USBx->GINTMSK;
1104:Drivers/STM32L4xx_HAL_Driver/Src/stm32l4xx_ll_usb.c **** 
1105:Drivers/STM32L4xx_HAL_Driver/Src/stm32l4xx_ll_usb.c ****   return tmpreg;
1106:Drivers/STM32L4xx_HAL_Driver/Src/stm32l4xx_ll_usb.c **** }
1107:Drivers/STM32L4xx_HAL_Driver/Src/stm32l4xx_ll_usb.c **** 
1108:Drivers/STM32L4xx_HAL_Driver/Src/stm32l4xx_ll_usb.c **** /**
1109:Drivers/STM32L4xx_HAL_Driver/Src/stm32l4xx_ll_usb.c ****   * @brief  USB_ReadChInterrupts: return USB channel interrupt status
1110:Drivers/STM32L4xx_HAL_Driver/Src/stm32l4xx_ll_usb.c ****   * @param  USBx  Selected device
1111:Drivers/STM32L4xx_HAL_Driver/Src/stm32l4xx_ll_usb.c ****   * @param  chnum Channel number
1112:Drivers/STM32L4xx_HAL_Driver/Src/stm32l4xx_ll_usb.c ****   * @retval USB Channel Interrupt status
1113:Drivers/STM32L4xx_HAL_Driver/Src/stm32l4xx_ll_usb.c ****   */
ARM GAS  C:\Users\gigig\AppData\Local\Temp\ccWnrG0a.s 			page 21


1114:Drivers/STM32L4xx_HAL_Driver/Src/stm32l4xx_ll_usb.c **** uint32_t USB_ReadChInterrupts(USB_OTG_GlobalTypeDef *USBx, uint8_t chnum)
1115:Drivers/STM32L4xx_HAL_Driver/Src/stm32l4xx_ll_usb.c **** {
1116:Drivers/STM32L4xx_HAL_Driver/Src/stm32l4xx_ll_usb.c ****   uint32_t USBx_BASE = (uint32_t)USBx;
1117:Drivers/STM32L4xx_HAL_Driver/Src/stm32l4xx_ll_usb.c ****   uint32_t tmpreg;
1118:Drivers/STM32L4xx_HAL_Driver/Src/stm32l4xx_ll_usb.c **** 
1119:Drivers/STM32L4xx_HAL_Driver/Src/stm32l4xx_ll_usb.c ****   tmpreg = USBx_HC(chnum)->HCINT;
1120:Drivers/STM32L4xx_HAL_Driver/Src/stm32l4xx_ll_usb.c ****   tmpreg &= USBx_HC(chnum)->HCINTMSK;
1121:Drivers/STM32L4xx_HAL_Driver/Src/stm32l4xx_ll_usb.c **** 
1122:Drivers/STM32L4xx_HAL_Driver/Src/stm32l4xx_ll_usb.c ****   return tmpreg;
1123:Drivers/STM32L4xx_HAL_Driver/Src/stm32l4xx_ll_usb.c **** }
1124:Drivers/STM32L4xx_HAL_Driver/Src/stm32l4xx_ll_usb.c **** 
1125:Drivers/STM32L4xx_HAL_Driver/Src/stm32l4xx_ll_usb.c **** /**
1126:Drivers/STM32L4xx_HAL_Driver/Src/stm32l4xx_ll_usb.c ****   * @brief  USB_ReadDevAllOutEpInterrupt: return the USB device OUT endpoints interrupt status
1127:Drivers/STM32L4xx_HAL_Driver/Src/stm32l4xx_ll_usb.c ****   * @param  USBx  Selected device
1128:Drivers/STM32L4xx_HAL_Driver/Src/stm32l4xx_ll_usb.c ****   * @retval USB Device OUT EP interrupt status
1129:Drivers/STM32L4xx_HAL_Driver/Src/stm32l4xx_ll_usb.c ****   */
1130:Drivers/STM32L4xx_HAL_Driver/Src/stm32l4xx_ll_usb.c **** uint32_t USB_ReadDevAllOutEpInterrupt(USB_OTG_GlobalTypeDef *USBx)
1131:Drivers/STM32L4xx_HAL_Driver/Src/stm32l4xx_ll_usb.c **** {
1132:Drivers/STM32L4xx_HAL_Driver/Src/stm32l4xx_ll_usb.c ****   uint32_t USBx_BASE = (uint32_t)USBx;
1133:Drivers/STM32L4xx_HAL_Driver/Src/stm32l4xx_ll_usb.c ****   uint32_t tmpreg;
1134:Drivers/STM32L4xx_HAL_Driver/Src/stm32l4xx_ll_usb.c **** 
1135:Drivers/STM32L4xx_HAL_Driver/Src/stm32l4xx_ll_usb.c ****   tmpreg  = USBx_DEVICE->DAINT;
1136:Drivers/STM32L4xx_HAL_Driver/Src/stm32l4xx_ll_usb.c ****   tmpreg &= USBx_DEVICE->DAINTMSK;
1137:Drivers/STM32L4xx_HAL_Driver/Src/stm32l4xx_ll_usb.c **** 
1138:Drivers/STM32L4xx_HAL_Driver/Src/stm32l4xx_ll_usb.c ****   return ((tmpreg & 0xffff0000U) >> 16);
1139:Drivers/STM32L4xx_HAL_Driver/Src/stm32l4xx_ll_usb.c **** }
1140:Drivers/STM32L4xx_HAL_Driver/Src/stm32l4xx_ll_usb.c **** 
1141:Drivers/STM32L4xx_HAL_Driver/Src/stm32l4xx_ll_usb.c **** /**
1142:Drivers/STM32L4xx_HAL_Driver/Src/stm32l4xx_ll_usb.c ****   * @brief  USB_ReadDevAllInEpInterrupt: return the USB device IN endpoints interrupt status
1143:Drivers/STM32L4xx_HAL_Driver/Src/stm32l4xx_ll_usb.c ****   * @param  USBx  Selected device
1144:Drivers/STM32L4xx_HAL_Driver/Src/stm32l4xx_ll_usb.c ****   * @retval USB Device IN EP interrupt status
1145:Drivers/STM32L4xx_HAL_Driver/Src/stm32l4xx_ll_usb.c ****   */
1146:Drivers/STM32L4xx_HAL_Driver/Src/stm32l4xx_ll_usb.c **** uint32_t USB_ReadDevAllInEpInterrupt(USB_OTG_GlobalTypeDef *USBx)
1147:Drivers/STM32L4xx_HAL_Driver/Src/stm32l4xx_ll_usb.c **** {
1148:Drivers/STM32L4xx_HAL_Driver/Src/stm32l4xx_ll_usb.c ****   uint32_t USBx_BASE = (uint32_t)USBx;
1149:Drivers/STM32L4xx_HAL_Driver/Src/stm32l4xx_ll_usb.c ****   uint32_t tmpreg;
1150:Drivers/STM32L4xx_HAL_Driver/Src/stm32l4xx_ll_usb.c **** 
1151:Drivers/STM32L4xx_HAL_Driver/Src/stm32l4xx_ll_usb.c ****   tmpreg  = USBx_DEVICE->DAINT;
1152:Drivers/STM32L4xx_HAL_Driver/Src/stm32l4xx_ll_usb.c ****   tmpreg &= USBx_DEVICE->DAINTMSK;
1153:Drivers/STM32L4xx_HAL_Driver/Src/stm32l4xx_ll_usb.c **** 
1154:Drivers/STM32L4xx_HAL_Driver/Src/stm32l4xx_ll_usb.c ****   return ((tmpreg & 0xFFFFU));
1155:Drivers/STM32L4xx_HAL_Driver/Src/stm32l4xx_ll_usb.c **** }
1156:Drivers/STM32L4xx_HAL_Driver/Src/stm32l4xx_ll_usb.c **** 
1157:Drivers/STM32L4xx_HAL_Driver/Src/stm32l4xx_ll_usb.c **** /**
1158:Drivers/STM32L4xx_HAL_Driver/Src/stm32l4xx_ll_usb.c ****   * @brief  Returns Device OUT EP Interrupt register
1159:Drivers/STM32L4xx_HAL_Driver/Src/stm32l4xx_ll_usb.c ****   * @param  USBx  Selected device
1160:Drivers/STM32L4xx_HAL_Driver/Src/stm32l4xx_ll_usb.c ****   * @param  epnum  endpoint number
1161:Drivers/STM32L4xx_HAL_Driver/Src/stm32l4xx_ll_usb.c ****   *          This parameter can be a value from 0 to 15
1162:Drivers/STM32L4xx_HAL_Driver/Src/stm32l4xx_ll_usb.c ****   * @retval Device OUT EP Interrupt register
1163:Drivers/STM32L4xx_HAL_Driver/Src/stm32l4xx_ll_usb.c ****   */
1164:Drivers/STM32L4xx_HAL_Driver/Src/stm32l4xx_ll_usb.c **** uint32_t USB_ReadDevOutEPInterrupt(USB_OTG_GlobalTypeDef *USBx, uint8_t epnum)
1165:Drivers/STM32L4xx_HAL_Driver/Src/stm32l4xx_ll_usb.c **** {
1166:Drivers/STM32L4xx_HAL_Driver/Src/stm32l4xx_ll_usb.c ****   uint32_t USBx_BASE = (uint32_t)USBx;
1167:Drivers/STM32L4xx_HAL_Driver/Src/stm32l4xx_ll_usb.c ****   uint32_t tmpreg;
1168:Drivers/STM32L4xx_HAL_Driver/Src/stm32l4xx_ll_usb.c **** 
1169:Drivers/STM32L4xx_HAL_Driver/Src/stm32l4xx_ll_usb.c ****   tmpreg  = USBx_OUTEP((uint32_t)epnum)->DOEPINT;
1170:Drivers/STM32L4xx_HAL_Driver/Src/stm32l4xx_ll_usb.c ****   tmpreg &= USBx_DEVICE->DOEPMSK;
ARM GAS  C:\Users\gigig\AppData\Local\Temp\ccWnrG0a.s 			page 22


1171:Drivers/STM32L4xx_HAL_Driver/Src/stm32l4xx_ll_usb.c **** 
1172:Drivers/STM32L4xx_HAL_Driver/Src/stm32l4xx_ll_usb.c ****   return tmpreg;
1173:Drivers/STM32L4xx_HAL_Driver/Src/stm32l4xx_ll_usb.c **** }
1174:Drivers/STM32L4xx_HAL_Driver/Src/stm32l4xx_ll_usb.c **** 
1175:Drivers/STM32L4xx_HAL_Driver/Src/stm32l4xx_ll_usb.c **** /**
1176:Drivers/STM32L4xx_HAL_Driver/Src/stm32l4xx_ll_usb.c ****   * @brief  Returns Device IN EP Interrupt register
1177:Drivers/STM32L4xx_HAL_Driver/Src/stm32l4xx_ll_usb.c ****   * @param  USBx  Selected device
1178:Drivers/STM32L4xx_HAL_Driver/Src/stm32l4xx_ll_usb.c ****   * @param  epnum  endpoint number
1179:Drivers/STM32L4xx_HAL_Driver/Src/stm32l4xx_ll_usb.c ****   *          This parameter can be a value from 0 to 15
1180:Drivers/STM32L4xx_HAL_Driver/Src/stm32l4xx_ll_usb.c ****   * @retval Device IN EP Interrupt register
1181:Drivers/STM32L4xx_HAL_Driver/Src/stm32l4xx_ll_usb.c ****   */
1182:Drivers/STM32L4xx_HAL_Driver/Src/stm32l4xx_ll_usb.c **** uint32_t USB_ReadDevInEPInterrupt(USB_OTG_GlobalTypeDef *USBx, uint8_t epnum)
1183:Drivers/STM32L4xx_HAL_Driver/Src/stm32l4xx_ll_usb.c **** {
1184:Drivers/STM32L4xx_HAL_Driver/Src/stm32l4xx_ll_usb.c ****   uint32_t USBx_BASE = (uint32_t)USBx;
1185:Drivers/STM32L4xx_HAL_Driver/Src/stm32l4xx_ll_usb.c ****   uint32_t tmpreg;
1186:Drivers/STM32L4xx_HAL_Driver/Src/stm32l4xx_ll_usb.c ****   uint32_t msk;
1187:Drivers/STM32L4xx_HAL_Driver/Src/stm32l4xx_ll_usb.c ****   uint32_t emp;
1188:Drivers/STM32L4xx_HAL_Driver/Src/stm32l4xx_ll_usb.c **** 
1189:Drivers/STM32L4xx_HAL_Driver/Src/stm32l4xx_ll_usb.c ****   msk = USBx_DEVICE->DIEPMSK;
1190:Drivers/STM32L4xx_HAL_Driver/Src/stm32l4xx_ll_usb.c ****   emp = USBx_DEVICE->DIEPEMPMSK;
1191:Drivers/STM32L4xx_HAL_Driver/Src/stm32l4xx_ll_usb.c ****   msk |= ((emp >> (epnum & EP_ADDR_MSK)) & 0x1U) << 7;
1192:Drivers/STM32L4xx_HAL_Driver/Src/stm32l4xx_ll_usb.c ****   tmpreg = USBx_INEP((uint32_t)epnum)->DIEPINT & msk;
1193:Drivers/STM32L4xx_HAL_Driver/Src/stm32l4xx_ll_usb.c **** 
1194:Drivers/STM32L4xx_HAL_Driver/Src/stm32l4xx_ll_usb.c ****   return tmpreg;
1195:Drivers/STM32L4xx_HAL_Driver/Src/stm32l4xx_ll_usb.c **** }
1196:Drivers/STM32L4xx_HAL_Driver/Src/stm32l4xx_ll_usb.c **** 
1197:Drivers/STM32L4xx_HAL_Driver/Src/stm32l4xx_ll_usb.c **** /**
1198:Drivers/STM32L4xx_HAL_Driver/Src/stm32l4xx_ll_usb.c ****   * @brief  USB_ClearInterrupts: clear a USB interrupt
1199:Drivers/STM32L4xx_HAL_Driver/Src/stm32l4xx_ll_usb.c ****   * @param  USBx  Selected device
1200:Drivers/STM32L4xx_HAL_Driver/Src/stm32l4xx_ll_usb.c ****   * @param  interrupt  flag
1201:Drivers/STM32L4xx_HAL_Driver/Src/stm32l4xx_ll_usb.c ****   * @retval None
1202:Drivers/STM32L4xx_HAL_Driver/Src/stm32l4xx_ll_usb.c ****   */
1203:Drivers/STM32L4xx_HAL_Driver/Src/stm32l4xx_ll_usb.c **** void  USB_ClearInterrupts(USB_OTG_GlobalTypeDef *USBx, uint32_t interrupt)
1204:Drivers/STM32L4xx_HAL_Driver/Src/stm32l4xx_ll_usb.c **** {
1205:Drivers/STM32L4xx_HAL_Driver/Src/stm32l4xx_ll_usb.c ****   USBx->GINTSTS &= interrupt;
1206:Drivers/STM32L4xx_HAL_Driver/Src/stm32l4xx_ll_usb.c **** }
1207:Drivers/STM32L4xx_HAL_Driver/Src/stm32l4xx_ll_usb.c **** 
1208:Drivers/STM32L4xx_HAL_Driver/Src/stm32l4xx_ll_usb.c **** /**
1209:Drivers/STM32L4xx_HAL_Driver/Src/stm32l4xx_ll_usb.c ****   * @brief  Returns USB core mode
1210:Drivers/STM32L4xx_HAL_Driver/Src/stm32l4xx_ll_usb.c ****   * @param  USBx  Selected device
1211:Drivers/STM32L4xx_HAL_Driver/Src/stm32l4xx_ll_usb.c ****   * @retval return core mode : Host or Device
1212:Drivers/STM32L4xx_HAL_Driver/Src/stm32l4xx_ll_usb.c ****   *          This parameter can be one of these values:
1213:Drivers/STM32L4xx_HAL_Driver/Src/stm32l4xx_ll_usb.c ****   *           0 : Host
1214:Drivers/STM32L4xx_HAL_Driver/Src/stm32l4xx_ll_usb.c ****   *           1 : Device
1215:Drivers/STM32L4xx_HAL_Driver/Src/stm32l4xx_ll_usb.c ****   */
1216:Drivers/STM32L4xx_HAL_Driver/Src/stm32l4xx_ll_usb.c **** uint32_t USB_GetMode(USB_OTG_GlobalTypeDef *USBx)
1217:Drivers/STM32L4xx_HAL_Driver/Src/stm32l4xx_ll_usb.c **** {
1218:Drivers/STM32L4xx_HAL_Driver/Src/stm32l4xx_ll_usb.c ****   return ((USBx->GINTSTS) & 0x1U);
1219:Drivers/STM32L4xx_HAL_Driver/Src/stm32l4xx_ll_usb.c **** }
1220:Drivers/STM32L4xx_HAL_Driver/Src/stm32l4xx_ll_usb.c **** 
1221:Drivers/STM32L4xx_HAL_Driver/Src/stm32l4xx_ll_usb.c **** /**
1222:Drivers/STM32L4xx_HAL_Driver/Src/stm32l4xx_ll_usb.c ****   * @brief  Activate EP0 for Setup transactions
1223:Drivers/STM32L4xx_HAL_Driver/Src/stm32l4xx_ll_usb.c ****   * @param  USBx  Selected device
1224:Drivers/STM32L4xx_HAL_Driver/Src/stm32l4xx_ll_usb.c ****   * @retval HAL status
1225:Drivers/STM32L4xx_HAL_Driver/Src/stm32l4xx_ll_usb.c ****   */
1226:Drivers/STM32L4xx_HAL_Driver/Src/stm32l4xx_ll_usb.c **** HAL_StatusTypeDef USB_ActivateSetup(USB_OTG_GlobalTypeDef *USBx)
1227:Drivers/STM32L4xx_HAL_Driver/Src/stm32l4xx_ll_usb.c **** {
ARM GAS  C:\Users\gigig\AppData\Local\Temp\ccWnrG0a.s 			page 23


1228:Drivers/STM32L4xx_HAL_Driver/Src/stm32l4xx_ll_usb.c ****   uint32_t USBx_BASE = (uint32_t)USBx;
1229:Drivers/STM32L4xx_HAL_Driver/Src/stm32l4xx_ll_usb.c **** 
1230:Drivers/STM32L4xx_HAL_Driver/Src/stm32l4xx_ll_usb.c ****   /* Set the MPS of the IN EP0 to 64 bytes */
1231:Drivers/STM32L4xx_HAL_Driver/Src/stm32l4xx_ll_usb.c ****   USBx_INEP(0U)->DIEPCTL &= ~USB_OTG_DIEPCTL_MPSIZ;
1232:Drivers/STM32L4xx_HAL_Driver/Src/stm32l4xx_ll_usb.c **** 
1233:Drivers/STM32L4xx_HAL_Driver/Src/stm32l4xx_ll_usb.c ****   USBx_DEVICE->DCTL |= USB_OTG_DCTL_CGINAK;
1234:Drivers/STM32L4xx_HAL_Driver/Src/stm32l4xx_ll_usb.c **** 
1235:Drivers/STM32L4xx_HAL_Driver/Src/stm32l4xx_ll_usb.c ****   return HAL_OK;
1236:Drivers/STM32L4xx_HAL_Driver/Src/stm32l4xx_ll_usb.c **** }
1237:Drivers/STM32L4xx_HAL_Driver/Src/stm32l4xx_ll_usb.c **** 
1238:Drivers/STM32L4xx_HAL_Driver/Src/stm32l4xx_ll_usb.c **** /**
1239:Drivers/STM32L4xx_HAL_Driver/Src/stm32l4xx_ll_usb.c ****   * @brief  Prepare the EP0 to start the first control setup
1240:Drivers/STM32L4xx_HAL_Driver/Src/stm32l4xx_ll_usb.c ****   * @param  USBx  Selected device
1241:Drivers/STM32L4xx_HAL_Driver/Src/stm32l4xx_ll_usb.c ****   * @param  psetup  pointer to setup packet
1242:Drivers/STM32L4xx_HAL_Driver/Src/stm32l4xx_ll_usb.c ****   * @retval HAL status
1243:Drivers/STM32L4xx_HAL_Driver/Src/stm32l4xx_ll_usb.c ****   */
1244:Drivers/STM32L4xx_HAL_Driver/Src/stm32l4xx_ll_usb.c **** HAL_StatusTypeDef USB_EP0_OutStart(USB_OTG_GlobalTypeDef *USBx, uint8_t *psetup)
1245:Drivers/STM32L4xx_HAL_Driver/Src/stm32l4xx_ll_usb.c **** {
1246:Drivers/STM32L4xx_HAL_Driver/Src/stm32l4xx_ll_usb.c ****   uint32_t USBx_BASE = (uint32_t)USBx;
1247:Drivers/STM32L4xx_HAL_Driver/Src/stm32l4xx_ll_usb.c ****   uint32_t gSNPSiD = *(__IO uint32_t *)(&USBx->CID + 0x1U);
1248:Drivers/STM32L4xx_HAL_Driver/Src/stm32l4xx_ll_usb.c ****   UNUSED(psetup);
1249:Drivers/STM32L4xx_HAL_Driver/Src/stm32l4xx_ll_usb.c **** 
1250:Drivers/STM32L4xx_HAL_Driver/Src/stm32l4xx_ll_usb.c ****   if (gSNPSiD > USB_OTG_CORE_ID_300A)
1251:Drivers/STM32L4xx_HAL_Driver/Src/stm32l4xx_ll_usb.c ****   {
1252:Drivers/STM32L4xx_HAL_Driver/Src/stm32l4xx_ll_usb.c ****     if ((USBx_OUTEP(0U)->DOEPCTL & USB_OTG_DOEPCTL_EPENA) == USB_OTG_DOEPCTL_EPENA)
1253:Drivers/STM32L4xx_HAL_Driver/Src/stm32l4xx_ll_usb.c ****     {
1254:Drivers/STM32L4xx_HAL_Driver/Src/stm32l4xx_ll_usb.c ****       return HAL_OK;
1255:Drivers/STM32L4xx_HAL_Driver/Src/stm32l4xx_ll_usb.c ****     }
1256:Drivers/STM32L4xx_HAL_Driver/Src/stm32l4xx_ll_usb.c ****   }
1257:Drivers/STM32L4xx_HAL_Driver/Src/stm32l4xx_ll_usb.c **** 
1258:Drivers/STM32L4xx_HAL_Driver/Src/stm32l4xx_ll_usb.c ****   USBx_OUTEP(0U)->DOEPTSIZ = 0U;
1259:Drivers/STM32L4xx_HAL_Driver/Src/stm32l4xx_ll_usb.c ****   USBx_OUTEP(0U)->DOEPTSIZ |= (USB_OTG_DOEPTSIZ_PKTCNT & (1U << 19));
1260:Drivers/STM32L4xx_HAL_Driver/Src/stm32l4xx_ll_usb.c ****   USBx_OUTEP(0U)->DOEPTSIZ |= (3U * 8U);
1261:Drivers/STM32L4xx_HAL_Driver/Src/stm32l4xx_ll_usb.c ****   USBx_OUTEP(0U)->DOEPTSIZ |=  USB_OTG_DOEPTSIZ_STUPCNT;
1262:Drivers/STM32L4xx_HAL_Driver/Src/stm32l4xx_ll_usb.c **** 
1263:Drivers/STM32L4xx_HAL_Driver/Src/stm32l4xx_ll_usb.c ****   return HAL_OK;
1264:Drivers/STM32L4xx_HAL_Driver/Src/stm32l4xx_ll_usb.c **** }
1265:Drivers/STM32L4xx_HAL_Driver/Src/stm32l4xx_ll_usb.c **** 
1266:Drivers/STM32L4xx_HAL_Driver/Src/stm32l4xx_ll_usb.c **** /**
1267:Drivers/STM32L4xx_HAL_Driver/Src/stm32l4xx_ll_usb.c ****   * @brief  Reset the USB Core (needed after USB clock settings change)
1268:Drivers/STM32L4xx_HAL_Driver/Src/stm32l4xx_ll_usb.c ****   * @param  USBx  Selected device
1269:Drivers/STM32L4xx_HAL_Driver/Src/stm32l4xx_ll_usb.c ****   * @retval HAL status
1270:Drivers/STM32L4xx_HAL_Driver/Src/stm32l4xx_ll_usb.c ****   */
1271:Drivers/STM32L4xx_HAL_Driver/Src/stm32l4xx_ll_usb.c **** static HAL_StatusTypeDef USB_CoreReset(USB_OTG_GlobalTypeDef *USBx)
1272:Drivers/STM32L4xx_HAL_Driver/Src/stm32l4xx_ll_usb.c **** {
  29              		.loc 1 1272 1 view -0
  30              		.cfi_startproc
  31              		@ args = 0, pretend = 0, frame = 8
  32              		@ frame_needed = 0, uses_anonymous_args = 0
  33              		@ link register save eliminated.
  34              		.loc 1 1272 1 is_stmt 0 view .LVU1
  35 0000 82B0     		sub	sp, sp, #8
  36              		.cfi_def_cfa_offset 8
1273:Drivers/STM32L4xx_HAL_Driver/Src/stm32l4xx_ll_usb.c ****   __IO uint32_t count = 0U;
  37              		.loc 1 1273 3 is_stmt 1 view .LVU2
  38              		.loc 1 1273 17 is_stmt 0 view .LVU3
  39 0002 0023     		movs	r3, #0
ARM GAS  C:\Users\gigig\AppData\Local\Temp\ccWnrG0a.s 			page 24


  40 0004 0193     		str	r3, [sp, #4]
  41              	.L3:
1274:Drivers/STM32L4xx_HAL_Driver/Src/stm32l4xx_ll_usb.c **** 
1275:Drivers/STM32L4xx_HAL_Driver/Src/stm32l4xx_ll_usb.c ****   /* Wait for AHB master IDLE state. */
1276:Drivers/STM32L4xx_HAL_Driver/Src/stm32l4xx_ll_usb.c ****   do
  42              		.loc 1 1276 3 is_stmt 1 view .LVU4
1277:Drivers/STM32L4xx_HAL_Driver/Src/stm32l4xx_ll_usb.c ****   {
1278:Drivers/STM32L4xx_HAL_Driver/Src/stm32l4xx_ll_usb.c ****     count++;
  43              		.loc 1 1278 5 view .LVU5
  44              		.loc 1 1278 10 is_stmt 0 view .LVU6
  45 0006 019B     		ldr	r3, [sp, #4]
  46 0008 0133     		adds	r3, r3, #1
  47 000a 0193     		str	r3, [sp, #4]
1279:Drivers/STM32L4xx_HAL_Driver/Src/stm32l4xx_ll_usb.c **** 
1280:Drivers/STM32L4xx_HAL_Driver/Src/stm32l4xx_ll_usb.c ****     if (count > 200000U)
  48              		.loc 1 1280 5 is_stmt 1 view .LVU7
  49              		.loc 1 1280 15 is_stmt 0 view .LVU8
  50 000c 019A     		ldr	r2, [sp, #4]
  51              		.loc 1 1280 8 view .LVU9
  52 000e 0F4B     		ldr	r3, .L8
  53 0010 9A42     		cmp	r2, r3
  54 0012 15D8     		bhi	.L5
1281:Drivers/STM32L4xx_HAL_Driver/Src/stm32l4xx_ll_usb.c ****     {
1282:Drivers/STM32L4xx_HAL_Driver/Src/stm32l4xx_ll_usb.c ****       return HAL_TIMEOUT;
1283:Drivers/STM32L4xx_HAL_Driver/Src/stm32l4xx_ll_usb.c ****     }
1284:Drivers/STM32L4xx_HAL_Driver/Src/stm32l4xx_ll_usb.c ****   } while ((USBx->GRSTCTL & USB_OTG_GRSTCTL_AHBIDL) == 0U);
  55              		.loc 1 1284 53 is_stmt 1 view .LVU10
  56              		.loc 1 1284 17 is_stmt 0 view .LVU11
  57 0014 0369     		ldr	r3, [r0, #16]
  58              		.loc 1 1284 53 view .LVU12
  59 0016 002B     		cmp	r3, #0
  60 0018 F5DA     		bge	.L3
1285:Drivers/STM32L4xx_HAL_Driver/Src/stm32l4xx_ll_usb.c **** 
1286:Drivers/STM32L4xx_HAL_Driver/Src/stm32l4xx_ll_usb.c ****   /* Core Soft Reset */
1287:Drivers/STM32L4xx_HAL_Driver/Src/stm32l4xx_ll_usb.c ****   count = 0U;
  61              		.loc 1 1287 3 is_stmt 1 view .LVU13
  62              		.loc 1 1287 9 is_stmt 0 view .LVU14
  63 001a 0023     		movs	r3, #0
  64 001c 0193     		str	r3, [sp, #4]
1288:Drivers/STM32L4xx_HAL_Driver/Src/stm32l4xx_ll_usb.c ****   USBx->GRSTCTL |= USB_OTG_GRSTCTL_CSRST;
  65              		.loc 1 1288 3 is_stmt 1 view .LVU15
  66              		.loc 1 1288 7 is_stmt 0 view .LVU16
  67 001e 0369     		ldr	r3, [r0, #16]
  68              		.loc 1 1288 17 view .LVU17
  69 0020 43F00103 		orr	r3, r3, #1
  70 0024 0361     		str	r3, [r0, #16]
  71              	.L4:
1289:Drivers/STM32L4xx_HAL_Driver/Src/stm32l4xx_ll_usb.c **** 
1290:Drivers/STM32L4xx_HAL_Driver/Src/stm32l4xx_ll_usb.c ****   do
  72              		.loc 1 1290 3 is_stmt 1 view .LVU18
1291:Drivers/STM32L4xx_HAL_Driver/Src/stm32l4xx_ll_usb.c ****   {
1292:Drivers/STM32L4xx_HAL_Driver/Src/stm32l4xx_ll_usb.c ****     count++;
  73              		.loc 1 1292 5 view .LVU19
  74              		.loc 1 1292 10 is_stmt 0 view .LVU20
  75 0026 019B     		ldr	r3, [sp, #4]
  76 0028 0133     		adds	r3, r3, #1
  77 002a 0193     		str	r3, [sp, #4]
ARM GAS  C:\Users\gigig\AppData\Local\Temp\ccWnrG0a.s 			page 25


1293:Drivers/STM32L4xx_HAL_Driver/Src/stm32l4xx_ll_usb.c **** 
1294:Drivers/STM32L4xx_HAL_Driver/Src/stm32l4xx_ll_usb.c ****     if (count > 200000U)
  78              		.loc 1 1294 5 is_stmt 1 view .LVU21
  79              		.loc 1 1294 15 is_stmt 0 view .LVU22
  80 002c 019A     		ldr	r2, [sp, #4]
  81              		.loc 1 1294 8 view .LVU23
  82 002e 074B     		ldr	r3, .L8
  83 0030 9A42     		cmp	r2, r3
  84 0032 08D8     		bhi	.L6
1295:Drivers/STM32L4xx_HAL_Driver/Src/stm32l4xx_ll_usb.c ****     {
1296:Drivers/STM32L4xx_HAL_Driver/Src/stm32l4xx_ll_usb.c ****       return HAL_TIMEOUT;
1297:Drivers/STM32L4xx_HAL_Driver/Src/stm32l4xx_ll_usb.c ****     }
1298:Drivers/STM32L4xx_HAL_Driver/Src/stm32l4xx_ll_usb.c ****   } while ((USBx->GRSTCTL & USB_OTG_GRSTCTL_CSRST) == USB_OTG_GRSTCTL_CSRST);
  85              		.loc 1 1298 52 is_stmt 1 view .LVU24
  86              		.loc 1 1298 17 is_stmt 0 view .LVU25
  87 0034 0369     		ldr	r3, [r0, #16]
  88              		.loc 1 1298 52 view .LVU26
  89 0036 13F0010F 		tst	r3, #1
  90 003a F4D1     		bne	.L4
1299:Drivers/STM32L4xx_HAL_Driver/Src/stm32l4xx_ll_usb.c **** 
1300:Drivers/STM32L4xx_HAL_Driver/Src/stm32l4xx_ll_usb.c ****   return HAL_OK;
  91              		.loc 1 1300 10 view .LVU27
  92 003c 0020     		movs	r0, #0
  93              	.LVL1:
  94              		.loc 1 1300 10 view .LVU28
  95 003e 00E0     		b	.L2
  96              	.LVL2:
  97              	.L5:
1282:Drivers/STM32L4xx_HAL_Driver/Src/stm32l4xx_ll_usb.c ****     }
  98              		.loc 1 1282 14 view .LVU29
  99 0040 0320     		movs	r0, #3
 100              	.LVL3:
 101              	.L2:
1301:Drivers/STM32L4xx_HAL_Driver/Src/stm32l4xx_ll_usb.c **** }
 102              		.loc 1 1301 1 view .LVU30
 103 0042 02B0     		add	sp, sp, #8
 104              		.cfi_remember_state
 105              		.cfi_def_cfa_offset 0
 106              		@ sp needed
 107 0044 7047     		bx	lr
 108              	.LVL4:
 109              	.L6:
 110              		.cfi_restore_state
1296:Drivers/STM32L4xx_HAL_Driver/Src/stm32l4xx_ll_usb.c ****     }
 111              		.loc 1 1296 14 view .LVU31
 112 0046 0320     		movs	r0, #3
 113              	.LVL5:
1296:Drivers/STM32L4xx_HAL_Driver/Src/stm32l4xx_ll_usb.c ****     }
 114              		.loc 1 1296 14 view .LVU32
 115 0048 FBE7     		b	.L2
 116              	.L9:
 117 004a 00BF     		.align	2
 118              	.L8:
 119 004c 400D0300 		.word	200000
 120              		.cfi_endproc
 121              	.LFE166:
 123              		.section	.text.USB_CoreInit,"ax",%progbits
ARM GAS  C:\Users\gigig\AppData\Local\Temp\ccWnrG0a.s 			page 26


 124              		.align	1
 125              		.global	USB_CoreInit
 126              		.syntax unified
 127              		.thumb
 128              		.thumb_func
 130              	USB_CoreInit:
 131              	.LVL6:
 132              	.LFB132:
  84:Drivers/STM32L4xx_HAL_Driver/Src/stm32l4xx_ll_usb.c ****   HAL_StatusTypeDef ret;
 133              		.loc 1 84 1 is_stmt 1 view -0
 134              		.cfi_startproc
 135              		@ args = 56, pretend = 16, frame = 0
 136              		@ frame_needed = 0, uses_anonymous_args = 0
  84:Drivers/STM32L4xx_HAL_Driver/Src/stm32l4xx_ll_usb.c ****   HAL_StatusTypeDef ret;
 137              		.loc 1 84 1 is_stmt 0 view .LVU34
 138 0000 84B0     		sub	sp, sp, #16
 139              		.cfi_def_cfa_offset 16
 140 0002 10B5     		push	{r4, lr}
 141              		.cfi_def_cfa_offset 24
 142              		.cfi_offset 4, -24
 143              		.cfi_offset 14, -20
 144 0004 0446     		mov	r4, r0
 145 0006 0DF10C0C 		add	ip, sp, #12
 146 000a 8CE80E00 		stm	ip, {r1, r2, r3}
  85:Drivers/STM32L4xx_HAL_Driver/Src/stm32l4xx_ll_usb.c **** 
 147              		.loc 1 85 3 is_stmt 1 view .LVU35
  88:Drivers/STM32L4xx_HAL_Driver/Src/stm32l4xx_ll_usb.c **** 
 148              		.loc 1 88 3 view .LVU36
  88:Drivers/STM32L4xx_HAL_Driver/Src/stm32l4xx_ll_usb.c **** 
 149              		.loc 1 88 7 is_stmt 0 view .LVU37
 150 000e C368     		ldr	r3, [r0, #12]
  88:Drivers/STM32L4xx_HAL_Driver/Src/stm32l4xx_ll_usb.c **** 
 151              		.loc 1 88 17 view .LVU38
 152 0010 43F04003 		orr	r3, r3, #64
 153 0014 C360     		str	r3, [r0, #12]
  91:Drivers/STM32L4xx_HAL_Driver/Src/stm32l4xx_ll_usb.c **** 
 154              		.loc 1 91 3 is_stmt 1 view .LVU39
  91:Drivers/STM32L4xx_HAL_Driver/Src/stm32l4xx_ll_usb.c **** 
 155              		.loc 1 91 9 is_stmt 0 view .LVU40
 156 0016 FFF7FEFF 		bl	USB_CoreReset
 157              	.LVL7:
  93:Drivers/STM32L4xx_HAL_Driver/Src/stm32l4xx_ll_usb.c ****   {
 158              		.loc 1 93 3 is_stmt 1 view .LVU41
  93:Drivers/STM32L4xx_HAL_Driver/Src/stm32l4xx_ll_usb.c ****   {
 159              		.loc 1 93 10 is_stmt 0 view .LVU42
 160 001a 0C9B     		ldr	r3, [sp, #48]
  93:Drivers/STM32L4xx_HAL_Driver/Src/stm32l4xx_ll_usb.c ****   {
 161              		.loc 1 93 6 view .LVU43
 162 001c 3BB9     		cbnz	r3, .L11
  96:Drivers/STM32L4xx_HAL_Driver/Src/stm32l4xx_ll_usb.c ****   }
 163              		.loc 1 96 5 is_stmt 1 view .LVU44
  96:Drivers/STM32L4xx_HAL_Driver/Src/stm32l4xx_ll_usb.c ****   }
 164              		.loc 1 96 9 is_stmt 0 view .LVU45
 165 001e A36B     		ldr	r3, [r4, #56]
  96:Drivers/STM32L4xx_HAL_Driver/Src/stm32l4xx_ll_usb.c ****   }
 166              		.loc 1 96 17 view .LVU46
 167 0020 43F48033 		orr	r3, r3, #65536
ARM GAS  C:\Users\gigig\AppData\Local\Temp\ccWnrG0a.s 			page 27


 168 0024 A363     		str	r3, [r4, #56]
 169              	.L12:
 104:Drivers/STM32L4xx_HAL_Driver/Src/stm32l4xx_ll_usb.c **** }
 170              		.loc 1 104 3 is_stmt 1 view .LVU47
 105:Drivers/STM32L4xx_HAL_Driver/Src/stm32l4xx_ll_usb.c **** 
 171              		.loc 1 105 1 is_stmt 0 view .LVU48
 172 0026 BDE81040 		pop	{r4, lr}
 173              		.cfi_remember_state
 174              		.cfi_restore 14
 175              		.cfi_restore 4
 176              		.cfi_def_cfa_offset 16
 177              	.LVL8:
 105:Drivers/STM32L4xx_HAL_Driver/Src/stm32l4xx_ll_usb.c **** 
 178              		.loc 1 105 1 view .LVU49
 179 002a 04B0     		add	sp, sp, #16
 180              		.cfi_def_cfa_offset 0
 181 002c 7047     		bx	lr
 182              	.LVL9:
 183              	.L11:
 184              		.cfi_restore_state
 101:Drivers/STM32L4xx_HAL_Driver/Src/stm32l4xx_ll_usb.c ****   }
 185              		.loc 1 101 5 is_stmt 1 view .LVU50
 101:Drivers/STM32L4xx_HAL_Driver/Src/stm32l4xx_ll_usb.c ****   }
 186              		.loc 1 101 9 is_stmt 0 view .LVU51
 187 002e A36B     		ldr	r3, [r4, #56]
 101:Drivers/STM32L4xx_HAL_Driver/Src/stm32l4xx_ll_usb.c ****   }
 188              		.loc 1 101 17 view .LVU52
 189 0030 23F48033 		bic	r3, r3, #65536
 190 0034 A363     		str	r3, [r4, #56]
 191 0036 F6E7     		b	.L12
 192              		.cfi_endproc
 193              	.LFE132:
 195              		.section	.text.USB_SetTurnaroundTime,"ax",%progbits
 196              		.align	1
 197              		.global	USB_SetTurnaroundTime
 198              		.syntax unified
 199              		.thumb
 200              		.thumb_func
 202              	USB_SetTurnaroundTime:
 203              	.LVL10:
 204              	.LFB133:
 116:Drivers/STM32L4xx_HAL_Driver/Src/stm32l4xx_ll_usb.c ****   uint32_t UsbTrd;
 205              		.loc 1 116 1 is_stmt 1 view -0
 206              		.cfi_startproc
 207              		@ args = 0, pretend = 0, frame = 0
 208              		@ frame_needed = 0, uses_anonymous_args = 0
 209              		@ link register save eliminated.
 117:Drivers/STM32L4xx_HAL_Driver/Src/stm32l4xx_ll_usb.c **** 
 210              		.loc 1 117 3 view .LVU54
 123:Drivers/STM32L4xx_HAL_Driver/Src/stm32l4xx_ll_usb.c ****   {
 211              		.loc 1 123 3 view .LVU55
 123:Drivers/STM32L4xx_HAL_Driver/Src/stm32l4xx_ll_usb.c ****   {
 212              		.loc 1 123 6 is_stmt 0 view .LVU56
 213 0000 022A     		cmp	r2, #2
 214 0002 0AD0     		beq	.L26
 178:Drivers/STM32L4xx_HAL_Driver/Src/stm32l4xx_ll_usb.c ****   }
 215              		.loc 1 178 12 view .LVU57
ARM GAS  C:\Users\gigig\AppData\Local\Temp\ccWnrG0a.s 			page 28


 216 0004 0922     		movs	r2, #9
 217              	.LVL11:
 218              	.L15:
 181:Drivers/STM32L4xx_HAL_Driver/Src/stm32l4xx_ll_usb.c ****   USBx->GUSBCFG |= (uint32_t)((UsbTrd << 10) & USB_OTG_GUSBCFG_TRDT);
 219              		.loc 1 181 3 is_stmt 1 view .LVU58
 181:Drivers/STM32L4xx_HAL_Driver/Src/stm32l4xx_ll_usb.c ****   USBx->GUSBCFG |= (uint32_t)((UsbTrd << 10) & USB_OTG_GUSBCFG_TRDT);
 220              		.loc 1 181 7 is_stmt 0 view .LVU59
 221 0006 C368     		ldr	r3, [r0, #12]
 181:Drivers/STM32L4xx_HAL_Driver/Src/stm32l4xx_ll_usb.c ****   USBx->GUSBCFG |= (uint32_t)((UsbTrd << 10) & USB_OTG_GUSBCFG_TRDT);
 222              		.loc 1 181 17 view .LVU60
 223 0008 23F47053 		bic	r3, r3, #15360
 224 000c C360     		str	r3, [r0, #12]
 182:Drivers/STM32L4xx_HAL_Driver/Src/stm32l4xx_ll_usb.c **** 
 225              		.loc 1 182 3 is_stmt 1 view .LVU61
 182:Drivers/STM32L4xx_HAL_Driver/Src/stm32l4xx_ll_usb.c **** 
 226              		.loc 1 182 7 is_stmt 0 view .LVU62
 227 000e C368     		ldr	r3, [r0, #12]
 182:Drivers/STM32L4xx_HAL_Driver/Src/stm32l4xx_ll_usb.c **** 
 228              		.loc 1 182 17 view .LVU63
 229 0010 43EA8223 		orr	r3, r3, r2, lsl #10
 230 0014 C360     		str	r3, [r0, #12]
 184:Drivers/STM32L4xx_HAL_Driver/Src/stm32l4xx_ll_usb.c **** }
 231              		.loc 1 184 3 is_stmt 1 view .LVU64
 185:Drivers/STM32L4xx_HAL_Driver/Src/stm32l4xx_ll_usb.c **** 
 232              		.loc 1 185 1 is_stmt 0 view .LVU65
 233 0016 0020     		movs	r0, #0
 234              	.LVL12:
 185:Drivers/STM32L4xx_HAL_Driver/Src/stm32l4xx_ll_usb.c **** 
 235              		.loc 1 185 1 view .LVU66
 236 0018 7047     		bx	lr
 237              	.LVL13:
 238              	.L26:
 125:Drivers/STM32L4xx_HAL_Driver/Src/stm32l4xx_ll_usb.c ****     {
 239              		.loc 1 125 5 is_stmt 1 view .LVU67
 125:Drivers/STM32L4xx_HAL_Driver/Src/stm32l4xx_ll_usb.c ****     {
 240              		.loc 1 125 29 is_stmt 0 view .LVU68
 241 001a 234B     		ldr	r3, .L27
 242 001c 0B44     		add	r3, r3, r1
 125:Drivers/STM32L4xx_HAL_Driver/Src/stm32l4xx_ll_usb.c ****     {
 243              		.loc 1 125 8 view .LVU69
 244 001e 234A     		ldr	r2, .L27+4
 245              	.LVL14:
 125:Drivers/STM32L4xx_HAL_Driver/Src/stm32l4xx_ll_usb.c ****     {
 246              		.loc 1 125 8 view .LVU70
 247 0020 9342     		cmp	r3, r2
 248 0022 2FD9     		bls	.L17
 130:Drivers/STM32L4xx_HAL_Driver/Src/stm32l4xx_ll_usb.c ****     {
 249              		.loc 1 130 10 is_stmt 1 view .LVU71
 130:Drivers/STM32L4xx_HAL_Driver/Src/stm32l4xx_ll_usb.c ****     {
 250              		.loc 1 130 34 is_stmt 0 view .LVU72
 251 0024 224B     		ldr	r3, .L27+8
 252 0026 0B44     		add	r3, r3, r1
 130:Drivers/STM32L4xx_HAL_Driver/Src/stm32l4xx_ll_usb.c ****     {
 253              		.loc 1 130 13 view .LVU73
 254 0028 224A     		ldr	r2, .L27+12
 255 002a 9342     		cmp	r3, r2
 256 002c 2CD9     		bls	.L18
ARM GAS  C:\Users\gigig\AppData\Local\Temp\ccWnrG0a.s 			page 29


 135:Drivers/STM32L4xx_HAL_Driver/Src/stm32l4xx_ll_usb.c ****     {
 257              		.loc 1 135 10 is_stmt 1 view .LVU74
 135:Drivers/STM32L4xx_HAL_Driver/Src/stm32l4xx_ll_usb.c ****     {
 258              		.loc 1 135 34 is_stmt 0 view .LVU75
 259 002e A1F57403 		sub	r3, r1, #15990784
 260 0032 A3F51053 		sub	r3, r3, #9216
 135:Drivers/STM32L4xx_HAL_Driver/Src/stm32l4xx_ll_usb.c ****     {
 261              		.loc 1 135 13 view .LVU76
 262 0036 204A     		ldr	r2, .L27+16
 263 0038 9342     		cmp	r3, r2
 264 003a 27D9     		bls	.L19
 140:Drivers/STM32L4xx_HAL_Driver/Src/stm32l4xx_ll_usb.c ****     {
 265              		.loc 1 140 10 is_stmt 1 view .LVU77
 140:Drivers/STM32L4xx_HAL_Driver/Src/stm32l4xx_ll_usb.c ****     {
 266              		.loc 1 140 34 is_stmt 0 view .LVU78
 267 003c A1F18373 		sub	r3, r1, #17170432
 268 0040 A3F5E743 		sub	r3, r3, #29568
 140:Drivers/STM32L4xx_HAL_Driver/Src/stm32l4xx_ll_usb.c ****     {
 269              		.loc 1 140 13 view .LVU79
 270 0044 1D4A     		ldr	r2, .L27+20
 271 0046 9342     		cmp	r3, r2
 272 0048 22D3     		bcc	.L20
 145:Drivers/STM32L4xx_HAL_Driver/Src/stm32l4xx_ll_usb.c ****     {
 273              		.loc 1 145 10 is_stmt 1 view .LVU80
 145:Drivers/STM32L4xx_HAL_Driver/Src/stm32l4xx_ll_usb.c ****     {
 274              		.loc 1 145 34 is_stmt 0 view .LVU81
 275 004a 1D4B     		ldr	r3, .L27+24
 276 004c 0B44     		add	r3, r3, r1
 145:Drivers/STM32L4xx_HAL_Driver/Src/stm32l4xx_ll_usb.c ****     {
 277              		.loc 1 145 13 view .LVU82
 278 004e 1D4A     		ldr	r2, .L27+28
 279 0050 9342     		cmp	r3, r2
 280 0052 1FD9     		bls	.L21
 150:Drivers/STM32L4xx_HAL_Driver/Src/stm32l4xx_ll_usb.c ****     {
 281              		.loc 1 150 10 is_stmt 1 view .LVU83
 150:Drivers/STM32L4xx_HAL_Driver/Src/stm32l4xx_ll_usb.c ****     {
 282              		.loc 1 150 34 is_stmt 0 view .LVU84
 283 0054 1C4B     		ldr	r3, .L27+32
 284 0056 0B44     		add	r3, r3, r1
 150:Drivers/STM32L4xx_HAL_Driver/Src/stm32l4xx_ll_usb.c ****     {
 285              		.loc 1 150 13 view .LVU85
 286 0058 1C4A     		ldr	r2, .L27+36
 287 005a 9342     		cmp	r3, r2
 288 005c 1CD3     		bcc	.L22
 155:Drivers/STM32L4xx_HAL_Driver/Src/stm32l4xx_ll_usb.c ****     {
 289              		.loc 1 155 10 is_stmt 1 view .LVU86
 155:Drivers/STM32L4xx_HAL_Driver/Src/stm32l4xx_ll_usb.c ****     {
 290              		.loc 1 155 34 is_stmt 0 view .LVU87
 291 005e 1C4B     		ldr	r3, .L27+40
 292 0060 0B44     		add	r3, r3, r1
 155:Drivers/STM32L4xx_HAL_Driver/Src/stm32l4xx_ll_usb.c ****     {
 293              		.loc 1 155 13 view .LVU88
 294 0062 1C4A     		ldr	r2, .L27+44
 295 0064 9342     		cmp	r3, r2
 296 0066 19D3     		bcc	.L23
 160:Drivers/STM32L4xx_HAL_Driver/Src/stm32l4xx_ll_usb.c ****     {
 297              		.loc 1 160 10 is_stmt 1 view .LVU89
ARM GAS  C:\Users\gigig\AppData\Local\Temp\ccWnrG0a.s 			page 30


 160:Drivers/STM32L4xx_HAL_Driver/Src/stm32l4xx_ll_usb.c ****     {
 298              		.loc 1 160 34 is_stmt 0 view .LVU90
 299 0068 A1F1B773 		sub	r3, r1, #23986176
 300 006c A3F55853 		sub	r3, r3, #13824
 160:Drivers/STM32L4xx_HAL_Driver/Src/stm32l4xx_ll_usb.c ****     {
 301              		.loc 1 160 13 view .LVU91
 302 0070 194A     		ldr	r2, .L27+48
 303 0072 9342     		cmp	r3, r2
 304 0074 14D3     		bcc	.L24
 165:Drivers/STM32L4xx_HAL_Driver/Src/stm32l4xx_ll_usb.c ****     {
 305              		.loc 1 165 10 is_stmt 1 view .LVU92
 165:Drivers/STM32L4xx_HAL_Driver/Src/stm32l4xx_ll_usb.c ****     {
 306              		.loc 1 165 34 is_stmt 0 view .LVU93
 307 0076 194B     		ldr	r3, .L27+52
 308 0078 0B44     		add	r3, r3, r1
 165:Drivers/STM32L4xx_HAL_Driver/Src/stm32l4xx_ll_usb.c ****     {
 309              		.loc 1 165 13 view .LVU94
 310 007a 194A     		ldr	r2, .L27+56
 311 007c 9342     		cmp	r3, r2
 312 007e 11D2     		bcs	.L25
 168:Drivers/STM32L4xx_HAL_Driver/Src/stm32l4xx_ll_usb.c ****     }
 313              		.loc 1 168 14 view .LVU95
 314 0080 0722     		movs	r2, #7
 315 0082 C0E7     		b	.L15
 316              	.L17:
 128:Drivers/STM32L4xx_HAL_Driver/Src/stm32l4xx_ll_usb.c ****     }
 317              		.loc 1 128 14 view .LVU96
 318 0084 0F22     		movs	r2, #15
 319 0086 BEE7     		b	.L15
 320              	.L18:
 133:Drivers/STM32L4xx_HAL_Driver/Src/stm32l4xx_ll_usb.c ****     }
 321              		.loc 1 133 14 view .LVU97
 322 0088 0E22     		movs	r2, #14
 323 008a BCE7     		b	.L15
 324              	.L19:
 138:Drivers/STM32L4xx_HAL_Driver/Src/stm32l4xx_ll_usb.c ****     }
 325              		.loc 1 138 14 view .LVU98
 326 008c 0D22     		movs	r2, #13
 327 008e BAE7     		b	.L15
 328              	.L20:
 143:Drivers/STM32L4xx_HAL_Driver/Src/stm32l4xx_ll_usb.c ****     }
 329              		.loc 1 143 14 view .LVU99
 330 0090 0C22     		movs	r2, #12
 331 0092 B8E7     		b	.L15
 332              	.L21:
 148:Drivers/STM32L4xx_HAL_Driver/Src/stm32l4xx_ll_usb.c ****     }
 333              		.loc 1 148 14 view .LVU100
 334 0094 0B22     		movs	r2, #11
 335 0096 B6E7     		b	.L15
 336              	.L22:
 153:Drivers/STM32L4xx_HAL_Driver/Src/stm32l4xx_ll_usb.c ****     }
 337              		.loc 1 153 14 view .LVU101
 338 0098 0A22     		movs	r2, #10
 339 009a B4E7     		b	.L15
 340              	.L23:
 158:Drivers/STM32L4xx_HAL_Driver/Src/stm32l4xx_ll_usb.c ****     }
 341              		.loc 1 158 14 view .LVU102
ARM GAS  C:\Users\gigig\AppData\Local\Temp\ccWnrG0a.s 			page 31


 342 009c 0922     		movs	r2, #9
 343 009e B2E7     		b	.L15
 344              	.L24:
 163:Drivers/STM32L4xx_HAL_Driver/Src/stm32l4xx_ll_usb.c ****     }
 345              		.loc 1 163 14 view .LVU103
 346 00a0 0822     		movs	r2, #8
 347 00a2 B0E7     		b	.L15
 348              	.L25:
 173:Drivers/STM32L4xx_HAL_Driver/Src/stm32l4xx_ll_usb.c ****     }
 349              		.loc 1 173 14 view .LVU104
 350 00a4 0622     		movs	r2, #6
 351 00a6 AEE7     		b	.L15
 352              	.L28:
 353              		.align	2
 354              	.L27:
 355 00a8 405327FF 		.word	-14200000
 356 00ac FF340C00 		.word	799999
 357 00b0 401E1BFF 		.word	-15000000
 358 00b4 3F420F00 		.word	999999
 359 00b8 7F4F1200 		.word	1199999
 360 00bc 20D61300 		.word	1300000
 361 00c0 60B6E5FE 		.word	-18500000
 362 00c4 5FE31600 		.word	1499999
 363 00c8 00D3CEFE 		.word	-20000000
 364 00cc 40771B00 		.word	1800000
 365 00d0 C05BB3FE 		.word	-21800000
 366 00d4 C0912100 		.word	2200000
 367 00d8 20753800 		.word	3700000
 368 00dc E05459FE 		.word	-27700000
 369 00e0 E09C4100 		.word	4300000
 370              		.cfi_endproc
 371              	.LFE133:
 373              		.section	.text.USB_EnableGlobalInt,"ax",%progbits
 374              		.align	1
 375              		.global	USB_EnableGlobalInt
 376              		.syntax unified
 377              		.thumb
 378              		.thumb_func
 380              	USB_EnableGlobalInt:
 381              	.LVL15:
 382              	.LFB134:
 194:Drivers/STM32L4xx_HAL_Driver/Src/stm32l4xx_ll_usb.c ****   USBx->GAHBCFG |= USB_OTG_GAHBCFG_GINT;
 383              		.loc 1 194 1 is_stmt 1 view -0
 384              		.cfi_startproc
 385              		@ args = 0, pretend = 0, frame = 0
 386              		@ frame_needed = 0, uses_anonymous_args = 0
 387              		@ link register save eliminated.
 195:Drivers/STM32L4xx_HAL_Driver/Src/stm32l4xx_ll_usb.c ****   return HAL_OK;
 388              		.loc 1 195 3 view .LVU106
 195:Drivers/STM32L4xx_HAL_Driver/Src/stm32l4xx_ll_usb.c ****   return HAL_OK;
 389              		.loc 1 195 7 is_stmt 0 view .LVU107
 390 0000 8368     		ldr	r3, [r0, #8]
 195:Drivers/STM32L4xx_HAL_Driver/Src/stm32l4xx_ll_usb.c ****   return HAL_OK;
 391              		.loc 1 195 17 view .LVU108
 392 0002 43F00103 		orr	r3, r3, #1
 393 0006 8360     		str	r3, [r0, #8]
 196:Drivers/STM32L4xx_HAL_Driver/Src/stm32l4xx_ll_usb.c **** }
ARM GAS  C:\Users\gigig\AppData\Local\Temp\ccWnrG0a.s 			page 32


 394              		.loc 1 196 3 is_stmt 1 view .LVU109
 197:Drivers/STM32L4xx_HAL_Driver/Src/stm32l4xx_ll_usb.c **** 
 395              		.loc 1 197 1 is_stmt 0 view .LVU110
 396 0008 0020     		movs	r0, #0
 397              	.LVL16:
 197:Drivers/STM32L4xx_HAL_Driver/Src/stm32l4xx_ll_usb.c **** 
 398              		.loc 1 197 1 view .LVU111
 399 000a 7047     		bx	lr
 400              		.cfi_endproc
 401              	.LFE134:
 403              		.section	.text.USB_DisableGlobalInt,"ax",%progbits
 404              		.align	1
 405              		.global	USB_DisableGlobalInt
 406              		.syntax unified
 407              		.thumb
 408              		.thumb_func
 410              	USB_DisableGlobalInt:
 411              	.LVL17:
 412              	.LFB135:
 206:Drivers/STM32L4xx_HAL_Driver/Src/stm32l4xx_ll_usb.c ****   USBx->GAHBCFG &= ~USB_OTG_GAHBCFG_GINT;
 413              		.loc 1 206 1 is_stmt 1 view -0
 414              		.cfi_startproc
 415              		@ args = 0, pretend = 0, frame = 0
 416              		@ frame_needed = 0, uses_anonymous_args = 0
 417              		@ link register save eliminated.
 207:Drivers/STM32L4xx_HAL_Driver/Src/stm32l4xx_ll_usb.c ****   return HAL_OK;
 418              		.loc 1 207 3 view .LVU113
 207:Drivers/STM32L4xx_HAL_Driver/Src/stm32l4xx_ll_usb.c ****   return HAL_OK;
 419              		.loc 1 207 7 is_stmt 0 view .LVU114
 420 0000 8368     		ldr	r3, [r0, #8]
 207:Drivers/STM32L4xx_HAL_Driver/Src/stm32l4xx_ll_usb.c ****   return HAL_OK;
 421              		.loc 1 207 17 view .LVU115
 422 0002 23F00103 		bic	r3, r3, #1
 423 0006 8360     		str	r3, [r0, #8]
 208:Drivers/STM32L4xx_HAL_Driver/Src/stm32l4xx_ll_usb.c **** }
 424              		.loc 1 208 3 is_stmt 1 view .LVU116
 209:Drivers/STM32L4xx_HAL_Driver/Src/stm32l4xx_ll_usb.c **** 
 425              		.loc 1 209 1 is_stmt 0 view .LVU117
 426 0008 0020     		movs	r0, #0
 427              	.LVL18:
 209:Drivers/STM32L4xx_HAL_Driver/Src/stm32l4xx_ll_usb.c **** 
 428              		.loc 1 209 1 view .LVU118
 429 000a 7047     		bx	lr
 430              		.cfi_endproc
 431              	.LFE135:
 433              		.section	.text.USB_FlushTxFifo,"ax",%progbits
 434              		.align	1
 435              		.global	USB_FlushTxFifo
 436              		.syntax unified
 437              		.thumb
 438              		.thumb_func
 440              	USB_FlushTxFifo:
 441              	.LVL19:
 442              	.LFB138:
 401:Drivers/STM32L4xx_HAL_Driver/Src/stm32l4xx_ll_usb.c ****   __IO uint32_t count = 0U;
 443              		.loc 1 401 1 is_stmt 1 view -0
 444              		.cfi_startproc
ARM GAS  C:\Users\gigig\AppData\Local\Temp\ccWnrG0a.s 			page 33


 445              		@ args = 0, pretend = 0, frame = 8
 446              		@ frame_needed = 0, uses_anonymous_args = 0
 447              		@ link register save eliminated.
 401:Drivers/STM32L4xx_HAL_Driver/Src/stm32l4xx_ll_usb.c ****   __IO uint32_t count = 0U;
 448              		.loc 1 401 1 is_stmt 0 view .LVU120
 449 0000 82B0     		sub	sp, sp, #8
 450              		.cfi_def_cfa_offset 8
 402:Drivers/STM32L4xx_HAL_Driver/Src/stm32l4xx_ll_usb.c **** 
 451              		.loc 1 402 3 is_stmt 1 view .LVU121
 402:Drivers/STM32L4xx_HAL_Driver/Src/stm32l4xx_ll_usb.c **** 
 452              		.loc 1 402 17 is_stmt 0 view .LVU122
 453 0002 0023     		movs	r3, #0
 454 0004 0193     		str	r3, [sp, #4]
 455              	.L33:
 405:Drivers/STM32L4xx_HAL_Driver/Src/stm32l4xx_ll_usb.c ****   {
 456              		.loc 1 405 3 is_stmt 1 view .LVU123
 407:Drivers/STM32L4xx_HAL_Driver/Src/stm32l4xx_ll_usb.c **** 
 457              		.loc 1 407 5 view .LVU124
 407:Drivers/STM32L4xx_HAL_Driver/Src/stm32l4xx_ll_usb.c **** 
 458              		.loc 1 407 10 is_stmt 0 view .LVU125
 459 0006 019B     		ldr	r3, [sp, #4]
 460 0008 0133     		adds	r3, r3, #1
 461 000a 0193     		str	r3, [sp, #4]
 409:Drivers/STM32L4xx_HAL_Driver/Src/stm32l4xx_ll_usb.c ****     {
 462              		.loc 1 409 5 is_stmt 1 view .LVU126
 409:Drivers/STM32L4xx_HAL_Driver/Src/stm32l4xx_ll_usb.c ****     {
 463              		.loc 1 409 15 is_stmt 0 view .LVU127
 464 000c 019A     		ldr	r2, [sp, #4]
 409:Drivers/STM32L4xx_HAL_Driver/Src/stm32l4xx_ll_usb.c ****     {
 465              		.loc 1 409 8 view .LVU128
 466 000e 0F4B     		ldr	r3, .L38
 467 0010 9A42     		cmp	r2, r3
 468 0012 15D8     		bhi	.L35
 413:Drivers/STM32L4xx_HAL_Driver/Src/stm32l4xx_ll_usb.c **** 
 469              		.loc 1 413 53 is_stmt 1 view .LVU129
 413:Drivers/STM32L4xx_HAL_Driver/Src/stm32l4xx_ll_usb.c **** 
 470              		.loc 1 413 17 is_stmt 0 view .LVU130
 471 0014 0369     		ldr	r3, [r0, #16]
 413:Drivers/STM32L4xx_HAL_Driver/Src/stm32l4xx_ll_usb.c **** 
 472              		.loc 1 413 53 view .LVU131
 473 0016 002B     		cmp	r3, #0
 474 0018 F5DA     		bge	.L33
 416:Drivers/STM32L4xx_HAL_Driver/Src/stm32l4xx_ll_usb.c ****   USBx->GRSTCTL = (USB_OTG_GRSTCTL_TXFFLSH | (num << 6));
 475              		.loc 1 416 3 is_stmt 1 view .LVU132
 416:Drivers/STM32L4xx_HAL_Driver/Src/stm32l4xx_ll_usb.c ****   USBx->GRSTCTL = (USB_OTG_GRSTCTL_TXFFLSH | (num << 6));
 476              		.loc 1 416 9 is_stmt 0 view .LVU133
 477 001a 0023     		movs	r3, #0
 478 001c 0193     		str	r3, [sp, #4]
 417:Drivers/STM32L4xx_HAL_Driver/Src/stm32l4xx_ll_usb.c **** 
 479              		.loc 1 417 3 is_stmt 1 view .LVU134
 417:Drivers/STM32L4xx_HAL_Driver/Src/stm32l4xx_ll_usb.c **** 
 480              		.loc 1 417 51 is_stmt 0 view .LVU135
 481 001e 8901     		lsls	r1, r1, #6
 482              	.LVL20:
 417:Drivers/STM32L4xx_HAL_Driver/Src/stm32l4xx_ll_usb.c **** 
 483              		.loc 1 417 44 view .LVU136
 484 0020 41F02001 		orr	r1, r1, #32
ARM GAS  C:\Users\gigig\AppData\Local\Temp\ccWnrG0a.s 			page 34


 417:Drivers/STM32L4xx_HAL_Driver/Src/stm32l4xx_ll_usb.c **** 
 485              		.loc 1 417 17 view .LVU137
 486 0024 0161     		str	r1, [r0, #16]
 487              	.L34:
 419:Drivers/STM32L4xx_HAL_Driver/Src/stm32l4xx_ll_usb.c ****   {
 488              		.loc 1 419 3 is_stmt 1 view .LVU138
 421:Drivers/STM32L4xx_HAL_Driver/Src/stm32l4xx_ll_usb.c **** 
 489              		.loc 1 421 5 view .LVU139
 421:Drivers/STM32L4xx_HAL_Driver/Src/stm32l4xx_ll_usb.c **** 
 490              		.loc 1 421 10 is_stmt 0 view .LVU140
 491 0026 019B     		ldr	r3, [sp, #4]
 492 0028 0133     		adds	r3, r3, #1
 493 002a 0193     		str	r3, [sp, #4]
 423:Drivers/STM32L4xx_HAL_Driver/Src/stm32l4xx_ll_usb.c ****     {
 494              		.loc 1 423 5 is_stmt 1 view .LVU141
 423:Drivers/STM32L4xx_HAL_Driver/Src/stm32l4xx_ll_usb.c ****     {
 495              		.loc 1 423 15 is_stmt 0 view .LVU142
 496 002c 019A     		ldr	r2, [sp, #4]
 423:Drivers/STM32L4xx_HAL_Driver/Src/stm32l4xx_ll_usb.c ****     {
 497              		.loc 1 423 8 view .LVU143
 498 002e 074B     		ldr	r3, .L38
 499 0030 9A42     		cmp	r2, r3
 500 0032 08D8     		bhi	.L36
 427:Drivers/STM32L4xx_HAL_Driver/Src/stm32l4xx_ll_usb.c **** 
 501              		.loc 1 427 54 is_stmt 1 view .LVU144
 427:Drivers/STM32L4xx_HAL_Driver/Src/stm32l4xx_ll_usb.c **** 
 502              		.loc 1 427 17 is_stmt 0 view .LVU145
 503 0034 0369     		ldr	r3, [r0, #16]
 427:Drivers/STM32L4xx_HAL_Driver/Src/stm32l4xx_ll_usb.c **** 
 504              		.loc 1 427 54 view .LVU146
 505 0036 13F0200F 		tst	r3, #32
 506 003a F4D1     		bne	.L34
 429:Drivers/STM32L4xx_HAL_Driver/Src/stm32l4xx_ll_usb.c **** }
 507              		.loc 1 429 10 view .LVU147
 508 003c 0020     		movs	r0, #0
 509              	.LVL21:
 429:Drivers/STM32L4xx_HAL_Driver/Src/stm32l4xx_ll_usb.c **** }
 510              		.loc 1 429 10 view .LVU148
 511 003e 00E0     		b	.L32
 512              	.LVL22:
 513              	.L35:
 411:Drivers/STM32L4xx_HAL_Driver/Src/stm32l4xx_ll_usb.c ****     }
 514              		.loc 1 411 14 view .LVU149
 515 0040 0320     		movs	r0, #3
 516              	.LVL23:
 517              	.L32:
 430:Drivers/STM32L4xx_HAL_Driver/Src/stm32l4xx_ll_usb.c **** 
 518              		.loc 1 430 1 view .LVU150
 519 0042 02B0     		add	sp, sp, #8
 520              		.cfi_remember_state
 521              		.cfi_def_cfa_offset 0
 522              		@ sp needed
 523 0044 7047     		bx	lr
 524              	.LVL24:
 525              	.L36:
 526              		.cfi_restore_state
 425:Drivers/STM32L4xx_HAL_Driver/Src/stm32l4xx_ll_usb.c ****     }
ARM GAS  C:\Users\gigig\AppData\Local\Temp\ccWnrG0a.s 			page 35


 527              		.loc 1 425 14 view .LVU151
 528 0046 0320     		movs	r0, #3
 529              	.LVL25:
 425:Drivers/STM32L4xx_HAL_Driver/Src/stm32l4xx_ll_usb.c ****     }
 530              		.loc 1 425 14 view .LVU152
 531 0048 FBE7     		b	.L32
 532              	.L39:
 533 004a 00BF     		.align	2
 534              	.L38:
 535 004c 400D0300 		.word	200000
 536              		.cfi_endproc
 537              	.LFE138:
 539              		.section	.text.USB_FlushRxFifo,"ax",%progbits
 540              		.align	1
 541              		.global	USB_FlushRxFifo
 542              		.syntax unified
 543              		.thumb
 544              		.thumb_func
 546              	USB_FlushRxFifo:
 547              	.LVL26:
 548              	.LFB139:
 438:Drivers/STM32L4xx_HAL_Driver/Src/stm32l4xx_ll_usb.c ****   __IO uint32_t count = 0U;
 549              		.loc 1 438 1 is_stmt 1 view -0
 550              		.cfi_startproc
 551              		@ args = 0, pretend = 0, frame = 8
 552              		@ frame_needed = 0, uses_anonymous_args = 0
 553              		@ link register save eliminated.
 438:Drivers/STM32L4xx_HAL_Driver/Src/stm32l4xx_ll_usb.c ****   __IO uint32_t count = 0U;
 554              		.loc 1 438 1 is_stmt 0 view .LVU154
 555 0000 82B0     		sub	sp, sp, #8
 556              		.cfi_def_cfa_offset 8
 439:Drivers/STM32L4xx_HAL_Driver/Src/stm32l4xx_ll_usb.c **** 
 557              		.loc 1 439 3 is_stmt 1 view .LVU155
 439:Drivers/STM32L4xx_HAL_Driver/Src/stm32l4xx_ll_usb.c **** 
 558              		.loc 1 439 17 is_stmt 0 view .LVU156
 559 0002 0023     		movs	r3, #0
 560 0004 0193     		str	r3, [sp, #4]
 561              	.L42:
 442:Drivers/STM32L4xx_HAL_Driver/Src/stm32l4xx_ll_usb.c ****   {
 562              		.loc 1 442 3 is_stmt 1 view .LVU157
 444:Drivers/STM32L4xx_HAL_Driver/Src/stm32l4xx_ll_usb.c **** 
 563              		.loc 1 444 5 view .LVU158
 444:Drivers/STM32L4xx_HAL_Driver/Src/stm32l4xx_ll_usb.c **** 
 564              		.loc 1 444 10 is_stmt 0 view .LVU159
 565 0006 019B     		ldr	r3, [sp, #4]
 566 0008 0133     		adds	r3, r3, #1
 567 000a 0193     		str	r3, [sp, #4]
 446:Drivers/STM32L4xx_HAL_Driver/Src/stm32l4xx_ll_usb.c ****     {
 568              		.loc 1 446 5 is_stmt 1 view .LVU160
 446:Drivers/STM32L4xx_HAL_Driver/Src/stm32l4xx_ll_usb.c ****     {
 569              		.loc 1 446 15 is_stmt 0 view .LVU161
 570 000c 019A     		ldr	r2, [sp, #4]
 446:Drivers/STM32L4xx_HAL_Driver/Src/stm32l4xx_ll_usb.c ****     {
 571              		.loc 1 446 8 view .LVU162
 572 000e 0E4B     		ldr	r3, .L47
 573 0010 9A42     		cmp	r2, r3
 574 0012 13D8     		bhi	.L44
ARM GAS  C:\Users\gigig\AppData\Local\Temp\ccWnrG0a.s 			page 36


 450:Drivers/STM32L4xx_HAL_Driver/Src/stm32l4xx_ll_usb.c **** 
 575              		.loc 1 450 53 is_stmt 1 view .LVU163
 450:Drivers/STM32L4xx_HAL_Driver/Src/stm32l4xx_ll_usb.c **** 
 576              		.loc 1 450 17 is_stmt 0 view .LVU164
 577 0014 0369     		ldr	r3, [r0, #16]
 450:Drivers/STM32L4xx_HAL_Driver/Src/stm32l4xx_ll_usb.c **** 
 578              		.loc 1 450 53 view .LVU165
 579 0016 002B     		cmp	r3, #0
 580 0018 F5DA     		bge	.L42
 453:Drivers/STM32L4xx_HAL_Driver/Src/stm32l4xx_ll_usb.c ****   USBx->GRSTCTL = USB_OTG_GRSTCTL_RXFFLSH;
 581              		.loc 1 453 3 is_stmt 1 view .LVU166
 453:Drivers/STM32L4xx_HAL_Driver/Src/stm32l4xx_ll_usb.c ****   USBx->GRSTCTL = USB_OTG_GRSTCTL_RXFFLSH;
 582              		.loc 1 453 9 is_stmt 0 view .LVU167
 583 001a 0023     		movs	r3, #0
 584 001c 0193     		str	r3, [sp, #4]
 454:Drivers/STM32L4xx_HAL_Driver/Src/stm32l4xx_ll_usb.c **** 
 585              		.loc 1 454 3 is_stmt 1 view .LVU168
 454:Drivers/STM32L4xx_HAL_Driver/Src/stm32l4xx_ll_usb.c **** 
 586              		.loc 1 454 17 is_stmt 0 view .LVU169
 587 001e 1023     		movs	r3, #16
 588 0020 0361     		str	r3, [r0, #16]
 589              	.L43:
 456:Drivers/STM32L4xx_HAL_Driver/Src/stm32l4xx_ll_usb.c ****   {
 590              		.loc 1 456 3 is_stmt 1 view .LVU170
 458:Drivers/STM32L4xx_HAL_Driver/Src/stm32l4xx_ll_usb.c **** 
 591              		.loc 1 458 5 view .LVU171
 458:Drivers/STM32L4xx_HAL_Driver/Src/stm32l4xx_ll_usb.c **** 
 592              		.loc 1 458 10 is_stmt 0 view .LVU172
 593 0022 019B     		ldr	r3, [sp, #4]
 594 0024 0133     		adds	r3, r3, #1
 595 0026 0193     		str	r3, [sp, #4]
 460:Drivers/STM32L4xx_HAL_Driver/Src/stm32l4xx_ll_usb.c ****     {
 596              		.loc 1 460 5 is_stmt 1 view .LVU173
 460:Drivers/STM32L4xx_HAL_Driver/Src/stm32l4xx_ll_usb.c ****     {
 597              		.loc 1 460 15 is_stmt 0 view .LVU174
 598 0028 019A     		ldr	r2, [sp, #4]
 460:Drivers/STM32L4xx_HAL_Driver/Src/stm32l4xx_ll_usb.c ****     {
 599              		.loc 1 460 8 view .LVU175
 600 002a 074B     		ldr	r3, .L47
 601 002c 9A42     		cmp	r2, r3
 602 002e 08D8     		bhi	.L45
 464:Drivers/STM32L4xx_HAL_Driver/Src/stm32l4xx_ll_usb.c **** 
 603              		.loc 1 464 54 is_stmt 1 view .LVU176
 464:Drivers/STM32L4xx_HAL_Driver/Src/stm32l4xx_ll_usb.c **** 
 604              		.loc 1 464 17 is_stmt 0 view .LVU177
 605 0030 0369     		ldr	r3, [r0, #16]
 464:Drivers/STM32L4xx_HAL_Driver/Src/stm32l4xx_ll_usb.c **** 
 606              		.loc 1 464 54 view .LVU178
 607 0032 13F0100F 		tst	r3, #16
 608 0036 F4D1     		bne	.L43
 466:Drivers/STM32L4xx_HAL_Driver/Src/stm32l4xx_ll_usb.c **** }
 609              		.loc 1 466 10 view .LVU179
 610 0038 0020     		movs	r0, #0
 611              	.LVL27:
 466:Drivers/STM32L4xx_HAL_Driver/Src/stm32l4xx_ll_usb.c **** }
 612              		.loc 1 466 10 view .LVU180
 613 003a 00E0     		b	.L41
ARM GAS  C:\Users\gigig\AppData\Local\Temp\ccWnrG0a.s 			page 37


 614              	.LVL28:
 615              	.L44:
 448:Drivers/STM32L4xx_HAL_Driver/Src/stm32l4xx_ll_usb.c ****     }
 616              		.loc 1 448 14 view .LVU181
 617 003c 0320     		movs	r0, #3
 618              	.LVL29:
 619              	.L41:
 467:Drivers/STM32L4xx_HAL_Driver/Src/stm32l4xx_ll_usb.c **** 
 620              		.loc 1 467 1 view .LVU182
 621 003e 02B0     		add	sp, sp, #8
 622              		.cfi_remember_state
 623              		.cfi_def_cfa_offset 0
 624              		@ sp needed
 625 0040 7047     		bx	lr
 626              	.LVL30:
 627              	.L45:
 628              		.cfi_restore_state
 462:Drivers/STM32L4xx_HAL_Driver/Src/stm32l4xx_ll_usb.c ****     }
 629              		.loc 1 462 14 view .LVU183
 630 0042 0320     		movs	r0, #3
 631              	.LVL31:
 462:Drivers/STM32L4xx_HAL_Driver/Src/stm32l4xx_ll_usb.c ****     }
 632              		.loc 1 462 14 view .LVU184
 633 0044 FBE7     		b	.L41
 634              	.L48:
 635 0046 00BF     		.align	2
 636              	.L47:
 637 0048 400D0300 		.word	200000
 638              		.cfi_endproc
 639              	.LFE139:
 641              		.section	.text.USB_SetDevSpeed,"ax",%progbits
 642              		.align	1
 643              		.global	USB_SetDevSpeed
 644              		.syntax unified
 645              		.thumb
 646              		.thumb_func
 648              	USB_SetDevSpeed:
 649              	.LVL32:
 650              	.LFB140:
 479:Drivers/STM32L4xx_HAL_Driver/Src/stm32l4xx_ll_usb.c ****   uint32_t USBx_BASE = (uint32_t)USBx;
 651              		.loc 1 479 1 is_stmt 1 view -0
 652              		.cfi_startproc
 653              		@ args = 0, pretend = 0, frame = 0
 654              		@ frame_needed = 0, uses_anonymous_args = 0
 655              		@ link register save eliminated.
 480:Drivers/STM32L4xx_HAL_Driver/Src/stm32l4xx_ll_usb.c **** 
 656              		.loc 1 480 3 view .LVU186
 482:Drivers/STM32L4xx_HAL_Driver/Src/stm32l4xx_ll_usb.c ****   return HAL_OK;
 657              		.loc 1 482 3 view .LVU187
 482:Drivers/STM32L4xx_HAL_Driver/Src/stm32l4xx_ll_usb.c ****   return HAL_OK;
 658              		.loc 1 482 14 is_stmt 0 view .LVU188
 659 0000 D0F80038 		ldr	r3, [r0, #2048]
 482:Drivers/STM32L4xx_HAL_Driver/Src/stm32l4xx_ll_usb.c ****   return HAL_OK;
 660              		.loc 1 482 21 view .LVU189
 661 0004 1943     		orrs	r1, r1, r3
 662              	.LVL33:
 482:Drivers/STM32L4xx_HAL_Driver/Src/stm32l4xx_ll_usb.c ****   return HAL_OK;
ARM GAS  C:\Users\gigig\AppData\Local\Temp\ccWnrG0a.s 			page 38


 663              		.loc 1 482 21 view .LVU190
 664 0006 C0F80018 		str	r1, [r0, #2048]
 483:Drivers/STM32L4xx_HAL_Driver/Src/stm32l4xx_ll_usb.c **** }
 665              		.loc 1 483 3 is_stmt 1 view .LVU191
 484:Drivers/STM32L4xx_HAL_Driver/Src/stm32l4xx_ll_usb.c **** 
 666              		.loc 1 484 1 is_stmt 0 view .LVU192
 667 000a 0020     		movs	r0, #0
 668              	.LVL34:
 484:Drivers/STM32L4xx_HAL_Driver/Src/stm32l4xx_ll_usb.c **** 
 669              		.loc 1 484 1 view .LVU193
 670 000c 7047     		bx	lr
 671              		.cfi_endproc
 672              	.LFE140:
 674              		.section	.text.USB_DevInit,"ax",%progbits
 675              		.align	1
 676              		.global	USB_DevInit
 677              		.syntax unified
 678              		.thumb
 679              		.thumb_func
 681              	USB_DevInit:
 682              	.LVL35:
 683              	.LFB137:
 268:Drivers/STM32L4xx_HAL_Driver/Src/stm32l4xx_ll_usb.c ****   HAL_StatusTypeDef ret = HAL_OK;
 684              		.loc 1 268 1 is_stmt 1 view -0
 685              		.cfi_startproc
 686              		@ args = 56, pretend = 16, frame = 0
 687              		@ frame_needed = 0, uses_anonymous_args = 0
 268:Drivers/STM32L4xx_HAL_Driver/Src/stm32l4xx_ll_usb.c ****   HAL_StatusTypeDef ret = HAL_OK;
 688              		.loc 1 268 1 is_stmt 0 view .LVU195
 689 0000 84B0     		sub	sp, sp, #16
 690              		.cfi_def_cfa_offset 16
 691 0002 F8B5     		push	{r3, r4, r5, r6, r7, lr}
 692              		.cfi_def_cfa_offset 40
 693              		.cfi_offset 3, -40
 694              		.cfi_offset 4, -36
 695              		.cfi_offset 5, -32
 696              		.cfi_offset 6, -28
 697              		.cfi_offset 7, -24
 698              		.cfi_offset 14, -20
 699 0004 0446     		mov	r4, r0
 700 0006 07A8     		add	r0, sp, #28
 701              	.LVL36:
 268:Drivers/STM32L4xx_HAL_Driver/Src/stm32l4xx_ll_usb.c ****   HAL_StatusTypeDef ret = HAL_OK;
 702              		.loc 1 268 1 view .LVU196
 703 0008 80E80E00 		stm	r0, {r1, r2, r3}
 269:Drivers/STM32L4xx_HAL_Driver/Src/stm32l4xx_ll_usb.c ****   uint32_t USBx_BASE = (uint32_t)USBx;
 704              		.loc 1 269 3 is_stmt 1 view .LVU197
 705              	.LVL37:
 270:Drivers/STM32L4xx_HAL_Driver/Src/stm32l4xx_ll_usb.c ****   uint32_t i;
 706              		.loc 1 270 3 view .LVU198
 271:Drivers/STM32L4xx_HAL_Driver/Src/stm32l4xx_ll_usb.c **** 
 707              		.loc 1 271 3 view .LVU199
 273:Drivers/STM32L4xx_HAL_Driver/Src/stm32l4xx_ll_usb.c ****   {
 708              		.loc 1 273 3 view .LVU200
 273:Drivers/STM32L4xx_HAL_Driver/Src/stm32l4xx_ll_usb.c ****   {
 709              		.loc 1 273 10 is_stmt 0 view .LVU201
 710 000c 0023     		movs	r3, #0
ARM GAS  C:\Users\gigig\AppData\Local\Temp\ccWnrG0a.s 			page 39


 273:Drivers/STM32L4xx_HAL_Driver/Src/stm32l4xx_ll_usb.c ****   {
 711              		.loc 1 273 3 view .LVU202
 712 000e 06E0     		b	.L51
 713              	.LVL38:
 714              	.L52:
 275:Drivers/STM32L4xx_HAL_Driver/Src/stm32l4xx_ll_usb.c ****   }
 715              		.loc 1 275 5 is_stmt 1 view .LVU203
 275:Drivers/STM32L4xx_HAL_Driver/Src/stm32l4xx_ll_usb.c ****   }
 716              		.loc 1 275 22 is_stmt 0 view .LVU204
 717 0010 03F14002 		add	r2, r3, #64
 718 0014 04EB8202 		add	r2, r4, r2, lsl #2
 719 0018 0021     		movs	r1, #0
 720 001a 5160     		str	r1, [r2, #4]
 273:Drivers/STM32L4xx_HAL_Driver/Src/stm32l4xx_ll_usb.c ****   {
 721              		.loc 1 273 26 is_stmt 1 discriminator 3 view .LVU205
 722 001c 0133     		adds	r3, r3, #1
 723              	.LVL39:
 724              	.L51:
 273:Drivers/STM32L4xx_HAL_Driver/Src/stm32l4xx_ll_usb.c ****   {
 725              		.loc 1 273 18 discriminator 1 view .LVU206
 726 001e 0E2B     		cmp	r3, #14
 727 0020 F6D9     		bls	.L52
 279:Drivers/STM32L4xx_HAL_Driver/Src/stm32l4xx_ll_usb.c ****   {
 728              		.loc 1 279 3 view .LVU207
 279:Drivers/STM32L4xx_HAL_Driver/Src/stm32l4xx_ll_usb.c ****   {
 729              		.loc 1 279 10 is_stmt 0 view .LVU208
 730 0022 119E     		ldr	r6, [sp, #68]
 279:Drivers/STM32L4xx_HAL_Driver/Src/stm32l4xx_ll_usb.c ****   {
 731              		.loc 1 279 6 view .LVU209
 732 0024 76BB     		cbnz	r6, .L53
 281:Drivers/STM32L4xx_HAL_Driver/Src/stm32l4xx_ll_usb.c **** 
 733              		.loc 1 281 5 is_stmt 1 view .LVU210
 281:Drivers/STM32L4xx_HAL_Driver/Src/stm32l4xx_ll_usb.c **** 
 734              		.loc 1 281 16 is_stmt 0 view .LVU211
 735 0026 D4F80438 		ldr	r3, [r4, #2052]
 736              	.LVL40:
 281:Drivers/STM32L4xx_HAL_Driver/Src/stm32l4xx_ll_usb.c **** 
 737              		.loc 1 281 23 view .LVU212
 738 002a 43F00203 		orr	r3, r3, #2
 739 002e C4F80438 		str	r3, [r4, #2052]
 284:Drivers/STM32L4xx_HAL_Driver/Src/stm32l4xx_ll_usb.c **** 
 740              		.loc 1 284 5 is_stmt 1 view .LVU213
 284:Drivers/STM32L4xx_HAL_Driver/Src/stm32l4xx_ll_usb.c **** 
 741              		.loc 1 284 9 is_stmt 0 view .LVU214
 742 0032 A36B     		ldr	r3, [r4, #56]
 284:Drivers/STM32L4xx_HAL_Driver/Src/stm32l4xx_ll_usb.c **** 
 743              		.loc 1 284 17 view .LVU215
 744 0034 23F40013 		bic	r3, r3, #2097152
 745 0038 A363     		str	r3, [r4, #56]
 287:Drivers/STM32L4xx_HAL_Driver/Src/stm32l4xx_ll_usb.c ****     USBx->GOTGCTL |= USB_OTG_GOTGCTL_BVALOVAL;
 746              		.loc 1 287 5 is_stmt 1 view .LVU216
 287:Drivers/STM32L4xx_HAL_Driver/Src/stm32l4xx_ll_usb.c ****     USBx->GOTGCTL |= USB_OTG_GOTGCTL_BVALOVAL;
 747              		.loc 1 287 9 is_stmt 0 view .LVU217
 748 003a 2368     		ldr	r3, [r4]
 287:Drivers/STM32L4xx_HAL_Driver/Src/stm32l4xx_ll_usb.c ****     USBx->GOTGCTL |= USB_OTG_GOTGCTL_BVALOVAL;
 749              		.loc 1 287 19 view .LVU218
 750 003c 43F04003 		orr	r3, r3, #64
ARM GAS  C:\Users\gigig\AppData\Local\Temp\ccWnrG0a.s 			page 40


 751 0040 2360     		str	r3, [r4]
 288:Drivers/STM32L4xx_HAL_Driver/Src/stm32l4xx_ll_usb.c ****   }
 752              		.loc 1 288 5 is_stmt 1 view .LVU219
 288:Drivers/STM32L4xx_HAL_Driver/Src/stm32l4xx_ll_usb.c ****   }
 753              		.loc 1 288 9 is_stmt 0 view .LVU220
 754 0042 2368     		ldr	r3, [r4]
 288:Drivers/STM32L4xx_HAL_Driver/Src/stm32l4xx_ll_usb.c ****   }
 755              		.loc 1 288 19 view .LVU221
 756 0044 43F08003 		orr	r3, r3, #128
 757 0048 2360     		str	r3, [r4]
 758              	.L54:
 297:Drivers/STM32L4xx_HAL_Driver/Src/stm32l4xx_ll_usb.c **** 
 759              		.loc 1 297 3 is_stmt 1 view .LVU222
 297:Drivers/STM32L4xx_HAL_Driver/Src/stm32l4xx_ll_usb.c **** 
 760              		.loc 1 297 16 is_stmt 0 view .LVU223
 761 004a 0023     		movs	r3, #0
 762 004c C4F8003E 		str	r3, [r4, #3584]
 300:Drivers/STM32L4xx_HAL_Driver/Src/stm32l4xx_ll_usb.c **** 
 763              		.loc 1 300 3 is_stmt 1 view .LVU224
 300:Drivers/STM32L4xx_HAL_Driver/Src/stm32l4xx_ll_usb.c **** 
 764              		.loc 1 300 9 is_stmt 0 view .LVU225
 765 0050 0321     		movs	r1, #3
 766 0052 2046     		mov	r0, r4
 767 0054 FFF7FEFF 		bl	USB_SetDevSpeed
 768              	.LVL41:
 303:Drivers/STM32L4xx_HAL_Driver/Src/stm32l4xx_ll_usb.c ****   {
 769              		.loc 1 303 3 is_stmt 1 view .LVU226
 303:Drivers/STM32L4xx_HAL_Driver/Src/stm32l4xx_ll_usb.c ****   {
 770              		.loc 1 303 7 is_stmt 0 view .LVU227
 771 0058 1021     		movs	r1, #16
 772 005a 2046     		mov	r0, r4
 773 005c FFF7FEFF 		bl	USB_FlushTxFifo
 774              	.LVL42:
 303:Drivers/STM32L4xx_HAL_Driver/Src/stm32l4xx_ll_usb.c ****   {
 775              		.loc 1 303 6 discriminator 1 view .LVU228
 776 0060 0546     		mov	r5, r0
 777 0062 00B1     		cbz	r0, .L55
 305:Drivers/STM32L4xx_HAL_Driver/Src/stm32l4xx_ll_usb.c ****   }
 778              		.loc 1 305 9 view .LVU229
 779 0064 0125     		movs	r5, #1
 780              	.L55:
 781              	.LVL43:
 308:Drivers/STM32L4xx_HAL_Driver/Src/stm32l4xx_ll_usb.c ****   {
 782              		.loc 1 308 3 is_stmt 1 view .LVU230
 308:Drivers/STM32L4xx_HAL_Driver/Src/stm32l4xx_ll_usb.c ****   {
 783              		.loc 1 308 7 is_stmt 0 view .LVU231
 784 0066 2046     		mov	r0, r4
 785 0068 FFF7FEFF 		bl	USB_FlushRxFifo
 786              	.LVL44:
 308:Drivers/STM32L4xx_HAL_Driver/Src/stm32l4xx_ll_usb.c ****   {
 787              		.loc 1 308 6 discriminator 1 view .LVU232
 788 006c 00B1     		cbz	r0, .L56
 310:Drivers/STM32L4xx_HAL_Driver/Src/stm32l4xx_ll_usb.c ****   }
 789              		.loc 1 310 9 view .LVU233
 790 006e 0125     		movs	r5, #1
 791              	.LVL45:
 792              	.L56:
ARM GAS  C:\Users\gigig\AppData\Local\Temp\ccWnrG0a.s 			page 41


 314:Drivers/STM32L4xx_HAL_Driver/Src/stm32l4xx_ll_usb.c ****   USBx_DEVICE->DOEPMSK = 0U;
 793              		.loc 1 314 3 is_stmt 1 view .LVU234
 794 0070 04F5006C 		add	ip, r4, #2048
 314:Drivers/STM32L4xx_HAL_Driver/Src/stm32l4xx_ll_usb.c ****   USBx_DEVICE->DOEPMSK = 0U;
 795              		.loc 1 314 24 is_stmt 0 view .LVU235
 796 0074 0023     		movs	r3, #0
 797 0076 CCF81030 		str	r3, [ip, #16]
 315:Drivers/STM32L4xx_HAL_Driver/Src/stm32l4xx_ll_usb.c ****   USBx_DEVICE->DAINTMSK = 0U;
 798              		.loc 1 315 3 is_stmt 1 view .LVU236
 315:Drivers/STM32L4xx_HAL_Driver/Src/stm32l4xx_ll_usb.c ****   USBx_DEVICE->DAINTMSK = 0U;
 799              		.loc 1 315 24 is_stmt 0 view .LVU237
 800 007a CCF81430 		str	r3, [ip, #20]
 316:Drivers/STM32L4xx_HAL_Driver/Src/stm32l4xx_ll_usb.c **** 
 801              		.loc 1 316 3 is_stmt 1 view .LVU238
 316:Drivers/STM32L4xx_HAL_Driver/Src/stm32l4xx_ll_usb.c **** 
 802              		.loc 1 316 25 is_stmt 0 view .LVU239
 803 007e CCF81C30 		str	r3, [ip, #28]
 318:Drivers/STM32L4xx_HAL_Driver/Src/stm32l4xx_ll_usb.c ****   {
 804              		.loc 1 318 3 is_stmt 1 view .LVU240
 805              	.LVL46:
 318:Drivers/STM32L4xx_HAL_Driver/Src/stm32l4xx_ll_usb.c ****   {
 806              		.loc 1 318 3 is_stmt 0 view .LVU241
 807 0082 0FE0     		b	.L57
 808              	.LVL47:
 809              	.L53:
 293:Drivers/STM32L4xx_HAL_Driver/Src/stm32l4xx_ll_usb.c ****   }
 810              		.loc 1 293 5 is_stmt 1 view .LVU242
 293:Drivers/STM32L4xx_HAL_Driver/Src/stm32l4xx_ll_usb.c ****   }
 811              		.loc 1 293 9 is_stmt 0 view .LVU243
 812 0084 A36B     		ldr	r3, [r4, #56]
 813              	.LVL48:
 293:Drivers/STM32L4xx_HAL_Driver/Src/stm32l4xx_ll_usb.c ****   }
 814              		.loc 1 293 17 view .LVU244
 815 0086 43F40013 		orr	r3, r3, #2097152
 816 008a A363     		str	r3, [r4, #56]
 817 008c DDE7     		b	.L54
 818              	.LVL49:
 819              	.L73:
 322:Drivers/STM32L4xx_HAL_Driver/Src/stm32l4xx_ll_usb.c ****       {
 820              		.loc 1 322 7 is_stmt 1 view .LVU245
 322:Drivers/STM32L4xx_HAL_Driver/Src/stm32l4xx_ll_usb.c ****       {
 821              		.loc 1 322 10 is_stmt 0 view .LVU246
 822 008e C3B9     		cbnz	r3, .L59
 324:Drivers/STM32L4xx_HAL_Driver/Src/stm32l4xx_ll_usb.c ****       }
 823              		.loc 1 324 9 is_stmt 1 view .LVU247
 324:Drivers/STM32L4xx_HAL_Driver/Src/stm32l4xx_ll_usb.c ****       }
 824              		.loc 1 324 31 is_stmt 0 view .LVU248
 825 0090 4FF00060 		mov	r0, #134217728
 826 0094 C2F80009 		str	r0, [r2, #2304]
 827              	.L60:
 336:Drivers/STM32L4xx_HAL_Driver/Src/stm32l4xx_ll_usb.c ****     USBx_INEP(i)->DIEPINT  = 0xFB7FU;
 828              		.loc 1 336 5 is_stmt 1 view .LVU249
 336:Drivers/STM32L4xx_HAL_Driver/Src/stm32l4xx_ll_usb.c ****     USBx_INEP(i)->DIEPINT  = 0xFB7FU;
 829              		.loc 1 336 28 is_stmt 0 view .LVU250
 830 0098 0022     		movs	r2, #0
 831 009a 0A61     		str	r2, [r1, #16]
 337:Drivers/STM32L4xx_HAL_Driver/Src/stm32l4xx_ll_usb.c ****   }
ARM GAS  C:\Users\gigig\AppData\Local\Temp\ccWnrG0a.s 			page 42


 832              		.loc 1 337 5 is_stmt 1 view .LVU251
 337:Drivers/STM32L4xx_HAL_Driver/Src/stm32l4xx_ll_usb.c ****   }
 833              		.loc 1 337 28 is_stmt 0 view .LVU252
 834 009c 4FF67F32 		movw	r2, #64383
 835 00a0 8A60     		str	r2, [r1, #8]
 318:Drivers/STM32L4xx_HAL_Driver/Src/stm32l4xx_ll_usb.c ****   {
 836              		.loc 1 318 40 is_stmt 1 discriminator 2 view .LVU253
 837 00a2 0133     		adds	r3, r3, #1
 838              	.LVL50:
 839              	.L57:
 318:Drivers/STM32L4xx_HAL_Driver/Src/stm32l4xx_ll_usb.c ****   {
 840              		.loc 1 318 18 discriminator 1 view .LVU254
 318:Drivers/STM32L4xx_HAL_Driver/Src/stm32l4xx_ll_usb.c ****   {
 841              		.loc 1 318 23 is_stmt 0 discriminator 1 view .LVU255
 842 00a4 0799     		ldr	r1, [sp, #28]
 318:Drivers/STM32L4xx_HAL_Driver/Src/stm32l4xx_ll_usb.c ****   {
 843              		.loc 1 318 18 discriminator 1 view .LVU256
 844 00a6 9942     		cmp	r1, r3
 845 00a8 10D9     		bls	.L72
 320:Drivers/STM32L4xx_HAL_Driver/Src/stm32l4xx_ll_usb.c ****     {
 846              		.loc 1 320 5 is_stmt 1 view .LVU257
 320:Drivers/STM32L4xx_HAL_Driver/Src/stm32l4xx_ll_usb.c ****     {
 847              		.loc 1 320 10 is_stmt 0 view .LVU258
 848 00aa 04EB4312 		add	r2, r4, r3, lsl #5
 849 00ae 02F51061 		add	r1, r2, #2304
 320:Drivers/STM32L4xx_HAL_Driver/Src/stm32l4xx_ll_usb.c ****     {
 850              		.loc 1 320 22 view .LVU259
 851 00b2 D2F80009 		ldr	r0, [r2, #2304]
 320:Drivers/STM32L4xx_HAL_Driver/Src/stm32l4xx_ll_usb.c ****     {
 852              		.loc 1 320 8 view .LVU260
 853 00b6 0028     		cmp	r0, #0
 854 00b8 E9DB     		blt	.L73
 333:Drivers/STM32L4xx_HAL_Driver/Src/stm32l4xx_ll_usb.c ****     }
 855              		.loc 1 333 7 is_stmt 1 view .LVU261
 333:Drivers/STM32L4xx_HAL_Driver/Src/stm32l4xx_ll_usb.c ****     }
 856              		.loc 1 333 29 is_stmt 0 view .LVU262
 857 00ba 0020     		movs	r0, #0
 858 00bc C2F80009 		str	r0, [r2, #2304]
 859 00c0 EAE7     		b	.L60
 860              	.L59:
 328:Drivers/STM32L4xx_HAL_Driver/Src/stm32l4xx_ll_usb.c ****       }
 861              		.loc 1 328 9 is_stmt 1 view .LVU263
 328:Drivers/STM32L4xx_HAL_Driver/Src/stm32l4xx_ll_usb.c ****       }
 862              		.loc 1 328 31 is_stmt 0 view .LVU264
 863 00c2 4FF09040 		mov	r0, #1207959552
 864 00c6 C2F80009 		str	r0, [r2, #2304]
 865 00ca E5E7     		b	.L60
 866              	.L72:
 340:Drivers/STM32L4xx_HAL_Driver/Src/stm32l4xx_ll_usb.c ****   {
 867              		.loc 1 340 10 view .LVU265
 868 00cc 0023     		movs	r3, #0
 869              	.LVL51:
 340:Drivers/STM32L4xx_HAL_Driver/Src/stm32l4xx_ll_usb.c ****   {
 870              		.loc 1 340 10 view .LVU266
 871 00ce 0AE0     		b	.L62
 872              	.LVL52:
 873              	.L76:
ARM GAS  C:\Users\gigig\AppData\Local\Temp\ccWnrG0a.s 			page 43


 344:Drivers/STM32L4xx_HAL_Driver/Src/stm32l4xx_ll_usb.c ****       {
 874              		.loc 1 344 7 is_stmt 1 view .LVU267
 344:Drivers/STM32L4xx_HAL_Driver/Src/stm32l4xx_ll_usb.c ****       {
 875              		.loc 1 344 10 is_stmt 0 view .LVU268
 876 00d0 BBB1     		cbz	r3, .L74
 350:Drivers/STM32L4xx_HAL_Driver/Src/stm32l4xx_ll_usb.c ****       }
 877              		.loc 1 350 9 is_stmt 1 view .LVU269
 350:Drivers/STM32L4xx_HAL_Driver/Src/stm32l4xx_ll_usb.c ****       }
 878              		.loc 1 350 32 is_stmt 0 view .LVU270
 879 00d2 4FF09047 		mov	r7, #1207959552
 880 00d6 C2F8007B 		str	r7, [r2, #2816]
 881              	.L65:
 358:Drivers/STM32L4xx_HAL_Driver/Src/stm32l4xx_ll_usb.c ****     USBx_OUTEP(i)->DOEPINT  = 0xFB7FU;
 882              		.loc 1 358 5 is_stmt 1 view .LVU271
 358:Drivers/STM32L4xx_HAL_Driver/Src/stm32l4xx_ll_usb.c ****     USBx_OUTEP(i)->DOEPINT  = 0xFB7FU;
 883              		.loc 1 358 29 is_stmt 0 view .LVU272
 884 00da 0022     		movs	r2, #0
 885 00dc 0261     		str	r2, [r0, #16]
 359:Drivers/STM32L4xx_HAL_Driver/Src/stm32l4xx_ll_usb.c ****   }
 886              		.loc 1 359 5 is_stmt 1 view .LVU273
 359:Drivers/STM32L4xx_HAL_Driver/Src/stm32l4xx_ll_usb.c ****   }
 887              		.loc 1 359 29 is_stmt 0 view .LVU274
 888 00de 4FF67F32 		movw	r2, #64383
 889 00e2 8260     		str	r2, [r0, #8]
 340:Drivers/STM32L4xx_HAL_Driver/Src/stm32l4xx_ll_usb.c ****   {
 890              		.loc 1 340 40 is_stmt 1 discriminator 2 view .LVU275
 891 00e4 0133     		adds	r3, r3, #1
 892              	.LVL53:
 893              	.L62:
 340:Drivers/STM32L4xx_HAL_Driver/Src/stm32l4xx_ll_usb.c ****   {
 894              		.loc 1 340 18 discriminator 1 view .LVU276
 895 00e6 9942     		cmp	r1, r3
 896 00e8 10D9     		bls	.L75
 342:Drivers/STM32L4xx_HAL_Driver/Src/stm32l4xx_ll_usb.c ****     {
 897              		.loc 1 342 5 view .LVU277
 342:Drivers/STM32L4xx_HAL_Driver/Src/stm32l4xx_ll_usb.c ****     {
 898              		.loc 1 342 10 is_stmt 0 view .LVU278
 899 00ea 04EB4312 		add	r2, r4, r3, lsl #5
 900 00ee 02F53060 		add	r0, r2, #2816
 342:Drivers/STM32L4xx_HAL_Driver/Src/stm32l4xx_ll_usb.c ****     {
 901              		.loc 1 342 23 view .LVU279
 902 00f2 D2F8007B 		ldr	r7, [r2, #2816]
 342:Drivers/STM32L4xx_HAL_Driver/Src/stm32l4xx_ll_usb.c ****     {
 903              		.loc 1 342 8 view .LVU280
 904 00f6 002F     		cmp	r7, #0
 905 00f8 EADB     		blt	.L76
 355:Drivers/STM32L4xx_HAL_Driver/Src/stm32l4xx_ll_usb.c ****     }
 906              		.loc 1 355 7 is_stmt 1 view .LVU281
 355:Drivers/STM32L4xx_HAL_Driver/Src/stm32l4xx_ll_usb.c ****     }
 907              		.loc 1 355 30 is_stmt 0 view .LVU282
 908 00fa 0027     		movs	r7, #0
 909 00fc C2F8007B 		str	r7, [r2, #2816]
 910 0100 EBE7     		b	.L65
 911              	.L74:
 346:Drivers/STM32L4xx_HAL_Driver/Src/stm32l4xx_ll_usb.c ****       }
 912              		.loc 1 346 9 is_stmt 1 view .LVU283
 346:Drivers/STM32L4xx_HAL_Driver/Src/stm32l4xx_ll_usb.c ****       }
ARM GAS  C:\Users\gigig\AppData\Local\Temp\ccWnrG0a.s 			page 44


 913              		.loc 1 346 32 is_stmt 0 view .LVU284
 914 0102 4FF00067 		mov	r7, #134217728
 915 0106 C2F8007B 		str	r7, [r2, #2816]
 916 010a E6E7     		b	.L65
 917              	.L75:
 362:Drivers/STM32L4xx_HAL_Driver/Src/stm32l4xx_ll_usb.c **** 
 918              		.loc 1 362 3 is_stmt 1 view .LVU285
 362:Drivers/STM32L4xx_HAL_Driver/Src/stm32l4xx_ll_usb.c **** 
 919              		.loc 1 362 14 is_stmt 0 view .LVU286
 920 010c DCF81030 		ldr	r3, [ip, #16]
 921              	.LVL54:
 362:Drivers/STM32L4xx_HAL_Driver/Src/stm32l4xx_ll_usb.c **** 
 922              		.loc 1 362 24 view .LVU287
 923 0110 23F48073 		bic	r3, r3, #256
 924 0114 CCF81030 		str	r3, [ip, #16]
 365:Drivers/STM32L4xx_HAL_Driver/Src/stm32l4xx_ll_usb.c **** 
 925              		.loc 1 365 3 is_stmt 1 view .LVU288
 365:Drivers/STM32L4xx_HAL_Driver/Src/stm32l4xx_ll_usb.c **** 
 926              		.loc 1 365 17 is_stmt 0 view .LVU289
 927 0118 0023     		movs	r3, #0
 928 011a A361     		str	r3, [r4, #24]
 368:Drivers/STM32L4xx_HAL_Driver/Src/stm32l4xx_ll_usb.c **** 
 929              		.loc 1 368 3 is_stmt 1 view .LVU290
 368:Drivers/STM32L4xx_HAL_Driver/Src/stm32l4xx_ll_usb.c **** 
 930              		.loc 1 368 17 is_stmt 0 view .LVU291
 931 011c 6FF08043 		mvn	r3, #1073741824
 932 0120 6361     		str	r3, [r4, #20]
 371:Drivers/STM32L4xx_HAL_Driver/Src/stm32l4xx_ll_usb.c **** 
 933              		.loc 1 371 3 is_stmt 1 view .LVU292
 371:Drivers/STM32L4xx_HAL_Driver/Src/stm32l4xx_ll_usb.c **** 
 934              		.loc 1 371 7 is_stmt 0 view .LVU293
 935 0122 A369     		ldr	r3, [r4, #24]
 371:Drivers/STM32L4xx_HAL_Driver/Src/stm32l4xx_ll_usb.c **** 
 936              		.loc 1 371 17 view .LVU294
 937 0124 43F01003 		orr	r3, r3, #16
 938 0128 A361     		str	r3, [r4, #24]
 374:Drivers/STM32L4xx_HAL_Driver/Src/stm32l4xx_ll_usb.c ****                    USB_OTG_GINTMSK_ENUMDNEM | USB_OTG_GINTMSK_IEPINT |
 939              		.loc 1 374 3 is_stmt 1 view .LVU295
 374:Drivers/STM32L4xx_HAL_Driver/Src/stm32l4xx_ll_usb.c ****                    USB_OTG_GINTMSK_ENUMDNEM | USB_OTG_GINTMSK_IEPINT |
 940              		.loc 1 374 7 is_stmt 0 view .LVU296
 941 012a A269     		ldr	r2, [r4, #24]
 374:Drivers/STM32L4xx_HAL_Driver/Src/stm32l4xx_ll_usb.c ****                    USB_OTG_GINTMSK_ENUMDNEM | USB_OTG_GINTMSK_IEPINT |
 942              		.loc 1 374 17 view .LVU297
 943 012c 0B4B     		ldr	r3, .L78
 944 012e 1343     		orrs	r3, r3, r2
 945 0130 A361     		str	r3, [r4, #24]
 379:Drivers/STM32L4xx_HAL_Driver/Src/stm32l4xx_ll_usb.c ****   {
 946              		.loc 1 379 3 is_stmt 1 view .LVU298
 379:Drivers/STM32L4xx_HAL_Driver/Src/stm32l4xx_ll_usb.c ****   {
 947              		.loc 1 379 10 is_stmt 0 view .LVU299
 948 0132 0D9B     		ldr	r3, [sp, #52]
 379:Drivers/STM32L4xx_HAL_Driver/Src/stm32l4xx_ll_usb.c ****   {
 949              		.loc 1 379 6 view .LVU300
 950 0134 1BB1     		cbz	r3, .L67
 381:Drivers/STM32L4xx_HAL_Driver/Src/stm32l4xx_ll_usb.c ****   }
 951              		.loc 1 381 5 is_stmt 1 view .LVU301
 381:Drivers/STM32L4xx_HAL_Driver/Src/stm32l4xx_ll_usb.c ****   }
ARM GAS  C:\Users\gigig\AppData\Local\Temp\ccWnrG0a.s 			page 45


 952              		.loc 1 381 9 is_stmt 0 view .LVU302
 953 0136 A369     		ldr	r3, [r4, #24]
 381:Drivers/STM32L4xx_HAL_Driver/Src/stm32l4xx_ll_usb.c ****   }
 954              		.loc 1 381 19 view .LVU303
 955 0138 43F00803 		orr	r3, r3, #8
 956 013c A361     		str	r3, [r4, #24]
 957              	.L67:
 384:Drivers/STM32L4xx_HAL_Driver/Src/stm32l4xx_ll_usb.c ****   {
 958              		.loc 1 384 3 is_stmt 1 view .LVU304
 384:Drivers/STM32L4xx_HAL_Driver/Src/stm32l4xx_ll_usb.c ****   {
 959              		.loc 1 384 6 is_stmt 0 view .LVU305
 960 013e 012E     		cmp	r6, #1
 961 0140 04D0     		beq	.L77
 962              	.L68:
 389:Drivers/STM32L4xx_HAL_Driver/Src/stm32l4xx_ll_usb.c **** }
 963              		.loc 1 389 3 is_stmt 1 view .LVU306
 390:Drivers/STM32L4xx_HAL_Driver/Src/stm32l4xx_ll_usb.c **** 
 964              		.loc 1 390 1 is_stmt 0 view .LVU307
 965 0142 2846     		mov	r0, r5
 966 0144 BDE8F840 		pop	{r3, r4, r5, r6, r7, lr}
 967              		.cfi_remember_state
 968              		.cfi_restore 14
 969              		.cfi_restore 7
 970              		.cfi_restore 6
 971              		.cfi_restore 5
 972              		.cfi_restore 4
 973              		.cfi_restore 3
 974              		.cfi_def_cfa_offset 16
 975              	.LVL55:
 390:Drivers/STM32L4xx_HAL_Driver/Src/stm32l4xx_ll_usb.c **** 
 976              		.loc 1 390 1 view .LVU308
 977 0148 04B0     		add	sp, sp, #16
 978              		.cfi_def_cfa_offset 0
 979 014a 7047     		bx	lr
 980              	.LVL56:
 981              	.L77:
 982              		.cfi_restore_state
 386:Drivers/STM32L4xx_HAL_Driver/Src/stm32l4xx_ll_usb.c ****   }
 983              		.loc 1 386 5 is_stmt 1 view .LVU309
 386:Drivers/STM32L4xx_HAL_Driver/Src/stm32l4xx_ll_usb.c ****   }
 984              		.loc 1 386 9 is_stmt 0 view .LVU310
 985 014c A369     		ldr	r3, [r4, #24]
 386:Drivers/STM32L4xx_HAL_Driver/Src/stm32l4xx_ll_usb.c ****   }
 986              		.loc 1 386 19 view .LVU311
 987 014e 43F08043 		orr	r3, r3, #1073741824
 988 0152 43F00403 		orr	r3, r3, #4
 989 0156 A361     		str	r3, [r4, #24]
 990 0158 F3E7     		b	.L68
 991              	.L79:
 992 015a 00BF     		.align	2
 993              	.L78:
 994 015c 00383C80 		.word	-2143537152
 995              		.cfi_endproc
 996              	.LFE137:
 998              		.section	.text.USB_GetDevSpeed,"ax",%progbits
 999              		.align	1
 1000              		.global	USB_GetDevSpeed
ARM GAS  C:\Users\gigig\AppData\Local\Temp\ccWnrG0a.s 			page 46


 1001              		.syntax unified
 1002              		.thumb
 1003              		.thumb_func
 1005              	USB_GetDevSpeed:
 1006              	.LVL57:
 1007              	.LFB141:
 494:Drivers/STM32L4xx_HAL_Driver/Src/stm32l4xx_ll_usb.c ****   uint32_t USBx_BASE = (uint32_t)USBx;
 1008              		.loc 1 494 1 is_stmt 1 view -0
 1009              		.cfi_startproc
 1010              		@ args = 0, pretend = 0, frame = 0
 1011              		@ frame_needed = 0, uses_anonymous_args = 0
 1012              		@ link register save eliminated.
 495:Drivers/STM32L4xx_HAL_Driver/Src/stm32l4xx_ll_usb.c ****   uint8_t speed;
 1013              		.loc 1 495 3 view .LVU313
 496:Drivers/STM32L4xx_HAL_Driver/Src/stm32l4xx_ll_usb.c ****   uint32_t DevEnumSpeed = USBx_DEVICE->DSTS & USB_OTG_DSTS_ENUMSPD;
 1014              		.loc 1 496 3 view .LVU314
 497:Drivers/STM32L4xx_HAL_Driver/Src/stm32l4xx_ll_usb.c **** 
 1015              		.loc 1 497 3 view .LVU315
 497:Drivers/STM32L4xx_HAL_Driver/Src/stm32l4xx_ll_usb.c **** 
 1016              		.loc 1 497 38 is_stmt 0 view .LVU316
 1017 0000 D0F80838 		ldr	r3, [r0, #2056]
 497:Drivers/STM32L4xx_HAL_Driver/Src/stm32l4xx_ll_usb.c **** 
 1018              		.loc 1 497 12 view .LVU317
 1019 0004 03F00603 		and	r3, r3, #6
 1020              	.LVL58:
 499:Drivers/STM32L4xx_HAL_Driver/Src/stm32l4xx_ll_usb.c ****       (DevEnumSpeed == DSTS_ENUMSPD_FS_PHY_48MHZ))
 1021              		.loc 1 499 3 is_stmt 1 view .LVU318
 499:Drivers/STM32L4xx_HAL_Driver/Src/stm32l4xx_ll_usb.c ****       (DevEnumSpeed == DSTS_ENUMSPD_FS_PHY_48MHZ))
 1022              		.loc 1 499 6 is_stmt 0 view .LVU319
 1023 0008 022B     		cmp	r3, #2
 1024 000a 05D0     		beq	.L82
 499:Drivers/STM32L4xx_HAL_Driver/Src/stm32l4xx_ll_usb.c ****       (DevEnumSpeed == DSTS_ENUMSPD_FS_PHY_48MHZ))
 1025              		.loc 1 499 60 discriminator 1 view .LVU320
 1026 000c 062B     		cmp	r3, #6
 1027 000e 01D0     		beq	.L84
 506:Drivers/STM32L4xx_HAL_Driver/Src/stm32l4xx_ll_usb.c ****   }
 1028              		.loc 1 506 11 view .LVU321
 1029 0010 0F20     		movs	r0, #15
 1030              	.LVL59:
 509:Drivers/STM32L4xx_HAL_Driver/Src/stm32l4xx_ll_usb.c **** }
 1031              		.loc 1 509 3 is_stmt 1 view .LVU322
 510:Drivers/STM32L4xx_HAL_Driver/Src/stm32l4xx_ll_usb.c **** 
 1032              		.loc 1 510 1 is_stmt 0 view .LVU323
 1033 0012 7047     		bx	lr
 1034              	.LVL60:
 1035              	.L84:
 502:Drivers/STM32L4xx_HAL_Driver/Src/stm32l4xx_ll_usb.c ****   }
 1036              		.loc 1 502 11 view .LVU324
 1037 0014 0220     		movs	r0, #2
 1038              	.LVL61:
 502:Drivers/STM32L4xx_HAL_Driver/Src/stm32l4xx_ll_usb.c ****   }
 1039              		.loc 1 502 11 view .LVU325
 1040 0016 7047     		bx	lr
 1041              	.LVL62:
 1042              	.L82:
 502:Drivers/STM32L4xx_HAL_Driver/Src/stm32l4xx_ll_usb.c ****   }
 1043              		.loc 1 502 11 view .LVU326
ARM GAS  C:\Users\gigig\AppData\Local\Temp\ccWnrG0a.s 			page 47


 1044 0018 0220     		movs	r0, #2
 1045              	.LVL63:
 502:Drivers/STM32L4xx_HAL_Driver/Src/stm32l4xx_ll_usb.c ****   }
 1046              		.loc 1 502 11 view .LVU327
 1047 001a 7047     		bx	lr
 1048              		.cfi_endproc
 1049              	.LFE141:
 1051              		.section	.text.USB_ActivateEndpoint,"ax",%progbits
 1052              		.align	1
 1053              		.global	USB_ActivateEndpoint
 1054              		.syntax unified
 1055              		.thumb
 1056              		.thumb_func
 1058              	USB_ActivateEndpoint:
 1059              	.LVL64:
 1060              	.LFB142:
 519:Drivers/STM32L4xx_HAL_Driver/Src/stm32l4xx_ll_usb.c ****   uint32_t USBx_BASE = (uint32_t)USBx;
 1061              		.loc 1 519 1 is_stmt 1 view -0
 1062              		.cfi_startproc
 1063              		@ args = 0, pretend = 0, frame = 0
 1064              		@ frame_needed = 0, uses_anonymous_args = 0
 519:Drivers/STM32L4xx_HAL_Driver/Src/stm32l4xx_ll_usb.c ****   uint32_t USBx_BASE = (uint32_t)USBx;
 1065              		.loc 1 519 1 is_stmt 0 view .LVU329
 1066 0000 10B5     		push	{r4, lr}
 1067              		.cfi_def_cfa_offset 8
 1068              		.cfi_offset 4, -8
 1069              		.cfi_offset 14, -4
 520:Drivers/STM32L4xx_HAL_Driver/Src/stm32l4xx_ll_usb.c ****   uint32_t epnum = (uint32_t)ep->num;
 1070              		.loc 1 520 3 is_stmt 1 view .LVU330
 1071              	.LVL65:
 521:Drivers/STM32L4xx_HAL_Driver/Src/stm32l4xx_ll_usb.c **** 
 1072              		.loc 1 521 3 view .LVU331
 521:Drivers/STM32L4xx_HAL_Driver/Src/stm32l4xx_ll_usb.c **** 
 1073              		.loc 1 521 32 is_stmt 0 view .LVU332
 1074 0002 91F800C0 		ldrb	ip, [r1]	@ zero_extendqisi2
 1075              	.LVL66:
 523:Drivers/STM32L4xx_HAL_Driver/Src/stm32l4xx_ll_usb.c ****   {
 1076              		.loc 1 523 3 is_stmt 1 view .LVU333
 523:Drivers/STM32L4xx_HAL_Driver/Src/stm32l4xx_ll_usb.c ****   {
 1077              		.loc 1 523 9 is_stmt 0 view .LVU334
 1078 0006 4B78     		ldrb	r3, [r1, #1]	@ zero_extendqisi2
 523:Drivers/STM32L4xx_HAL_Driver/Src/stm32l4xx_ll_usb.c ****   {
 1079              		.loc 1 523 6 view .LVU335
 1080 0008 012B     		cmp	r3, #1
 1081 000a 23D0     		beq	.L89
 537:Drivers/STM32L4xx_HAL_Driver/Src/stm32l4xx_ll_usb.c **** 
 1082              		.loc 1 537 5 is_stmt 1 view .LVU336
 537:Drivers/STM32L4xx_HAL_Driver/Src/stm32l4xx_ll_usb.c **** 
 1083              		.loc 1 537 16 is_stmt 0 view .LVU337
 1084 000c 00F5006E 		add	lr, r0, #2048
 1085 0010 D0F81C38 		ldr	r3, [r0, #2076]
 537:Drivers/STM32L4xx_HAL_Driver/Src/stm32l4xx_ll_usb.c **** 
 1086              		.loc 1 537 82 view .LVU338
 1087 0014 0CF00F04 		and	r4, ip, #15
 537:Drivers/STM32L4xx_HAL_Driver/Src/stm32l4xx_ll_usb.c **** 
 1088              		.loc 1 537 55 view .LVU339
 1089 0018 0122     		movs	r2, #1
ARM GAS  C:\Users\gigig\AppData\Local\Temp\ccWnrG0a.s 			page 48


 1090 001a A240     		lsls	r2, r2, r4
 537:Drivers/STM32L4xx_HAL_Driver/Src/stm32l4xx_ll_usb.c **** 
 1091              		.loc 1 537 27 view .LVU340
 1092 001c 43EA0243 		orr	r3, r3, r2, lsl #16
 1093 0020 C0F81C38 		str	r3, [r0, #2076]
 539:Drivers/STM32L4xx_HAL_Driver/Src/stm32l4xx_ll_usb.c ****     {
 1094              		.loc 1 539 5 is_stmt 1 view .LVU341
 539:Drivers/STM32L4xx_HAL_Driver/Src/stm32l4xx_ll_usb.c ****     {
 1095              		.loc 1 539 11 is_stmt 0 view .LVU342
 1096 0024 00EB4C10 		add	r0, r0, ip, lsl #5
 1097              	.LVL67:
 539:Drivers/STM32L4xx_HAL_Driver/Src/stm32l4xx_ll_usb.c ****     {
 1098              		.loc 1 539 28 view .LVU343
 1099 0028 D0F8003B 		ldr	r3, [r0, #2816]
 539:Drivers/STM32L4xx_HAL_Driver/Src/stm32l4xx_ll_usb.c ****     {
 1100              		.loc 1 539 8 view .LVU344
 1101 002c 13F4004F 		tst	r3, #32768
 1102 0030 0ED1     		bne	.L87
 541:Drivers/STM32L4xx_HAL_Driver/Src/stm32l4xx_ll_usb.c ****                                     ((uint32_t)ep->type << 18) |
 1103              		.loc 1 541 7 is_stmt 1 view .LVU345
 541:Drivers/STM32L4xx_HAL_Driver/Src/stm32l4xx_ll_usb.c ****                                     ((uint32_t)ep->type << 18) |
 1104              		.loc 1 541 24 is_stmt 0 view .LVU346
 1105 0032 D0F8003B 		ldr	r3, [r0, #2816]
 541:Drivers/STM32L4xx_HAL_Driver/Src/stm32l4xx_ll_usb.c ****                                     ((uint32_t)ep->type << 18) |
 1106              		.loc 1 541 40 view .LVU347
 1107 0036 8A68     		ldr	r2, [r1, #8]
 541:Drivers/STM32L4xx_HAL_Driver/Src/stm32l4xx_ll_usb.c ****                                     ((uint32_t)ep->type << 18) |
 1108              		.loc 1 541 52 view .LVU348
 1109 0038 C2F30A02 		ubfx	r2, r2, #0, #11
 542:Drivers/STM32L4xx_HAL_Driver/Src/stm32l4xx_ll_usb.c ****                                     USB_OTG_DIEPCTL_SD0PID_SEVNFRM |
 1110              		.loc 1 542 50 view .LVU349
 1111 003c 0979     		ldrb	r1, [r1, #4]	@ zero_extendqisi2
 1112              	.LVL68:
 541:Drivers/STM32L4xx_HAL_Driver/Src/stm32l4xx_ll_usb.c ****                                     ((uint32_t)ep->type << 18) |
 1113              		.loc 1 541 77 view .LVU350
 1114 003e 42EA8142 		orr	r2, r2, r1, lsl #18
 541:Drivers/STM32L4xx_HAL_Driver/Src/stm32l4xx_ll_usb.c ****                                     ((uint32_t)ep->type << 18) |
 1115              		.loc 1 541 34 view .LVU351
 1116 0042 1343     		orrs	r3, r3, r2
 1117 0044 43F08053 		orr	r3, r3, #268435456
 1118 0048 43F40043 		orr	r3, r3, #32768
 1119 004c C0F8003B 		str	r3, [r0, #2816]
 1120              	.LVL69:
 1121              	.L87:
 547:Drivers/STM32L4xx_HAL_Driver/Src/stm32l4xx_ll_usb.c **** }
 1122              		.loc 1 547 3 is_stmt 1 view .LVU352
 548:Drivers/STM32L4xx_HAL_Driver/Src/stm32l4xx_ll_usb.c **** 
 1123              		.loc 1 548 1 is_stmt 0 view .LVU353
 1124 0050 0020     		movs	r0, #0
 1125 0052 10BD     		pop	{r4, pc}
 1126              	.LVL70:
 1127              	.L89:
 525:Drivers/STM32L4xx_HAL_Driver/Src/stm32l4xx_ll_usb.c **** 
 1128              		.loc 1 525 5 is_stmt 1 view .LVU354
 525:Drivers/STM32L4xx_HAL_Driver/Src/stm32l4xx_ll_usb.c **** 
 1129              		.loc 1 525 16 is_stmt 0 view .LVU355
 1130 0054 D0F81C28 		ldr	r2, [r0, #2076]
ARM GAS  C:\Users\gigig\AppData\Local\Temp\ccWnrG0a.s 			page 49


 525:Drivers/STM32L4xx_HAL_Driver/Src/stm32l4xx_ll_usb.c **** 
 1131              		.loc 1 525 81 view .LVU356
 1132 0058 0CF00F0E 		and	lr, ip, #15
 525:Drivers/STM32L4xx_HAL_Driver/Src/stm32l4xx_ll_usb.c **** 
 1133              		.loc 1 525 54 view .LVU357
 1134 005c 03FA0EF3 		lsl	r3, r3, lr
 525:Drivers/STM32L4xx_HAL_Driver/Src/stm32l4xx_ll_usb.c **** 
 1135              		.loc 1 525 52 view .LVU358
 1136 0060 9BB2     		uxth	r3, r3
 525:Drivers/STM32L4xx_HAL_Driver/Src/stm32l4xx_ll_usb.c **** 
 1137              		.loc 1 525 27 view .LVU359
 1138 0062 1343     		orrs	r3, r3, r2
 1139 0064 C0F81C38 		str	r3, [r0, #2076]
 527:Drivers/STM32L4xx_HAL_Driver/Src/stm32l4xx_ll_usb.c ****     {
 1140              		.loc 1 527 5 is_stmt 1 view .LVU360
 527:Drivers/STM32L4xx_HAL_Driver/Src/stm32l4xx_ll_usb.c ****     {
 1141              		.loc 1 527 10 is_stmt 0 view .LVU361
 1142 0068 00EB4C10 		add	r0, r0, ip, lsl #5
 1143              	.LVL71:
 527:Drivers/STM32L4xx_HAL_Driver/Src/stm32l4xx_ll_usb.c ****     {
 1144              		.loc 1 527 26 view .LVU362
 1145 006c D0F80039 		ldr	r3, [r0, #2304]
 527:Drivers/STM32L4xx_HAL_Driver/Src/stm32l4xx_ll_usb.c ****     {
 1146              		.loc 1 527 8 view .LVU363
 1147 0070 13F4004F 		tst	r3, #32768
 1148 0074 ECD1     		bne	.L87
 529:Drivers/STM32L4xx_HAL_Driver/Src/stm32l4xx_ll_usb.c ****                                    ((uint32_t)ep->type << 18) | (epnum << 22) |
 1149              		.loc 1 529 7 is_stmt 1 view .LVU364
 529:Drivers/STM32L4xx_HAL_Driver/Src/stm32l4xx_ll_usb.c ****                                    ((uint32_t)ep->type << 18) | (epnum << 22) |
 1150              		.loc 1 529 23 is_stmt 0 view .LVU365
 1151 0076 D0F80039 		ldr	r3, [r0, #2304]
 529:Drivers/STM32L4xx_HAL_Driver/Src/stm32l4xx_ll_usb.c ****                                    ((uint32_t)ep->type << 18) | (epnum << 22) |
 1152              		.loc 1 529 39 view .LVU366
 1153 007a 8A68     		ldr	r2, [r1, #8]
 529:Drivers/STM32L4xx_HAL_Driver/Src/stm32l4xx_ll_usb.c ****                                    ((uint32_t)ep->type << 18) | (epnum << 22) |
 1154              		.loc 1 529 51 view .LVU367
 1155 007c C2F30A02 		ubfx	r2, r2, #0, #11
 530:Drivers/STM32L4xx_HAL_Driver/Src/stm32l4xx_ll_usb.c ****                                    USB_OTG_DIEPCTL_SD0PID_SEVNFRM |
 1156              		.loc 1 530 49 view .LVU368
 1157 0080 0979     		ldrb	r1, [r1, #4]	@ zero_extendqisi2
 1158              	.LVL72:
 529:Drivers/STM32L4xx_HAL_Driver/Src/stm32l4xx_ll_usb.c ****                                    ((uint32_t)ep->type << 18) | (epnum << 22) |
 1159              		.loc 1 529 76 view .LVU369
 1160 0082 42EA8142 		orr	r2, r2, r1, lsl #18
 530:Drivers/STM32L4xx_HAL_Driver/Src/stm32l4xx_ll_usb.c ****                                    USB_OTG_DIEPCTL_SD0PID_SEVNFRM |
 1161              		.loc 1 530 63 view .LVU370
 1162 0086 42EA8C52 		orr	r2, r2, ip, lsl #22
 529:Drivers/STM32L4xx_HAL_Driver/Src/stm32l4xx_ll_usb.c ****                                    ((uint32_t)ep->type << 18) | (epnum << 22) |
 1163              		.loc 1 529 33 view .LVU371
 1164 008a 1343     		orrs	r3, r3, r2
 1165 008c 43F08053 		orr	r3, r3, #268435456
 1166 0090 43F40043 		orr	r3, r3, #32768
 1167 0094 C0F80039 		str	r3, [r0, #2304]
 1168 0098 DAE7     		b	.L87
 1169              		.cfi_endproc
 1170              	.LFE142:
 1172              		.section	.text.USB_ActivateDedicatedEndpoint,"ax",%progbits
ARM GAS  C:\Users\gigig\AppData\Local\Temp\ccWnrG0a.s 			page 50


 1173              		.align	1
 1174              		.global	USB_ActivateDedicatedEndpoint
 1175              		.syntax unified
 1176              		.thumb
 1177              		.thumb_func
 1179              	USB_ActivateDedicatedEndpoint:
 1180              	.LVL73:
 1181              	.LFB143:
 557:Drivers/STM32L4xx_HAL_Driver/Src/stm32l4xx_ll_usb.c ****   uint32_t USBx_BASE = (uint32_t)USBx;
 1182              		.loc 1 557 1 is_stmt 1 view -0
 1183              		.cfi_startproc
 1184              		@ args = 0, pretend = 0, frame = 0
 1185              		@ frame_needed = 0, uses_anonymous_args = 0
 557:Drivers/STM32L4xx_HAL_Driver/Src/stm32l4xx_ll_usb.c ****   uint32_t USBx_BASE = (uint32_t)USBx;
 1186              		.loc 1 557 1 is_stmt 0 view .LVU373
 1187 0000 10B5     		push	{r4, lr}
 1188              		.cfi_def_cfa_offset 8
 1189              		.cfi_offset 4, -8
 1190              		.cfi_offset 14, -4
 558:Drivers/STM32L4xx_HAL_Driver/Src/stm32l4xx_ll_usb.c ****   uint32_t epnum = (uint32_t)ep->num;
 1191              		.loc 1 558 3 is_stmt 1 view .LVU374
 1192              	.LVL74:
 559:Drivers/STM32L4xx_HAL_Driver/Src/stm32l4xx_ll_usb.c **** 
 1193              		.loc 1 559 3 view .LVU375
 559:Drivers/STM32L4xx_HAL_Driver/Src/stm32l4xx_ll_usb.c **** 
 1194              		.loc 1 559 32 is_stmt 0 view .LVU376
 1195 0002 0A78     		ldrb	r2, [r1]	@ zero_extendqisi2
 1196              	.LVL75:
 562:Drivers/STM32L4xx_HAL_Driver/Src/stm32l4xx_ll_usb.c ****   {
 1197              		.loc 1 562 3 is_stmt 1 view .LVU377
 562:Drivers/STM32L4xx_HAL_Driver/Src/stm32l4xx_ll_usb.c ****   {
 1198              		.loc 1 562 9 is_stmt 0 view .LVU378
 1199 0004 4B78     		ldrb	r3, [r1, #1]	@ zero_extendqisi2
 562:Drivers/STM32L4xx_HAL_Driver/Src/stm32l4xx_ll_usb.c ****   {
 1200              		.loc 1 562 6 view .LVU379
 1201 0006 012B     		cmp	r3, #1
 1202 0008 23D0     		beq	.L96
 576:Drivers/STM32L4xx_HAL_Driver/Src/stm32l4xx_ll_usb.c ****     {
 1203              		.loc 1 576 5 is_stmt 1 view .LVU380
 576:Drivers/STM32L4xx_HAL_Driver/Src/stm32l4xx_ll_usb.c ****     {
 1204              		.loc 1 576 11 is_stmt 0 view .LVU381
 1205 000a 00EB421C 		add	ip, r0, r2, lsl #5
 576:Drivers/STM32L4xx_HAL_Driver/Src/stm32l4xx_ll_usb.c ****     {
 1206              		.loc 1 576 28 view .LVU382
 1207 000e DCF8003B 		ldr	r3, [ip, #2816]
 576:Drivers/STM32L4xx_HAL_Driver/Src/stm32l4xx_ll_usb.c ****     {
 1208              		.loc 1 576 8 view .LVU383
 1209 0012 13F4004F 		tst	r3, #32768
 1210 0016 0FD1     		bne	.L94
 578:Drivers/STM32L4xx_HAL_Driver/Src/stm32l4xx_ll_usb.c ****                                     ((uint32_t)ep->type << 18) | (epnum << 22) |
 1211              		.loc 1 578 7 is_stmt 1 view .LVU384
 578:Drivers/STM32L4xx_HAL_Driver/Src/stm32l4xx_ll_usb.c ****                                     ((uint32_t)ep->type << 18) | (epnum << 22) |
 1212              		.loc 1 578 24 is_stmt 0 view .LVU385
 1213 0018 DCF8004B 		ldr	r4, [ip, #2816]
 578:Drivers/STM32L4xx_HAL_Driver/Src/stm32l4xx_ll_usb.c ****                                     ((uint32_t)ep->type << 18) | (epnum << 22) |
 1214              		.loc 1 578 40 view .LVU386
 1215 001c 8B68     		ldr	r3, [r1, #8]
ARM GAS  C:\Users\gigig\AppData\Local\Temp\ccWnrG0a.s 			page 51


 578:Drivers/STM32L4xx_HAL_Driver/Src/stm32l4xx_ll_usb.c ****                                     ((uint32_t)ep->type << 18) | (epnum << 22) |
 1216              		.loc 1 578 52 view .LVU387
 1217 001e C3F30A03 		ubfx	r3, r3, #0, #11
 579:Drivers/STM32L4xx_HAL_Driver/Src/stm32l4xx_ll_usb.c ****                                     USB_OTG_DOEPCTL_USBAEP;
 1218              		.loc 1 579 50 view .LVU388
 1219 0022 91F804E0 		ldrb	lr, [r1, #4]	@ zero_extendqisi2
 578:Drivers/STM32L4xx_HAL_Driver/Src/stm32l4xx_ll_usb.c ****                                     ((uint32_t)ep->type << 18) | (epnum << 22) |
 1220              		.loc 1 578 77 view .LVU389
 1221 0026 43EA8E43 		orr	r3, r3, lr, lsl #18
 579:Drivers/STM32L4xx_HAL_Driver/Src/stm32l4xx_ll_usb.c ****                                     USB_OTG_DOEPCTL_USBAEP;
 1222              		.loc 1 579 64 view .LVU390
 1223 002a 43EA8253 		orr	r3, r3, r2, lsl #22
 578:Drivers/STM32L4xx_HAL_Driver/Src/stm32l4xx_ll_usb.c ****                                     ((uint32_t)ep->type << 18) | (epnum << 22) |
 1224              		.loc 1 578 34 view .LVU391
 1225 002e 2343     		orrs	r3, r3, r4
 1226 0030 43F40043 		orr	r3, r3, #32768
 1227 0034 CCF8003B 		str	r3, [ip, #2816]
 1228              	.L94:
 583:Drivers/STM32L4xx_HAL_Driver/Src/stm32l4xx_ll_usb.c ****   }
 1229              		.loc 1 583 5 is_stmt 1 view .LVU392
 583:Drivers/STM32L4xx_HAL_Driver/Src/stm32l4xx_ll_usb.c ****   }
 1230              		.loc 1 583 16 is_stmt 0 view .LVU393
 1231 0038 D0F83C38 		ldr	r3, [r0, #2108]
 583:Drivers/STM32L4xx_HAL_Driver/Src/stm32l4xx_ll_usb.c ****   }
 1232              		.loc 1 583 76 view .LVU394
 1233 003c 0978     		ldrb	r1, [r1]	@ zero_extendqisi2
 1234              	.LVL76:
 583:Drivers/STM32L4xx_HAL_Driver/Src/stm32l4xx_ll_usb.c ****   }
 1235              		.loc 1 583 82 view .LVU395
 1236 003e 01F00F01 		and	r1, r1, #15
 583:Drivers/STM32L4xx_HAL_Driver/Src/stm32l4xx_ll_usb.c ****   }
 1237              		.loc 1 583 55 view .LVU396
 1238 0042 0122     		movs	r2, #1
 1239              	.LVL77:
 583:Drivers/STM32L4xx_HAL_Driver/Src/stm32l4xx_ll_usb.c ****   }
 1240              		.loc 1 583 55 view .LVU397
 1241 0044 8A40     		lsls	r2, r2, r1
 583:Drivers/STM32L4xx_HAL_Driver/Src/stm32l4xx_ll_usb.c ****   }
 1242              		.loc 1 583 27 view .LVU398
 1243 0046 43EA0243 		orr	r3, r3, r2, lsl #16
 1244 004a C0F83C38 		str	r3, [r0, #2108]
 1245              	.L93:
 586:Drivers/STM32L4xx_HAL_Driver/Src/stm32l4xx_ll_usb.c **** }
 1246              		.loc 1 586 3 is_stmt 1 view .LVU399
 587:Drivers/STM32L4xx_HAL_Driver/Src/stm32l4xx_ll_usb.c **** 
 1247              		.loc 1 587 1 is_stmt 0 view .LVU400
 1248 004e 0020     		movs	r0, #0
 1249              	.LVL78:
 587:Drivers/STM32L4xx_HAL_Driver/Src/stm32l4xx_ll_usb.c **** 
 1250              		.loc 1 587 1 view .LVU401
 1251 0050 10BD     		pop	{r4, pc}
 1252              	.LVL79:
 1253              	.L96:
 564:Drivers/STM32L4xx_HAL_Driver/Src/stm32l4xx_ll_usb.c ****     {
 1254              		.loc 1 564 5 is_stmt 1 view .LVU402
 564:Drivers/STM32L4xx_HAL_Driver/Src/stm32l4xx_ll_usb.c ****     {
 1255              		.loc 1 564 11 is_stmt 0 view .LVU403
ARM GAS  C:\Users\gigig\AppData\Local\Temp\ccWnrG0a.s 			page 52


 1256 0052 00EB421C 		add	ip, r0, r2, lsl #5
 564:Drivers/STM32L4xx_HAL_Driver/Src/stm32l4xx_ll_usb.c ****     {
 1257              		.loc 1 564 27 view .LVU404
 1258 0056 DCF80039 		ldr	r3, [ip, #2304]
 564:Drivers/STM32L4xx_HAL_Driver/Src/stm32l4xx_ll_usb.c ****     {
 1259              		.loc 1 564 8 view .LVU405
 1260 005a 13F4004F 		tst	r3, #32768
 1261 005e 11D1     		bne	.L92
 566:Drivers/STM32L4xx_HAL_Driver/Src/stm32l4xx_ll_usb.c ****                                    ((uint32_t)ep->type << 18) | (epnum << 22) |
 1262              		.loc 1 566 7 is_stmt 1 view .LVU406
 566:Drivers/STM32L4xx_HAL_Driver/Src/stm32l4xx_ll_usb.c ****                                    ((uint32_t)ep->type << 18) | (epnum << 22) |
 1263              		.loc 1 566 23 is_stmt 0 view .LVU407
 1264 0060 DCF80039 		ldr	r3, [ip, #2304]
 566:Drivers/STM32L4xx_HAL_Driver/Src/stm32l4xx_ll_usb.c ****                                    ((uint32_t)ep->type << 18) | (epnum << 22) |
 1265              		.loc 1 566 39 view .LVU408
 1266 0064 8C68     		ldr	r4, [r1, #8]
 566:Drivers/STM32L4xx_HAL_Driver/Src/stm32l4xx_ll_usb.c ****                                    ((uint32_t)ep->type << 18) | (epnum << 22) |
 1267              		.loc 1 566 51 view .LVU409
 1268 0066 C4F30A04 		ubfx	r4, r4, #0, #11
 567:Drivers/STM32L4xx_HAL_Driver/Src/stm32l4xx_ll_usb.c ****                                    USB_OTG_DIEPCTL_SD0PID_SEVNFRM |
 1269              		.loc 1 567 49 view .LVU410
 1270 006a 91F804E0 		ldrb	lr, [r1, #4]	@ zero_extendqisi2
 566:Drivers/STM32L4xx_HAL_Driver/Src/stm32l4xx_ll_usb.c ****                                    ((uint32_t)ep->type << 18) | (epnum << 22) |
 1271              		.loc 1 566 76 view .LVU411
 1272 006e 44EA8E44 		orr	r4, r4, lr, lsl #18
 567:Drivers/STM32L4xx_HAL_Driver/Src/stm32l4xx_ll_usb.c ****                                    USB_OTG_DIEPCTL_SD0PID_SEVNFRM |
 1273              		.loc 1 567 63 view .LVU412
 1274 0072 44EA8254 		orr	r4, r4, r2, lsl #22
 566:Drivers/STM32L4xx_HAL_Driver/Src/stm32l4xx_ll_usb.c ****                                    ((uint32_t)ep->type << 18) | (epnum << 22) |
 1275              		.loc 1 566 33 view .LVU413
 1276 0076 2343     		orrs	r3, r3, r4
 1277 0078 43F08053 		orr	r3, r3, #268435456
 1278 007c 43F40043 		orr	r3, r3, #32768
 1279 0080 CCF80039 		str	r3, [ip, #2304]
 1280              	.L92:
 572:Drivers/STM32L4xx_HAL_Driver/Src/stm32l4xx_ll_usb.c ****   }
 1281              		.loc 1 572 5 is_stmt 1 view .LVU414
 572:Drivers/STM32L4xx_HAL_Driver/Src/stm32l4xx_ll_usb.c ****   }
 1282              		.loc 1 572 16 is_stmt 0 view .LVU415
 1283 0084 D0F83C28 		ldr	r2, [r0, #2108]
 1284              	.LVL80:
 572:Drivers/STM32L4xx_HAL_Driver/Src/stm32l4xx_ll_usb.c ****   }
 1285              		.loc 1 572 75 view .LVU416
 1286 0088 0978     		ldrb	r1, [r1]	@ zero_extendqisi2
 1287              	.LVL81:
 572:Drivers/STM32L4xx_HAL_Driver/Src/stm32l4xx_ll_usb.c ****   }
 1288              		.loc 1 572 81 view .LVU417
 1289 008a 01F00F01 		and	r1, r1, #15
 572:Drivers/STM32L4xx_HAL_Driver/Src/stm32l4xx_ll_usb.c ****   }
 1290              		.loc 1 572 54 view .LVU418
 1291 008e 0123     		movs	r3, #1
 1292 0090 8B40     		lsls	r3, r3, r1
 572:Drivers/STM32L4xx_HAL_Driver/Src/stm32l4xx_ll_usb.c ****   }
 1293              		.loc 1 572 52 view .LVU419
 1294 0092 9BB2     		uxth	r3, r3
 572:Drivers/STM32L4xx_HAL_Driver/Src/stm32l4xx_ll_usb.c ****   }
 1295              		.loc 1 572 27 view .LVU420
ARM GAS  C:\Users\gigig\AppData\Local\Temp\ccWnrG0a.s 			page 53


 1296 0094 1343     		orrs	r3, r3, r2
 1297 0096 C0F83C38 		str	r3, [r0, #2108]
 1298 009a D8E7     		b	.L93
 1299              		.cfi_endproc
 1300              	.LFE143:
 1302              		.section	.text.USB_DeactivateEndpoint,"ax",%progbits
 1303              		.align	1
 1304              		.global	USB_DeactivateEndpoint
 1305              		.syntax unified
 1306              		.thumb
 1307              		.thumb_func
 1309              	USB_DeactivateEndpoint:
 1310              	.LVL82:
 1311              	.LFB144:
 596:Drivers/STM32L4xx_HAL_Driver/Src/stm32l4xx_ll_usb.c ****   uint32_t USBx_BASE = (uint32_t)USBx;
 1312              		.loc 1 596 1 is_stmt 1 view -0
 1313              		.cfi_startproc
 1314              		@ args = 0, pretend = 0, frame = 0
 1315              		@ frame_needed = 0, uses_anonymous_args = 0
 1316              		@ link register save eliminated.
 596:Drivers/STM32L4xx_HAL_Driver/Src/stm32l4xx_ll_usb.c ****   uint32_t USBx_BASE = (uint32_t)USBx;
 1317              		.loc 1 596 1 is_stmt 0 view .LVU422
 1318 0000 30B4     		push	{r4, r5}
 1319              		.cfi_def_cfa_offset 8
 1320              		.cfi_offset 4, -8
 1321              		.cfi_offset 5, -4
 597:Drivers/STM32L4xx_HAL_Driver/Src/stm32l4xx_ll_usb.c ****   uint32_t epnum = (uint32_t)ep->num;
 1322              		.loc 1 597 3 is_stmt 1 view .LVU423
 1323              	.LVL83:
 598:Drivers/STM32L4xx_HAL_Driver/Src/stm32l4xx_ll_usb.c **** 
 1324              		.loc 1 598 3 view .LVU424
 598:Drivers/STM32L4xx_HAL_Driver/Src/stm32l4xx_ll_usb.c **** 
 1325              		.loc 1 598 32 is_stmt 0 view .LVU425
 1326 0002 0B78     		ldrb	r3, [r1]	@ zero_extendqisi2
 1327              	.LVL84:
 601:Drivers/STM32L4xx_HAL_Driver/Src/stm32l4xx_ll_usb.c ****   {
 1328              		.loc 1 601 3 is_stmt 1 view .LVU426
 601:Drivers/STM32L4xx_HAL_Driver/Src/stm32l4xx_ll_usb.c ****   {
 1329              		.loc 1 601 9 is_stmt 0 view .LVU427
 1330 0004 4A78     		ldrb	r2, [r1, #1]	@ zero_extendqisi2
 601:Drivers/STM32L4xx_HAL_Driver/Src/stm32l4xx_ll_usb.c ****   {
 1331              		.loc 1 601 6 view .LVU428
 1332 0006 012A     		cmp	r2, #1
 1333 0008 26D0     		beq	.L103
 619:Drivers/STM32L4xx_HAL_Driver/Src/stm32l4xx_ll_usb.c ****     {
 1334              		.loc 1 619 5 is_stmt 1 view .LVU429
 619:Drivers/STM32L4xx_HAL_Driver/Src/stm32l4xx_ll_usb.c ****     {
 1335              		.loc 1 619 10 is_stmt 0 view .LVU430
 1336 000a 00EB4313 		add	r3, r0, r3, lsl #5
 1337              	.LVL85:
 619:Drivers/STM32L4xx_HAL_Driver/Src/stm32l4xx_ll_usb.c ****     {
 1338              		.loc 1 619 27 view .LVU431
 1339 000e D3F8002B 		ldr	r2, [r3, #2816]
 619:Drivers/STM32L4xx_HAL_Driver/Src/stm32l4xx_ll_usb.c ****     {
 1340              		.loc 1 619 8 view .LVU432
 1341 0012 002A     		cmp	r2, #0
 1342 0014 52DB     		blt	.L104
ARM GAS  C:\Users\gigig\AppData\Local\Temp\ccWnrG0a.s 			page 54


 1343              	.LVL86:
 1344              	.L101:
 625:Drivers/STM32L4xx_HAL_Driver/Src/stm32l4xx_ll_usb.c ****     USBx_DEVICE->DAINTMSK &= ~(USB_OTG_DAINTMSK_OEPM & ((uint32_t)(1UL << (ep->num & EP_ADDR_MSK)) 
 1345              		.loc 1 625 5 is_stmt 1 view .LVU433
 625:Drivers/STM32L4xx_HAL_Driver/Src/stm32l4xx_ll_usb.c ****     USBx_DEVICE->DAINTMSK &= ~(USB_OTG_DAINTMSK_OEPM & ((uint32_t)(1UL << (ep->num & EP_ADDR_MSK)) 
 1346              		.loc 1 625 16 is_stmt 0 view .LVU434
 1347 0016 D0F83C48 		ldr	r4, [r0, #2108]
 625:Drivers/STM32L4xx_HAL_Driver/Src/stm32l4xx_ll_usb.c ****     USBx_DEVICE->DAINTMSK &= ~(USB_OTG_DAINTMSK_OEPM & ((uint32_t)(1UL << (ep->num & EP_ADDR_MSK)) 
 1348              		.loc 1 625 78 view .LVU435
 1349 001a 0A78     		ldrb	r2, [r1]	@ zero_extendqisi2
 625:Drivers/STM32L4xx_HAL_Driver/Src/stm32l4xx_ll_usb.c ****     USBx_DEVICE->DAINTMSK &= ~(USB_OTG_DAINTMSK_OEPM & ((uint32_t)(1UL << (ep->num & EP_ADDR_MSK)) 
 1350              		.loc 1 625 84 view .LVU436
 1351 001c 02F00F02 		and	r2, r2, #15
 625:Drivers/STM32L4xx_HAL_Driver/Src/stm32l4xx_ll_usb.c ****     USBx_DEVICE->DAINTMSK &= ~(USB_OTG_DAINTMSK_OEPM & ((uint32_t)(1UL << (ep->num & EP_ADDR_MSK)) 
 1352              		.loc 1 625 57 view .LVU437
 1353 0020 4FF0010C 		mov	ip, #1
 1354 0024 0CFA02F2 		lsl	r2, ip, r2
 625:Drivers/STM32L4xx_HAL_Driver/Src/stm32l4xx_ll_usb.c ****     USBx_DEVICE->DAINTMSK &= ~(USB_OTG_DAINTMSK_OEPM & ((uint32_t)(1UL << (ep->num & EP_ADDR_MSK)) 
 1355              		.loc 1 625 27 view .LVU438
 1356 0028 24EA0242 		bic	r2, r4, r2, lsl #16
 1357 002c C0F83C28 		str	r2, [r0, #2108]
 626:Drivers/STM32L4xx_HAL_Driver/Src/stm32l4xx_ll_usb.c ****     USBx_OUTEP(epnum)->DOEPCTL &= ~(USB_OTG_DOEPCTL_USBAEP |
 1358              		.loc 1 626 5 is_stmt 1 view .LVU439
 626:Drivers/STM32L4xx_HAL_Driver/Src/stm32l4xx_ll_usb.c ****     USBx_OUTEP(epnum)->DOEPCTL &= ~(USB_OTG_DOEPCTL_USBAEP |
 1359              		.loc 1 626 16 is_stmt 0 view .LVU440
 1360 0030 D0F81C28 		ldr	r2, [r0, #2076]
 626:Drivers/STM32L4xx_HAL_Driver/Src/stm32l4xx_ll_usb.c ****     USBx_OUTEP(epnum)->DOEPCTL &= ~(USB_OTG_DOEPCTL_USBAEP |
 1361              		.loc 1 626 78 view .LVU441
 1362 0034 0978     		ldrb	r1, [r1]	@ zero_extendqisi2
 1363              	.LVL87:
 626:Drivers/STM32L4xx_HAL_Driver/Src/stm32l4xx_ll_usb.c ****     USBx_OUTEP(epnum)->DOEPCTL &= ~(USB_OTG_DOEPCTL_USBAEP |
 1364              		.loc 1 626 84 view .LVU442
 1365 0036 01F00F01 		and	r1, r1, #15
 626:Drivers/STM32L4xx_HAL_Driver/Src/stm32l4xx_ll_usb.c ****     USBx_OUTEP(epnum)->DOEPCTL &= ~(USB_OTG_DOEPCTL_USBAEP |
 1366              		.loc 1 626 57 view .LVU443
 1367 003a 0CFA01FC 		lsl	ip, ip, r1
 626:Drivers/STM32L4xx_HAL_Driver/Src/stm32l4xx_ll_usb.c ****     USBx_OUTEP(epnum)->DOEPCTL &= ~(USB_OTG_DOEPCTL_USBAEP |
 1368              		.loc 1 626 27 view .LVU444
 1369 003e 22EA0C42 		bic	r2, r2, ip, lsl #16
 1370 0042 C0F81C28 		str	r2, [r0, #2076]
 627:Drivers/STM32L4xx_HAL_Driver/Src/stm32l4xx_ll_usb.c ****                                     USB_OTG_DOEPCTL_MPSIZ |
 1371              		.loc 1 627 5 is_stmt 1 view .LVU445
 627:Drivers/STM32L4xx_HAL_Driver/Src/stm32l4xx_ll_usb.c ****                                     USB_OTG_DOEPCTL_MPSIZ |
 1372              		.loc 1 627 22 is_stmt 0 view .LVU446
 1373 0046 D3F8001B 		ldr	r1, [r3, #2816]
 627:Drivers/STM32L4xx_HAL_Driver/Src/stm32l4xx_ll_usb.c ****                                     USB_OTG_DOEPCTL_MPSIZ |
 1374              		.loc 1 627 32 view .LVU447
 1375 004a 234A     		ldr	r2, .L106
 1376 004c 0A40     		ands	r2, r2, r1
 1377 004e C3F8002B 		str	r2, [r3, #2816]
 1378              	.L100:
 633:Drivers/STM32L4xx_HAL_Driver/Src/stm32l4xx_ll_usb.c **** }
 1379              		.loc 1 633 3 is_stmt 1 view .LVU448
 634:Drivers/STM32L4xx_HAL_Driver/Src/stm32l4xx_ll_usb.c **** 
 1380              		.loc 1 634 1 is_stmt 0 view .LVU449
 1381 0052 0020     		movs	r0, #0
 1382              	.LVL88:
ARM GAS  C:\Users\gigig\AppData\Local\Temp\ccWnrG0a.s 			page 55


 634:Drivers/STM32L4xx_HAL_Driver/Src/stm32l4xx_ll_usb.c **** 
 1383              		.loc 1 634 1 view .LVU450
 1384 0054 30BC     		pop	{r4, r5}
 1385              		.cfi_remember_state
 1386              		.cfi_restore 5
 1387              		.cfi_restore 4
 1388              		.cfi_def_cfa_offset 0
 1389 0056 7047     		bx	lr
 1390              	.LVL89:
 1391              	.L103:
 1392              		.cfi_restore_state
 603:Drivers/STM32L4xx_HAL_Driver/Src/stm32l4xx_ll_usb.c ****     {
 1393              		.loc 1 603 5 is_stmt 1 view .LVU451
 603:Drivers/STM32L4xx_HAL_Driver/Src/stm32l4xx_ll_usb.c ****     {
 1394              		.loc 1 603 10 is_stmt 0 view .LVU452
 1395 0058 00EB4313 		add	r3, r0, r3, lsl #5
 1396              	.LVL90:
 603:Drivers/STM32L4xx_HAL_Driver/Src/stm32l4xx_ll_usb.c ****     {
 1397              		.loc 1 603 26 view .LVU453
 1398 005c D3F80029 		ldr	r2, [r3, #2304]
 603:Drivers/STM32L4xx_HAL_Driver/Src/stm32l4xx_ll_usb.c ****     {
 1399              		.loc 1 603 8 view .LVU454
 1400 0060 002A     		cmp	r2, #0
 1401 0062 1EDB     		blt	.L105
 1402              	.LVL91:
 1403              	.L99:
 609:Drivers/STM32L4xx_HAL_Driver/Src/stm32l4xx_ll_usb.c ****     USBx_DEVICE->DAINTMSK &= ~(USB_OTG_DAINTMSK_IEPM & (uint32_t)(1UL << (ep->num & EP_ADDR_MSK)));
 1404              		.loc 1 609 5 is_stmt 1 view .LVU455
 609:Drivers/STM32L4xx_HAL_Driver/Src/stm32l4xx_ll_usb.c ****     USBx_DEVICE->DAINTMSK &= ~(USB_OTG_DAINTMSK_IEPM & (uint32_t)(1UL << (ep->num & EP_ADDR_MSK)));
 1405              		.loc 1 609 16 is_stmt 0 view .LVU456
 1406 0064 D0F83C58 		ldr	r5, [r0, #2108]
 609:Drivers/STM32L4xx_HAL_Driver/Src/stm32l4xx_ll_usb.c ****     USBx_DEVICE->DAINTMSK &= ~(USB_OTG_DAINTMSK_IEPM & (uint32_t)(1UL << (ep->num & EP_ADDR_MSK)));
 1407              		.loc 1 609 77 view .LVU457
 1408 0068 0A78     		ldrb	r2, [r1]	@ zero_extendqisi2
 609:Drivers/STM32L4xx_HAL_Driver/Src/stm32l4xx_ll_usb.c ****     USBx_DEVICE->DAINTMSK &= ~(USB_OTG_DAINTMSK_IEPM & (uint32_t)(1UL << (ep->num & EP_ADDR_MSK)));
 1409              		.loc 1 609 83 view .LVU458
 1410 006a 02F00F02 		and	r2, r2, #15
 609:Drivers/STM32L4xx_HAL_Driver/Src/stm32l4xx_ll_usb.c ****     USBx_DEVICE->DAINTMSK &= ~(USB_OTG_DAINTMSK_IEPM & (uint32_t)(1UL << (ep->num & EP_ADDR_MSK)));
 1411              		.loc 1 609 56 view .LVU459
 1412 006e 0124     		movs	r4, #1
 1413 0070 04FA02F2 		lsl	r2, r4, r2
 609:Drivers/STM32L4xx_HAL_Driver/Src/stm32l4xx_ll_usb.c ****     USBx_DEVICE->DAINTMSK &= ~(USB_OTG_DAINTMSK_IEPM & (uint32_t)(1UL << (ep->num & EP_ADDR_MSK)));
 1414              		.loc 1 609 54 view .LVU460
 1415 0074 92B2     		uxth	r2, r2
 609:Drivers/STM32L4xx_HAL_Driver/Src/stm32l4xx_ll_usb.c ****     USBx_DEVICE->DAINTMSK &= ~(USB_OTG_DAINTMSK_IEPM & (uint32_t)(1UL << (ep->num & EP_ADDR_MSK)));
 1416              		.loc 1 609 27 view .LVU461
 1417 0076 25EA0202 		bic	r2, r5, r2
 1418 007a C0F83C28 		str	r2, [r0, #2108]
 610:Drivers/STM32L4xx_HAL_Driver/Src/stm32l4xx_ll_usb.c ****     USBx_INEP(epnum)->DIEPCTL &= ~(USB_OTG_DIEPCTL_USBAEP |
 1419              		.loc 1 610 5 is_stmt 1 view .LVU462
 610:Drivers/STM32L4xx_HAL_Driver/Src/stm32l4xx_ll_usb.c ****     USBx_INEP(epnum)->DIEPCTL &= ~(USB_OTG_DIEPCTL_USBAEP |
 1420              		.loc 1 610 16 is_stmt 0 view .LVU463
 1421 007e D0F81C28 		ldr	r2, [r0, #2076]
 610:Drivers/STM32L4xx_HAL_Driver/Src/stm32l4xx_ll_usb.c ****     USBx_INEP(epnum)->DIEPCTL &= ~(USB_OTG_DIEPCTL_USBAEP |
 1422              		.loc 1 610 77 view .LVU464
 1423 0082 0978     		ldrb	r1, [r1]	@ zero_extendqisi2
 1424              	.LVL92:
ARM GAS  C:\Users\gigig\AppData\Local\Temp\ccWnrG0a.s 			page 56


 610:Drivers/STM32L4xx_HAL_Driver/Src/stm32l4xx_ll_usb.c ****     USBx_INEP(epnum)->DIEPCTL &= ~(USB_OTG_DIEPCTL_USBAEP |
 1425              		.loc 1 610 83 view .LVU465
 1426 0084 01F00F01 		and	r1, r1, #15
 610:Drivers/STM32L4xx_HAL_Driver/Src/stm32l4xx_ll_usb.c ****     USBx_INEP(epnum)->DIEPCTL &= ~(USB_OTG_DIEPCTL_USBAEP |
 1427              		.loc 1 610 56 view .LVU466
 1428 0088 8C40     		lsls	r4, r4, r1
 610:Drivers/STM32L4xx_HAL_Driver/Src/stm32l4xx_ll_usb.c ****     USBx_INEP(epnum)->DIEPCTL &= ~(USB_OTG_DIEPCTL_USBAEP |
 1429              		.loc 1 610 54 view .LVU467
 1430 008a A4B2     		uxth	r4, r4
 610:Drivers/STM32L4xx_HAL_Driver/Src/stm32l4xx_ll_usb.c ****     USBx_INEP(epnum)->DIEPCTL &= ~(USB_OTG_DIEPCTL_USBAEP |
 1431              		.loc 1 610 27 view .LVU468
 1432 008c 22EA0402 		bic	r2, r2, r4
 1433 0090 C0F81C28 		str	r2, [r0, #2076]
 611:Drivers/STM32L4xx_HAL_Driver/Src/stm32l4xx_ll_usb.c ****                                    USB_OTG_DIEPCTL_MPSIZ |
 1434              		.loc 1 611 5 is_stmt 1 view .LVU469
 611:Drivers/STM32L4xx_HAL_Driver/Src/stm32l4xx_ll_usb.c ****                                    USB_OTG_DIEPCTL_MPSIZ |
 1435              		.loc 1 611 21 is_stmt 0 view .LVU470
 1436 0094 D3F80019 		ldr	r1, [r3, #2304]
 611:Drivers/STM32L4xx_HAL_Driver/Src/stm32l4xx_ll_usb.c ****                                    USB_OTG_DIEPCTL_MPSIZ |
 1437              		.loc 1 611 31 view .LVU471
 1438 0098 104A     		ldr	r2, .L106+4
 1439 009a 0A40     		ands	r2, r2, r1
 1440 009c C3F80029 		str	r2, [r3, #2304]
 1441 00a0 D7E7     		b	.L100
 1442              	.LVL93:
 1443              	.L105:
 605:Drivers/STM32L4xx_HAL_Driver/Src/stm32l4xx_ll_usb.c ****       USBx_INEP(epnum)->DIEPCTL |= USB_OTG_DIEPCTL_EPDIS;
 1444              		.loc 1 605 7 is_stmt 1 view .LVU472
 605:Drivers/STM32L4xx_HAL_Driver/Src/stm32l4xx_ll_usb.c ****       USBx_INEP(epnum)->DIEPCTL |= USB_OTG_DIEPCTL_EPDIS;
 1445              		.loc 1 605 23 is_stmt 0 view .LVU473
 1446 00a2 D3F80029 		ldr	r2, [r3, #2304]
 605:Drivers/STM32L4xx_HAL_Driver/Src/stm32l4xx_ll_usb.c ****       USBx_INEP(epnum)->DIEPCTL |= USB_OTG_DIEPCTL_EPDIS;
 1447              		.loc 1 605 33 view .LVU474
 1448 00a6 42F00062 		orr	r2, r2, #134217728
 1449 00aa C3F80029 		str	r2, [r3, #2304]
 1450              	.LVL94:
 606:Drivers/STM32L4xx_HAL_Driver/Src/stm32l4xx_ll_usb.c ****     }
 1451              		.loc 1 606 7 is_stmt 1 view .LVU475
 606:Drivers/STM32L4xx_HAL_Driver/Src/stm32l4xx_ll_usb.c ****     }
 1452              		.loc 1 606 23 is_stmt 0 view .LVU476
 1453 00ae D3F80029 		ldr	r2, [r3, #2304]
 606:Drivers/STM32L4xx_HAL_Driver/Src/stm32l4xx_ll_usb.c ****     }
 1454              		.loc 1 606 33 view .LVU477
 1455 00b2 42F08042 		orr	r2, r2, #1073741824
 1456 00b6 C3F80029 		str	r2, [r3, #2304]
 1457 00ba D3E7     		b	.L99
 1458              	.LVL95:
 1459              	.L104:
 621:Drivers/STM32L4xx_HAL_Driver/Src/stm32l4xx_ll_usb.c ****       USBx_OUTEP(epnum)->DOEPCTL |= USB_OTG_DOEPCTL_EPDIS;
 1460              		.loc 1 621 7 is_stmt 1 view .LVU478
 621:Drivers/STM32L4xx_HAL_Driver/Src/stm32l4xx_ll_usb.c ****       USBx_OUTEP(epnum)->DOEPCTL |= USB_OTG_DOEPCTL_EPDIS;
 1461              		.loc 1 621 24 is_stmt 0 view .LVU479
 1462 00bc D3F8002B 		ldr	r2, [r3, #2816]
 621:Drivers/STM32L4xx_HAL_Driver/Src/stm32l4xx_ll_usb.c ****       USBx_OUTEP(epnum)->DOEPCTL |= USB_OTG_DOEPCTL_EPDIS;
 1463              		.loc 1 621 34 view .LVU480
 1464 00c0 42F00062 		orr	r2, r2, #134217728
 1465 00c4 C3F8002B 		str	r2, [r3, #2816]
ARM GAS  C:\Users\gigig\AppData\Local\Temp\ccWnrG0a.s 			page 57


 1466              	.LVL96:
 622:Drivers/STM32L4xx_HAL_Driver/Src/stm32l4xx_ll_usb.c ****     }
 1467              		.loc 1 622 7 is_stmt 1 view .LVU481
 622:Drivers/STM32L4xx_HAL_Driver/Src/stm32l4xx_ll_usb.c ****     }
 1468              		.loc 1 622 24 is_stmt 0 view .LVU482
 1469 00c8 D3F8002B 		ldr	r2, [r3, #2816]
 622:Drivers/STM32L4xx_HAL_Driver/Src/stm32l4xx_ll_usb.c ****     }
 1470              		.loc 1 622 34 view .LVU483
 1471 00cc 42F08042 		orr	r2, r2, #1073741824
 1472 00d0 C3F8002B 		str	r2, [r3, #2816]
 1473 00d4 9FE7     		b	.L101
 1474              	.L107:
 1475 00d6 00BF     		.align	2
 1476              	.L106:
 1477 00d8 0078F3EF 		.word	-269256704
 1478 00dc 007833EC 		.word	-332171264
 1479              		.cfi_endproc
 1480              	.LFE144:
 1482              		.section	.text.USB_DeactivateDedicatedEndpoint,"ax",%progbits
 1483              		.align	1
 1484              		.global	USB_DeactivateDedicatedEndpoint
 1485              		.syntax unified
 1486              		.thumb
 1487              		.thumb_func
 1489              	USB_DeactivateDedicatedEndpoint:
 1490              	.LVL97:
 1491              	.LFB145:
 643:Drivers/STM32L4xx_HAL_Driver/Src/stm32l4xx_ll_usb.c ****   uint32_t USBx_BASE = (uint32_t)USBx;
 1492              		.loc 1 643 1 is_stmt 1 view -0
 1493              		.cfi_startproc
 1494              		@ args = 0, pretend = 0, frame = 0
 1495              		@ frame_needed = 0, uses_anonymous_args = 0
 1496              		@ link register save eliminated.
 644:Drivers/STM32L4xx_HAL_Driver/Src/stm32l4xx_ll_usb.c ****   uint32_t epnum = (uint32_t)ep->num;
 1497              		.loc 1 644 3 view .LVU485
 645:Drivers/STM32L4xx_HAL_Driver/Src/stm32l4xx_ll_usb.c **** 
 1498              		.loc 1 645 3 view .LVU486
 645:Drivers/STM32L4xx_HAL_Driver/Src/stm32l4xx_ll_usb.c **** 
 1499              		.loc 1 645 32 is_stmt 0 view .LVU487
 1500 0000 0B78     		ldrb	r3, [r1]	@ zero_extendqisi2
 1501              	.LVL98:
 648:Drivers/STM32L4xx_HAL_Driver/Src/stm32l4xx_ll_usb.c ****   {
 1502              		.loc 1 648 3 is_stmt 1 view .LVU488
 648:Drivers/STM32L4xx_HAL_Driver/Src/stm32l4xx_ll_usb.c ****   {
 1503              		.loc 1 648 9 is_stmt 0 view .LVU489
 1504 0002 4A78     		ldrb	r2, [r1, #1]	@ zero_extendqisi2
 648:Drivers/STM32L4xx_HAL_Driver/Src/stm32l4xx_ll_usb.c ****   {
 1505              		.loc 1 648 6 view .LVU490
 1506 0004 012A     		cmp	r2, #1
 1507 0006 18D0     		beq	.L113
 661:Drivers/STM32L4xx_HAL_Driver/Src/stm32l4xx_ll_usb.c ****     {
 1508              		.loc 1 661 5 is_stmt 1 view .LVU491
 661:Drivers/STM32L4xx_HAL_Driver/Src/stm32l4xx_ll_usb.c ****     {
 1509              		.loc 1 661 10 is_stmt 0 view .LVU492
 1510 0008 00EB4313 		add	r3, r0, r3, lsl #5
 1511              	.LVL99:
 661:Drivers/STM32L4xx_HAL_Driver/Src/stm32l4xx_ll_usb.c ****     {
ARM GAS  C:\Users\gigig\AppData\Local\Temp\ccWnrG0a.s 			page 58


 1512              		.loc 1 661 27 view .LVU493
 1513 000c D3F8002B 		ldr	r2, [r3, #2816]
 661:Drivers/STM32L4xx_HAL_Driver/Src/stm32l4xx_ll_usb.c ****     {
 1514              		.loc 1 661 8 view .LVU494
 1515 0010 002A     		cmp	r2, #0
 1516 0012 38DB     		blt	.L114
 1517              	.LVL100:
 1518              	.L112:
 667:Drivers/STM32L4xx_HAL_Driver/Src/stm32l4xx_ll_usb.c ****     USBx_DEVICE->DAINTMSK &= ~(USB_OTG_DAINTMSK_OEPM & ((uint32_t)(1UL << (ep->num & EP_ADDR_MSK)) 
 1519              		.loc 1 667 5 is_stmt 1 view .LVU495
 667:Drivers/STM32L4xx_HAL_Driver/Src/stm32l4xx_ll_usb.c ****     USBx_DEVICE->DAINTMSK &= ~(USB_OTG_DAINTMSK_OEPM & ((uint32_t)(1UL << (ep->num & EP_ADDR_MSK)) 
 1520              		.loc 1 667 22 is_stmt 0 view .LVU496
 1521 0014 D3F8002B 		ldr	r2, [r3, #2816]
 667:Drivers/STM32L4xx_HAL_Driver/Src/stm32l4xx_ll_usb.c ****     USBx_DEVICE->DAINTMSK &= ~(USB_OTG_DAINTMSK_OEPM & ((uint32_t)(1UL << (ep->num & EP_ADDR_MSK)) 
 1522              		.loc 1 667 32 view .LVU497
 1523 0018 22F40042 		bic	r2, r2, #32768
 1524 001c C3F8002B 		str	r2, [r3, #2816]
 668:Drivers/STM32L4xx_HAL_Driver/Src/stm32l4xx_ll_usb.c ****   }
 1525              		.loc 1 668 5 is_stmt 1 view .LVU498
 668:Drivers/STM32L4xx_HAL_Driver/Src/stm32l4xx_ll_usb.c ****   }
 1526              		.loc 1 668 16 is_stmt 0 view .LVU499
 1527 0020 D0F81C38 		ldr	r3, [r0, #2076]
 668:Drivers/STM32L4xx_HAL_Driver/Src/stm32l4xx_ll_usb.c ****   }
 1528              		.loc 1 668 78 view .LVU500
 1529 0024 0978     		ldrb	r1, [r1]	@ zero_extendqisi2
 1530              	.LVL101:
 668:Drivers/STM32L4xx_HAL_Driver/Src/stm32l4xx_ll_usb.c ****   }
 1531              		.loc 1 668 84 view .LVU501
 1532 0026 01F00F01 		and	r1, r1, #15
 668:Drivers/STM32L4xx_HAL_Driver/Src/stm32l4xx_ll_usb.c ****   }
 1533              		.loc 1 668 57 view .LVU502
 1534 002a 0122     		movs	r2, #1
 1535 002c 8A40     		lsls	r2, r2, r1
 668:Drivers/STM32L4xx_HAL_Driver/Src/stm32l4xx_ll_usb.c ****   }
 1536              		.loc 1 668 27 view .LVU503
 1537 002e 23EA0243 		bic	r3, r3, r2, lsl #16
 1538 0032 C0F81C38 		str	r3, [r0, #2076]
 1539              	.L111:
 671:Drivers/STM32L4xx_HAL_Driver/Src/stm32l4xx_ll_usb.c **** }
 1540              		.loc 1 671 3 is_stmt 1 view .LVU504
 672:Drivers/STM32L4xx_HAL_Driver/Src/stm32l4xx_ll_usb.c **** 
 1541              		.loc 1 672 1 is_stmt 0 view .LVU505
 1542 0036 0020     		movs	r0, #0
 1543              	.LVL102:
 672:Drivers/STM32L4xx_HAL_Driver/Src/stm32l4xx_ll_usb.c **** 
 1544              		.loc 1 672 1 view .LVU506
 1545 0038 7047     		bx	lr
 1546              	.LVL103:
 1547              	.L113:
 650:Drivers/STM32L4xx_HAL_Driver/Src/stm32l4xx_ll_usb.c ****     {
 1548              		.loc 1 650 5 is_stmt 1 view .LVU507
 650:Drivers/STM32L4xx_HAL_Driver/Src/stm32l4xx_ll_usb.c ****     {
 1549              		.loc 1 650 10 is_stmt 0 view .LVU508
 1550 003a 00EB4313 		add	r3, r0, r3, lsl #5
 1551              	.LVL104:
 650:Drivers/STM32L4xx_HAL_Driver/Src/stm32l4xx_ll_usb.c ****     {
 1552              		.loc 1 650 26 view .LVU509
ARM GAS  C:\Users\gigig\AppData\Local\Temp\ccWnrG0a.s 			page 59


 1553 003e D3F80029 		ldr	r2, [r3, #2304]
 650:Drivers/STM32L4xx_HAL_Driver/Src/stm32l4xx_ll_usb.c ****     {
 1554              		.loc 1 650 8 view .LVU510
 1555 0042 002A     		cmp	r2, #0
 1556 0044 12DB     		blt	.L115
 1557              	.LVL105:
 1558              	.L110:
 656:Drivers/STM32L4xx_HAL_Driver/Src/stm32l4xx_ll_usb.c ****     USBx_DEVICE->DAINTMSK &= ~(USB_OTG_DAINTMSK_IEPM & (uint32_t)(1UL << (ep->num & EP_ADDR_MSK)));
 1559              		.loc 1 656 5 is_stmt 1 view .LVU511
 656:Drivers/STM32L4xx_HAL_Driver/Src/stm32l4xx_ll_usb.c ****     USBx_DEVICE->DAINTMSK &= ~(USB_OTG_DAINTMSK_IEPM & (uint32_t)(1UL << (ep->num & EP_ADDR_MSK)));
 1560              		.loc 1 656 21 is_stmt 0 view .LVU512
 1561 0046 D3F80029 		ldr	r2, [r3, #2304]
 656:Drivers/STM32L4xx_HAL_Driver/Src/stm32l4xx_ll_usb.c ****     USBx_DEVICE->DAINTMSK &= ~(USB_OTG_DAINTMSK_IEPM & (uint32_t)(1UL << (ep->num & EP_ADDR_MSK)));
 1562              		.loc 1 656 31 view .LVU513
 1563 004a 22F40042 		bic	r2, r2, #32768
 1564 004e C3F80029 		str	r2, [r3, #2304]
 657:Drivers/STM32L4xx_HAL_Driver/Src/stm32l4xx_ll_usb.c ****   }
 1565              		.loc 1 657 5 is_stmt 1 view .LVU514
 657:Drivers/STM32L4xx_HAL_Driver/Src/stm32l4xx_ll_usb.c ****   }
 1566              		.loc 1 657 16 is_stmt 0 view .LVU515
 1567 0052 D0F81C28 		ldr	r2, [r0, #2076]
 657:Drivers/STM32L4xx_HAL_Driver/Src/stm32l4xx_ll_usb.c ****   }
 1568              		.loc 1 657 77 view .LVU516
 1569 0056 0978     		ldrb	r1, [r1]	@ zero_extendqisi2
 1570              	.LVL106:
 657:Drivers/STM32L4xx_HAL_Driver/Src/stm32l4xx_ll_usb.c ****   }
 1571              		.loc 1 657 83 view .LVU517
 1572 0058 01F00F01 		and	r1, r1, #15
 657:Drivers/STM32L4xx_HAL_Driver/Src/stm32l4xx_ll_usb.c ****   }
 1573              		.loc 1 657 56 view .LVU518
 1574 005c 0123     		movs	r3, #1
 1575 005e 8B40     		lsls	r3, r3, r1
 657:Drivers/STM32L4xx_HAL_Driver/Src/stm32l4xx_ll_usb.c ****   }
 1576              		.loc 1 657 54 view .LVU519
 1577 0060 9BB2     		uxth	r3, r3
 657:Drivers/STM32L4xx_HAL_Driver/Src/stm32l4xx_ll_usb.c ****   }
 1578              		.loc 1 657 27 view .LVU520
 1579 0062 22EA0303 		bic	r3, r2, r3
 1580 0066 C0F81C38 		str	r3, [r0, #2076]
 1581 006a E4E7     		b	.L111
 1582              	.LVL107:
 1583              	.L115:
 652:Drivers/STM32L4xx_HAL_Driver/Src/stm32l4xx_ll_usb.c ****       USBx_INEP(epnum)->DIEPCTL  |= USB_OTG_DIEPCTL_EPDIS;
 1584              		.loc 1 652 7 is_stmt 1 view .LVU521
 652:Drivers/STM32L4xx_HAL_Driver/Src/stm32l4xx_ll_usb.c ****       USBx_INEP(epnum)->DIEPCTL  |= USB_OTG_DIEPCTL_EPDIS;
 1585              		.loc 1 652 23 is_stmt 0 view .LVU522
 1586 006c D3F80029 		ldr	r2, [r3, #2304]
 652:Drivers/STM32L4xx_HAL_Driver/Src/stm32l4xx_ll_usb.c ****       USBx_INEP(epnum)->DIEPCTL  |= USB_OTG_DIEPCTL_EPDIS;
 1587              		.loc 1 652 34 view .LVU523
 1588 0070 42F00062 		orr	r2, r2, #134217728
 1589 0074 C3F80029 		str	r2, [r3, #2304]
 1590              	.LVL108:
 653:Drivers/STM32L4xx_HAL_Driver/Src/stm32l4xx_ll_usb.c ****     }
 1591              		.loc 1 653 7 is_stmt 1 view .LVU524
 653:Drivers/STM32L4xx_HAL_Driver/Src/stm32l4xx_ll_usb.c ****     }
 1592              		.loc 1 653 23 is_stmt 0 view .LVU525
 1593 0078 D3F80029 		ldr	r2, [r3, #2304]
ARM GAS  C:\Users\gigig\AppData\Local\Temp\ccWnrG0a.s 			page 60


 653:Drivers/STM32L4xx_HAL_Driver/Src/stm32l4xx_ll_usb.c ****     }
 1594              		.loc 1 653 34 view .LVU526
 1595 007c 42F08042 		orr	r2, r2, #1073741824
 1596 0080 C3F80029 		str	r2, [r3, #2304]
 1597 0084 DFE7     		b	.L110
 1598              	.LVL109:
 1599              	.L114:
 663:Drivers/STM32L4xx_HAL_Driver/Src/stm32l4xx_ll_usb.c ****       USBx_OUTEP(epnum)->DOEPCTL  |= USB_OTG_DOEPCTL_EPDIS;
 1600              		.loc 1 663 7 is_stmt 1 view .LVU527
 663:Drivers/STM32L4xx_HAL_Driver/Src/stm32l4xx_ll_usb.c ****       USBx_OUTEP(epnum)->DOEPCTL  |= USB_OTG_DOEPCTL_EPDIS;
 1601              		.loc 1 663 24 is_stmt 0 view .LVU528
 1602 0086 D3F8002B 		ldr	r2, [r3, #2816]
 663:Drivers/STM32L4xx_HAL_Driver/Src/stm32l4xx_ll_usb.c ****       USBx_OUTEP(epnum)->DOEPCTL  |= USB_OTG_DOEPCTL_EPDIS;
 1603              		.loc 1 663 35 view .LVU529
 1604 008a 42F00062 		orr	r2, r2, #134217728
 1605 008e C3F8002B 		str	r2, [r3, #2816]
 1606              	.LVL110:
 664:Drivers/STM32L4xx_HAL_Driver/Src/stm32l4xx_ll_usb.c ****     }
 1607              		.loc 1 664 7 is_stmt 1 view .LVU530
 664:Drivers/STM32L4xx_HAL_Driver/Src/stm32l4xx_ll_usb.c ****     }
 1608              		.loc 1 664 24 is_stmt 0 view .LVU531
 1609 0092 D3F8002B 		ldr	r2, [r3, #2816]
 664:Drivers/STM32L4xx_HAL_Driver/Src/stm32l4xx_ll_usb.c ****     }
 1610              		.loc 1 664 35 view .LVU532
 1611 0096 42F08042 		orr	r2, r2, #1073741824
 1612 009a C3F8002B 		str	r2, [r3, #2816]
 1613 009e B9E7     		b	.L112
 1614              		.cfi_endproc
 1615              	.LFE145:
 1617              		.section	.text.USB_EPStopXfer,"ax",%progbits
 1618              		.align	1
 1619              		.global	USB_EPStopXfer
 1620              		.syntax unified
 1621              		.thumb
 1622              		.thumb_func
 1624              	USB_EPStopXfer:
 1625              	.LVL111:
 1626              	.LFB147:
 819:Drivers/STM32L4xx_HAL_Driver/Src/stm32l4xx_ll_usb.c ****   __IO uint32_t count = 0U;
 1627              		.loc 1 819 1 is_stmt 1 view -0
 1628              		.cfi_startproc
 1629              		@ args = 0, pretend = 0, frame = 8
 1630              		@ frame_needed = 0, uses_anonymous_args = 0
 1631              		@ link register save eliminated.
 819:Drivers/STM32L4xx_HAL_Driver/Src/stm32l4xx_ll_usb.c ****   __IO uint32_t count = 0U;
 1632              		.loc 1 819 1 is_stmt 0 view .LVU534
 1633 0000 10B4     		push	{r4}
 1634              		.cfi_def_cfa_offset 4
 1635              		.cfi_offset 4, -4
 1636 0002 83B0     		sub	sp, sp, #12
 1637              		.cfi_def_cfa_offset 16
 1638 0004 0246     		mov	r2, r0
 820:Drivers/STM32L4xx_HAL_Driver/Src/stm32l4xx_ll_usb.c ****   HAL_StatusTypeDef ret = HAL_OK;
 1639              		.loc 1 820 3 is_stmt 1 view .LVU535
 820:Drivers/STM32L4xx_HAL_Driver/Src/stm32l4xx_ll_usb.c ****   HAL_StatusTypeDef ret = HAL_OK;
 1640              		.loc 1 820 17 is_stmt 0 view .LVU536
 1641 0006 0023     		movs	r3, #0
ARM GAS  C:\Users\gigig\AppData\Local\Temp\ccWnrG0a.s 			page 61


 1642 0008 0193     		str	r3, [sp, #4]
 821:Drivers/STM32L4xx_HAL_Driver/Src/stm32l4xx_ll_usb.c ****   uint32_t USBx_BASE = (uint32_t)USBx;
 1643              		.loc 1 821 3 is_stmt 1 view .LVU537
 1644              	.LVL112:
 822:Drivers/STM32L4xx_HAL_Driver/Src/stm32l4xx_ll_usb.c **** 
 1645              		.loc 1 822 3 view .LVU538
 825:Drivers/STM32L4xx_HAL_Driver/Src/stm32l4xx_ll_usb.c ****   {
 1646              		.loc 1 825 3 view .LVU539
 825:Drivers/STM32L4xx_HAL_Driver/Src/stm32l4xx_ll_usb.c ****   {
 1647              		.loc 1 825 9 is_stmt 0 view .LVU540
 1648 000a 4878     		ldrb	r0, [r1, #1]	@ zero_extendqisi2
 1649              	.LVL113:
 825:Drivers/STM32L4xx_HAL_Driver/Src/stm32l4xx_ll_usb.c ****   {
 1650              		.loc 1 825 6 view .LVU541
 1651 000c 0128     		cmp	r0, #1
 1652 000e 0BD0     		beq	.L125
 847:Drivers/STM32L4xx_HAL_Driver/Src/stm32l4xx_ll_usb.c ****     {
 1653              		.loc 1 847 5 is_stmt 1 view .LVU542
 847:Drivers/STM32L4xx_HAL_Driver/Src/stm32l4xx_ll_usb.c ****     {
 1654              		.loc 1 847 11 is_stmt 0 view .LVU543
 1655 0010 0B78     		ldrb	r3, [r1]	@ zero_extendqisi2
 1656 0012 02EB4313 		add	r3, r2, r3, lsl #5
 847:Drivers/STM32L4xx_HAL_Driver/Src/stm32l4xx_ll_usb.c ****     {
 1657              		.loc 1 847 30 view .LVU544
 1658 0016 D3F8000B 		ldr	r0, [r3, #2816]
 847:Drivers/STM32L4xx_HAL_Driver/Src/stm32l4xx_ll_usb.c ****     {
 1659              		.loc 1 847 8 view .LVU545
 1660 001a 0028     		cmp	r0, #0
 1661 001c 2DDB     		blt	.L126
 821:Drivers/STM32L4xx_HAL_Driver/Src/stm32l4xx_ll_usb.c ****   uint32_t USBx_BASE = (uint32_t)USBx;
 1662              		.loc 1 821 21 view .LVU546
 1663 001e 0020     		movs	r0, #0
 1664              	.L118:
 1665              	.LVL114:
 865:Drivers/STM32L4xx_HAL_Driver/Src/stm32l4xx_ll_usb.c **** }
 1666              		.loc 1 865 3 is_stmt 1 view .LVU547
 866:Drivers/STM32L4xx_HAL_Driver/Src/stm32l4xx_ll_usb.c **** 
 1667              		.loc 1 866 1 is_stmt 0 view .LVU548
 1668 0020 03B0     		add	sp, sp, #12
 1669              		.cfi_remember_state
 1670              		.cfi_def_cfa_offset 4
 1671              		@ sp needed
 1672 0022 5DF8044B 		ldr	r4, [sp], #4
 1673              		.cfi_restore 4
 1674              		.cfi_def_cfa_offset 0
 1675 0026 7047     		bx	lr
 1676              	.LVL115:
 1677              	.L125:
 1678              		.cfi_restore_state
 828:Drivers/STM32L4xx_HAL_Driver/Src/stm32l4xx_ll_usb.c ****     {
 1679              		.loc 1 828 5 is_stmt 1 view .LVU549
 828:Drivers/STM32L4xx_HAL_Driver/Src/stm32l4xx_ll_usb.c ****     {
 1680              		.loc 1 828 11 is_stmt 0 view .LVU550
 1681 0028 0B78     		ldrb	r3, [r1]	@ zero_extendqisi2
 1682 002a 02EB4313 		add	r3, r2, r3, lsl #5
 828:Drivers/STM32L4xx_HAL_Driver/Src/stm32l4xx_ll_usb.c ****     {
 1683              		.loc 1 828 29 view .LVU551
ARM GAS  C:\Users\gigig\AppData\Local\Temp\ccWnrG0a.s 			page 62


 1684 002e D3F80049 		ldr	r4, [r3, #2304]
 828:Drivers/STM32L4xx_HAL_Driver/Src/stm32l4xx_ll_usb.c ****     {
 1685              		.loc 1 828 8 view .LVU552
 1686 0032 002C     		cmp	r4, #0
 1687 0034 01DB     		blt	.L127
 821:Drivers/STM32L4xx_HAL_Driver/Src/stm32l4xx_ll_usb.c ****   uint32_t USBx_BASE = (uint32_t)USBx;
 1688              		.loc 1 821 21 view .LVU553
 1689 0036 0020     		movs	r0, #0
 1690 0038 F2E7     		b	.L118
 1691              	.L127:
 830:Drivers/STM32L4xx_HAL_Driver/Src/stm32l4xx_ll_usb.c ****       USBx_INEP(ep->num)->DIEPCTL |= (USB_OTG_DIEPCTL_EPDIS);
 1692              		.loc 1 830 7 is_stmt 1 view .LVU554
 830:Drivers/STM32L4xx_HAL_Driver/Src/stm32l4xx_ll_usb.c ****       USBx_INEP(ep->num)->DIEPCTL |= (USB_OTG_DIEPCTL_EPDIS);
 1693              		.loc 1 830 25 is_stmt 0 view .LVU555
 1694 003a D3F80049 		ldr	r4, [r3, #2304]
 830:Drivers/STM32L4xx_HAL_Driver/Src/stm32l4xx_ll_usb.c ****       USBx_INEP(ep->num)->DIEPCTL |= (USB_OTG_DIEPCTL_EPDIS);
 1695              		.loc 1 830 35 view .LVU556
 1696 003e 44F00064 		orr	r4, r4, #134217728
 1697 0042 C3F80049 		str	r4, [r3, #2304]
 831:Drivers/STM32L4xx_HAL_Driver/Src/stm32l4xx_ll_usb.c **** 
 1698              		.loc 1 831 7 is_stmt 1 view .LVU557
 1699 0046 0B78     		ldrb	r3, [r1]	@ zero_extendqisi2
 831:Drivers/STM32L4xx_HAL_Driver/Src/stm32l4xx_ll_usb.c **** 
 1700              		.loc 1 831 25 is_stmt 0 view .LVU558
 1701 0048 02EB4313 		add	r3, r2, r3, lsl #5
 1702 004c D3F80049 		ldr	r4, [r3, #2304]
 831:Drivers/STM32L4xx_HAL_Driver/Src/stm32l4xx_ll_usb.c **** 
 1703              		.loc 1 831 35 view .LVU559
 1704 0050 44F08044 		orr	r4, r4, #1073741824
 1705 0054 C3F80049 		str	r4, [r3, #2304]
 1706              	.L119:
 833:Drivers/STM32L4xx_HAL_Driver/Src/stm32l4xx_ll_usb.c ****       {
 1707              		.loc 1 833 7 is_stmt 1 view .LVU560
 835:Drivers/STM32L4xx_HAL_Driver/Src/stm32l4xx_ll_usb.c **** 
 1708              		.loc 1 835 9 view .LVU561
 835:Drivers/STM32L4xx_HAL_Driver/Src/stm32l4xx_ll_usb.c **** 
 1709              		.loc 1 835 14 is_stmt 0 view .LVU562
 1710 0058 019B     		ldr	r3, [sp, #4]
 1711 005a 0133     		adds	r3, r3, #1
 1712 005c 0193     		str	r3, [sp, #4]
 837:Drivers/STM32L4xx_HAL_Driver/Src/stm32l4xx_ll_usb.c ****         {
 1713              		.loc 1 837 9 is_stmt 1 view .LVU563
 837:Drivers/STM32L4xx_HAL_Driver/Src/stm32l4xx_ll_usb.c ****         {
 1714              		.loc 1 837 19 is_stmt 0 view .LVU564
 1715 005e 019C     		ldr	r4, [sp, #4]
 837:Drivers/STM32L4xx_HAL_Driver/Src/stm32l4xx_ll_usb.c ****         {
 1716              		.loc 1 837 12 view .LVU565
 1717 0060 42F21073 		movw	r3, #10000
 1718 0064 9C42     		cmp	r4, r3
 1719 0066 DBD8     		bhi	.L118
 842:Drivers/STM32L4xx_HAL_Driver/Src/stm32l4xx_ll_usb.c ****     }
 1720              		.loc 1 842 72 is_stmt 1 view .LVU566
 842:Drivers/STM32L4xx_HAL_Driver/Src/stm32l4xx_ll_usb.c ****     }
 1721              		.loc 1 842 18 is_stmt 0 view .LVU567
 1722 0068 0B78     		ldrb	r3, [r1]	@ zero_extendqisi2
 1723 006a 02EB4313 		add	r3, r2, r3, lsl #5
 842:Drivers/STM32L4xx_HAL_Driver/Src/stm32l4xx_ll_usb.c ****     }
ARM GAS  C:\Users\gigig\AppData\Local\Temp\ccWnrG0a.s 			page 63


 1724              		.loc 1 842 36 view .LVU568
 1725 006e D3F80039 		ldr	r3, [r3, #2304]
 842:Drivers/STM32L4xx_HAL_Driver/Src/stm32l4xx_ll_usb.c ****     }
 1726              		.loc 1 842 72 view .LVU569
 1727 0072 002B     		cmp	r3, #0
 1728 0074 F0DB     		blt	.L119
 821:Drivers/STM32L4xx_HAL_Driver/Src/stm32l4xx_ll_usb.c ****   uint32_t USBx_BASE = (uint32_t)USBx;
 1729              		.loc 1 821 21 view .LVU570
 1730 0076 0020     		movs	r0, #0
 1731 0078 D2E7     		b	.L118
 1732              	.L126:
 849:Drivers/STM32L4xx_HAL_Driver/Src/stm32l4xx_ll_usb.c ****       USBx_OUTEP(ep->num)->DOEPCTL |= (USB_OTG_DOEPCTL_EPDIS);
 1733              		.loc 1 849 7 is_stmt 1 view .LVU571
 849:Drivers/STM32L4xx_HAL_Driver/Src/stm32l4xx_ll_usb.c ****       USBx_OUTEP(ep->num)->DOEPCTL |= (USB_OTG_DOEPCTL_EPDIS);
 1734              		.loc 1 849 26 is_stmt 0 view .LVU572
 1735 007a D3F8000B 		ldr	r0, [r3, #2816]
 849:Drivers/STM32L4xx_HAL_Driver/Src/stm32l4xx_ll_usb.c ****       USBx_OUTEP(ep->num)->DOEPCTL |= (USB_OTG_DOEPCTL_EPDIS);
 1736              		.loc 1 849 36 view .LVU573
 1737 007e 40F00060 		orr	r0, r0, #134217728
 1738 0082 C3F8000B 		str	r0, [r3, #2816]
 850:Drivers/STM32L4xx_HAL_Driver/Src/stm32l4xx_ll_usb.c **** 
 1739              		.loc 1 850 7 is_stmt 1 view .LVU574
 1740 0086 0B78     		ldrb	r3, [r1]	@ zero_extendqisi2
 850:Drivers/STM32L4xx_HAL_Driver/Src/stm32l4xx_ll_usb.c **** 
 1741              		.loc 1 850 26 is_stmt 0 view .LVU575
 1742 0088 02EB4313 		add	r3, r2, r3, lsl #5
 1743 008c D3F8000B 		ldr	r0, [r3, #2816]
 850:Drivers/STM32L4xx_HAL_Driver/Src/stm32l4xx_ll_usb.c **** 
 1744              		.loc 1 850 36 view .LVU576
 1745 0090 40F08040 		orr	r0, r0, #1073741824
 1746 0094 C3F8000B 		str	r0, [r3, #2816]
 1747              	.L120:
 852:Drivers/STM32L4xx_HAL_Driver/Src/stm32l4xx_ll_usb.c ****       {
 1748              		.loc 1 852 7 is_stmt 1 view .LVU577
 854:Drivers/STM32L4xx_HAL_Driver/Src/stm32l4xx_ll_usb.c **** 
 1749              		.loc 1 854 9 view .LVU578
 854:Drivers/STM32L4xx_HAL_Driver/Src/stm32l4xx_ll_usb.c **** 
 1750              		.loc 1 854 14 is_stmt 0 view .LVU579
 1751 0098 019B     		ldr	r3, [sp, #4]
 1752 009a 0133     		adds	r3, r3, #1
 1753 009c 0193     		str	r3, [sp, #4]
 856:Drivers/STM32L4xx_HAL_Driver/Src/stm32l4xx_ll_usb.c ****         {
 1754              		.loc 1 856 9 is_stmt 1 view .LVU580
 856:Drivers/STM32L4xx_HAL_Driver/Src/stm32l4xx_ll_usb.c ****         {
 1755              		.loc 1 856 19 is_stmt 0 view .LVU581
 1756 009e 0198     		ldr	r0, [sp, #4]
 856:Drivers/STM32L4xx_HAL_Driver/Src/stm32l4xx_ll_usb.c ****         {
 1757              		.loc 1 856 12 view .LVU582
 1758 00a0 42F21073 		movw	r3, #10000
 1759 00a4 9842     		cmp	r0, r3
 1760 00a6 08D8     		bhi	.L123
 861:Drivers/STM32L4xx_HAL_Driver/Src/stm32l4xx_ll_usb.c ****     }
 1761              		.loc 1 861 73 is_stmt 1 view .LVU583
 861:Drivers/STM32L4xx_HAL_Driver/Src/stm32l4xx_ll_usb.c ****     }
 1762              		.loc 1 861 18 is_stmt 0 view .LVU584
 1763 00a8 0B78     		ldrb	r3, [r1]	@ zero_extendqisi2
 1764 00aa 02EB4313 		add	r3, r2, r3, lsl #5
ARM GAS  C:\Users\gigig\AppData\Local\Temp\ccWnrG0a.s 			page 64


 861:Drivers/STM32L4xx_HAL_Driver/Src/stm32l4xx_ll_usb.c ****     }
 1765              		.loc 1 861 37 view .LVU585
 1766 00ae D3F8003B 		ldr	r3, [r3, #2816]
 861:Drivers/STM32L4xx_HAL_Driver/Src/stm32l4xx_ll_usb.c ****     }
 1767              		.loc 1 861 73 view .LVU586
 1768 00b2 002B     		cmp	r3, #0
 1769 00b4 F0DB     		blt	.L120
 821:Drivers/STM32L4xx_HAL_Driver/Src/stm32l4xx_ll_usb.c ****   uint32_t USBx_BASE = (uint32_t)USBx;
 1770              		.loc 1 821 21 view .LVU587
 1771 00b6 0020     		movs	r0, #0
 1772 00b8 B2E7     		b	.L118
 1773              	.L123:
 858:Drivers/STM32L4xx_HAL_Driver/Src/stm32l4xx_ll_usb.c ****           break;
 1774              		.loc 1 858 15 view .LVU588
 1775 00ba 0120     		movs	r0, #1
 1776 00bc B0E7     		b	.L118
 1777              		.cfi_endproc
 1778              	.LFE147:
 1780              		.section	.text.USB_WritePacket,"ax",%progbits
 1781              		.align	1
 1782              		.global	USB_WritePacket
 1783              		.syntax unified
 1784              		.thumb
 1785              		.thumb_func
 1787              	USB_WritePacket:
 1788              	.LVL116:
 1789              	.LFB148:
 880:Drivers/STM32L4xx_HAL_Driver/Src/stm32l4xx_ll_usb.c ****   uint32_t USBx_BASE = (uint32_t)USBx;
 1790              		.loc 1 880 1 is_stmt 1 view -0
 1791              		.cfi_startproc
 1792              		@ args = 0, pretend = 0, frame = 0
 1793              		@ frame_needed = 0, uses_anonymous_args = 0
 880:Drivers/STM32L4xx_HAL_Driver/Src/stm32l4xx_ll_usb.c ****   uint32_t USBx_BASE = (uint32_t)USBx;
 1794              		.loc 1 880 1 is_stmt 0 view .LVU590
 1795 0000 10B5     		push	{r4, lr}
 1796              		.cfi_def_cfa_offset 8
 1797              		.cfi_offset 4, -8
 1798              		.cfi_offset 14, -4
 881:Drivers/STM32L4xx_HAL_Driver/Src/stm32l4xx_ll_usb.c ****   uint8_t *pSrc = src;
 1799              		.loc 1 881 3 is_stmt 1 view .LVU591
 1800              	.LVL117:
 882:Drivers/STM32L4xx_HAL_Driver/Src/stm32l4xx_ll_usb.c ****   uint32_t count32b;
 1801              		.loc 1 882 3 view .LVU592
 883:Drivers/STM32L4xx_HAL_Driver/Src/stm32l4xx_ll_usb.c ****   uint32_t i;
 1802              		.loc 1 883 3 view .LVU593
 884:Drivers/STM32L4xx_HAL_Driver/Src/stm32l4xx_ll_usb.c **** 
 1803              		.loc 1 884 3 view .LVU594
 886:Drivers/STM32L4xx_HAL_Driver/Src/stm32l4xx_ll_usb.c ****   for (i = 0U; i < count32b; i++)
 1804              		.loc 1 886 3 view .LVU595
 886:Drivers/STM32L4xx_HAL_Driver/Src/stm32l4xx_ll_usb.c ****   for (i = 0U; i < count32b; i++)
 1805              		.loc 1 886 29 is_stmt 0 view .LVU596
 1806 0002 DC1C     		adds	r4, r3, #3
 886:Drivers/STM32L4xx_HAL_Driver/Src/stm32l4xx_ll_usb.c ****   for (i = 0U; i < count32b; i++)
 1807              		.loc 1 886 12 view .LVU597
 1808 0004 A408     		lsrs	r4, r4, #2
 1809              	.LVL118:
 887:Drivers/STM32L4xx_HAL_Driver/Src/stm32l4xx_ll_usb.c ****   {
ARM GAS  C:\Users\gigig\AppData\Local\Temp\ccWnrG0a.s 			page 65


 1810              		.loc 1 887 3 is_stmt 1 view .LVU598
 887:Drivers/STM32L4xx_HAL_Driver/Src/stm32l4xx_ll_usb.c ****   {
 1811              		.loc 1 887 10 is_stmt 0 view .LVU599
 1812 0006 4FF0000E 		mov	lr, #0
 887:Drivers/STM32L4xx_HAL_Driver/Src/stm32l4xx_ll_usb.c ****   {
 1813              		.loc 1 887 3 view .LVU600
 1814 000a 09E0     		b	.L129
 1815              	.LVL119:
 1816              	.L130:
 889:Drivers/STM32L4xx_HAL_Driver/Src/stm32l4xx_ll_usb.c ****     pSrc++;
 1817              		.loc 1 889 5 is_stmt 1 view .LVU601
 1818 000c 00EB023C 		add	ip, r0, r2, lsl #12
 1819 0010 0CF5805C 		add	ip, ip, #4096
 889:Drivers/STM32L4xx_HAL_Driver/Src/stm32l4xx_ll_usb.c ****     pSrc++;
 1820              		.loc 1 889 39 is_stmt 0 view .LVU602
 1821 0014 51F8043B 		ldr	r3, [r1], #4	@ unaligned
 1822              	.LVL120:
 889:Drivers/STM32L4xx_HAL_Driver/Src/stm32l4xx_ll_usb.c ****     pSrc++;
 1823              		.loc 1 889 37 view .LVU603
 1824 0018 CCF80030 		str	r3, [ip]
 890:Drivers/STM32L4xx_HAL_Driver/Src/stm32l4xx_ll_usb.c ****     pSrc++;
 1825              		.loc 1 890 5 is_stmt 1 view .LVU604
 1826              	.LVL121:
 891:Drivers/STM32L4xx_HAL_Driver/Src/stm32l4xx_ll_usb.c ****     pSrc++;
 1827              		.loc 1 891 5 view .LVU605
 892:Drivers/STM32L4xx_HAL_Driver/Src/stm32l4xx_ll_usb.c ****     pSrc++;
 1828              		.loc 1 892 5 view .LVU606
 893:Drivers/STM32L4xx_HAL_Driver/Src/stm32l4xx_ll_usb.c ****   }
 1829              		.loc 1 893 5 view .LVU607
 887:Drivers/STM32L4xx_HAL_Driver/Src/stm32l4xx_ll_usb.c ****   {
 1830              		.loc 1 887 31 discriminator 3 view .LVU608
 1831 001c 0EF1010E 		add	lr, lr, #1
 1832              	.LVL122:
 1833              	.L129:
 887:Drivers/STM32L4xx_HAL_Driver/Src/stm32l4xx_ll_usb.c ****   {
 1834              		.loc 1 887 18 discriminator 1 view .LVU609
 1835 0020 A645     		cmp	lr, r4
 1836 0022 F3D3     		bcc	.L130
 896:Drivers/STM32L4xx_HAL_Driver/Src/stm32l4xx_ll_usb.c **** }
 1837              		.loc 1 896 3 view .LVU610
 897:Drivers/STM32L4xx_HAL_Driver/Src/stm32l4xx_ll_usb.c **** 
 1838              		.loc 1 897 1 is_stmt 0 view .LVU611
 1839 0024 0020     		movs	r0, #0
 1840              	.LVL123:
 897:Drivers/STM32L4xx_HAL_Driver/Src/stm32l4xx_ll_usb.c **** 
 1841              		.loc 1 897 1 view .LVU612
 1842 0026 10BD     		pop	{r4, pc}
 897:Drivers/STM32L4xx_HAL_Driver/Src/stm32l4xx_ll_usb.c **** 
 1843              		.loc 1 897 1 view .LVU613
 1844              		.cfi_endproc
 1845              	.LFE148:
 1847              		.section	.text.USB_EPStartXfer,"ax",%progbits
 1848              		.align	1
 1849              		.global	USB_EPStartXfer
 1850              		.syntax unified
 1851              		.thumb
 1852              		.thumb_func
ARM GAS  C:\Users\gigig\AppData\Local\Temp\ccWnrG0a.s 			page 66


 1854              	USB_EPStartXfer:
 1855              	.LVL124:
 1856              	.LFB146:
 681:Drivers/STM32L4xx_HAL_Driver/Src/stm32l4xx_ll_usb.c ****   uint32_t USBx_BASE = (uint32_t)USBx;
 1857              		.loc 1 681 1 is_stmt 1 view -0
 1858              		.cfi_startproc
 1859              		@ args = 0, pretend = 0, frame = 0
 1860              		@ frame_needed = 0, uses_anonymous_args = 0
 681:Drivers/STM32L4xx_HAL_Driver/Src/stm32l4xx_ll_usb.c ****   uint32_t USBx_BASE = (uint32_t)USBx;
 1861              		.loc 1 681 1 is_stmt 0 view .LVU615
 1862 0000 70B5     		push	{r4, r5, r6, lr}
 1863              		.cfi_def_cfa_offset 16
 1864              		.cfi_offset 4, -16
 1865              		.cfi_offset 5, -12
 1866              		.cfi_offset 6, -8
 1867              		.cfi_offset 14, -4
 682:Drivers/STM32L4xx_HAL_Driver/Src/stm32l4xx_ll_usb.c ****   uint32_t epnum = (uint32_t)ep->num;
 1868              		.loc 1 682 3 is_stmt 1 view .LVU616
 1869              	.LVL125:
 683:Drivers/STM32L4xx_HAL_Driver/Src/stm32l4xx_ll_usb.c ****   uint16_t pktcnt;
 1870              		.loc 1 683 3 view .LVU617
 683:Drivers/STM32L4xx_HAL_Driver/Src/stm32l4xx_ll_usb.c ****   uint16_t pktcnt;
 1871              		.loc 1 683 32 is_stmt 0 view .LVU618
 1872 0002 0A78     		ldrb	r2, [r1]	@ zero_extendqisi2
 1873              	.LVL126:
 684:Drivers/STM32L4xx_HAL_Driver/Src/stm32l4xx_ll_usb.c **** 
 1874              		.loc 1 684 3 is_stmt 1 view .LVU619
 687:Drivers/STM32L4xx_HAL_Driver/Src/stm32l4xx_ll_usb.c ****   {
 1875              		.loc 1 687 3 view .LVU620
 687:Drivers/STM32L4xx_HAL_Driver/Src/stm32l4xx_ll_usb.c ****   {
 1876              		.loc 1 687 9 is_stmt 0 view .LVU621
 1877 0004 4B78     		ldrb	r3, [r1, #1]	@ zero_extendqisi2
 687:Drivers/STM32L4xx_HAL_Driver/Src/stm32l4xx_ll_usb.c ****   {
 1878              		.loc 1 687 6 view .LVU622
 1879 0006 012B     		cmp	r3, #1
 1880 0008 29D0     		beq	.L150
 760:Drivers/STM32L4xx_HAL_Driver/Src/stm32l4xx_ll_usb.c ****     USBx_OUTEP(epnum)->DOEPTSIZ &= ~(USB_OTG_DOEPTSIZ_PKTCNT);
 1881              		.loc 1 760 5 is_stmt 1 view .LVU623
 760:Drivers/STM32L4xx_HAL_Driver/Src/stm32l4xx_ll_usb.c ****     USBx_OUTEP(epnum)->DOEPTSIZ &= ~(USB_OTG_DOEPTSIZ_PKTCNT);
 1882              		.loc 1 760 22 is_stmt 0 view .LVU624
 1883 000a 00EB421C 		add	ip, r0, r2, lsl #5
 1884 000e 0CF53063 		add	r3, ip, #2816
 1885 0012 1C69     		ldr	r4, [r3, #16]
 760:Drivers/STM32L4xx_HAL_Driver/Src/stm32l4xx_ll_usb.c ****     USBx_OUTEP(epnum)->DOEPTSIZ &= ~(USB_OTG_DOEPTSIZ_PKTCNT);
 1886              		.loc 1 760 33 view .LVU625
 1887 0014 6FF31204 		bfc	r4, #0, #19
 1888 0018 1C61     		str	r4, [r3, #16]
 761:Drivers/STM32L4xx_HAL_Driver/Src/stm32l4xx_ll_usb.c **** 
 1889              		.loc 1 761 5 is_stmt 1 view .LVU626
 761:Drivers/STM32L4xx_HAL_Driver/Src/stm32l4xx_ll_usb.c **** 
 1890              		.loc 1 761 22 is_stmt 0 view .LVU627
 1891 001a 1C69     		ldr	r4, [r3, #16]
 761:Drivers/STM32L4xx_HAL_Driver/Src/stm32l4xx_ll_usb.c **** 
 1892              		.loc 1 761 33 view .LVU628
 1893 001c 6FF3DC44 		bfc	r4, #19, #10
 1894 0020 1C61     		str	r4, [r3, #16]
 763:Drivers/STM32L4xx_HAL_Driver/Src/stm32l4xx_ll_usb.c ****     {
ARM GAS  C:\Users\gigig\AppData\Local\Temp\ccWnrG0a.s 			page 67


 1895              		.loc 1 763 5 is_stmt 1 view .LVU629
 763:Drivers/STM32L4xx_HAL_Driver/Src/stm32l4xx_ll_usb.c ****     {
 1896              		.loc 1 763 8 is_stmt 0 view .LVU630
 1897 0022 002A     		cmp	r2, #0
 1898 0024 40F09880 		bne	.L143
 765:Drivers/STM32L4xx_HAL_Driver/Src/stm32l4xx_ll_usb.c ****       {
 1899              		.loc 1 765 7 is_stmt 1 view .LVU631
 765:Drivers/STM32L4xx_HAL_Driver/Src/stm32l4xx_ll_usb.c ****       {
 1900              		.loc 1 765 13 is_stmt 0 view .LVU632
 1901 0028 0A69     		ldr	r2, [r1, #16]
 1902              	.LVL127:
 765:Drivers/STM32L4xx_HAL_Driver/Src/stm32l4xx_ll_usb.c ****       {
 1903              		.loc 1 765 10 view .LVU633
 1904 002a 0AB1     		cbz	r2, .L144
 767:Drivers/STM32L4xx_HAL_Driver/Src/stm32l4xx_ll_usb.c ****       }
 1905              		.loc 1 767 9 is_stmt 1 view .LVU634
 767:Drivers/STM32L4xx_HAL_Driver/Src/stm32l4xx_ll_usb.c ****       }
 1906              		.loc 1 767 26 is_stmt 0 view .LVU635
 1907 002c 8A68     		ldr	r2, [r1, #8]
 767:Drivers/STM32L4xx_HAL_Driver/Src/stm32l4xx_ll_usb.c ****       }
 1908              		.loc 1 767 22 view .LVU636
 1909 002e 0A61     		str	r2, [r1, #16]
 1910              	.L144:
 771:Drivers/STM32L4xx_HAL_Driver/Src/stm32l4xx_ll_usb.c **** 
 1911              		.loc 1 771 7 is_stmt 1 view .LVU637
 771:Drivers/STM32L4xx_HAL_Driver/Src/stm32l4xx_ll_usb.c **** 
 1912              		.loc 1 771 25 is_stmt 0 view .LVU638
 1913 0030 8A68     		ldr	r2, [r1, #8]
 771:Drivers/STM32L4xx_HAL_Driver/Src/stm32l4xx_ll_usb.c **** 
 1914              		.loc 1 771 21 view .LVU639
 1915 0032 0A62     		str	r2, [r1, #32]
 773:Drivers/STM32L4xx_HAL_Driver/Src/stm32l4xx_ll_usb.c ****       USBx_OUTEP(epnum)->DOEPTSIZ |= (USB_OTG_DOEPTSIZ_PKTCNT & (1U << 19));
 1916              		.loc 1 773 7 is_stmt 1 view .LVU640
 773:Drivers/STM32L4xx_HAL_Driver/Src/stm32l4xx_ll_usb.c ****       USBx_OUTEP(epnum)->DOEPTSIZ |= (USB_OTG_DOEPTSIZ_PKTCNT & (1U << 19));
 1917              		.loc 1 773 24 is_stmt 0 view .LVU641
 1918 0034 1C69     		ldr	r4, [r3, #16]
 773:Drivers/STM32L4xx_HAL_Driver/Src/stm32l4xx_ll_usb.c ****       USBx_OUTEP(epnum)->DOEPTSIZ |= (USB_OTG_DOEPTSIZ_PKTCNT & (1U << 19));
 1919              		.loc 1 773 63 view .LVU642
 1920 0036 C2F31202 		ubfx	r2, r2, #0, #19
 773:Drivers/STM32L4xx_HAL_Driver/Src/stm32l4xx_ll_usb.c ****       USBx_OUTEP(epnum)->DOEPTSIZ |= (USB_OTG_DOEPTSIZ_PKTCNT & (1U << 19));
 1921              		.loc 1 773 35 view .LVU643
 1922 003a 2243     		orrs	r2, r2, r4
 1923 003c 1A61     		str	r2, [r3, #16]
 774:Drivers/STM32L4xx_HAL_Driver/Src/stm32l4xx_ll_usb.c ****     }
 1924              		.loc 1 774 7 is_stmt 1 view .LVU644
 774:Drivers/STM32L4xx_HAL_Driver/Src/stm32l4xx_ll_usb.c ****     }
 1925              		.loc 1 774 24 is_stmt 0 view .LVU645
 1926 003e 1A69     		ldr	r2, [r3, #16]
 774:Drivers/STM32L4xx_HAL_Driver/Src/stm32l4xx_ll_usb.c ****     }
 1927              		.loc 1 774 35 view .LVU646
 1928 0040 42F40022 		orr	r2, r2, #524288
 1929 0044 1A61     		str	r2, [r3, #16]
 1930              	.L145:
 793:Drivers/STM32L4xx_HAL_Driver/Src/stm32l4xx_ll_usb.c ****     {
 1931              		.loc 1 793 5 is_stmt 1 view .LVU647
 793:Drivers/STM32L4xx_HAL_Driver/Src/stm32l4xx_ll_usb.c ****     {
 1932              		.loc 1 793 11 is_stmt 0 view .LVU648
ARM GAS  C:\Users\gigig\AppData\Local\Temp\ccWnrG0a.s 			page 68


 1933 0046 0B79     		ldrb	r3, [r1, #4]	@ zero_extendqisi2
 793:Drivers/STM32L4xx_HAL_Driver/Src/stm32l4xx_ll_usb.c ****     {
 1934              		.loc 1 793 8 view .LVU649
 1935 0048 012B     		cmp	r3, #1
 1936 004a 00F0A880 		beq	.L151
 1937              	.L147:
 805:Drivers/STM32L4xx_HAL_Driver/Src/stm32l4xx_ll_usb.c ****   }
 1938              		.loc 1 805 5 is_stmt 1 view .LVU650
 805:Drivers/STM32L4xx_HAL_Driver/Src/stm32l4xx_ll_usb.c ****   }
 1939              		.loc 1 805 22 is_stmt 0 view .LVU651
 1940 004e DCF8003B 		ldr	r3, [ip, #2816]
 805:Drivers/STM32L4xx_HAL_Driver/Src/stm32l4xx_ll_usb.c ****   }
 1941              		.loc 1 805 32 view .LVU652
 1942 0052 43F00443 		orr	r3, r3, #-2080374784
 1943 0056 CCF8003B 		str	r3, [ip, #2816]
 1944              	.LVL128:
 1945              	.L140:
 808:Drivers/STM32L4xx_HAL_Driver/Src/stm32l4xx_ll_usb.c **** }
 1946              		.loc 1 808 3 is_stmt 1 view .LVU653
 809:Drivers/STM32L4xx_HAL_Driver/Src/stm32l4xx_ll_usb.c **** 
 1947              		.loc 1 809 1 is_stmt 0 view .LVU654
 1948 005a 0020     		movs	r0, #0
 1949 005c 70BD     		pop	{r4, r5, r6, pc}
 1950              	.LVL129:
 1951              	.L150:
 690:Drivers/STM32L4xx_HAL_Driver/Src/stm32l4xx_ll_usb.c ****     {
 1952              		.loc 1 690 5 is_stmt 1 view .LVU655
 690:Drivers/STM32L4xx_HAL_Driver/Src/stm32l4xx_ll_usb.c ****     {
 1953              		.loc 1 690 11 is_stmt 0 view .LVU656
 1954 005e 0B69     		ldr	r3, [r1, #16]
 690:Drivers/STM32L4xx_HAL_Driver/Src/stm32l4xx_ll_usb.c ****     {
 1955              		.loc 1 690 8 view .LVU657
 1956 0060 63BB     		cbnz	r3, .L134
 692:Drivers/STM32L4xx_HAL_Driver/Src/stm32l4xx_ll_usb.c ****       USBx_INEP(epnum)->DIEPTSIZ |= (USB_OTG_DIEPTSIZ_PKTCNT & (1U << 19));
 1957              		.loc 1 692 7 is_stmt 1 view .LVU658
 692:Drivers/STM32L4xx_HAL_Driver/Src/stm32l4xx_ll_usb.c ****       USBx_INEP(epnum)->DIEPTSIZ |= (USB_OTG_DIEPTSIZ_PKTCNT & (1U << 19));
 1958              		.loc 1 692 23 is_stmt 0 view .LVU659
 1959 0062 00EB4213 		add	r3, r0, r2, lsl #5
 1960 0066 D3F81049 		ldr	r4, [r3, #2320]
 692:Drivers/STM32L4xx_HAL_Driver/Src/stm32l4xx_ll_usb.c ****       USBx_INEP(epnum)->DIEPTSIZ |= (USB_OTG_DIEPTSIZ_PKTCNT & (1U << 19));
 1961              		.loc 1 692 34 view .LVU660
 1962 006a 6FF3DC44 		bfc	r4, #19, #10
 1963 006e C3F81049 		str	r4, [r3, #2320]
 693:Drivers/STM32L4xx_HAL_Driver/Src/stm32l4xx_ll_usb.c ****       USBx_INEP(epnum)->DIEPTSIZ &= ~(USB_OTG_DIEPTSIZ_XFRSIZ);
 1964              		.loc 1 693 7 is_stmt 1 view .LVU661
 693:Drivers/STM32L4xx_HAL_Driver/Src/stm32l4xx_ll_usb.c ****       USBx_INEP(epnum)->DIEPTSIZ &= ~(USB_OTG_DIEPTSIZ_XFRSIZ);
 1965              		.loc 1 693 23 is_stmt 0 view .LVU662
 1966 0072 D3F81049 		ldr	r4, [r3, #2320]
 693:Drivers/STM32L4xx_HAL_Driver/Src/stm32l4xx_ll_usb.c ****       USBx_INEP(epnum)->DIEPTSIZ &= ~(USB_OTG_DIEPTSIZ_XFRSIZ);
 1967              		.loc 1 693 34 view .LVU663
 1968 0076 44F40024 		orr	r4, r4, #524288
 1969 007a C3F81049 		str	r4, [r3, #2320]
 694:Drivers/STM32L4xx_HAL_Driver/Src/stm32l4xx_ll_usb.c ****     }
 1970              		.loc 1 694 7 is_stmt 1 view .LVU664
 694:Drivers/STM32L4xx_HAL_Driver/Src/stm32l4xx_ll_usb.c ****     }
 1971              		.loc 1 694 23 is_stmt 0 view .LVU665
 1972 007e D3F81049 		ldr	r4, [r3, #2320]
ARM GAS  C:\Users\gigig\AppData\Local\Temp\ccWnrG0a.s 			page 69


 694:Drivers/STM32L4xx_HAL_Driver/Src/stm32l4xx_ll_usb.c ****     }
 1973              		.loc 1 694 34 view .LVU666
 1974 0082 6FF31204 		bfc	r4, #0, #19
 1975 0086 C3F81049 		str	r4, [r3, #2320]
 1976              	.L135:
 730:Drivers/STM32L4xx_HAL_Driver/Src/stm32l4xx_ll_usb.c **** 
 1977              		.loc 1 730 5 is_stmt 1 view .LVU667
 730:Drivers/STM32L4xx_HAL_Driver/Src/stm32l4xx_ll_usb.c **** 
 1978              		.loc 1 730 21 is_stmt 0 view .LVU668
 1979 008a 00EB4212 		add	r2, r0, r2, lsl #5
 1980              	.LVL130:
 730:Drivers/STM32L4xx_HAL_Driver/Src/stm32l4xx_ll_usb.c **** 
 1981              		.loc 1 730 21 view .LVU669
 1982 008e D2F80039 		ldr	r3, [r2, #2304]
 730:Drivers/STM32L4xx_HAL_Driver/Src/stm32l4xx_ll_usb.c **** 
 1983              		.loc 1 730 31 view .LVU670
 1984 0092 43F00443 		orr	r3, r3, #-2080374784
 1985 0096 C2F80039 		str	r3, [r2, #2304]
 732:Drivers/STM32L4xx_HAL_Driver/Src/stm32l4xx_ll_usb.c ****     {
 1986              		.loc 1 732 5 is_stmt 1 view .LVU671
 732:Drivers/STM32L4xx_HAL_Driver/Src/stm32l4xx_ll_usb.c ****     {
 1987              		.loc 1 732 11 is_stmt 0 view .LVU672
 1988 009a 0B79     		ldrb	r3, [r1, #4]	@ zero_extendqisi2
 732:Drivers/STM32L4xx_HAL_Driver/Src/stm32l4xx_ll_usb.c ****     {
 1989              		.loc 1 732 8 view .LVU673
 1990 009c 012B     		cmp	r3, #1
 1991 009e 43D0     		beq	.L139
 735:Drivers/STM32L4xx_HAL_Driver/Src/stm32l4xx_ll_usb.c ****       {
 1992              		.loc 1 735 7 is_stmt 1 view .LVU674
 735:Drivers/STM32L4xx_HAL_Driver/Src/stm32l4xx_ll_usb.c ****       {
 1993              		.loc 1 735 13 is_stmt 0 view .LVU675
 1994 00a0 0B69     		ldr	r3, [r1, #16]
 735:Drivers/STM32L4xx_HAL_Driver/Src/stm32l4xx_ll_usb.c ****       {
 1995              		.loc 1 735 10 view .LVU676
 1996 00a2 002B     		cmp	r3, #0
 1997 00a4 D9D0     		beq	.L140
 737:Drivers/STM32L4xx_HAL_Driver/Src/stm32l4xx_ll_usb.c ****       }
 1998              		.loc 1 737 9 is_stmt 1 view .LVU677
 737:Drivers/STM32L4xx_HAL_Driver/Src/stm32l4xx_ll_usb.c ****       }
 1999              		.loc 1 737 20 is_stmt 0 view .LVU678
 2000 00a6 D0F83438 		ldr	r3, [r0, #2100]
 737:Drivers/STM32L4xx_HAL_Driver/Src/stm32l4xx_ll_usb.c ****       }
 2001              		.loc 1 737 46 view .LVU679
 2002 00aa 0978     		ldrb	r1, [r1]	@ zero_extendqisi2
 2003              	.LVL131:
 737:Drivers/STM32L4xx_HAL_Driver/Src/stm32l4xx_ll_usb.c ****       }
 2004              		.loc 1 737 52 view .LVU680
 2005 00ac 01F00F01 		and	r1, r1, #15
 737:Drivers/STM32L4xx_HAL_Driver/Src/stm32l4xx_ll_usb.c ****       }
 2006              		.loc 1 737 40 view .LVU681
 2007 00b0 0122     		movs	r2, #1
 2008 00b2 8A40     		lsls	r2, r2, r1
 737:Drivers/STM32L4xx_HAL_Driver/Src/stm32l4xx_ll_usb.c ****       }
 2009              		.loc 1 737 33 view .LVU682
 2010 00b4 1343     		orrs	r3, r3, r2
 2011 00b6 C0F83438 		str	r3, [r0, #2100]
 2012 00ba CEE7     		b	.L140
ARM GAS  C:\Users\gigig\AppData\Local\Temp\ccWnrG0a.s 			page 70


 2013              	.LVL132:
 2014              	.L134:
 703:Drivers/STM32L4xx_HAL_Driver/Src/stm32l4xx_ll_usb.c ****       USBx_INEP(epnum)->DIEPTSIZ &= ~(USB_OTG_DIEPTSIZ_PKTCNT);
 2015              		.loc 1 703 7 is_stmt 1 view .LVU683
 703:Drivers/STM32L4xx_HAL_Driver/Src/stm32l4xx_ll_usb.c ****       USBx_INEP(epnum)->DIEPTSIZ &= ~(USB_OTG_DIEPTSIZ_PKTCNT);
 2016              		.loc 1 703 23 is_stmt 0 view .LVU684
 2017 00bc 00EB4213 		add	r3, r0, r2, lsl #5
 2018 00c0 03F51063 		add	r3, r3, #2304
 2019 00c4 1C69     		ldr	r4, [r3, #16]
 703:Drivers/STM32L4xx_HAL_Driver/Src/stm32l4xx_ll_usb.c ****       USBx_INEP(epnum)->DIEPTSIZ &= ~(USB_OTG_DIEPTSIZ_PKTCNT);
 2020              		.loc 1 703 34 view .LVU685
 2021 00c6 6FF31204 		bfc	r4, #0, #19
 2022 00ca 1C61     		str	r4, [r3, #16]
 704:Drivers/STM32L4xx_HAL_Driver/Src/stm32l4xx_ll_usb.c **** 
 2023              		.loc 1 704 7 is_stmt 1 view .LVU686
 704:Drivers/STM32L4xx_HAL_Driver/Src/stm32l4xx_ll_usb.c **** 
 2024              		.loc 1 704 23 is_stmt 0 view .LVU687
 2025 00cc 1C69     		ldr	r4, [r3, #16]
 704:Drivers/STM32L4xx_HAL_Driver/Src/stm32l4xx_ll_usb.c **** 
 2026              		.loc 1 704 34 view .LVU688
 2027 00ce 6FF3DC44 		bfc	r4, #19, #10
 2028 00d2 1C61     		str	r4, [r3, #16]
 706:Drivers/STM32L4xx_HAL_Driver/Src/stm32l4xx_ll_usb.c ****       {
 2029              		.loc 1 706 7 is_stmt 1 view .LVU689
 706:Drivers/STM32L4xx_HAL_Driver/Src/stm32l4xx_ll_usb.c ****       {
 2030              		.loc 1 706 10 is_stmt 0 view .LVU690
 2031 00d4 DAB9     		cbnz	r2, .L136
 708:Drivers/STM32L4xx_HAL_Driver/Src/stm32l4xx_ll_usb.c ****         {
 2032              		.loc 1 708 9 is_stmt 1 view .LVU691
 708:Drivers/STM32L4xx_HAL_Driver/Src/stm32l4xx_ll_usb.c ****         {
 2033              		.loc 1 708 15 is_stmt 0 view .LVU692
 2034 00d6 0D69     		ldr	r5, [r1, #16]
 708:Drivers/STM32L4xx_HAL_Driver/Src/stm32l4xx_ll_usb.c ****         {
 2035              		.loc 1 708 30 view .LVU693
 2036 00d8 8C68     		ldr	r4, [r1, #8]
 708:Drivers/STM32L4xx_HAL_Driver/Src/stm32l4xx_ll_usb.c ****         {
 2037              		.loc 1 708 12 view .LVU694
 2038 00da A542     		cmp	r5, r4
 2039 00dc 00D9     		bls	.L137
 710:Drivers/STM32L4xx_HAL_Driver/Src/stm32l4xx_ll_usb.c ****         }
 2040              		.loc 1 710 11 is_stmt 1 view .LVU695
 710:Drivers/STM32L4xx_HAL_Driver/Src/stm32l4xx_ll_usb.c ****         }
 2041              		.loc 1 710 24 is_stmt 0 view .LVU696
 2042 00de 0C61     		str	r4, [r1, #16]
 2043              	.L137:
 713:Drivers/STM32L4xx_HAL_Driver/Src/stm32l4xx_ll_usb.c ****       }
 2044              		.loc 1 713 9 is_stmt 1 view .LVU697
 713:Drivers/STM32L4xx_HAL_Driver/Src/stm32l4xx_ll_usb.c ****       }
 2045              		.loc 1 713 25 is_stmt 0 view .LVU698
 2046 00e0 1C69     		ldr	r4, [r3, #16]
 713:Drivers/STM32L4xx_HAL_Driver/Src/stm32l4xx_ll_usb.c ****       }
 2047              		.loc 1 713 36 view .LVU699
 2048 00e2 44F40024 		orr	r4, r4, #524288
 2049 00e6 1C61     		str	r4, [r3, #16]
 2050              	.L138:
 721:Drivers/STM32L4xx_HAL_Driver/Src/stm32l4xx_ll_usb.c **** 
 2051              		.loc 1 721 7 is_stmt 1 view .LVU700
ARM GAS  C:\Users\gigig\AppData\Local\Temp\ccWnrG0a.s 			page 71


 721:Drivers/STM32L4xx_HAL_Driver/Src/stm32l4xx_ll_usb.c **** 
 2052              		.loc 1 721 23 is_stmt 0 view .LVU701
 2053 00e8 1C69     		ldr	r4, [r3, #16]
 721:Drivers/STM32L4xx_HAL_Driver/Src/stm32l4xx_ll_usb.c **** 
 2054              		.loc 1 721 62 view .LVU702
 2055 00ea 0D69     		ldr	r5, [r1, #16]
 2056 00ec C5F3120C 		ubfx	ip, r5, #0, #19
 721:Drivers/STM32L4xx_HAL_Driver/Src/stm32l4xx_ll_usb.c **** 
 2057              		.loc 1 721 34 view .LVU703
 2058 00f0 44EA0C04 		orr	r4, r4, ip
 2059 00f4 1C61     		str	r4, [r3, #16]
 723:Drivers/STM32L4xx_HAL_Driver/Src/stm32l4xx_ll_usb.c ****       {
 2060              		.loc 1 723 7 is_stmt 1 view .LVU704
 723:Drivers/STM32L4xx_HAL_Driver/Src/stm32l4xx_ll_usb.c ****       {
 2061              		.loc 1 723 13 is_stmt 0 view .LVU705
 2062 00f6 0C79     		ldrb	r4, [r1, #4]	@ zero_extendqisi2
 723:Drivers/STM32L4xx_HAL_Driver/Src/stm32l4xx_ll_usb.c ****       {
 2063              		.loc 1 723 10 view .LVU706
 2064 00f8 012C     		cmp	r4, #1
 2065 00fa C6D1     		bne	.L135
 725:Drivers/STM32L4xx_HAL_Driver/Src/stm32l4xx_ll_usb.c ****         USBx_INEP(epnum)->DIEPTSIZ |= (USB_OTG_DIEPTSIZ_MULCNT & (1U << 29));
 2066              		.loc 1 725 9 is_stmt 1 view .LVU707
 725:Drivers/STM32L4xx_HAL_Driver/Src/stm32l4xx_ll_usb.c ****         USBx_INEP(epnum)->DIEPTSIZ |= (USB_OTG_DIEPTSIZ_MULCNT & (1U << 29));
 2067              		.loc 1 725 25 is_stmt 0 view .LVU708
 2068 00fc 1C69     		ldr	r4, [r3, #16]
 725:Drivers/STM32L4xx_HAL_Driver/Src/stm32l4xx_ll_usb.c ****         USBx_INEP(epnum)->DIEPTSIZ |= (USB_OTG_DIEPTSIZ_MULCNT & (1U << 29));
 2069              		.loc 1 725 36 view .LVU709
 2070 00fe 24F0C044 		bic	r4, r4, #1610612736
 2071 0102 1C61     		str	r4, [r3, #16]
 726:Drivers/STM32L4xx_HAL_Driver/Src/stm32l4xx_ll_usb.c ****       }
 2072              		.loc 1 726 9 is_stmt 1 view .LVU710
 726:Drivers/STM32L4xx_HAL_Driver/Src/stm32l4xx_ll_usb.c ****       }
 2073              		.loc 1 726 25 is_stmt 0 view .LVU711
 2074 0104 1C69     		ldr	r4, [r3, #16]
 726:Drivers/STM32L4xx_HAL_Driver/Src/stm32l4xx_ll_usb.c ****       }
 2075              		.loc 1 726 36 view .LVU712
 2076 0106 44F00054 		orr	r4, r4, #536870912
 2077 010a 1C61     		str	r4, [r3, #16]
 2078 010c BDE7     		b	.L135
 2079              	.L136:
 717:Drivers/STM32L4xx_HAL_Driver/Src/stm32l4xx_ll_usb.c ****                                        (((ep->xfer_len + ep->maxpacket - 1U) / ep->maxpacket) << 19
 2080              		.loc 1 717 9 is_stmt 1 view .LVU713
 717:Drivers/STM32L4xx_HAL_Driver/Src/stm32l4xx_ll_usb.c ****                                        (((ep->xfer_len + ep->maxpacket - 1U) / ep->maxpacket) << 19
 2081              		.loc 1 717 25 is_stmt 0 view .LVU714
 2082 010e 1D69     		ldr	r5, [r3, #16]
 718:Drivers/STM32L4xx_HAL_Driver/Src/stm32l4xx_ll_usb.c ****       }
 2083              		.loc 1 718 45 view .LVU715
 2084 0110 0C69     		ldr	r4, [r1, #16]
 718:Drivers/STM32L4xx_HAL_Driver/Src/stm32l4xx_ll_usb.c ****       }
 2085              		.loc 1 718 60 view .LVU716
 2086 0112 8E68     		ldr	r6, [r1, #8]
 718:Drivers/STM32L4xx_HAL_Driver/Src/stm32l4xx_ll_usb.c ****       }
 2087              		.loc 1 718 56 view .LVU717
 2088 0114 3444     		add	r4, r4, r6
 718:Drivers/STM32L4xx_HAL_Driver/Src/stm32l4xx_ll_usb.c ****       }
 2089              		.loc 1 718 72 view .LVU718
 2090 0116 013C     		subs	r4, r4, #1
ARM GAS  C:\Users\gigig\AppData\Local\Temp\ccWnrG0a.s 			page 72


 718:Drivers/STM32L4xx_HAL_Driver/Src/stm32l4xx_ll_usb.c ****       }
 2091              		.loc 1 718 78 view .LVU719
 2092 0118 B4FBF6F4 		udiv	r4, r4, r6
 717:Drivers/STM32L4xx_HAL_Driver/Src/stm32l4xx_ll_usb.c ****                                        (((ep->xfer_len + ep->maxpacket - 1U) / ep->maxpacket) << 19
 2093              		.loc 1 717 64 view .LVU720
 2094 011c 294E     		ldr	r6, .L152
 2095 011e 06EAC444 		and	r4, r6, r4, lsl #19
 717:Drivers/STM32L4xx_HAL_Driver/Src/stm32l4xx_ll_usb.c ****                                        (((ep->xfer_len + ep->maxpacket - 1U) / ep->maxpacket) << 19
 2096              		.loc 1 717 36 view .LVU721
 2097 0122 2C43     		orrs	r4, r4, r5
 2098 0124 1C61     		str	r4, [r3, #16]
 2099 0126 DFE7     		b	.L138
 2100              	.LVL133:
 2101              	.L139:
 742:Drivers/STM32L4xx_HAL_Driver/Src/stm32l4xx_ll_usb.c ****       {
 2102              		.loc 1 742 7 is_stmt 1 view .LVU722
 742:Drivers/STM32L4xx_HAL_Driver/Src/stm32l4xx_ll_usb.c ****       {
 2103              		.loc 1 742 23 is_stmt 0 view .LVU723
 2104 0128 D0F80838 		ldr	r3, [r0, #2056]
 742:Drivers/STM32L4xx_HAL_Driver/Src/stm32l4xx_ll_usb.c ****       {
 2105              		.loc 1 742 10 view .LVU724
 2106 012c 13F4807F 		tst	r3, #256
 2107 0130 0BD1     		bne	.L141
 744:Drivers/STM32L4xx_HAL_Driver/Src/stm32l4xx_ll_usb.c ****       }
 2108              		.loc 1 744 9 is_stmt 1 view .LVU725
 744:Drivers/STM32L4xx_HAL_Driver/Src/stm32l4xx_ll_usb.c ****       }
 2109              		.loc 1 744 25 is_stmt 0 view .LVU726
 2110 0132 D2F80039 		ldr	r3, [r2, #2304]
 744:Drivers/STM32L4xx_HAL_Driver/Src/stm32l4xx_ll_usb.c ****       }
 2111              		.loc 1 744 35 view .LVU727
 2112 0136 43F00053 		orr	r3, r3, #536870912
 2113 013a C2F80039 		str	r3, [r2, #2304]
 2114              	.L142:
 751:Drivers/STM32L4xx_HAL_Driver/Src/stm32l4xx_ll_usb.c ****     }
 2115              		.loc 1 751 7 is_stmt 1 view .LVU728
 751:Drivers/STM32L4xx_HAL_Driver/Src/stm32l4xx_ll_usb.c ****     }
 2116              		.loc 1 751 13 is_stmt 0 view .LVU729
 2117 013e 0B8A     		ldrh	r3, [r1, #16]
 2118 0140 0A78     		ldrb	r2, [r1]	@ zero_extendqisi2
 2119 0142 C968     		ldr	r1, [r1, #12]
 2120              	.LVL134:
 751:Drivers/STM32L4xx_HAL_Driver/Src/stm32l4xx_ll_usb.c ****     }
 2121              		.loc 1 751 13 view .LVU730
 2122 0144 FFF7FEFF 		bl	USB_WritePacket
 2123              	.LVL135:
 751:Drivers/STM32L4xx_HAL_Driver/Src/stm32l4xx_ll_usb.c ****     }
 2124              		.loc 1 751 13 view .LVU731
 2125 0148 87E7     		b	.L140
 2126              	.LVL136:
 2127              	.L141:
 748:Drivers/STM32L4xx_HAL_Driver/Src/stm32l4xx_ll_usb.c ****       }
 2128              		.loc 1 748 9 is_stmt 1 view .LVU732
 748:Drivers/STM32L4xx_HAL_Driver/Src/stm32l4xx_ll_usb.c ****       }
 2129              		.loc 1 748 25 is_stmt 0 view .LVU733
 2130 014a D2F80039 		ldr	r3, [r2, #2304]
 748:Drivers/STM32L4xx_HAL_Driver/Src/stm32l4xx_ll_usb.c ****       }
 2131              		.loc 1 748 35 view .LVU734
ARM GAS  C:\Users\gigig\AppData\Local\Temp\ccWnrG0a.s 			page 73


 2132 014e 43F08053 		orr	r3, r3, #268435456
 2133 0152 C2F80039 		str	r3, [r2, #2304]
 2134 0156 F2E7     		b	.L142
 2135              	.LVL137:
 2136              	.L143:
 778:Drivers/STM32L4xx_HAL_Driver/Src/stm32l4xx_ll_usb.c ****       {
 2137              		.loc 1 778 7 is_stmt 1 view .LVU735
 778:Drivers/STM32L4xx_HAL_Driver/Src/stm32l4xx_ll_usb.c ****       {
 2138              		.loc 1 778 13 is_stmt 0 view .LVU736
 2139 0158 0A69     		ldr	r2, [r1, #16]
 2140              	.LVL138:
 778:Drivers/STM32L4xx_HAL_Driver/Src/stm32l4xx_ll_usb.c ****       {
 2141              		.loc 1 778 10 view .LVU737
 2142 015a 52B9     		cbnz	r2, .L146
 780:Drivers/STM32L4xx_HAL_Driver/Src/stm32l4xx_ll_usb.c ****         USBx_OUTEP(epnum)->DOEPTSIZ |= (USB_OTG_DOEPTSIZ_PKTCNT & (1U << 19));
 2143              		.loc 1 780 9 is_stmt 1 view .LVU738
 780:Drivers/STM32L4xx_HAL_Driver/Src/stm32l4xx_ll_usb.c ****         USBx_OUTEP(epnum)->DOEPTSIZ |= (USB_OTG_DOEPTSIZ_PKTCNT & (1U << 19));
 2144              		.loc 1 780 26 is_stmt 0 view .LVU739
 2145 015c 1A69     		ldr	r2, [r3, #16]
 780:Drivers/STM32L4xx_HAL_Driver/Src/stm32l4xx_ll_usb.c ****         USBx_OUTEP(epnum)->DOEPTSIZ |= (USB_OTG_DOEPTSIZ_PKTCNT & (1U << 19));
 2146              		.loc 1 780 69 view .LVU740
 2147 015e 8C68     		ldr	r4, [r1, #8]
 780:Drivers/STM32L4xx_HAL_Driver/Src/stm32l4xx_ll_usb.c ****         USBx_OUTEP(epnum)->DOEPTSIZ |= (USB_OTG_DOEPTSIZ_PKTCNT & (1U << 19));
 2148              		.loc 1 780 65 view .LVU741
 2149 0160 C4F31204 		ubfx	r4, r4, #0, #19
 780:Drivers/STM32L4xx_HAL_Driver/Src/stm32l4xx_ll_usb.c ****         USBx_OUTEP(epnum)->DOEPTSIZ |= (USB_OTG_DOEPTSIZ_PKTCNT & (1U << 19));
 2150              		.loc 1 780 37 view .LVU742
 2151 0164 2243     		orrs	r2, r2, r4
 2152 0166 1A61     		str	r2, [r3, #16]
 781:Drivers/STM32L4xx_HAL_Driver/Src/stm32l4xx_ll_usb.c ****       }
 2153              		.loc 1 781 9 is_stmt 1 view .LVU743
 781:Drivers/STM32L4xx_HAL_Driver/Src/stm32l4xx_ll_usb.c ****       }
 2154              		.loc 1 781 26 is_stmt 0 view .LVU744
 2155 0168 1A69     		ldr	r2, [r3, #16]
 781:Drivers/STM32L4xx_HAL_Driver/Src/stm32l4xx_ll_usb.c ****       }
 2156              		.loc 1 781 37 view .LVU745
 2157 016a 42F40022 		orr	r2, r2, #524288
 2158 016e 1A61     		str	r2, [r3, #16]
 2159 0170 69E7     		b	.L145
 2160              	.L146:
 785:Drivers/STM32L4xx_HAL_Driver/Src/stm32l4xx_ll_usb.c ****         ep->xfer_size = ep->maxpacket * pktcnt;
 2161              		.loc 1 785 9 is_stmt 1 view .LVU746
 785:Drivers/STM32L4xx_HAL_Driver/Src/stm32l4xx_ll_usb.c ****         ep->xfer_size = ep->maxpacket * pktcnt;
 2162              		.loc 1 785 47 is_stmt 0 view .LVU747
 2163 0172 8C68     		ldr	r4, [r1, #8]
 785:Drivers/STM32L4xx_HAL_Driver/Src/stm32l4xx_ll_usb.c ****         ep->xfer_size = ep->maxpacket * pktcnt;
 2164              		.loc 1 785 43 view .LVU748
 2165 0174 2244     		add	r2, r2, r4
 785:Drivers/STM32L4xx_HAL_Driver/Src/stm32l4xx_ll_usb.c ****         ep->xfer_size = ep->maxpacket * pktcnt;
 2166              		.loc 1 785 59 view .LVU749
 2167 0176 013A     		subs	r2, r2, #1
 785:Drivers/STM32L4xx_HAL_Driver/Src/stm32l4xx_ll_usb.c ****         ep->xfer_size = ep->maxpacket * pktcnt;
 2168              		.loc 1 785 65 view .LVU750
 2169 0178 B2FBF4F2 		udiv	r2, r2, r4
 2170              	.LVL139:
 786:Drivers/STM32L4xx_HAL_Driver/Src/stm32l4xx_ll_usb.c **** 
 2171              		.loc 1 786 9 is_stmt 1 view .LVU751
ARM GAS  C:\Users\gigig\AppData\Local\Temp\ccWnrG0a.s 			page 74


 2172 017c 92B2     		uxth	r2, r2
 786:Drivers/STM32L4xx_HAL_Driver/Src/stm32l4xx_ll_usb.c **** 
 2173              		.loc 1 786 39 is_stmt 0 view .LVU752
 2174 017e 02FB04F4 		mul	r4, r2, r4
 786:Drivers/STM32L4xx_HAL_Driver/Src/stm32l4xx_ll_usb.c **** 
 2175              		.loc 1 786 23 view .LVU753
 2176 0182 0C62     		str	r4, [r1, #32]
 788:Drivers/STM32L4xx_HAL_Driver/Src/stm32l4xx_ll_usb.c ****         USBx_OUTEP(epnum)->DOEPTSIZ |= USB_OTG_DOEPTSIZ_XFRSIZ & ep->xfer_size;
 2177              		.loc 1 788 9 is_stmt 1 view .LVU754
 788:Drivers/STM32L4xx_HAL_Driver/Src/stm32l4xx_ll_usb.c ****         USBx_OUTEP(epnum)->DOEPTSIZ |= USB_OTG_DOEPTSIZ_XFRSIZ & ep->xfer_size;
 2178              		.loc 1 788 26 is_stmt 0 view .LVU755
 2179 0184 1C69     		ldr	r4, [r3, #16]
 788:Drivers/STM32L4xx_HAL_Driver/Src/stm32l4xx_ll_usb.c ****         USBx_OUTEP(epnum)->DOEPTSIZ |= USB_OTG_DOEPTSIZ_XFRSIZ & ep->xfer_size;
 2180              		.loc 1 788 64 view .LVU756
 2181 0186 0F4D     		ldr	r5, .L152
 2182 0188 05EAC242 		and	r2, r5, r2, lsl #19
 2183              	.LVL140:
 788:Drivers/STM32L4xx_HAL_Driver/Src/stm32l4xx_ll_usb.c ****         USBx_OUTEP(epnum)->DOEPTSIZ |= USB_OTG_DOEPTSIZ_XFRSIZ & ep->xfer_size;
 2184              		.loc 1 788 37 view .LVU757
 2185 018c 2243     		orrs	r2, r2, r4
 2186 018e 1A61     		str	r2, [r3, #16]
 2187              	.LVL141:
 789:Drivers/STM32L4xx_HAL_Driver/Src/stm32l4xx_ll_usb.c ****       }
 2188              		.loc 1 789 9 is_stmt 1 view .LVU758
 789:Drivers/STM32L4xx_HAL_Driver/Src/stm32l4xx_ll_usb.c ****       }
 2189              		.loc 1 789 26 is_stmt 0 view .LVU759
 2190 0190 1A69     		ldr	r2, [r3, #16]
 789:Drivers/STM32L4xx_HAL_Driver/Src/stm32l4xx_ll_usb.c ****       }
 2191              		.loc 1 789 68 view .LVU760
 2192 0192 0C6A     		ldr	r4, [r1, #32]
 789:Drivers/STM32L4xx_HAL_Driver/Src/stm32l4xx_ll_usb.c ****       }
 2193              		.loc 1 789 64 view .LVU761
 2194 0194 C4F31204 		ubfx	r4, r4, #0, #19
 789:Drivers/STM32L4xx_HAL_Driver/Src/stm32l4xx_ll_usb.c ****       }
 2195              		.loc 1 789 37 view .LVU762
 2196 0198 2243     		orrs	r2, r2, r4
 2197 019a 1A61     		str	r2, [r3, #16]
 2198 019c 53E7     		b	.L145
 2199              	.LVL142:
 2200              	.L151:
 795:Drivers/STM32L4xx_HAL_Driver/Src/stm32l4xx_ll_usb.c ****       {
 2201              		.loc 1 795 7 is_stmt 1 view .LVU763
 795:Drivers/STM32L4xx_HAL_Driver/Src/stm32l4xx_ll_usb.c ****       {
 2202              		.loc 1 795 23 is_stmt 0 view .LVU764
 2203 019e D0F80838 		ldr	r3, [r0, #2056]
 795:Drivers/STM32L4xx_HAL_Driver/Src/stm32l4xx_ll_usb.c ****       {
 2204              		.loc 1 795 10 view .LVU765
 2205 01a2 13F4807F 		tst	r3, #256
 2206 01a6 06D1     		bne	.L148
 797:Drivers/STM32L4xx_HAL_Driver/Src/stm32l4xx_ll_usb.c ****       }
 2207              		.loc 1 797 9 is_stmt 1 view .LVU766
 797:Drivers/STM32L4xx_HAL_Driver/Src/stm32l4xx_ll_usb.c ****       }
 2208              		.loc 1 797 26 is_stmt 0 view .LVU767
 2209 01a8 DCF8003B 		ldr	r3, [ip, #2816]
 797:Drivers/STM32L4xx_HAL_Driver/Src/stm32l4xx_ll_usb.c ****       }
 2210              		.loc 1 797 36 view .LVU768
 2211 01ac 43F00053 		orr	r3, r3, #536870912
ARM GAS  C:\Users\gigig\AppData\Local\Temp\ccWnrG0a.s 			page 75


 2212 01b0 CCF8003B 		str	r3, [ip, #2816]
 2213 01b4 4BE7     		b	.L147
 2214              	.L148:
 801:Drivers/STM32L4xx_HAL_Driver/Src/stm32l4xx_ll_usb.c ****       }
 2215              		.loc 1 801 9 is_stmt 1 view .LVU769
 801:Drivers/STM32L4xx_HAL_Driver/Src/stm32l4xx_ll_usb.c ****       }
 2216              		.loc 1 801 26 is_stmt 0 view .LVU770
 2217 01b6 DCF8003B 		ldr	r3, [ip, #2816]
 801:Drivers/STM32L4xx_HAL_Driver/Src/stm32l4xx_ll_usb.c ****       }
 2218              		.loc 1 801 36 view .LVU771
 2219 01ba 43F08053 		orr	r3, r3, #268435456
 2220 01be CCF8003B 		str	r3, [ip, #2816]
 2221 01c2 44E7     		b	.L147
 2222              	.L153:
 2223              		.align	2
 2224              	.L152:
 2225 01c4 0000F81F 		.word	536346624
 2226              		.cfi_endproc
 2227              	.LFE146:
 2229              		.section	.text.USB_ReadPacket,"ax",%progbits
 2230              		.align	1
 2231              		.global	USB_ReadPacket
 2232              		.syntax unified
 2233              		.thumb
 2234              		.thumb_func
 2236              	USB_ReadPacket:
 2237              	.LVL143:
 2238              	.LFB149:
 907:Drivers/STM32L4xx_HAL_Driver/Src/stm32l4xx_ll_usb.c ****   uint32_t USBx_BASE = (uint32_t)USBx;
 2239              		.loc 1 907 1 is_stmt 1 view -0
 2240              		.cfi_startproc
 2241              		@ args = 0, pretend = 0, frame = 0
 2242              		@ frame_needed = 0, uses_anonymous_args = 0
 907:Drivers/STM32L4xx_HAL_Driver/Src/stm32l4xx_ll_usb.c ****   uint32_t USBx_BASE = (uint32_t)USBx;
 2243              		.loc 1 907 1 is_stmt 0 view .LVU773
 2244 0000 10B5     		push	{r4, lr}
 2245              		.cfi_def_cfa_offset 8
 2246              		.cfi_offset 4, -8
 2247              		.cfi_offset 14, -4
 2248 0002 8446     		mov	ip, r0
 2249 0004 0846     		mov	r0, r1
 2250              	.LVL144:
 908:Drivers/STM32L4xx_HAL_Driver/Src/stm32l4xx_ll_usb.c ****   uint8_t *pDest = dest;
 2251              		.loc 1 908 3 is_stmt 1 view .LVU774
 909:Drivers/STM32L4xx_HAL_Driver/Src/stm32l4xx_ll_usb.c ****   uint32_t pData;
 2252              		.loc 1 909 3 view .LVU775
 910:Drivers/STM32L4xx_HAL_Driver/Src/stm32l4xx_ll_usb.c ****   uint32_t i;
 2253              		.loc 1 910 3 view .LVU776
 911:Drivers/STM32L4xx_HAL_Driver/Src/stm32l4xx_ll_usb.c ****   uint32_t count32b = (uint32_t)len >> 2U;
 2254              		.loc 1 911 3 view .LVU777
 912:Drivers/STM32L4xx_HAL_Driver/Src/stm32l4xx_ll_usb.c ****   uint16_t remaining_bytes = len % 4U;
 2255              		.loc 1 912 3 view .LVU778
 912:Drivers/STM32L4xx_HAL_Driver/Src/stm32l4xx_ll_usb.c ****   uint16_t remaining_bytes = len % 4U;
 2256              		.loc 1 912 37 is_stmt 0 view .LVU779
 2257 0006 4FEA920E 		lsr	lr, r2, #2
 2258              	.LVL145:
 913:Drivers/STM32L4xx_HAL_Driver/Src/stm32l4xx_ll_usb.c **** 
ARM GAS  C:\Users\gigig\AppData\Local\Temp\ccWnrG0a.s 			page 76


 2259              		.loc 1 913 3 is_stmt 1 view .LVU780
 913:Drivers/STM32L4xx_HAL_Driver/Src/stm32l4xx_ll_usb.c **** 
 2260              		.loc 1 913 12 is_stmt 0 view .LVU781
 2261 000a 02F00302 		and	r2, r2, #3
 2262              	.LVL146:
 915:Drivers/STM32L4xx_HAL_Driver/Src/stm32l4xx_ll_usb.c ****   {
 2263              		.loc 1 915 3 is_stmt 1 view .LVU782
 915:Drivers/STM32L4xx_HAL_Driver/Src/stm32l4xx_ll_usb.c ****   {
 2264              		.loc 1 915 10 is_stmt 0 view .LVU783
 2265 000e 0023     		movs	r3, #0
 915:Drivers/STM32L4xx_HAL_Driver/Src/stm32l4xx_ll_usb.c ****   {
 2266              		.loc 1 915 3 view .LVU784
 2267 0010 05E0     		b	.L155
 2268              	.LVL147:
 2269              	.L156:
 917:Drivers/STM32L4xx_HAL_Driver/Src/stm32l4xx_ll_usb.c ****     pDest++;
 2270              		.loc 1 917 5 is_stmt 1 view .LVU785
 2271 0012 0CF58051 		add	r1, ip, #4096
 2272 0016 0968     		ldr	r1, [r1]
 2273 0018 40F8041B 		str	r1, [r0], #4	@ unaligned
 2274              	.LVL148:
 918:Drivers/STM32L4xx_HAL_Driver/Src/stm32l4xx_ll_usb.c ****     pDest++;
 2275              		.loc 1 918 5 view .LVU786
 919:Drivers/STM32L4xx_HAL_Driver/Src/stm32l4xx_ll_usb.c ****     pDest++;
 2276              		.loc 1 919 5 view .LVU787
 920:Drivers/STM32L4xx_HAL_Driver/Src/stm32l4xx_ll_usb.c ****     pDest++;
 2277              		.loc 1 920 5 view .LVU788
 921:Drivers/STM32L4xx_HAL_Driver/Src/stm32l4xx_ll_usb.c ****   }
 2278              		.loc 1 921 5 view .LVU789
 915:Drivers/STM32L4xx_HAL_Driver/Src/stm32l4xx_ll_usb.c ****   {
 2279              		.loc 1 915 31 discriminator 3 view .LVU790
 2280 001c 0133     		adds	r3, r3, #1
 2281              	.LVL149:
 2282              	.L155:
 915:Drivers/STM32L4xx_HAL_Driver/Src/stm32l4xx_ll_usb.c ****   {
 2283              		.loc 1 915 18 discriminator 1 view .LVU791
 2284 001e 7345     		cmp	r3, lr
 2285 0020 F7D3     		bcc	.L156
 925:Drivers/STM32L4xx_HAL_Driver/Src/stm32l4xx_ll_usb.c ****   {
 2286              		.loc 1 925 3 view .LVU792
 925:Drivers/STM32L4xx_HAL_Driver/Src/stm32l4xx_ll_usb.c ****   {
 2287              		.loc 1 925 6 is_stmt 0 view .LVU793
 2288 0022 7AB1     		cbz	r2, .L157
 927:Drivers/STM32L4xx_HAL_Driver/Src/stm32l4xx_ll_usb.c ****     __UNALIGNED_UINT32_WRITE(&pData, USBx_DFIFO(0U));
 2289              		.loc 1 927 5 is_stmt 1 view .LVU794
 2290              	.LVL150:
 928:Drivers/STM32L4xx_HAL_Driver/Src/stm32l4xx_ll_usb.c **** 
 2291              		.loc 1 928 5 view .LVU795
 2292 0024 0CF5805C 		add	ip, ip, #4096
 2293              	.LVL151:
 928:Drivers/STM32L4xx_HAL_Driver/Src/stm32l4xx_ll_usb.c **** 
 2294              		.loc 1 928 5 is_stmt 0 view .LVU796
 2295 0028 DCF80040 		ldr	r4, [ip]
 927:Drivers/STM32L4xx_HAL_Driver/Src/stm32l4xx_ll_usb.c ****     __UNALIGNED_UINT32_WRITE(&pData, USBx_DFIFO(0U));
 2296              		.loc 1 927 7 view .LVU797
 2297 002c 0021     		movs	r1, #0
 2298              	.LVL152:
ARM GAS  C:\Users\gigig\AppData\Local\Temp\ccWnrG0a.s 			page 77


 2299              	.L158:
 930:Drivers/STM32L4xx_HAL_Driver/Src/stm32l4xx_ll_usb.c ****     {
 2300              		.loc 1 930 5 is_stmt 1 view .LVU798
 932:Drivers/STM32L4xx_HAL_Driver/Src/stm32l4xx_ll_usb.c ****       i++;
 2301              		.loc 1 932 7 view .LVU799
 932:Drivers/STM32L4xx_HAL_Driver/Src/stm32l4xx_ll_usb.c ****       i++;
 2302              		.loc 1 932 50 is_stmt 0 view .LVU800
 2303 002e CBB2     		uxtb	r3, r1
 2304 0030 DB00     		lsls	r3, r3, #3
 932:Drivers/STM32L4xx_HAL_Driver/Src/stm32l4xx_ll_usb.c ****       i++;
 2305              		.loc 1 932 43 view .LVU801
 2306 0032 24FA03F3 		lsr	r3, r4, r3
 932:Drivers/STM32L4xx_HAL_Driver/Src/stm32l4xx_ll_usb.c ****       i++;
 2307              		.loc 1 932 25 view .LVU802
 2308 0036 00F8013B 		strb	r3, [r0], #1
 2309              	.LVL153:
 933:Drivers/STM32L4xx_HAL_Driver/Src/stm32l4xx_ll_usb.c ****       pDest++;
 2310              		.loc 1 933 7 is_stmt 1 view .LVU803
 933:Drivers/STM32L4xx_HAL_Driver/Src/stm32l4xx_ll_usb.c ****       pDest++;
 2311              		.loc 1 933 8 is_stmt 0 view .LVU804
 2312 003a 0131     		adds	r1, r1, #1
 2313              	.LVL154:
 934:Drivers/STM32L4xx_HAL_Driver/Src/stm32l4xx_ll_usb.c ****       remaining_bytes--;
 2314              		.loc 1 934 7 is_stmt 1 view .LVU805
 935:Drivers/STM32L4xx_HAL_Driver/Src/stm32l4xx_ll_usb.c ****     } while (remaining_bytes != 0U);
 2315              		.loc 1 935 7 view .LVU806
 935:Drivers/STM32L4xx_HAL_Driver/Src/stm32l4xx_ll_usb.c ****     } while (remaining_bytes != 0U);
 2316              		.loc 1 935 22 is_stmt 0 view .LVU807
 2317 003c 013A     		subs	r2, r2, #1
 2318              	.LVL155:
 935:Drivers/STM32L4xx_HAL_Driver/Src/stm32l4xx_ll_usb.c ****     } while (remaining_bytes != 0U);
 2319              		.loc 1 935 22 view .LVU808
 2320 003e 92B2     		uxth	r2, r2
 2321              	.LVL156:
 936:Drivers/STM32L4xx_HAL_Driver/Src/stm32l4xx_ll_usb.c ****   }
 2322              		.loc 1 936 30 is_stmt 1 discriminator 1 view .LVU809
 2323 0040 002A     		cmp	r2, #0
 2324 0042 F4D1     		bne	.L158
 2325              	.LVL157:
 2326              	.L157:
 939:Drivers/STM32L4xx_HAL_Driver/Src/stm32l4xx_ll_usb.c **** }
 2327              		.loc 1 939 3 view .LVU810
 940:Drivers/STM32L4xx_HAL_Driver/Src/stm32l4xx_ll_usb.c **** 
 2328              		.loc 1 940 1 is_stmt 0 view .LVU811
 2329 0044 10BD     		pop	{r4, pc}
 2330              		.cfi_endproc
 2331              	.LFE149:
 2333              		.section	.text.USB_EPSetStall,"ax",%progbits
 2334              		.align	1
 2335              		.global	USB_EPSetStall
 2336              		.syntax unified
 2337              		.thumb
 2338              		.thumb_func
 2340              	USB_EPSetStall:
 2341              	.LVL158:
 2342              	.LFB150:
 949:Drivers/STM32L4xx_HAL_Driver/Src/stm32l4xx_ll_usb.c ****   uint32_t USBx_BASE = (uint32_t)USBx;
ARM GAS  C:\Users\gigig\AppData\Local\Temp\ccWnrG0a.s 			page 78


 2343              		.loc 1 949 1 is_stmt 1 view -0
 2344              		.cfi_startproc
 2345              		@ args = 0, pretend = 0, frame = 0
 2346              		@ frame_needed = 0, uses_anonymous_args = 0
 2347              		@ link register save eliminated.
 950:Drivers/STM32L4xx_HAL_Driver/Src/stm32l4xx_ll_usb.c ****   uint32_t epnum = (uint32_t)ep->num;
 2348              		.loc 1 950 3 view .LVU813
 951:Drivers/STM32L4xx_HAL_Driver/Src/stm32l4xx_ll_usb.c **** 
 2349              		.loc 1 951 3 view .LVU814
 951:Drivers/STM32L4xx_HAL_Driver/Src/stm32l4xx_ll_usb.c **** 
 2350              		.loc 1 951 32 is_stmt 0 view .LVU815
 2351 0000 0B78     		ldrb	r3, [r1]	@ zero_extendqisi2
 2352              	.LVL159:
 953:Drivers/STM32L4xx_HAL_Driver/Src/stm32l4xx_ll_usb.c ****   {
 2353              		.loc 1 953 3 is_stmt 1 view .LVU816
 953:Drivers/STM32L4xx_HAL_Driver/Src/stm32l4xx_ll_usb.c ****   {
 2354              		.loc 1 953 9 is_stmt 0 view .LVU817
 2355 0002 4A78     		ldrb	r2, [r1, #1]	@ zero_extendqisi2
 953:Drivers/STM32L4xx_HAL_Driver/Src/stm32l4xx_ll_usb.c ****   {
 2356              		.loc 1 953 6 view .LVU818
 2357 0004 012A     		cmp	r2, #1
 2358 0006 14D0     		beq	.L165
 963:Drivers/STM32L4xx_HAL_Driver/Src/stm32l4xx_ll_usb.c ****     {
 2359              		.loc 1 963 5 is_stmt 1 view .LVU819
 963:Drivers/STM32L4xx_HAL_Driver/Src/stm32l4xx_ll_usb.c ****     {
 2360              		.loc 1 963 11 is_stmt 0 view .LVU820
 2361 0008 00EB4310 		add	r0, r0, r3, lsl #5
 2362              	.LVL160:
 963:Drivers/STM32L4xx_HAL_Driver/Src/stm32l4xx_ll_usb.c ****     {
 2363              		.loc 1 963 28 view .LVU821
 2364 000c D0F8002B 		ldr	r2, [r0, #2816]
 963:Drivers/STM32L4xx_HAL_Driver/Src/stm32l4xx_ll_usb.c ****     {
 2365              		.loc 1 963 8 view .LVU822
 2366 0010 002A     		cmp	r2, #0
 2367 0012 06DB     		blt	.L164
 963:Drivers/STM32L4xx_HAL_Driver/Src/stm32l4xx_ll_usb.c ****     {
 2368              		.loc 1 963 70 discriminator 1 view .LVU823
 2369 0014 2BB1     		cbz	r3, .L164
 965:Drivers/STM32L4xx_HAL_Driver/Src/stm32l4xx_ll_usb.c ****     }
 2370              		.loc 1 965 7 is_stmt 1 view .LVU824
 965:Drivers/STM32L4xx_HAL_Driver/Src/stm32l4xx_ll_usb.c ****     }
 2371              		.loc 1 965 24 is_stmt 0 view .LVU825
 2372 0016 D0F8003B 		ldr	r3, [r0, #2816]
 2373              	.LVL161:
 965:Drivers/STM32L4xx_HAL_Driver/Src/stm32l4xx_ll_usb.c ****     }
 2374              		.loc 1 965 34 view .LVU826
 2375 001a 23F08043 		bic	r3, r3, #1073741824
 2376 001e C0F8003B 		str	r3, [r0, #2816]
 2377              	.LVL162:
 2378              	.L164:
 967:Drivers/STM32L4xx_HAL_Driver/Src/stm32l4xx_ll_usb.c ****   }
 2379              		.loc 1 967 5 is_stmt 1 view .LVU827
 967:Drivers/STM32L4xx_HAL_Driver/Src/stm32l4xx_ll_usb.c ****   }
 2380              		.loc 1 967 22 is_stmt 0 view .LVU828
 2381 0022 D0F8003B 		ldr	r3, [r0, #2816]
 967:Drivers/STM32L4xx_HAL_Driver/Src/stm32l4xx_ll_usb.c ****   }
 2382              		.loc 1 967 32 view .LVU829
ARM GAS  C:\Users\gigig\AppData\Local\Temp\ccWnrG0a.s 			page 79


 2383 0026 43F40013 		orr	r3, r3, #2097152
 2384 002a C0F8003B 		str	r3, [r0, #2816]
 2385              	.L163:
 970:Drivers/STM32L4xx_HAL_Driver/Src/stm32l4xx_ll_usb.c **** }
 2386              		.loc 1 970 3 is_stmt 1 view .LVU830
 971:Drivers/STM32L4xx_HAL_Driver/Src/stm32l4xx_ll_usb.c **** 
 2387              		.loc 1 971 1 is_stmt 0 view .LVU831
 2388 002e 0020     		movs	r0, #0
 2389 0030 7047     		bx	lr
 2390              	.LVL163:
 2391              	.L165:
 955:Drivers/STM32L4xx_HAL_Driver/Src/stm32l4xx_ll_usb.c ****     {
 2392              		.loc 1 955 5 is_stmt 1 view .LVU832
 955:Drivers/STM32L4xx_HAL_Driver/Src/stm32l4xx_ll_usb.c ****     {
 2393              		.loc 1 955 11 is_stmt 0 view .LVU833
 2394 0032 00EB4310 		add	r0, r0, r3, lsl #5
 2395              	.LVL164:
 955:Drivers/STM32L4xx_HAL_Driver/Src/stm32l4xx_ll_usb.c ****     {
 2396              		.loc 1 955 27 view .LVU834
 2397 0036 D0F80029 		ldr	r2, [r0, #2304]
 955:Drivers/STM32L4xx_HAL_Driver/Src/stm32l4xx_ll_usb.c ****     {
 2398              		.loc 1 955 8 view .LVU835
 2399 003a 002A     		cmp	r2, #0
 2400 003c 06DB     		blt	.L162
 955:Drivers/STM32L4xx_HAL_Driver/Src/stm32l4xx_ll_usb.c ****     {
 2401              		.loc 1 955 69 discriminator 1 view .LVU836
 2402 003e 2BB1     		cbz	r3, .L162
 957:Drivers/STM32L4xx_HAL_Driver/Src/stm32l4xx_ll_usb.c ****     }
 2403              		.loc 1 957 7 is_stmt 1 view .LVU837
 957:Drivers/STM32L4xx_HAL_Driver/Src/stm32l4xx_ll_usb.c ****     }
 2404              		.loc 1 957 23 is_stmt 0 view .LVU838
 2405 0040 D0F80039 		ldr	r3, [r0, #2304]
 2406              	.LVL165:
 957:Drivers/STM32L4xx_HAL_Driver/Src/stm32l4xx_ll_usb.c ****     }
 2407              		.loc 1 957 33 view .LVU839
 2408 0044 23F08043 		bic	r3, r3, #1073741824
 2409 0048 C0F80039 		str	r3, [r0, #2304]
 2410              	.LVL166:
 2411              	.L162:
 959:Drivers/STM32L4xx_HAL_Driver/Src/stm32l4xx_ll_usb.c ****   }
 2412              		.loc 1 959 5 is_stmt 1 view .LVU840
 959:Drivers/STM32L4xx_HAL_Driver/Src/stm32l4xx_ll_usb.c ****   }
 2413              		.loc 1 959 21 is_stmt 0 view .LVU841
 2414 004c D0F80039 		ldr	r3, [r0, #2304]
 959:Drivers/STM32L4xx_HAL_Driver/Src/stm32l4xx_ll_usb.c ****   }
 2415              		.loc 1 959 31 view .LVU842
 2416 0050 43F40013 		orr	r3, r3, #2097152
 2417 0054 C0F80039 		str	r3, [r0, #2304]
 2418 0058 E9E7     		b	.L163
 2419              		.cfi_endproc
 2420              	.LFE150:
 2422              		.section	.text.USB_EPClearStall,"ax",%progbits
 2423              		.align	1
 2424              		.global	USB_EPClearStall
 2425              		.syntax unified
 2426              		.thumb
 2427              		.thumb_func
ARM GAS  C:\Users\gigig\AppData\Local\Temp\ccWnrG0a.s 			page 80


 2429              	USB_EPClearStall:
 2430              	.LVL167:
 2431              	.LFB151:
 980:Drivers/STM32L4xx_HAL_Driver/Src/stm32l4xx_ll_usb.c ****   uint32_t USBx_BASE = (uint32_t)USBx;
 2432              		.loc 1 980 1 is_stmt 1 view -0
 2433              		.cfi_startproc
 2434              		@ args = 0, pretend = 0, frame = 0
 2435              		@ frame_needed = 0, uses_anonymous_args = 0
 2436              		@ link register save eliminated.
 981:Drivers/STM32L4xx_HAL_Driver/Src/stm32l4xx_ll_usb.c ****   uint32_t epnum = (uint32_t)ep->num;
 2437              		.loc 1 981 3 view .LVU844
 982:Drivers/STM32L4xx_HAL_Driver/Src/stm32l4xx_ll_usb.c **** 
 2438              		.loc 1 982 3 view .LVU845
 982:Drivers/STM32L4xx_HAL_Driver/Src/stm32l4xx_ll_usb.c **** 
 2439              		.loc 1 982 32 is_stmt 0 view .LVU846
 2440 0000 0B78     		ldrb	r3, [r1]	@ zero_extendqisi2
 2441              	.LVL168:
 984:Drivers/STM32L4xx_HAL_Driver/Src/stm32l4xx_ll_usb.c ****   {
 2442              		.loc 1 984 3 is_stmt 1 view .LVU847
 984:Drivers/STM32L4xx_HAL_Driver/Src/stm32l4xx_ll_usb.c ****   {
 2443              		.loc 1 984 9 is_stmt 0 view .LVU848
 2444 0002 4A78     		ldrb	r2, [r1, #1]	@ zero_extendqisi2
 984:Drivers/STM32L4xx_HAL_Driver/Src/stm32l4xx_ll_usb.c ****   {
 2445              		.loc 1 984 6 view .LVU849
 2446 0004 012A     		cmp	r2, #1
 2447 0006 0ED0     		beq	.L169
 994:Drivers/STM32L4xx_HAL_Driver/Src/stm32l4xx_ll_usb.c ****     if ((ep->type == EP_TYPE_INTR) || (ep->type == EP_TYPE_BULK))
 2448              		.loc 1 994 5 is_stmt 1 view .LVU850
 994:Drivers/STM32L4xx_HAL_Driver/Src/stm32l4xx_ll_usb.c ****     if ((ep->type == EP_TYPE_INTR) || (ep->type == EP_TYPE_BULK))
 2449              		.loc 1 994 22 is_stmt 0 view .LVU851
 2450 0008 00EB4310 		add	r0, r0, r3, lsl #5
 2451              	.LVL169:
 994:Drivers/STM32L4xx_HAL_Driver/Src/stm32l4xx_ll_usb.c ****     if ((ep->type == EP_TYPE_INTR) || (ep->type == EP_TYPE_BULK))
 2452              		.loc 1 994 22 view .LVU852
 2453 000c D0F8003B 		ldr	r3, [r0, #2816]
 2454              	.LVL170:
 994:Drivers/STM32L4xx_HAL_Driver/Src/stm32l4xx_ll_usb.c ****     if ((ep->type == EP_TYPE_INTR) || (ep->type == EP_TYPE_BULK))
 2455              		.loc 1 994 32 view .LVU853
 2456 0010 23F40013 		bic	r3, r3, #2097152
 2457 0014 C0F8003B 		str	r3, [r0, #2816]
 2458              	.LVL171:
 995:Drivers/STM32L4xx_HAL_Driver/Src/stm32l4xx_ll_usb.c ****     {
 2459              		.loc 1 995 5 is_stmt 1 view .LVU854
 995:Drivers/STM32L4xx_HAL_Driver/Src/stm32l4xx_ll_usb.c ****     {
 2460              		.loc 1 995 12 is_stmt 0 view .LVU855
 2461 0018 0B79     		ldrb	r3, [r1, #4]	@ zero_extendqisi2
 995:Drivers/STM32L4xx_HAL_Driver/Src/stm32l4xx_ll_usb.c ****     {
 2462              		.loc 1 995 36 view .LVU856
 2463 001a 023B     		subs	r3, r3, #2
 2464 001c DBB2     		uxtb	r3, r3
 995:Drivers/STM32L4xx_HAL_Driver/Src/stm32l4xx_ll_usb.c ****     {
 2465              		.loc 1 995 8 view .LVU857
 2466 001e 012B     		cmp	r3, #1
 2467 0020 15D9     		bls	.L170
 2468              	.L168:
1000:Drivers/STM32L4xx_HAL_Driver/Src/stm32l4xx_ll_usb.c **** }
 2469              		.loc 1 1000 3 is_stmt 1 view .LVU858
ARM GAS  C:\Users\gigig\AppData\Local\Temp\ccWnrG0a.s 			page 81


1001:Drivers/STM32L4xx_HAL_Driver/Src/stm32l4xx_ll_usb.c **** 
 2470              		.loc 1 1001 1 is_stmt 0 view .LVU859
 2471 0022 0020     		movs	r0, #0
 2472 0024 7047     		bx	lr
 2473              	.LVL172:
 2474              	.L169:
 986:Drivers/STM32L4xx_HAL_Driver/Src/stm32l4xx_ll_usb.c ****     if ((ep->type == EP_TYPE_INTR) || (ep->type == EP_TYPE_BULK))
 2475              		.loc 1 986 5 is_stmt 1 view .LVU860
 986:Drivers/STM32L4xx_HAL_Driver/Src/stm32l4xx_ll_usb.c ****     if ((ep->type == EP_TYPE_INTR) || (ep->type == EP_TYPE_BULK))
 2476              		.loc 1 986 21 is_stmt 0 view .LVU861
 2477 0026 00EB4310 		add	r0, r0, r3, lsl #5
 2478              	.LVL173:
 986:Drivers/STM32L4xx_HAL_Driver/Src/stm32l4xx_ll_usb.c ****     if ((ep->type == EP_TYPE_INTR) || (ep->type == EP_TYPE_BULK))
 2479              		.loc 1 986 21 view .LVU862
 2480 002a D0F80039 		ldr	r3, [r0, #2304]
 2481              	.LVL174:
 986:Drivers/STM32L4xx_HAL_Driver/Src/stm32l4xx_ll_usb.c ****     if ((ep->type == EP_TYPE_INTR) || (ep->type == EP_TYPE_BULK))
 2482              		.loc 1 986 31 view .LVU863
 2483 002e 23F40013 		bic	r3, r3, #2097152
 2484 0032 C0F80039 		str	r3, [r0, #2304]
 2485              	.LVL175:
 987:Drivers/STM32L4xx_HAL_Driver/Src/stm32l4xx_ll_usb.c ****     {
 2486              		.loc 1 987 5 is_stmt 1 view .LVU864
 987:Drivers/STM32L4xx_HAL_Driver/Src/stm32l4xx_ll_usb.c ****     {
 2487              		.loc 1 987 12 is_stmt 0 view .LVU865
 2488 0036 0B79     		ldrb	r3, [r1, #4]	@ zero_extendqisi2
 987:Drivers/STM32L4xx_HAL_Driver/Src/stm32l4xx_ll_usb.c ****     {
 2489              		.loc 1 987 36 view .LVU866
 2490 0038 023B     		subs	r3, r3, #2
 2491 003a DBB2     		uxtb	r3, r3
 987:Drivers/STM32L4xx_HAL_Driver/Src/stm32l4xx_ll_usb.c ****     {
 2492              		.loc 1 987 8 view .LVU867
 2493 003c 012B     		cmp	r3, #1
 2494 003e F0D8     		bhi	.L168
 989:Drivers/STM32L4xx_HAL_Driver/Src/stm32l4xx_ll_usb.c ****     }
 2495              		.loc 1 989 7 is_stmt 1 view .LVU868
 989:Drivers/STM32L4xx_HAL_Driver/Src/stm32l4xx_ll_usb.c ****     }
 2496              		.loc 1 989 23 is_stmt 0 view .LVU869
 2497 0040 D0F80039 		ldr	r3, [r0, #2304]
 989:Drivers/STM32L4xx_HAL_Driver/Src/stm32l4xx_ll_usb.c ****     }
 2498              		.loc 1 989 33 view .LVU870
 2499 0044 43F08053 		orr	r3, r3, #268435456
 2500 0048 C0F80039 		str	r3, [r0, #2304]
 2501 004c E9E7     		b	.L168
 2502              	.L170:
 997:Drivers/STM32L4xx_HAL_Driver/Src/stm32l4xx_ll_usb.c ****     }
 2503              		.loc 1 997 7 is_stmt 1 view .LVU871
 997:Drivers/STM32L4xx_HAL_Driver/Src/stm32l4xx_ll_usb.c ****     }
 2504              		.loc 1 997 24 is_stmt 0 view .LVU872
 2505 004e D0F8003B 		ldr	r3, [r0, #2816]
 997:Drivers/STM32L4xx_HAL_Driver/Src/stm32l4xx_ll_usb.c ****     }
 2506              		.loc 1 997 34 view .LVU873
 2507 0052 43F08053 		orr	r3, r3, #268435456
 2508 0056 C0F8003B 		str	r3, [r0, #2816]
 2509 005a E2E7     		b	.L168
 2510              		.cfi_endproc
 2511              	.LFE151:
ARM GAS  C:\Users\gigig\AppData\Local\Temp\ccWnrG0a.s 			page 82


 2513              		.section	.text.USB_StopDevice,"ax",%progbits
 2514              		.align	1
 2515              		.global	USB_StopDevice
 2516              		.syntax unified
 2517              		.thumb
 2518              		.thumb_func
 2520              	USB_StopDevice:
 2521              	.LVL176:
 2522              	.LFB152:
1009:Drivers/STM32L4xx_HAL_Driver/Src/stm32l4xx_ll_usb.c ****   HAL_StatusTypeDef ret;
 2523              		.loc 1 1009 1 is_stmt 1 view -0
 2524              		.cfi_startproc
 2525              		@ args = 0, pretend = 0, frame = 0
 2526              		@ frame_needed = 0, uses_anonymous_args = 0
1009:Drivers/STM32L4xx_HAL_Driver/Src/stm32l4xx_ll_usb.c ****   HAL_StatusTypeDef ret;
 2527              		.loc 1 1009 1 is_stmt 0 view .LVU875
 2528 0000 10B5     		push	{r4, lr}
 2529              		.cfi_def_cfa_offset 8
 2530              		.cfi_offset 4, -8
 2531              		.cfi_offset 14, -4
 2532 0002 0446     		mov	r4, r0
1010:Drivers/STM32L4xx_HAL_Driver/Src/stm32l4xx_ll_usb.c ****   uint32_t USBx_BASE = (uint32_t)USBx;
 2533              		.loc 1 1010 3 is_stmt 1 view .LVU876
1011:Drivers/STM32L4xx_HAL_Driver/Src/stm32l4xx_ll_usb.c ****   uint32_t i;
 2534              		.loc 1 1011 3 view .LVU877
 2535              	.LVL177:
1012:Drivers/STM32L4xx_HAL_Driver/Src/stm32l4xx_ll_usb.c **** 
 2536              		.loc 1 1012 3 view .LVU878
1015:Drivers/STM32L4xx_HAL_Driver/Src/stm32l4xx_ll_usb.c ****   {
 2537              		.loc 1 1015 3 view .LVU879
1015:Drivers/STM32L4xx_HAL_Driver/Src/stm32l4xx_ll_usb.c ****   {
 2538              		.loc 1 1015 10 is_stmt 0 view .LVU880
 2539 0004 0022     		movs	r2, #0
1015:Drivers/STM32L4xx_HAL_Driver/Src/stm32l4xx_ll_usb.c ****   {
 2540              		.loc 1 1015 3 view .LVU881
 2541 0006 08E0     		b	.L172
 2542              	.LVL178:
 2543              	.L173:
1017:Drivers/STM32L4xx_HAL_Driver/Src/stm32l4xx_ll_usb.c ****     USBx_OUTEP(i)->DOEPINT = 0xFB7FU;
 2544              		.loc 1 1017 5 is_stmt 1 view .LVU882
 2545 0008 04EB4213 		add	r3, r4, r2, lsl #5
1017:Drivers/STM32L4xx_HAL_Driver/Src/stm32l4xx_ll_usb.c ****     USBx_OUTEP(i)->DOEPINT = 0xFB7FU;
 2546              		.loc 1 1017 27 is_stmt 0 view .LVU883
 2547 000c 4FF67F31 		movw	r1, #64383
 2548 0010 C3F80819 		str	r1, [r3, #2312]
1018:Drivers/STM32L4xx_HAL_Driver/Src/stm32l4xx_ll_usb.c ****   }
 2549              		.loc 1 1018 5 is_stmt 1 view .LVU884
1018:Drivers/STM32L4xx_HAL_Driver/Src/stm32l4xx_ll_usb.c ****   }
 2550              		.loc 1 1018 28 is_stmt 0 view .LVU885
 2551 0014 C3F8081B 		str	r1, [r3, #2824]
1015:Drivers/STM32L4xx_HAL_Driver/Src/stm32l4xx_ll_usb.c ****   {
 2552              		.loc 1 1015 26 is_stmt 1 discriminator 3 view .LVU886
 2553 0018 0132     		adds	r2, r2, #1
 2554              	.LVL179:
 2555              	.L172:
1015:Drivers/STM32L4xx_HAL_Driver/Src/stm32l4xx_ll_usb.c ****   {
 2556              		.loc 1 1015 18 discriminator 1 view .LVU887
ARM GAS  C:\Users\gigig\AppData\Local\Temp\ccWnrG0a.s 			page 83


 2557 001a 0E2A     		cmp	r2, #14
 2558 001c F4D9     		bls	.L173
1022:Drivers/STM32L4xx_HAL_Driver/Src/stm32l4xx_ll_usb.c ****   USBx_DEVICE->DOEPMSK  = 0U;
 2559              		.loc 1 1022 3 view .LVU888
1022:Drivers/STM32L4xx_HAL_Driver/Src/stm32l4xx_ll_usb.c ****   USBx_DEVICE->DOEPMSK  = 0U;
 2560              		.loc 1 1022 25 is_stmt 0 view .LVU889
 2561 001e 0022     		movs	r2, #0
 2562              	.LVL180:
1022:Drivers/STM32L4xx_HAL_Driver/Src/stm32l4xx_ll_usb.c ****   USBx_DEVICE->DOEPMSK  = 0U;
 2563              		.loc 1 1022 25 view .LVU890
 2564 0020 C4F81028 		str	r2, [r4, #2064]
1023:Drivers/STM32L4xx_HAL_Driver/Src/stm32l4xx_ll_usb.c ****   USBx_DEVICE->DAINTMSK = 0U;
 2565              		.loc 1 1023 3 is_stmt 1 view .LVU891
1023:Drivers/STM32L4xx_HAL_Driver/Src/stm32l4xx_ll_usb.c ****   USBx_DEVICE->DAINTMSK = 0U;
 2566              		.loc 1 1023 25 is_stmt 0 view .LVU892
 2567 0024 C4F81428 		str	r2, [r4, #2068]
1024:Drivers/STM32L4xx_HAL_Driver/Src/stm32l4xx_ll_usb.c **** 
 2568              		.loc 1 1024 3 is_stmt 1 view .LVU893
1024:Drivers/STM32L4xx_HAL_Driver/Src/stm32l4xx_ll_usb.c **** 
 2569              		.loc 1 1024 25 is_stmt 0 view .LVU894
 2570 0028 C4F81C28 		str	r2, [r4, #2076]
1027:Drivers/STM32L4xx_HAL_Driver/Src/stm32l4xx_ll_usb.c ****   if (ret != HAL_OK)
 2571              		.loc 1 1027 3 is_stmt 1 view .LVU895
1027:Drivers/STM32L4xx_HAL_Driver/Src/stm32l4xx_ll_usb.c ****   if (ret != HAL_OK)
 2572              		.loc 1 1027 9 is_stmt 0 view .LVU896
 2573 002c 2046     		mov	r0, r4
 2574              	.LVL181:
1027:Drivers/STM32L4xx_HAL_Driver/Src/stm32l4xx_ll_usb.c ****   if (ret != HAL_OK)
 2575              		.loc 1 1027 9 view .LVU897
 2576 002e FFF7FEFF 		bl	USB_FlushRxFifo
 2577              	.LVL182:
1028:Drivers/STM32L4xx_HAL_Driver/Src/stm32l4xx_ll_usb.c ****   {
 2578              		.loc 1 1028 3 is_stmt 1 view .LVU898
1028:Drivers/STM32L4xx_HAL_Driver/Src/stm32l4xx_ll_usb.c ****   {
 2579              		.loc 1 1028 6 is_stmt 0 view .LVU899
 2580 0032 00B1     		cbz	r0, .L176
 2581              	.L174:
1040:Drivers/STM32L4xx_HAL_Driver/Src/stm32l4xx_ll_usb.c **** 
 2582              		.loc 1 1040 1 view .LVU900
 2583 0034 10BD     		pop	{r4, pc}
 2584              	.LVL183:
 2585              	.L176:
1033:Drivers/STM32L4xx_HAL_Driver/Src/stm32l4xx_ll_usb.c ****   if (ret != HAL_OK)
 2586              		.loc 1 1033 3 is_stmt 1 view .LVU901
1033:Drivers/STM32L4xx_HAL_Driver/Src/stm32l4xx_ll_usb.c ****   if (ret != HAL_OK)
 2587              		.loc 1 1033 9 is_stmt 0 view .LVU902
 2588 0036 1021     		movs	r1, #16
 2589 0038 2046     		mov	r0, r4
 2590              	.LVL184:
1033:Drivers/STM32L4xx_HAL_Driver/Src/stm32l4xx_ll_usb.c ****   if (ret != HAL_OK)
 2591              		.loc 1 1033 9 view .LVU903
 2592 003a FFF7FEFF 		bl	USB_FlushTxFifo
 2593              	.LVL185:
1034:Drivers/STM32L4xx_HAL_Driver/Src/stm32l4xx_ll_usb.c ****   {
 2594              		.loc 1 1034 3 is_stmt 1 view .LVU904
1036:Drivers/STM32L4xx_HAL_Driver/Src/stm32l4xx_ll_usb.c ****   }
 2595              		.loc 1 1036 5 view .LVU905
ARM GAS  C:\Users\gigig\AppData\Local\Temp\ccWnrG0a.s 			page 84


 2596 003e F9E7     		b	.L174
 2597              		.cfi_endproc
 2598              	.LFE152:
 2600              		.section	.text.USB_SetDevAddress,"ax",%progbits
 2601              		.align	1
 2602              		.global	USB_SetDevAddress
 2603              		.syntax unified
 2604              		.thumb
 2605              		.thumb_func
 2607              	USB_SetDevAddress:
 2608              	.LVL186:
 2609              	.LFB153:
1050:Drivers/STM32L4xx_HAL_Driver/Src/stm32l4xx_ll_usb.c ****   uint32_t USBx_BASE = (uint32_t)USBx;
 2610              		.loc 1 1050 1 view -0
 2611              		.cfi_startproc
 2612              		@ args = 0, pretend = 0, frame = 0
 2613              		@ frame_needed = 0, uses_anonymous_args = 0
 2614              		@ link register save eliminated.
1051:Drivers/STM32L4xx_HAL_Driver/Src/stm32l4xx_ll_usb.c **** 
 2615              		.loc 1 1051 3 view .LVU907
1053:Drivers/STM32L4xx_HAL_Driver/Src/stm32l4xx_ll_usb.c ****   USBx_DEVICE->DCFG |= ((uint32_t)address << 4) & USB_OTG_DCFG_DAD;
 2616              		.loc 1 1053 3 view .LVU908
1053:Drivers/STM32L4xx_HAL_Driver/Src/stm32l4xx_ll_usb.c ****   USBx_DEVICE->DCFG |= ((uint32_t)address << 4) & USB_OTG_DCFG_DAD;
 2617              		.loc 1 1053 14 is_stmt 0 view .LVU909
 2618 0000 D0F80038 		ldr	r3, [r0, #2048]
1053:Drivers/STM32L4xx_HAL_Driver/Src/stm32l4xx_ll_usb.c ****   USBx_DEVICE->DCFG |= ((uint32_t)address << 4) & USB_OTG_DCFG_DAD;
 2619              		.loc 1 1053 21 view .LVU910
 2620 0004 23F4FE63 		bic	r3, r3, #2032
 2621 0008 C0F80038 		str	r3, [r0, #2048]
1054:Drivers/STM32L4xx_HAL_Driver/Src/stm32l4xx_ll_usb.c **** 
 2622              		.loc 1 1054 3 is_stmt 1 view .LVU911
1054:Drivers/STM32L4xx_HAL_Driver/Src/stm32l4xx_ll_usb.c **** 
 2623              		.loc 1 1054 14 is_stmt 0 view .LVU912
 2624 000c D0F80038 		ldr	r3, [r0, #2048]
1054:Drivers/STM32L4xx_HAL_Driver/Src/stm32l4xx_ll_usb.c **** 
 2625              		.loc 1 1054 43 view .LVU913
 2626 0010 0901     		lsls	r1, r1, #4
 2627              	.LVL187:
1054:Drivers/STM32L4xx_HAL_Driver/Src/stm32l4xx_ll_usb.c **** 
 2628              		.loc 1 1054 49 view .LVU914
 2629 0012 01F4FE61 		and	r1, r1, #2032
1054:Drivers/STM32L4xx_HAL_Driver/Src/stm32l4xx_ll_usb.c **** 
 2630              		.loc 1 1054 21 view .LVU915
 2631 0016 0B43     		orrs	r3, r3, r1
 2632 0018 C0F80038 		str	r3, [r0, #2048]
1056:Drivers/STM32L4xx_HAL_Driver/Src/stm32l4xx_ll_usb.c **** }
 2633              		.loc 1 1056 3 is_stmt 1 view .LVU916
1057:Drivers/STM32L4xx_HAL_Driver/Src/stm32l4xx_ll_usb.c **** 
 2634              		.loc 1 1057 1 is_stmt 0 view .LVU917
 2635 001c 0020     		movs	r0, #0
 2636              	.LVL188:
1057:Drivers/STM32L4xx_HAL_Driver/Src/stm32l4xx_ll_usb.c **** 
 2637              		.loc 1 1057 1 view .LVU918
 2638 001e 7047     		bx	lr
 2639              		.cfi_endproc
 2640              	.LFE153:
 2642              		.section	.text.USB_DevConnect,"ax",%progbits
ARM GAS  C:\Users\gigig\AppData\Local\Temp\ccWnrG0a.s 			page 85


 2643              		.align	1
 2644              		.global	USB_DevConnect
 2645              		.syntax unified
 2646              		.thumb
 2647              		.thumb_func
 2649              	USB_DevConnect:
 2650              	.LVL189:
 2651              	.LFB154:
1065:Drivers/STM32L4xx_HAL_Driver/Src/stm32l4xx_ll_usb.c ****   uint32_t USBx_BASE = (uint32_t)USBx;
 2652              		.loc 1 1065 1 is_stmt 1 view -0
 2653              		.cfi_startproc
 2654              		@ args = 0, pretend = 0, frame = 0
 2655              		@ frame_needed = 0, uses_anonymous_args = 0
 2656              		@ link register save eliminated.
1066:Drivers/STM32L4xx_HAL_Driver/Src/stm32l4xx_ll_usb.c **** 
 2657              		.loc 1 1066 3 view .LVU920
1069:Drivers/STM32L4xx_HAL_Driver/Src/stm32l4xx_ll_usb.c **** 
 2658              		.loc 1 1069 3 view .LVU921
 2659 0000 D0F8003E 		ldr	r3, [r0, #3584]
1069:Drivers/STM32L4xx_HAL_Driver/Src/stm32l4xx_ll_usb.c **** 
 2660              		.loc 1 1069 16 is_stmt 0 view .LVU922
 2661 0004 23F00303 		bic	r3, r3, #3
 2662 0008 C0F8003E 		str	r3, [r0, #3584]
1071:Drivers/STM32L4xx_HAL_Driver/Src/stm32l4xx_ll_usb.c **** 
 2663              		.loc 1 1071 3 is_stmt 1 view .LVU923
1071:Drivers/STM32L4xx_HAL_Driver/Src/stm32l4xx_ll_usb.c **** 
 2664              		.loc 1 1071 14 is_stmt 0 view .LVU924
 2665 000c D0F80438 		ldr	r3, [r0, #2052]
1071:Drivers/STM32L4xx_HAL_Driver/Src/stm32l4xx_ll_usb.c **** 
 2666              		.loc 1 1071 21 view .LVU925
 2667 0010 23F00203 		bic	r3, r3, #2
 2668 0014 C0F80438 		str	r3, [r0, #2052]
1073:Drivers/STM32L4xx_HAL_Driver/Src/stm32l4xx_ll_usb.c **** }
 2669              		.loc 1 1073 3 is_stmt 1 view .LVU926
1074:Drivers/STM32L4xx_HAL_Driver/Src/stm32l4xx_ll_usb.c **** 
 2670              		.loc 1 1074 1 is_stmt 0 view .LVU927
 2671 0018 0020     		movs	r0, #0
 2672              	.LVL190:
1074:Drivers/STM32L4xx_HAL_Driver/Src/stm32l4xx_ll_usb.c **** 
 2673              		.loc 1 1074 1 view .LVU928
 2674 001a 7047     		bx	lr
 2675              		.cfi_endproc
 2676              	.LFE154:
 2678              		.section	.text.USB_DevDisconnect,"ax",%progbits
 2679              		.align	1
 2680              		.global	USB_DevDisconnect
 2681              		.syntax unified
 2682              		.thumb
 2683              		.thumb_func
 2685              	USB_DevDisconnect:
 2686              	.LVL191:
 2687              	.LFB155:
1082:Drivers/STM32L4xx_HAL_Driver/Src/stm32l4xx_ll_usb.c ****   uint32_t USBx_BASE = (uint32_t)USBx;
 2688              		.loc 1 1082 1 is_stmt 1 view -0
 2689              		.cfi_startproc
 2690              		@ args = 0, pretend = 0, frame = 0
 2691              		@ frame_needed = 0, uses_anonymous_args = 0
ARM GAS  C:\Users\gigig\AppData\Local\Temp\ccWnrG0a.s 			page 86


 2692              		@ link register save eliminated.
1083:Drivers/STM32L4xx_HAL_Driver/Src/stm32l4xx_ll_usb.c **** 
 2693              		.loc 1 1083 3 view .LVU930
1086:Drivers/STM32L4xx_HAL_Driver/Src/stm32l4xx_ll_usb.c **** 
 2694              		.loc 1 1086 3 view .LVU931
 2695 0000 D0F8003E 		ldr	r3, [r0, #3584]
1086:Drivers/STM32L4xx_HAL_Driver/Src/stm32l4xx_ll_usb.c **** 
 2696              		.loc 1 1086 16 is_stmt 0 view .LVU932
 2697 0004 23F00303 		bic	r3, r3, #3
 2698 0008 C0F8003E 		str	r3, [r0, #3584]
1088:Drivers/STM32L4xx_HAL_Driver/Src/stm32l4xx_ll_usb.c **** 
 2699              		.loc 1 1088 3 is_stmt 1 view .LVU933
1088:Drivers/STM32L4xx_HAL_Driver/Src/stm32l4xx_ll_usb.c **** 
 2700              		.loc 1 1088 14 is_stmt 0 view .LVU934
 2701 000c D0F80438 		ldr	r3, [r0, #2052]
1088:Drivers/STM32L4xx_HAL_Driver/Src/stm32l4xx_ll_usb.c **** 
 2702              		.loc 1 1088 21 view .LVU935
 2703 0010 43F00203 		orr	r3, r3, #2
 2704 0014 C0F80438 		str	r3, [r0, #2052]
1090:Drivers/STM32L4xx_HAL_Driver/Src/stm32l4xx_ll_usb.c **** }
 2705              		.loc 1 1090 3 is_stmt 1 view .LVU936
1091:Drivers/STM32L4xx_HAL_Driver/Src/stm32l4xx_ll_usb.c **** 
 2706              		.loc 1 1091 1 is_stmt 0 view .LVU937
 2707 0018 0020     		movs	r0, #0
 2708              	.LVL192:
1091:Drivers/STM32L4xx_HAL_Driver/Src/stm32l4xx_ll_usb.c **** 
 2709              		.loc 1 1091 1 view .LVU938
 2710 001a 7047     		bx	lr
 2711              		.cfi_endproc
 2712              	.LFE155:
 2714              		.section	.text.USB_ReadInterrupts,"ax",%progbits
 2715              		.align	1
 2716              		.global	USB_ReadInterrupts
 2717              		.syntax unified
 2718              		.thumb
 2719              		.thumb_func
 2721              	USB_ReadInterrupts:
 2722              	.LVL193:
 2723              	.LFB156:
1099:Drivers/STM32L4xx_HAL_Driver/Src/stm32l4xx_ll_usb.c ****   uint32_t tmpreg;
 2724              		.loc 1 1099 1 is_stmt 1 view -0
 2725              		.cfi_startproc
 2726              		@ args = 0, pretend = 0, frame = 0
 2727              		@ frame_needed = 0, uses_anonymous_args = 0
 2728              		@ link register save eliminated.
1100:Drivers/STM32L4xx_HAL_Driver/Src/stm32l4xx_ll_usb.c **** 
 2729              		.loc 1 1100 3 view .LVU940
1102:Drivers/STM32L4xx_HAL_Driver/Src/stm32l4xx_ll_usb.c ****   tmpreg &= USBx->GINTMSK;
 2730              		.loc 1 1102 3 view .LVU941
1102:Drivers/STM32L4xx_HAL_Driver/Src/stm32l4xx_ll_usb.c ****   tmpreg &= USBx->GINTMSK;
 2731              		.loc 1 1102 10 is_stmt 0 view .LVU942
 2732 0000 4269     		ldr	r2, [r0, #20]
 2733              	.LVL194:
1103:Drivers/STM32L4xx_HAL_Driver/Src/stm32l4xx_ll_usb.c **** 
 2734              		.loc 1 1103 3 is_stmt 1 view .LVU943
1103:Drivers/STM32L4xx_HAL_Driver/Src/stm32l4xx_ll_usb.c **** 
 2735              		.loc 1 1103 17 is_stmt 0 view .LVU944
ARM GAS  C:\Users\gigig\AppData\Local\Temp\ccWnrG0a.s 			page 87


 2736 0002 8069     		ldr	r0, [r0, #24]
 2737              	.LVL195:
1105:Drivers/STM32L4xx_HAL_Driver/Src/stm32l4xx_ll_usb.c **** }
 2738              		.loc 1 1105 3 is_stmt 1 view .LVU945
1106:Drivers/STM32L4xx_HAL_Driver/Src/stm32l4xx_ll_usb.c **** 
 2739              		.loc 1 1106 1 is_stmt 0 view .LVU946
 2740 0004 1040     		ands	r0, r0, r2
 2741              	.LVL196:
1106:Drivers/STM32L4xx_HAL_Driver/Src/stm32l4xx_ll_usb.c **** 
 2742              		.loc 1 1106 1 view .LVU947
 2743 0006 7047     		bx	lr
 2744              		.cfi_endproc
 2745              	.LFE156:
 2747              		.section	.text.USB_ReadChInterrupts,"ax",%progbits
 2748              		.align	1
 2749              		.global	USB_ReadChInterrupts
 2750              		.syntax unified
 2751              		.thumb
 2752              		.thumb_func
 2754              	USB_ReadChInterrupts:
 2755              	.LVL197:
 2756              	.LFB157:
1115:Drivers/STM32L4xx_HAL_Driver/Src/stm32l4xx_ll_usb.c ****   uint32_t USBx_BASE = (uint32_t)USBx;
 2757              		.loc 1 1115 1 is_stmt 1 view -0
 2758              		.cfi_startproc
 2759              		@ args = 0, pretend = 0, frame = 0
 2760              		@ frame_needed = 0, uses_anonymous_args = 0
 2761              		@ link register save eliminated.
1116:Drivers/STM32L4xx_HAL_Driver/Src/stm32l4xx_ll_usb.c ****   uint32_t tmpreg;
 2762              		.loc 1 1116 3 view .LVU949
1117:Drivers/STM32L4xx_HAL_Driver/Src/stm32l4xx_ll_usb.c **** 
 2763              		.loc 1 1117 3 view .LVU950
1119:Drivers/STM32L4xx_HAL_Driver/Src/stm32l4xx_ll_usb.c ****   tmpreg &= USBx_HC(chnum)->HCINTMSK;
 2764              		.loc 1 1119 3 view .LVU951
1119:Drivers/STM32L4xx_HAL_Driver/Src/stm32l4xx_ll_usb.c ****   tmpreg &= USBx_HC(chnum)->HCINTMSK;
 2765              		.loc 1 1119 12 is_stmt 0 view .LVU952
 2766 0000 00EB4110 		add	r0, r0, r1, lsl #5
 2767              	.LVL198:
1119:Drivers/STM32L4xx_HAL_Driver/Src/stm32l4xx_ll_usb.c ****   tmpreg &= USBx_HC(chnum)->HCINTMSK;
 2768              		.loc 1 1119 12 view .LVU953
 2769 0004 00F5A063 		add	r3, r0, #1280
1119:Drivers/STM32L4xx_HAL_Driver/Src/stm32l4xx_ll_usb.c ****   tmpreg &= USBx_HC(chnum)->HCINTMSK;
 2770              		.loc 1 1119 10 view .LVU954
 2771 0008 D0F80805 		ldr	r0, [r0, #1288]
 2772              	.LVL199:
1120:Drivers/STM32L4xx_HAL_Driver/Src/stm32l4xx_ll_usb.c **** 
 2773              		.loc 1 1120 3 is_stmt 1 view .LVU955
1120:Drivers/STM32L4xx_HAL_Driver/Src/stm32l4xx_ll_usb.c **** 
 2774              		.loc 1 1120 27 is_stmt 0 view .LVU956
 2775 000c DB68     		ldr	r3, [r3, #12]
 2776              	.LVL200:
1122:Drivers/STM32L4xx_HAL_Driver/Src/stm32l4xx_ll_usb.c **** }
 2777              		.loc 1 1122 3 is_stmt 1 view .LVU957
1123:Drivers/STM32L4xx_HAL_Driver/Src/stm32l4xx_ll_usb.c **** 
 2778              		.loc 1 1123 1 is_stmt 0 view .LVU958
 2779 000e 1840     		ands	r0, r0, r3
 2780              	.LVL201:
ARM GAS  C:\Users\gigig\AppData\Local\Temp\ccWnrG0a.s 			page 88


1123:Drivers/STM32L4xx_HAL_Driver/Src/stm32l4xx_ll_usb.c **** 
 2781              		.loc 1 1123 1 view .LVU959
 2782 0010 7047     		bx	lr
 2783              		.cfi_endproc
 2784              	.LFE157:
 2786              		.section	.text.USB_ReadDevAllOutEpInterrupt,"ax",%progbits
 2787              		.align	1
 2788              		.global	USB_ReadDevAllOutEpInterrupt
 2789              		.syntax unified
 2790              		.thumb
 2791              		.thumb_func
 2793              	USB_ReadDevAllOutEpInterrupt:
 2794              	.LVL202:
 2795              	.LFB158:
1131:Drivers/STM32L4xx_HAL_Driver/Src/stm32l4xx_ll_usb.c ****   uint32_t USBx_BASE = (uint32_t)USBx;
 2796              		.loc 1 1131 1 is_stmt 1 view -0
 2797              		.cfi_startproc
 2798              		@ args = 0, pretend = 0, frame = 0
 2799              		@ frame_needed = 0, uses_anonymous_args = 0
 2800              		@ link register save eliminated.
1132:Drivers/STM32L4xx_HAL_Driver/Src/stm32l4xx_ll_usb.c ****   uint32_t tmpreg;
 2801              		.loc 1 1132 3 view .LVU961
1133:Drivers/STM32L4xx_HAL_Driver/Src/stm32l4xx_ll_usb.c **** 
 2802              		.loc 1 1133 3 view .LVU962
1135:Drivers/STM32L4xx_HAL_Driver/Src/stm32l4xx_ll_usb.c ****   tmpreg &= USBx_DEVICE->DAINTMSK;
 2803              		.loc 1 1135 3 view .LVU963
1135:Drivers/STM32L4xx_HAL_Driver/Src/stm32l4xx_ll_usb.c ****   tmpreg &= USBx_DEVICE->DAINTMSK;
 2804              		.loc 1 1135 11 is_stmt 0 view .LVU964
 2805 0000 D0F81838 		ldr	r3, [r0, #2072]
1135:Drivers/STM32L4xx_HAL_Driver/Src/stm32l4xx_ll_usb.c ****   tmpreg &= USBx_DEVICE->DAINTMSK;
 2806              		.loc 1 1135 13 view .LVU965
 2807 0004 00F50060 		add	r0, r0, #2048
 2808              	.LVL203:
1136:Drivers/STM32L4xx_HAL_Driver/Src/stm32l4xx_ll_usb.c **** 
 2809              		.loc 1 1136 3 is_stmt 1 view .LVU966
1136:Drivers/STM32L4xx_HAL_Driver/Src/stm32l4xx_ll_usb.c **** 
 2810              		.loc 1 1136 24 is_stmt 0 view .LVU967
 2811 0008 C069     		ldr	r0, [r0, #28]
 2812              	.LVL204:
1136:Drivers/STM32L4xx_HAL_Driver/Src/stm32l4xx_ll_usb.c **** 
 2813              		.loc 1 1136 10 view .LVU968
 2814 000a 1840     		ands	r0, r0, r3
 2815              	.LVL205:
1138:Drivers/STM32L4xx_HAL_Driver/Src/stm32l4xx_ll_usb.c **** }
 2816              		.loc 1 1138 3 is_stmt 1 view .LVU969
1139:Drivers/STM32L4xx_HAL_Driver/Src/stm32l4xx_ll_usb.c **** 
 2817              		.loc 1 1139 1 is_stmt 0 view .LVU970
 2818 000c 000C     		lsrs	r0, r0, #16
 2819              	.LVL206:
1139:Drivers/STM32L4xx_HAL_Driver/Src/stm32l4xx_ll_usb.c **** 
 2820              		.loc 1 1139 1 view .LVU971
 2821 000e 7047     		bx	lr
 2822              		.cfi_endproc
 2823              	.LFE158:
 2825              		.section	.text.USB_ReadDevAllInEpInterrupt,"ax",%progbits
 2826              		.align	1
 2827              		.global	USB_ReadDevAllInEpInterrupt
ARM GAS  C:\Users\gigig\AppData\Local\Temp\ccWnrG0a.s 			page 89


 2828              		.syntax unified
 2829              		.thumb
 2830              		.thumb_func
 2832              	USB_ReadDevAllInEpInterrupt:
 2833              	.LVL207:
 2834              	.LFB159:
1147:Drivers/STM32L4xx_HAL_Driver/Src/stm32l4xx_ll_usb.c ****   uint32_t USBx_BASE = (uint32_t)USBx;
 2835              		.loc 1 1147 1 is_stmt 1 view -0
 2836              		.cfi_startproc
 2837              		@ args = 0, pretend = 0, frame = 0
 2838              		@ frame_needed = 0, uses_anonymous_args = 0
 2839              		@ link register save eliminated.
1148:Drivers/STM32L4xx_HAL_Driver/Src/stm32l4xx_ll_usb.c ****   uint32_t tmpreg;
 2840              		.loc 1 1148 3 view .LVU973
1149:Drivers/STM32L4xx_HAL_Driver/Src/stm32l4xx_ll_usb.c **** 
 2841              		.loc 1 1149 3 view .LVU974
1151:Drivers/STM32L4xx_HAL_Driver/Src/stm32l4xx_ll_usb.c ****   tmpreg &= USBx_DEVICE->DAINTMSK;
 2842              		.loc 1 1151 3 view .LVU975
1151:Drivers/STM32L4xx_HAL_Driver/Src/stm32l4xx_ll_usb.c ****   tmpreg &= USBx_DEVICE->DAINTMSK;
 2843              		.loc 1 1151 11 is_stmt 0 view .LVU976
 2844 0000 D0F81838 		ldr	r3, [r0, #2072]
1151:Drivers/STM32L4xx_HAL_Driver/Src/stm32l4xx_ll_usb.c ****   tmpreg &= USBx_DEVICE->DAINTMSK;
 2845              		.loc 1 1151 13 view .LVU977
 2846 0004 00F50060 		add	r0, r0, #2048
 2847              	.LVL208:
1152:Drivers/STM32L4xx_HAL_Driver/Src/stm32l4xx_ll_usb.c **** 
 2848              		.loc 1 1152 3 is_stmt 1 view .LVU978
1152:Drivers/STM32L4xx_HAL_Driver/Src/stm32l4xx_ll_usb.c **** 
 2849              		.loc 1 1152 24 is_stmt 0 view .LVU979
 2850 0008 C069     		ldr	r0, [r0, #28]
 2851              	.LVL209:
1152:Drivers/STM32L4xx_HAL_Driver/Src/stm32l4xx_ll_usb.c **** 
 2852              		.loc 1 1152 10 view .LVU980
 2853 000a 1840     		ands	r0, r0, r3
 2854              	.LVL210:
1154:Drivers/STM32L4xx_HAL_Driver/Src/stm32l4xx_ll_usb.c **** }
 2855              		.loc 1 1154 3 is_stmt 1 view .LVU981
1155:Drivers/STM32L4xx_HAL_Driver/Src/stm32l4xx_ll_usb.c **** 
 2856              		.loc 1 1155 1 is_stmt 0 view .LVU982
 2857 000c 80B2     		uxth	r0, r0
 2858              	.LVL211:
1155:Drivers/STM32L4xx_HAL_Driver/Src/stm32l4xx_ll_usb.c **** 
 2859              		.loc 1 1155 1 view .LVU983
 2860 000e 7047     		bx	lr
 2861              		.cfi_endproc
 2862              	.LFE159:
 2864              		.section	.text.USB_ReadDevOutEPInterrupt,"ax",%progbits
 2865              		.align	1
 2866              		.global	USB_ReadDevOutEPInterrupt
 2867              		.syntax unified
 2868              		.thumb
 2869              		.thumb_func
 2871              	USB_ReadDevOutEPInterrupt:
 2872              	.LVL212:
 2873              	.LFB160:
1165:Drivers/STM32L4xx_HAL_Driver/Src/stm32l4xx_ll_usb.c ****   uint32_t USBx_BASE = (uint32_t)USBx;
 2874              		.loc 1 1165 1 is_stmt 1 view -0
ARM GAS  C:\Users\gigig\AppData\Local\Temp\ccWnrG0a.s 			page 90


 2875              		.cfi_startproc
 2876              		@ args = 0, pretend = 0, frame = 0
 2877              		@ frame_needed = 0, uses_anonymous_args = 0
 2878              		@ link register save eliminated.
1166:Drivers/STM32L4xx_HAL_Driver/Src/stm32l4xx_ll_usb.c ****   uint32_t tmpreg;
 2879              		.loc 1 1166 3 view .LVU985
1167:Drivers/STM32L4xx_HAL_Driver/Src/stm32l4xx_ll_usb.c **** 
 2880              		.loc 1 1167 3 view .LVU986
1169:Drivers/STM32L4xx_HAL_Driver/Src/stm32l4xx_ll_usb.c ****   tmpreg &= USBx_DEVICE->DOEPMSK;
 2881              		.loc 1 1169 3 view .LVU987
1169:Drivers/STM32L4xx_HAL_Driver/Src/stm32l4xx_ll_usb.c ****   tmpreg &= USBx_DEVICE->DOEPMSK;
 2882              		.loc 1 1169 13 is_stmt 0 view .LVU988
 2883 0000 00EB4111 		add	r1, r0, r1, lsl #5
 2884              	.LVL213:
1169:Drivers/STM32L4xx_HAL_Driver/Src/stm32l4xx_ll_usb.c ****   tmpreg &= USBx_DEVICE->DOEPMSK;
 2885              		.loc 1 1169 11 view .LVU989
 2886 0004 D1F8082B 		ldr	r2, [r1, #2824]
 2887              	.LVL214:
1170:Drivers/STM32L4xx_HAL_Driver/Src/stm32l4xx_ll_usb.c **** 
 2888              		.loc 1 1170 3 is_stmt 1 view .LVU990
1170:Drivers/STM32L4xx_HAL_Driver/Src/stm32l4xx_ll_usb.c **** 
 2889              		.loc 1 1170 13 is_stmt 0 view .LVU991
 2890 0008 00F50060 		add	r0, r0, #2048
 2891              	.LVL215:
1170:Drivers/STM32L4xx_HAL_Driver/Src/stm32l4xx_ll_usb.c **** 
 2892              		.loc 1 1170 24 view .LVU992
 2893 000c 4069     		ldr	r0, [r0, #20]
 2894              	.LVL216:
1172:Drivers/STM32L4xx_HAL_Driver/Src/stm32l4xx_ll_usb.c **** }
 2895              		.loc 1 1172 3 is_stmt 1 view .LVU993
1173:Drivers/STM32L4xx_HAL_Driver/Src/stm32l4xx_ll_usb.c **** 
 2896              		.loc 1 1173 1 is_stmt 0 view .LVU994
 2897 000e 1040     		ands	r0, r0, r2
 2898              	.LVL217:
1173:Drivers/STM32L4xx_HAL_Driver/Src/stm32l4xx_ll_usb.c **** 
 2899              		.loc 1 1173 1 view .LVU995
 2900 0010 7047     		bx	lr
 2901              		.cfi_endproc
 2902              	.LFE160:
 2904              		.section	.text.USB_ReadDevInEPInterrupt,"ax",%progbits
 2905              		.align	1
 2906              		.global	USB_ReadDevInEPInterrupt
 2907              		.syntax unified
 2908              		.thumb
 2909              		.thumb_func
 2911              	USB_ReadDevInEPInterrupt:
 2912              	.LVL218:
 2913              	.LFB161:
1183:Drivers/STM32L4xx_HAL_Driver/Src/stm32l4xx_ll_usb.c ****   uint32_t USBx_BASE = (uint32_t)USBx;
 2914              		.loc 1 1183 1 is_stmt 1 view -0
 2915              		.cfi_startproc
 2916              		@ args = 0, pretend = 0, frame = 0
 2917              		@ frame_needed = 0, uses_anonymous_args = 0
 2918              		@ link register save eliminated.
1184:Drivers/STM32L4xx_HAL_Driver/Src/stm32l4xx_ll_usb.c ****   uint32_t tmpreg;
 2919              		.loc 1 1184 3 view .LVU997
1185:Drivers/STM32L4xx_HAL_Driver/Src/stm32l4xx_ll_usb.c ****   uint32_t msk;
ARM GAS  C:\Users\gigig\AppData\Local\Temp\ccWnrG0a.s 			page 91


 2920              		.loc 1 1185 3 view .LVU998
1186:Drivers/STM32L4xx_HAL_Driver/Src/stm32l4xx_ll_usb.c ****   uint32_t emp;
 2921              		.loc 1 1186 3 view .LVU999
1187:Drivers/STM32L4xx_HAL_Driver/Src/stm32l4xx_ll_usb.c **** 
 2922              		.loc 1 1187 3 view .LVU1000
1189:Drivers/STM32L4xx_HAL_Driver/Src/stm32l4xx_ll_usb.c ****   emp = USBx_DEVICE->DIEPEMPMSK;
 2923              		.loc 1 1189 3 view .LVU1001
1189:Drivers/STM32L4xx_HAL_Driver/Src/stm32l4xx_ll_usb.c ****   emp = USBx_DEVICE->DIEPEMPMSK;
 2924              		.loc 1 1189 7 is_stmt 0 view .LVU1002
 2925 0000 D0F81028 		ldr	r2, [r0, #2064]
 2926              	.LVL219:
1190:Drivers/STM32L4xx_HAL_Driver/Src/stm32l4xx_ll_usb.c ****   msk |= ((emp >> (epnum & EP_ADDR_MSK)) & 0x1U) << 7;
 2927              		.loc 1 1190 3 is_stmt 1 view .LVU1003
1190:Drivers/STM32L4xx_HAL_Driver/Src/stm32l4xx_ll_usb.c ****   msk |= ((emp >> (epnum & EP_ADDR_MSK)) & 0x1U) << 7;
 2928              		.loc 1 1190 7 is_stmt 0 view .LVU1004
 2929 0004 D0F83438 		ldr	r3, [r0, #2100]
 2930              	.LVL220:
1191:Drivers/STM32L4xx_HAL_Driver/Src/stm32l4xx_ll_usb.c ****   tmpreg = USBx_INEP((uint32_t)epnum)->DIEPINT & msk;
 2931              		.loc 1 1191 3 is_stmt 1 view .LVU1005
1191:Drivers/STM32L4xx_HAL_Driver/Src/stm32l4xx_ll_usb.c ****   tmpreg = USBx_INEP((uint32_t)epnum)->DIEPINT & msk;
 2932              		.loc 1 1191 26 is_stmt 0 view .LVU1006
 2933 0008 01F00F0C 		and	ip, r1, #15
1191:Drivers/STM32L4xx_HAL_Driver/Src/stm32l4xx_ll_usb.c ****   tmpreg = USBx_INEP((uint32_t)epnum)->DIEPINT & msk;
 2934              		.loc 1 1191 16 view .LVU1007
 2935 000c 23FA0CF3 		lsr	r3, r3, ip
 2936              	.LVL221:
1191:Drivers/STM32L4xx_HAL_Driver/Src/stm32l4xx_ll_usb.c ****   tmpreg = USBx_INEP((uint32_t)epnum)->DIEPINT & msk;
 2937              		.loc 1 1191 50 view .LVU1008
 2938 0010 DB01     		lsls	r3, r3, #7
 2939 0012 DBB2     		uxtb	r3, r3
1191:Drivers/STM32L4xx_HAL_Driver/Src/stm32l4xx_ll_usb.c ****   tmpreg = USBx_INEP((uint32_t)epnum)->DIEPINT & msk;
 2940              		.loc 1 1191 7 view .LVU1009
 2941 0014 1343     		orrs	r3, r3, r2
 2942              	.LVL222:
1192:Drivers/STM32L4xx_HAL_Driver/Src/stm32l4xx_ll_usb.c **** 
 2943              		.loc 1 1192 3 is_stmt 1 view .LVU1010
1192:Drivers/STM32L4xx_HAL_Driver/Src/stm32l4xx_ll_usb.c **** 
 2944              		.loc 1 1192 12 is_stmt 0 view .LVU1011
 2945 0016 00EB4110 		add	r0, r0, r1, lsl #5
 2946              	.LVL223:
1192:Drivers/STM32L4xx_HAL_Driver/Src/stm32l4xx_ll_usb.c **** 
 2947              		.loc 1 1192 12 view .LVU1012
 2948 001a 00F51060 		add	r0, r0, #2304
1192:Drivers/STM32L4xx_HAL_Driver/Src/stm32l4xx_ll_usb.c **** 
 2949              		.loc 1 1192 38 view .LVU1013
 2950 001e 8068     		ldr	r0, [r0, #8]
 2951              	.LVL224:
1194:Drivers/STM32L4xx_HAL_Driver/Src/stm32l4xx_ll_usb.c **** }
 2952              		.loc 1 1194 3 is_stmt 1 view .LVU1014
1195:Drivers/STM32L4xx_HAL_Driver/Src/stm32l4xx_ll_usb.c **** 
 2953              		.loc 1 1195 1 is_stmt 0 view .LVU1015
 2954 0020 1840     		ands	r0, r0, r3
 2955              	.LVL225:
1195:Drivers/STM32L4xx_HAL_Driver/Src/stm32l4xx_ll_usb.c **** 
 2956              		.loc 1 1195 1 view .LVU1016
 2957 0022 7047     		bx	lr
 2958              		.cfi_endproc
ARM GAS  C:\Users\gigig\AppData\Local\Temp\ccWnrG0a.s 			page 92


 2959              	.LFE161:
 2961              		.section	.text.USB_ClearInterrupts,"ax",%progbits
 2962              		.align	1
 2963              		.global	USB_ClearInterrupts
 2964              		.syntax unified
 2965              		.thumb
 2966              		.thumb_func
 2968              	USB_ClearInterrupts:
 2969              	.LVL226:
 2970              	.LFB162:
1204:Drivers/STM32L4xx_HAL_Driver/Src/stm32l4xx_ll_usb.c ****   USBx->GINTSTS &= interrupt;
 2971              		.loc 1 1204 1 is_stmt 1 view -0
 2972              		.cfi_startproc
 2973              		@ args = 0, pretend = 0, frame = 0
 2974              		@ frame_needed = 0, uses_anonymous_args = 0
 2975              		@ link register save eliminated.
1205:Drivers/STM32L4xx_HAL_Driver/Src/stm32l4xx_ll_usb.c **** }
 2976              		.loc 1 1205 3 view .LVU1018
1205:Drivers/STM32L4xx_HAL_Driver/Src/stm32l4xx_ll_usb.c **** }
 2977              		.loc 1 1205 7 is_stmt 0 view .LVU1019
 2978 0000 4369     		ldr	r3, [r0, #20]
1205:Drivers/STM32L4xx_HAL_Driver/Src/stm32l4xx_ll_usb.c **** }
 2979              		.loc 1 1205 17 view .LVU1020
 2980 0002 0B40     		ands	r3, r3, r1
 2981 0004 4361     		str	r3, [r0, #20]
1206:Drivers/STM32L4xx_HAL_Driver/Src/stm32l4xx_ll_usb.c **** 
 2982              		.loc 1 1206 1 view .LVU1021
 2983 0006 7047     		bx	lr
 2984              		.cfi_endproc
 2985              	.LFE162:
 2987              		.section	.text.USB_GetMode,"ax",%progbits
 2988              		.align	1
 2989              		.global	USB_GetMode
 2990              		.syntax unified
 2991              		.thumb
 2992              		.thumb_func
 2994              	USB_GetMode:
 2995              	.LVL227:
 2996              	.LFB163:
1217:Drivers/STM32L4xx_HAL_Driver/Src/stm32l4xx_ll_usb.c ****   return ((USBx->GINTSTS) & 0x1U);
 2997              		.loc 1 1217 1 is_stmt 1 view -0
 2998              		.cfi_startproc
 2999              		@ args = 0, pretend = 0, frame = 0
 3000              		@ frame_needed = 0, uses_anonymous_args = 0
 3001              		@ link register save eliminated.
1218:Drivers/STM32L4xx_HAL_Driver/Src/stm32l4xx_ll_usb.c **** }
 3002              		.loc 1 1218 3 view .LVU1023
1218:Drivers/STM32L4xx_HAL_Driver/Src/stm32l4xx_ll_usb.c **** }
 3003              		.loc 1 1218 16 is_stmt 0 view .LVU1024
 3004 0000 4069     		ldr	r0, [r0, #20]
 3005              	.LVL228:
1219:Drivers/STM32L4xx_HAL_Driver/Src/stm32l4xx_ll_usb.c **** 
 3006              		.loc 1 1219 1 view .LVU1025
 3007 0002 00F00100 		and	r0, r0, #1
 3008 0006 7047     		bx	lr
 3009              		.cfi_endproc
 3010              	.LFE163:
ARM GAS  C:\Users\gigig\AppData\Local\Temp\ccWnrG0a.s 			page 93


 3012              		.section	.text.USB_SetCurrentMode,"ax",%progbits
 3013              		.align	1
 3014              		.global	USB_SetCurrentMode
 3015              		.syntax unified
 3016              		.thumb
 3017              		.thumb_func
 3019              	USB_SetCurrentMode:
 3020              	.LVL229:
 3021              	.LFB136:
 221:Drivers/STM32L4xx_HAL_Driver/Src/stm32l4xx_ll_usb.c ****   uint32_t ms = 0U;
 3022              		.loc 1 221 1 is_stmt 1 view -0
 3023              		.cfi_startproc
 3024              		@ args = 0, pretend = 0, frame = 0
 3025              		@ frame_needed = 0, uses_anonymous_args = 0
 221:Drivers/STM32L4xx_HAL_Driver/Src/stm32l4xx_ll_usb.c ****   uint32_t ms = 0U;
 3026              		.loc 1 221 1 is_stmt 0 view .LVU1027
 3027 0000 38B5     		push	{r3, r4, r5, lr}
 3028              		.cfi_def_cfa_offset 16
 3029              		.cfi_offset 3, -16
 3030              		.cfi_offset 4, -12
 3031              		.cfi_offset 5, -8
 3032              		.cfi_offset 14, -4
 3033 0002 0546     		mov	r5, r0
 222:Drivers/STM32L4xx_HAL_Driver/Src/stm32l4xx_ll_usb.c **** 
 3034              		.loc 1 222 3 is_stmt 1 view .LVU1028
 3035              	.LVL230:
 224:Drivers/STM32L4xx_HAL_Driver/Src/stm32l4xx_ll_usb.c **** 
 3036              		.loc 1 224 3 view .LVU1029
 224:Drivers/STM32L4xx_HAL_Driver/Src/stm32l4xx_ll_usb.c **** 
 3037              		.loc 1 224 7 is_stmt 0 view .LVU1030
 3038 0004 C368     		ldr	r3, [r0, #12]
 224:Drivers/STM32L4xx_HAL_Driver/Src/stm32l4xx_ll_usb.c **** 
 3039              		.loc 1 224 17 view .LVU1031
 3040 0006 23F0C043 		bic	r3, r3, #1610612736
 3041 000a C360     		str	r3, [r0, #12]
 226:Drivers/STM32L4xx_HAL_Driver/Src/stm32l4xx_ll_usb.c ****   {
 3042              		.loc 1 226 3 is_stmt 1 view .LVU1032
 226:Drivers/STM32L4xx_HAL_Driver/Src/stm32l4xx_ll_usb.c ****   {
 3043              		.loc 1 226 6 is_stmt 0 view .LVU1033
 3044 000c 0129     		cmp	r1, #1
 3045 000e 13D0     		beq	.L197
 236:Drivers/STM32L4xx_HAL_Driver/Src/stm32l4xx_ll_usb.c ****   {
 3046              		.loc 1 236 8 is_stmt 1 view .LVU1034
 236:Drivers/STM32L4xx_HAL_Driver/Src/stm32l4xx_ll_usb.c ****   {
 3047              		.loc 1 236 11 is_stmt 0 view .LVU1035
 3048 0010 19BB     		cbnz	r1, .L194
 238:Drivers/STM32L4xx_HAL_Driver/Src/stm32l4xx_ll_usb.c **** 
 3049              		.loc 1 238 5 is_stmt 1 view .LVU1036
 238:Drivers/STM32L4xx_HAL_Driver/Src/stm32l4xx_ll_usb.c **** 
 3050              		.loc 1 238 9 is_stmt 0 view .LVU1037
 3051 0012 C368     		ldr	r3, [r0, #12]
 238:Drivers/STM32L4xx_HAL_Driver/Src/stm32l4xx_ll_usb.c **** 
 3052              		.loc 1 238 19 view .LVU1038
 3053 0014 43F08043 		orr	r3, r3, #1073741824
 3054 0018 C360     		str	r3, [r0, #12]
 222:Drivers/STM32L4xx_HAL_Driver/Src/stm32l4xx_ll_usb.c **** 
 3055              		.loc 1 222 12 view .LVU1039
ARM GAS  C:\Users\gigig\AppData\Local\Temp\ccWnrG0a.s 			page 94


 3056 001a 0024     		movs	r4, #0
 3057              	.LVL231:
 3058              	.L193:
 240:Drivers/STM32L4xx_HAL_Driver/Src/stm32l4xx_ll_usb.c ****     {
 3059              		.loc 1 240 5 is_stmt 1 view .LVU1040
 242:Drivers/STM32L4xx_HAL_Driver/Src/stm32l4xx_ll_usb.c ****       ms++;
 3060              		.loc 1 242 7 view .LVU1041
 3061 001c 0120     		movs	r0, #1
 3062 001e FFF7FEFF 		bl	HAL_Delay
 3063              	.LVL232:
 243:Drivers/STM32L4xx_HAL_Driver/Src/stm32l4xx_ll_usb.c ****     } while ((USB_GetMode(USBx) != (uint32_t)USB_DEVICE_MODE) && (ms < 50U));
 3064              		.loc 1 243 7 view .LVU1042
 243:Drivers/STM32L4xx_HAL_Driver/Src/stm32l4xx_ll_usb.c ****     } while ((USB_GetMode(USBx) != (uint32_t)USB_DEVICE_MODE) && (ms < 50U));
 3065              		.loc 1 243 9 is_stmt 0 view .LVU1043
 3066 0022 0134     		adds	r4, r4, #1
 3067              	.LVL233:
 244:Drivers/STM32L4xx_HAL_Driver/Src/stm32l4xx_ll_usb.c ****   }
 3068              		.loc 1 244 63 is_stmt 1 discriminator 2 view .LVU1044
 244:Drivers/STM32L4xx_HAL_Driver/Src/stm32l4xx_ll_usb.c ****   }
 3069              		.loc 1 244 15 is_stmt 0 discriminator 2 view .LVU1045
 3070 0024 2846     		mov	r0, r5
 3071 0026 FFF7FEFF 		bl	USB_GetMode
 3072              	.LVL234:
 244:Drivers/STM32L4xx_HAL_Driver/Src/stm32l4xx_ll_usb.c ****   }
 3073              		.loc 1 244 63 discriminator 2 view .LVU1046
 3074 002a 08B1     		cbz	r0, .L190
 244:Drivers/STM32L4xx_HAL_Driver/Src/stm32l4xx_ll_usb.c ****   }
 3075              		.loc 1 244 63 discriminator 1 view .LVU1047
 3076 002c 312C     		cmp	r4, #49
 3077 002e F5D9     		bls	.L193
 3078              	.L190:
 251:Drivers/STM32L4xx_HAL_Driver/Src/stm32l4xx_ll_usb.c ****   {
 3079              		.loc 1 251 3 is_stmt 1 view .LVU1048
 251:Drivers/STM32L4xx_HAL_Driver/Src/stm32l4xx_ll_usb.c ****   {
 3080              		.loc 1 251 6 is_stmt 0 view .LVU1049
 3081 0030 322C     		cmp	r4, #50
 3082 0032 14D0     		beq	.L195
 256:Drivers/STM32L4xx_HAL_Driver/Src/stm32l4xx_ll_usb.c **** }
 3083              		.loc 1 256 10 view .LVU1050
 3084 0034 0020     		movs	r0, #0
 3085              	.LVL235:
 3086              	.L192:
 257:Drivers/STM32L4xx_HAL_Driver/Src/stm32l4xx_ll_usb.c **** 
 3087              		.loc 1 257 1 view .LVU1051
 3088 0036 38BD     		pop	{r3, r4, r5, pc}
 3089              	.LVL236:
 3090              	.L197:
 228:Drivers/STM32L4xx_HAL_Driver/Src/stm32l4xx_ll_usb.c **** 
 3091              		.loc 1 228 5 is_stmt 1 view .LVU1052
 228:Drivers/STM32L4xx_HAL_Driver/Src/stm32l4xx_ll_usb.c **** 
 3092              		.loc 1 228 9 is_stmt 0 view .LVU1053
 3093 0038 C368     		ldr	r3, [r0, #12]
 228:Drivers/STM32L4xx_HAL_Driver/Src/stm32l4xx_ll_usb.c **** 
 3094              		.loc 1 228 19 view .LVU1054
 3095 003a 43F00053 		orr	r3, r3, #536870912
 3096 003e C360     		str	r3, [r0, #12]
 222:Drivers/STM32L4xx_HAL_Driver/Src/stm32l4xx_ll_usb.c **** 
ARM GAS  C:\Users\gigig\AppData\Local\Temp\ccWnrG0a.s 			page 95


 3097              		.loc 1 222 12 view .LVU1055
 3098 0040 0024     		movs	r4, #0
 3099              	.LVL237:
 3100              	.L191:
 230:Drivers/STM32L4xx_HAL_Driver/Src/stm32l4xx_ll_usb.c ****     {
 3101              		.loc 1 230 5 is_stmt 1 view .LVU1056
 232:Drivers/STM32L4xx_HAL_Driver/Src/stm32l4xx_ll_usb.c ****       ms++;
 3102              		.loc 1 232 7 view .LVU1057
 3103 0042 0120     		movs	r0, #1
 3104 0044 FFF7FEFF 		bl	HAL_Delay
 3105              	.LVL238:
 233:Drivers/STM32L4xx_HAL_Driver/Src/stm32l4xx_ll_usb.c ****     } while ((USB_GetMode(USBx) != (uint32_t)USB_HOST_MODE) && (ms < 50U));
 3106              		.loc 1 233 7 view .LVU1058
 233:Drivers/STM32L4xx_HAL_Driver/Src/stm32l4xx_ll_usb.c ****     } while ((USB_GetMode(USBx) != (uint32_t)USB_HOST_MODE) && (ms < 50U));
 3107              		.loc 1 233 9 is_stmt 0 view .LVU1059
 3108 0048 0134     		adds	r4, r4, #1
 3109              	.LVL239:
 234:Drivers/STM32L4xx_HAL_Driver/Src/stm32l4xx_ll_usb.c ****   }
 3110              		.loc 1 234 61 is_stmt 1 discriminator 2 view .LVU1060
 234:Drivers/STM32L4xx_HAL_Driver/Src/stm32l4xx_ll_usb.c ****   }
 3111              		.loc 1 234 15 is_stmt 0 discriminator 2 view .LVU1061
 3112 004a 2846     		mov	r0, r5
 3113 004c FFF7FEFF 		bl	USB_GetMode
 3114              	.LVL240:
 234:Drivers/STM32L4xx_HAL_Driver/Src/stm32l4xx_ll_usb.c ****   }
 3115              		.loc 1 234 61 discriminator 2 view .LVU1062
 3116 0050 0128     		cmp	r0, #1
 3117 0052 EDD0     		beq	.L190
 234:Drivers/STM32L4xx_HAL_Driver/Src/stm32l4xx_ll_usb.c ****   }
 3118              		.loc 1 234 61 discriminator 1 view .LVU1063
 3119 0054 312C     		cmp	r4, #49
 3120 0056 F4D9     		bls	.L191
 3121 0058 EAE7     		b	.L190
 3122              	.LVL241:
 3123              	.L194:
 248:Drivers/STM32L4xx_HAL_Driver/Src/stm32l4xx_ll_usb.c ****   }
 3124              		.loc 1 248 12 view .LVU1064
 3125 005a 0120     		movs	r0, #1
 3126              	.LVL242:
 248:Drivers/STM32L4xx_HAL_Driver/Src/stm32l4xx_ll_usb.c ****   }
 3127              		.loc 1 248 12 view .LVU1065
 3128 005c EBE7     		b	.L192
 3129              	.LVL243:
 3130              	.L195:
 253:Drivers/STM32L4xx_HAL_Driver/Src/stm32l4xx_ll_usb.c ****   }
 3131              		.loc 1 253 12 view .LVU1066
 3132 005e 0120     		movs	r0, #1
 3133 0060 E9E7     		b	.L192
 3134              		.cfi_endproc
 3135              	.LFE136:
 3137              		.section	.text.USB_ActivateSetup,"ax",%progbits
 3138              		.align	1
 3139              		.global	USB_ActivateSetup
 3140              		.syntax unified
 3141              		.thumb
 3142              		.thumb_func
 3144              	USB_ActivateSetup:
ARM GAS  C:\Users\gigig\AppData\Local\Temp\ccWnrG0a.s 			page 96


 3145              	.LVL244:
 3146              	.LFB164:
1227:Drivers/STM32L4xx_HAL_Driver/Src/stm32l4xx_ll_usb.c ****   uint32_t USBx_BASE = (uint32_t)USBx;
 3147              		.loc 1 1227 1 is_stmt 1 view -0
 3148              		.cfi_startproc
 3149              		@ args = 0, pretend = 0, frame = 0
 3150              		@ frame_needed = 0, uses_anonymous_args = 0
 3151              		@ link register save eliminated.
1228:Drivers/STM32L4xx_HAL_Driver/Src/stm32l4xx_ll_usb.c **** 
 3152              		.loc 1 1228 3 view .LVU1068
1231:Drivers/STM32L4xx_HAL_Driver/Src/stm32l4xx_ll_usb.c **** 
 3153              		.loc 1 1231 3 view .LVU1069
1231:Drivers/STM32L4xx_HAL_Driver/Src/stm32l4xx_ll_usb.c **** 
 3154              		.loc 1 1231 16 is_stmt 0 view .LVU1070
 3155 0000 D0F80039 		ldr	r3, [r0, #2304]
1231:Drivers/STM32L4xx_HAL_Driver/Src/stm32l4xx_ll_usb.c **** 
 3156              		.loc 1 1231 26 view .LVU1071
 3157 0004 6FF30A03 		bfc	r3, #0, #11
 3158 0008 C0F80039 		str	r3, [r0, #2304]
1233:Drivers/STM32L4xx_HAL_Driver/Src/stm32l4xx_ll_usb.c **** 
 3159              		.loc 1 1233 3 is_stmt 1 view .LVU1072
1233:Drivers/STM32L4xx_HAL_Driver/Src/stm32l4xx_ll_usb.c **** 
 3160              		.loc 1 1233 14 is_stmt 0 view .LVU1073
 3161 000c D0F80438 		ldr	r3, [r0, #2052]
1233:Drivers/STM32L4xx_HAL_Driver/Src/stm32l4xx_ll_usb.c **** 
 3162              		.loc 1 1233 21 view .LVU1074
 3163 0010 43F48073 		orr	r3, r3, #256
 3164 0014 C0F80438 		str	r3, [r0, #2052]
1235:Drivers/STM32L4xx_HAL_Driver/Src/stm32l4xx_ll_usb.c **** }
 3165              		.loc 1 1235 3 is_stmt 1 view .LVU1075
1236:Drivers/STM32L4xx_HAL_Driver/Src/stm32l4xx_ll_usb.c **** 
 3166              		.loc 1 1236 1 is_stmt 0 view .LVU1076
 3167 0018 0020     		movs	r0, #0
 3168              	.LVL245:
1236:Drivers/STM32L4xx_HAL_Driver/Src/stm32l4xx_ll_usb.c **** 
 3169              		.loc 1 1236 1 view .LVU1077
 3170 001a 7047     		bx	lr
 3171              		.cfi_endproc
 3172              	.LFE164:
 3174              		.section	.text.USB_EP0_OutStart,"ax",%progbits
 3175              		.align	1
 3176              		.global	USB_EP0_OutStart
 3177              		.syntax unified
 3178              		.thumb
 3179              		.thumb_func
 3181              	USB_EP0_OutStart:
 3182              	.LVL246:
 3183              	.LFB165:
1245:Drivers/STM32L4xx_HAL_Driver/Src/stm32l4xx_ll_usb.c ****   uint32_t USBx_BASE = (uint32_t)USBx;
 3184              		.loc 1 1245 1 is_stmt 1 view -0
 3185              		.cfi_startproc
 3186              		@ args = 0, pretend = 0, frame = 0
 3187              		@ frame_needed = 0, uses_anonymous_args = 0
 3188              		@ link register save eliminated.
1246:Drivers/STM32L4xx_HAL_Driver/Src/stm32l4xx_ll_usb.c ****   uint32_t gSNPSiD = *(__IO uint32_t *)(&USBx->CID + 0x1U);
 3189              		.loc 1 1246 3 view .LVU1079
1247:Drivers/STM32L4xx_HAL_Driver/Src/stm32l4xx_ll_usb.c ****   UNUSED(psetup);
ARM GAS  C:\Users\gigig\AppData\Local\Temp\ccWnrG0a.s 			page 97


 3190              		.loc 1 1247 3 view .LVU1080
1247:Drivers/STM32L4xx_HAL_Driver/Src/stm32l4xx_ll_usb.c ****   UNUSED(psetup);
 3191              		.loc 1 1247 12 is_stmt 0 view .LVU1081
 3192 0000 026C     		ldr	r2, [r0, #64]
 3193              	.LVL247:
1248:Drivers/STM32L4xx_HAL_Driver/Src/stm32l4xx_ll_usb.c **** 
 3194              		.loc 1 1248 3 is_stmt 1 view .LVU1082
1250:Drivers/STM32L4xx_HAL_Driver/Src/stm32l4xx_ll_usb.c ****   {
 3195              		.loc 1 1250 3 view .LVU1083
1250:Drivers/STM32L4xx_HAL_Driver/Src/stm32l4xx_ll_usb.c ****   {
 3196              		.loc 1 1250 6 is_stmt 0 view .LVU1084
 3197 0002 0F4B     		ldr	r3, .L202
 3198 0004 9A42     		cmp	r2, r3
 3199 0006 03D9     		bls	.L200
1252:Drivers/STM32L4xx_HAL_Driver/Src/stm32l4xx_ll_usb.c ****     {
 3200              		.loc 1 1252 5 is_stmt 1 view .LVU1085
1252:Drivers/STM32L4xx_HAL_Driver/Src/stm32l4xx_ll_usb.c ****     {
 3201              		.loc 1 1252 24 is_stmt 0 view .LVU1086
 3202 0008 D0F8003B 		ldr	r3, [r0, #2816]
1252:Drivers/STM32L4xx_HAL_Driver/Src/stm32l4xx_ll_usb.c ****     {
 3203              		.loc 1 1252 8 view .LVU1087
 3204 000c 002B     		cmp	r3, #0
 3205 000e 14DB     		blt	.L201
 3206              	.L200:
1258:Drivers/STM32L4xx_HAL_Driver/Src/stm32l4xx_ll_usb.c ****   USBx_OUTEP(0U)->DOEPTSIZ |= (USB_OTG_DOEPTSIZ_PKTCNT & (1U << 19));
 3207              		.loc 1 1258 3 is_stmt 1 view .LVU1088
1258:Drivers/STM32L4xx_HAL_Driver/Src/stm32l4xx_ll_usb.c ****   USBx_OUTEP(0U)->DOEPTSIZ |= (USB_OTG_DOEPTSIZ_PKTCNT & (1U << 19));
 3208              		.loc 1 1258 28 is_stmt 0 view .LVU1089
 3209 0010 0023     		movs	r3, #0
 3210 0012 C0F8103B 		str	r3, [r0, #2832]
1259:Drivers/STM32L4xx_HAL_Driver/Src/stm32l4xx_ll_usb.c ****   USBx_OUTEP(0U)->DOEPTSIZ |= (3U * 8U);
 3211              		.loc 1 1259 3 is_stmt 1 view .LVU1090
1259:Drivers/STM32L4xx_HAL_Driver/Src/stm32l4xx_ll_usb.c ****   USBx_OUTEP(0U)->DOEPTSIZ |= (3U * 8U);
 3212              		.loc 1 1259 17 is_stmt 0 view .LVU1091
 3213 0016 D0F8103B 		ldr	r3, [r0, #2832]
1259:Drivers/STM32L4xx_HAL_Driver/Src/stm32l4xx_ll_usb.c ****   USBx_OUTEP(0U)->DOEPTSIZ |= (3U * 8U);
 3214              		.loc 1 1259 28 view .LVU1092
 3215 001a 43F40023 		orr	r3, r3, #524288
 3216 001e C0F8103B 		str	r3, [r0, #2832]
1260:Drivers/STM32L4xx_HAL_Driver/Src/stm32l4xx_ll_usb.c ****   USBx_OUTEP(0U)->DOEPTSIZ |=  USB_OTG_DOEPTSIZ_STUPCNT;
 3217              		.loc 1 1260 3 is_stmt 1 view .LVU1093
1260:Drivers/STM32L4xx_HAL_Driver/Src/stm32l4xx_ll_usb.c ****   USBx_OUTEP(0U)->DOEPTSIZ |=  USB_OTG_DOEPTSIZ_STUPCNT;
 3218              		.loc 1 1260 17 is_stmt 0 view .LVU1094
 3219 0022 D0F8103B 		ldr	r3, [r0, #2832]
1260:Drivers/STM32L4xx_HAL_Driver/Src/stm32l4xx_ll_usb.c ****   USBx_OUTEP(0U)->DOEPTSIZ |=  USB_OTG_DOEPTSIZ_STUPCNT;
 3220              		.loc 1 1260 28 view .LVU1095
 3221 0026 43F01803 		orr	r3, r3, #24
 3222 002a C0F8103B 		str	r3, [r0, #2832]
1261:Drivers/STM32L4xx_HAL_Driver/Src/stm32l4xx_ll_usb.c **** 
 3223              		.loc 1 1261 3 is_stmt 1 view .LVU1096
1261:Drivers/STM32L4xx_HAL_Driver/Src/stm32l4xx_ll_usb.c **** 
 3224              		.loc 1 1261 17 is_stmt 0 view .LVU1097
 3225 002e D0F8103B 		ldr	r3, [r0, #2832]
1261:Drivers/STM32L4xx_HAL_Driver/Src/stm32l4xx_ll_usb.c **** 
 3226              		.loc 1 1261 28 view .LVU1098
 3227 0032 43F0C043 		orr	r3, r3, #1610612736
 3228 0036 C0F8103B 		str	r3, [r0, #2832]
ARM GAS  C:\Users\gigig\AppData\Local\Temp\ccWnrG0a.s 			page 98


1263:Drivers/STM32L4xx_HAL_Driver/Src/stm32l4xx_ll_usb.c **** }
 3229              		.loc 1 1263 3 is_stmt 1 view .LVU1099
 3230              	.L201:
1264:Drivers/STM32L4xx_HAL_Driver/Src/stm32l4xx_ll_usb.c **** 
 3231              		.loc 1 1264 1 is_stmt 0 view .LVU1100
 3232 003a 0020     		movs	r0, #0
 3233              	.LVL248:
1264:Drivers/STM32L4xx_HAL_Driver/Src/stm32l4xx_ll_usb.c **** 
 3234              		.loc 1 1264 1 view .LVU1101
 3235 003c 7047     		bx	lr
 3236              	.L203:
 3237 003e 00BF     		.align	2
 3238              	.L202:
 3239 0040 0A30544F 		.word	1330917386
 3240              		.cfi_endproc
 3241              	.LFE165:
 3243              		.section	.text.USB_HostInit,"ax",%progbits
 3244              		.align	1
 3245              		.global	USB_HostInit
 3246              		.syntax unified
 3247              		.thumb
 3248              		.thumb_func
 3250              	USB_HostInit:
 3251              	.LVL249:
 3252              	.LFB167:
1302:Drivers/STM32L4xx_HAL_Driver/Src/stm32l4xx_ll_usb.c **** 
1303:Drivers/STM32L4xx_HAL_Driver/Src/stm32l4xx_ll_usb.c **** /**
1304:Drivers/STM32L4xx_HAL_Driver/Src/stm32l4xx_ll_usb.c ****   * @brief  USB_HostInit : Initializes the USB OTG controller registers
1305:Drivers/STM32L4xx_HAL_Driver/Src/stm32l4xx_ll_usb.c ****   *         for Host mode
1306:Drivers/STM32L4xx_HAL_Driver/Src/stm32l4xx_ll_usb.c ****   * @param  USBx  Selected device
1307:Drivers/STM32L4xx_HAL_Driver/Src/stm32l4xx_ll_usb.c ****   * @param  cfg   pointer to a USB_OTG_CfgTypeDef structure that contains
1308:Drivers/STM32L4xx_HAL_Driver/Src/stm32l4xx_ll_usb.c ****   *         the configuration information for the specified USBx peripheral.
1309:Drivers/STM32L4xx_HAL_Driver/Src/stm32l4xx_ll_usb.c ****   * @retval HAL status
1310:Drivers/STM32L4xx_HAL_Driver/Src/stm32l4xx_ll_usb.c ****   */
1311:Drivers/STM32L4xx_HAL_Driver/Src/stm32l4xx_ll_usb.c **** HAL_StatusTypeDef USB_HostInit(USB_OTG_GlobalTypeDef *USBx, USB_OTG_CfgTypeDef cfg)
1312:Drivers/STM32L4xx_HAL_Driver/Src/stm32l4xx_ll_usb.c **** {
 3253              		.loc 1 1312 1 is_stmt 1 view -0
 3254              		.cfi_startproc
 3255              		@ args = 56, pretend = 16, frame = 0
 3256              		@ frame_needed = 0, uses_anonymous_args = 0
 3257              		.loc 1 1312 1 is_stmt 0 view .LVU1103
 3258 0000 84B0     		sub	sp, sp, #16
 3259              		.cfi_def_cfa_offset 16
 3260 0002 38B5     		push	{r3, r4, r5, lr}
 3261              		.cfi_def_cfa_offset 32
 3262              		.cfi_offset 3, -32
 3263              		.cfi_offset 4, -28
 3264              		.cfi_offset 5, -24
 3265              		.cfi_offset 14, -20
 3266 0004 0446     		mov	r4, r0
 3267 0006 05AD     		add	r5, sp, #20
 3268 0008 85E80E00 		stm	r5, {r1, r2, r3}
1313:Drivers/STM32L4xx_HAL_Driver/Src/stm32l4xx_ll_usb.c ****   HAL_StatusTypeDef ret = HAL_OK;
 3269              		.loc 1 1313 3 is_stmt 1 view .LVU1104
 3270              	.LVL250:
1314:Drivers/STM32L4xx_HAL_Driver/Src/stm32l4xx_ll_usb.c ****   uint32_t USBx_BASE = (uint32_t)USBx;
 3271              		.loc 1 1314 3 view .LVU1105
ARM GAS  C:\Users\gigig\AppData\Local\Temp\ccWnrG0a.s 			page 99


1315:Drivers/STM32L4xx_HAL_Driver/Src/stm32l4xx_ll_usb.c ****   uint32_t i;
 3272              		.loc 1 1315 3 view .LVU1106
1316:Drivers/STM32L4xx_HAL_Driver/Src/stm32l4xx_ll_usb.c **** 
1317:Drivers/STM32L4xx_HAL_Driver/Src/stm32l4xx_ll_usb.c ****   /* Restart the Phy Clock */
1318:Drivers/STM32L4xx_HAL_Driver/Src/stm32l4xx_ll_usb.c ****   USBx_PCGCCTL = 0U;
 3273              		.loc 1 1318 3 view .LVU1107
 3274              		.loc 1 1318 16 is_stmt 0 view .LVU1108
 3275 000c 0023     		movs	r3, #0
 3276 000e C0F8003E 		str	r3, [r0, #3584]
1319:Drivers/STM32L4xx_HAL_Driver/Src/stm32l4xx_ll_usb.c **** 
1320:Drivers/STM32L4xx_HAL_Driver/Src/stm32l4xx_ll_usb.c ****   /* Disable VBUS sensing */
1321:Drivers/STM32L4xx_HAL_Driver/Src/stm32l4xx_ll_usb.c ****   USBx->GCCFG &= ~(USB_OTG_GCCFG_VBDEN);
 3277              		.loc 1 1321 3 is_stmt 1 view .LVU1109
 3278              		.loc 1 1321 7 is_stmt 0 view .LVU1110
 3279 0012 836B     		ldr	r3, [r0, #56]
 3280              		.loc 1 1321 15 view .LVU1111
 3281 0014 23F40013 		bic	r3, r3, #2097152
 3282 0018 8363     		str	r3, [r0, #56]
1322:Drivers/STM32L4xx_HAL_Driver/Src/stm32l4xx_ll_usb.c **** 
1323:Drivers/STM32L4xx_HAL_Driver/Src/stm32l4xx_ll_usb.c ****   /* Disable Battery chargin detector */
1324:Drivers/STM32L4xx_HAL_Driver/Src/stm32l4xx_ll_usb.c ****   USBx->GCCFG &= ~(USB_OTG_GCCFG_BCDEN);
 3283              		.loc 1 1324 3 is_stmt 1 view .LVU1112
 3284              		.loc 1 1324 7 is_stmt 0 view .LVU1113
 3285 001a 836B     		ldr	r3, [r0, #56]
 3286              		.loc 1 1324 15 view .LVU1114
 3287 001c 23F40033 		bic	r3, r3, #131072
 3288 0020 8363     		str	r3, [r0, #56]
1325:Drivers/STM32L4xx_HAL_Driver/Src/stm32l4xx_ll_usb.c **** 
1326:Drivers/STM32L4xx_HAL_Driver/Src/stm32l4xx_ll_usb.c ****   /* Set default Max speed support */
1327:Drivers/STM32L4xx_HAL_Driver/Src/stm32l4xx_ll_usb.c ****   USBx_HOST->HCFG &= ~(USB_OTG_HCFG_FSLSS);
 3289              		.loc 1 1327 3 is_stmt 1 view .LVU1115
 3290              		.loc 1 1327 12 is_stmt 0 view .LVU1116
 3291 0022 D0F80034 		ldr	r3, [r0, #1024]
 3292              		.loc 1 1327 19 view .LVU1117
 3293 0026 23F00403 		bic	r3, r3, #4
 3294 002a C0F80034 		str	r3, [r0, #1024]
1328:Drivers/STM32L4xx_HAL_Driver/Src/stm32l4xx_ll_usb.c **** 
1329:Drivers/STM32L4xx_HAL_Driver/Src/stm32l4xx_ll_usb.c ****   /* Make sure the FIFOs are flushed. */
1330:Drivers/STM32L4xx_HAL_Driver/Src/stm32l4xx_ll_usb.c ****   if (USB_FlushTxFifo(USBx, 0x10U) != HAL_OK) /* all Tx FIFOs */
 3295              		.loc 1 1330 3 is_stmt 1 view .LVU1118
 3296              		.loc 1 1330 7 is_stmt 0 view .LVU1119
 3297 002e 1021     		movs	r1, #16
 3298 0030 FFF7FEFF 		bl	USB_FlushTxFifo
 3299              	.LVL251:
 3300              		.loc 1 1330 6 discriminator 1 view .LVU1120
 3301 0034 0546     		mov	r5, r0
 3302 0036 00B1     		cbz	r0, .L205
1331:Drivers/STM32L4xx_HAL_Driver/Src/stm32l4xx_ll_usb.c ****   {
1332:Drivers/STM32L4xx_HAL_Driver/Src/stm32l4xx_ll_usb.c ****     ret = HAL_ERROR;
 3303              		.loc 1 1332 9 view .LVU1121
 3304 0038 0125     		movs	r5, #1
 3305              	.L205:
 3306              	.LVL252:
1333:Drivers/STM32L4xx_HAL_Driver/Src/stm32l4xx_ll_usb.c ****   }
1334:Drivers/STM32L4xx_HAL_Driver/Src/stm32l4xx_ll_usb.c **** 
1335:Drivers/STM32L4xx_HAL_Driver/Src/stm32l4xx_ll_usb.c ****   if (USB_FlushRxFifo(USBx) != HAL_OK)
 3307              		.loc 1 1335 3 is_stmt 1 view .LVU1122
ARM GAS  C:\Users\gigig\AppData\Local\Temp\ccWnrG0a.s 			page 100


 3308              		.loc 1 1335 7 is_stmt 0 view .LVU1123
 3309 003a 2046     		mov	r0, r4
 3310 003c FFF7FEFF 		bl	USB_FlushRxFifo
 3311              	.LVL253:
 3312              		.loc 1 1335 6 discriminator 1 view .LVU1124
 3313 0040 00B1     		cbz	r0, .L206
1336:Drivers/STM32L4xx_HAL_Driver/Src/stm32l4xx_ll_usb.c ****   {
1337:Drivers/STM32L4xx_HAL_Driver/Src/stm32l4xx_ll_usb.c ****     ret = HAL_ERROR;
 3314              		.loc 1 1337 9 view .LVU1125
 3315 0042 0125     		movs	r5, #1
 3316              	.LVL254:
 3317              	.L206:
1338:Drivers/STM32L4xx_HAL_Driver/Src/stm32l4xx_ll_usb.c ****   }
1339:Drivers/STM32L4xx_HAL_Driver/Src/stm32l4xx_ll_usb.c **** 
1340:Drivers/STM32L4xx_HAL_Driver/Src/stm32l4xx_ll_usb.c ****   /* Clear all pending HC Interrupts */
1341:Drivers/STM32L4xx_HAL_Driver/Src/stm32l4xx_ll_usb.c ****   for (i = 0U; i < cfg.Host_channels; i++)
 3318              		.loc 1 1341 3 is_stmt 1 view .LVU1126
 3319              		.loc 1 1341 10 is_stmt 0 view .LVU1127
 3320 0044 0022     		movs	r2, #0
 3321              		.loc 1 1341 3 view .LVU1128
 3322 0046 09E0     		b	.L207
 3323              	.LVL255:
 3324              	.L208:
1342:Drivers/STM32L4xx_HAL_Driver/Src/stm32l4xx_ll_usb.c ****   {
1343:Drivers/STM32L4xx_HAL_Driver/Src/stm32l4xx_ll_usb.c ****     USBx_HC(i)->HCINT = CLEAR_INTERRUPT_MASK;
 3325              		.loc 1 1343 5 is_stmt 1 view .LVU1129
 3326 0048 04EB4213 		add	r3, r4, r2, lsl #5
 3327              		.loc 1 1343 23 is_stmt 0 view .LVU1130
 3328 004c 4FF0FF31 		mov	r1, #-1
 3329 0050 C3F80815 		str	r1, [r3, #1288]
1344:Drivers/STM32L4xx_HAL_Driver/Src/stm32l4xx_ll_usb.c ****     USBx_HC(i)->HCINTMSK = 0U;
 3330              		.loc 1 1344 5 is_stmt 1 view .LVU1131
 3331              		.loc 1 1344 26 is_stmt 0 view .LVU1132
 3332 0054 0021     		movs	r1, #0
 3333 0056 C3F80C15 		str	r1, [r3, #1292]
1341:Drivers/STM32L4xx_HAL_Driver/Src/stm32l4xx_ll_usb.c ****   {
 3334              		.loc 1 1341 40 is_stmt 1 discriminator 3 view .LVU1133
 3335 005a 0132     		adds	r2, r2, #1
 3336              	.LVL256:
 3337              	.L207:
1341:Drivers/STM32L4xx_HAL_Driver/Src/stm32l4xx_ll_usb.c ****   {
 3338              		.loc 1 1341 18 discriminator 1 view .LVU1134
1341:Drivers/STM32L4xx_HAL_Driver/Src/stm32l4xx_ll_usb.c ****   {
 3339              		.loc 1 1341 23 is_stmt 0 discriminator 1 view .LVU1135
 3340 005c 069B     		ldr	r3, [sp, #24]
1341:Drivers/STM32L4xx_HAL_Driver/Src/stm32l4xx_ll_usb.c ****   {
 3341              		.loc 1 1341 18 discriminator 1 view .LVU1136
 3342 005e 9342     		cmp	r3, r2
 3343 0060 F2D8     		bhi	.L208
1345:Drivers/STM32L4xx_HAL_Driver/Src/stm32l4xx_ll_usb.c ****   }
1346:Drivers/STM32L4xx_HAL_Driver/Src/stm32l4xx_ll_usb.c **** 
1347:Drivers/STM32L4xx_HAL_Driver/Src/stm32l4xx_ll_usb.c ****   /* Disable all interrupts. */
1348:Drivers/STM32L4xx_HAL_Driver/Src/stm32l4xx_ll_usb.c ****   USBx->GINTMSK = 0U;
 3344              		.loc 1 1348 3 is_stmt 1 view .LVU1137
 3345              		.loc 1 1348 17 is_stmt 0 view .LVU1138
 3346 0062 0023     		movs	r3, #0
 3347 0064 A361     		str	r3, [r4, #24]
ARM GAS  C:\Users\gigig\AppData\Local\Temp\ccWnrG0a.s 			page 101


1349:Drivers/STM32L4xx_HAL_Driver/Src/stm32l4xx_ll_usb.c **** 
1350:Drivers/STM32L4xx_HAL_Driver/Src/stm32l4xx_ll_usb.c ****   /* Clear any pending interrupts */
1351:Drivers/STM32L4xx_HAL_Driver/Src/stm32l4xx_ll_usb.c ****   USBx->GINTSTS = CLEAR_INTERRUPT_MASK;
 3348              		.loc 1 1351 3 is_stmt 1 view .LVU1139
 3349              		.loc 1 1351 17 is_stmt 0 view .LVU1140
 3350 0066 4FF0FF33 		mov	r3, #-1
 3351 006a 6361     		str	r3, [r4, #20]
1352:Drivers/STM32L4xx_HAL_Driver/Src/stm32l4xx_ll_usb.c **** 
1353:Drivers/STM32L4xx_HAL_Driver/Src/stm32l4xx_ll_usb.c ****   /* set Rx FIFO size */
1354:Drivers/STM32L4xx_HAL_Driver/Src/stm32l4xx_ll_usb.c ****   USBx->GRXFSIZ  = 0x80U;
 3352              		.loc 1 1354 3 is_stmt 1 view .LVU1141
 3353              		.loc 1 1354 18 is_stmt 0 view .LVU1142
 3354 006c 8023     		movs	r3, #128
 3355 006e 6362     		str	r3, [r4, #36]
1355:Drivers/STM32L4xx_HAL_Driver/Src/stm32l4xx_ll_usb.c ****   USBx->DIEPTXF0_HNPTXFSIZ = (uint32_t)(((0x60U << 16) & USB_OTG_NPTXFD) | 0x80U);
 3356              		.loc 1 1355 3 is_stmt 1 view .LVU1143
 3357              		.loc 1 1355 28 is_stmt 0 view .LVU1144
 3358 0070 03F5C003 		add	r3, r3, #6291456
 3359 0074 A362     		str	r3, [r4, #40]
1356:Drivers/STM32L4xx_HAL_Driver/Src/stm32l4xx_ll_usb.c ****   USBx->HPTXFSIZ = (uint32_t)(((0x40U << 16)& USB_OTG_HPTXFSIZ_PTXFD) | 0xE0U);
 3360              		.loc 1 1356 3 is_stmt 1 view .LVU1145
 3361              		.loc 1 1356 18 is_stmt 0 view .LVU1146
 3362 0076 084B     		ldr	r3, .L212
 3363 0078 C4F80031 		str	r3, [r4, #256]
1357:Drivers/STM32L4xx_HAL_Driver/Src/stm32l4xx_ll_usb.c ****   /* Enable the common interrupts */
1358:Drivers/STM32L4xx_HAL_Driver/Src/stm32l4xx_ll_usb.c ****   USBx->GINTMSK |= USB_OTG_GINTMSK_RXFLVLM;
 3364              		.loc 1 1358 3 is_stmt 1 view .LVU1147
 3365              		.loc 1 1358 7 is_stmt 0 view .LVU1148
 3366 007c A369     		ldr	r3, [r4, #24]
 3367              		.loc 1 1358 17 view .LVU1149
 3368 007e 43F01003 		orr	r3, r3, #16
 3369 0082 A361     		str	r3, [r4, #24]
1359:Drivers/STM32L4xx_HAL_Driver/Src/stm32l4xx_ll_usb.c **** 
1360:Drivers/STM32L4xx_HAL_Driver/Src/stm32l4xx_ll_usb.c ****   /* Enable interrupts matching to the Host mode ONLY */
1361:Drivers/STM32L4xx_HAL_Driver/Src/stm32l4xx_ll_usb.c ****   USBx->GINTMSK |= (USB_OTG_GINTMSK_PRTIM            | USB_OTG_GINTMSK_HCIM | \
 3370              		.loc 1 1361 3 is_stmt 1 view .LVU1150
 3371              		.loc 1 1361 7 is_stmt 0 view .LVU1151
 3372 0084 A269     		ldr	r2, [r4, #24]
 3373              	.LVL257:
 3374              		.loc 1 1361 17 view .LVU1152
 3375 0086 054B     		ldr	r3, .L212+4
 3376 0088 1343     		orrs	r3, r3, r2
 3377 008a A361     		str	r3, [r4, #24]
1362:Drivers/STM32L4xx_HAL_Driver/Src/stm32l4xx_ll_usb.c ****                     USB_OTG_GINTMSK_SOFM             | USB_OTG_GINTSTS_DISCINT | \
1363:Drivers/STM32L4xx_HAL_Driver/Src/stm32l4xx_ll_usb.c ****                     USB_OTG_GINTMSK_PXFRM_IISOOXFRM  | USB_OTG_GINTMSK_WUIM);
1364:Drivers/STM32L4xx_HAL_Driver/Src/stm32l4xx_ll_usb.c **** 
1365:Drivers/STM32L4xx_HAL_Driver/Src/stm32l4xx_ll_usb.c ****   return ret;
 3378              		.loc 1 1365 3 is_stmt 1 view .LVU1153
1366:Drivers/STM32L4xx_HAL_Driver/Src/stm32l4xx_ll_usb.c **** }
 3379              		.loc 1 1366 1 is_stmt 0 view .LVU1154
 3380 008c 2846     		mov	r0, r5
 3381 008e BDE83840 		pop	{r3, r4, r5, lr}
 3382              		.cfi_restore 14
 3383              		.cfi_restore 5
 3384              		.cfi_restore 4
 3385              		.cfi_restore 3
 3386              		.cfi_def_cfa_offset 16
ARM GAS  C:\Users\gigig\AppData\Local\Temp\ccWnrG0a.s 			page 102


 3387              	.LVL258:
 3388              		.loc 1 1366 1 view .LVU1155
 3389 0092 04B0     		add	sp, sp, #16
 3390              		.cfi_def_cfa_offset 0
 3391 0094 7047     		bx	lr
 3392              	.L213:
 3393 0096 00BF     		.align	2
 3394              	.L212:
 3395 0098 E0004000 		.word	4194528
 3396 009c 080020A3 		.word	-1558183928
 3397              		.cfi_endproc
 3398              	.LFE167:
 3400              		.section	.text.USB_InitFSLSPClkSel,"ax",%progbits
 3401              		.align	1
 3402              		.global	USB_InitFSLSPClkSel
 3403              		.syntax unified
 3404              		.thumb
 3405              		.thumb_func
 3407              	USB_InitFSLSPClkSel:
 3408              	.LVL259:
 3409              	.LFB168:
1367:Drivers/STM32L4xx_HAL_Driver/Src/stm32l4xx_ll_usb.c **** 
1368:Drivers/STM32L4xx_HAL_Driver/Src/stm32l4xx_ll_usb.c **** /**
1369:Drivers/STM32L4xx_HAL_Driver/Src/stm32l4xx_ll_usb.c ****   * @brief  USB_InitFSLSPClkSel : Initializes the FSLSPClkSel field of the
1370:Drivers/STM32L4xx_HAL_Driver/Src/stm32l4xx_ll_usb.c ****   *         HCFG register on the PHY type and set the right frame interval
1371:Drivers/STM32L4xx_HAL_Driver/Src/stm32l4xx_ll_usb.c ****   * @param  USBx  Selected device
1372:Drivers/STM32L4xx_HAL_Driver/Src/stm32l4xx_ll_usb.c ****   * @param  freq  clock frequency
1373:Drivers/STM32L4xx_HAL_Driver/Src/stm32l4xx_ll_usb.c ****   *          This parameter can be one of these values:
1374:Drivers/STM32L4xx_HAL_Driver/Src/stm32l4xx_ll_usb.c ****   *           HCFG_48_MHZ : Full Speed 48 MHz Clock
1375:Drivers/STM32L4xx_HAL_Driver/Src/stm32l4xx_ll_usb.c ****   *           HCFG_6_MHZ : Low Speed 6 MHz Clock
1376:Drivers/STM32L4xx_HAL_Driver/Src/stm32l4xx_ll_usb.c ****   * @retval HAL status
1377:Drivers/STM32L4xx_HAL_Driver/Src/stm32l4xx_ll_usb.c ****   */
1378:Drivers/STM32L4xx_HAL_Driver/Src/stm32l4xx_ll_usb.c **** HAL_StatusTypeDef USB_InitFSLSPClkSel(USB_OTG_GlobalTypeDef *USBx, uint8_t freq)
1379:Drivers/STM32L4xx_HAL_Driver/Src/stm32l4xx_ll_usb.c **** {
 3410              		.loc 1 1379 1 is_stmt 1 view -0
 3411              		.cfi_startproc
 3412              		@ args = 0, pretend = 0, frame = 0
 3413              		@ frame_needed = 0, uses_anonymous_args = 0
 3414              		@ link register save eliminated.
1380:Drivers/STM32L4xx_HAL_Driver/Src/stm32l4xx_ll_usb.c ****   uint32_t USBx_BASE = (uint32_t)USBx;
 3415              		.loc 1 1380 3 view .LVU1157
1381:Drivers/STM32L4xx_HAL_Driver/Src/stm32l4xx_ll_usb.c **** 
1382:Drivers/STM32L4xx_HAL_Driver/Src/stm32l4xx_ll_usb.c ****   USBx_HOST->HCFG &= ~(USB_OTG_HCFG_FSLSPCS);
 3416              		.loc 1 1382 3 view .LVU1158
 3417              		.loc 1 1382 12 is_stmt 0 view .LVU1159
 3418 0000 00F5806C 		add	ip, r0, #1024
 3419 0004 D0F80034 		ldr	r3, [r0, #1024]
 3420              		.loc 1 1382 19 view .LVU1160
 3421 0008 23F00303 		bic	r3, r3, #3
 3422 000c C0F80034 		str	r3, [r0, #1024]
1383:Drivers/STM32L4xx_HAL_Driver/Src/stm32l4xx_ll_usb.c ****   USBx_HOST->HCFG |= (uint32_t)freq & USB_OTG_HCFG_FSLSPCS;
 3423              		.loc 1 1383 3 is_stmt 1 view .LVU1161
 3424              		.loc 1 1383 12 is_stmt 0 view .LVU1162
 3425 0010 D0F80034 		ldr	r3, [r0, #1024]
 3426              		.loc 1 1383 37 view .LVU1163
 3427 0014 01F00302 		and	r2, r1, #3
 3428              		.loc 1 1383 19 view .LVU1164
ARM GAS  C:\Users\gigig\AppData\Local\Temp\ccWnrG0a.s 			page 103


 3429 0018 1343     		orrs	r3, r3, r2
 3430 001a C0F80034 		str	r3, [r0, #1024]
1384:Drivers/STM32L4xx_HAL_Driver/Src/stm32l4xx_ll_usb.c **** 
1385:Drivers/STM32L4xx_HAL_Driver/Src/stm32l4xx_ll_usb.c ****   if (freq == HCFG_48_MHZ)
 3431              		.loc 1 1385 3 is_stmt 1 view .LVU1165
 3432              		.loc 1 1385 6 is_stmt 0 view .LVU1166
 3433 001e 0129     		cmp	r1, #1
 3434 0020 07D0     		beq	.L218
1386:Drivers/STM32L4xx_HAL_Driver/Src/stm32l4xx_ll_usb.c ****   {
1387:Drivers/STM32L4xx_HAL_Driver/Src/stm32l4xx_ll_usb.c ****     USBx_HOST->HFIR = HFIR_48_MHZ;
1388:Drivers/STM32L4xx_HAL_Driver/Src/stm32l4xx_ll_usb.c ****   }
1389:Drivers/STM32L4xx_HAL_Driver/Src/stm32l4xx_ll_usb.c ****   else if (freq == HCFG_6_MHZ)
 3435              		.loc 1 1389 8 is_stmt 1 view .LVU1167
 3436              		.loc 1 1389 11 is_stmt 0 view .LVU1168
 3437 0022 0229     		cmp	r1, #2
 3438 0024 0BD1     		bne	.L217
1390:Drivers/STM32L4xx_HAL_Driver/Src/stm32l4xx_ll_usb.c ****   {
1391:Drivers/STM32L4xx_HAL_Driver/Src/stm32l4xx_ll_usb.c ****     USBx_HOST->HFIR = HFIR_6_MHZ;
 3439              		.loc 1 1391 5 is_stmt 1 view .LVU1169
 3440              		.loc 1 1391 21 is_stmt 0 view .LVU1170
 3441 0026 41F27073 		movw	r3, #6000
 3442 002a CCF80430 		str	r3, [ip, #4]
1392:Drivers/STM32L4xx_HAL_Driver/Src/stm32l4xx_ll_usb.c ****   }
1393:Drivers/STM32L4xx_HAL_Driver/Src/stm32l4xx_ll_usb.c ****   else
1394:Drivers/STM32L4xx_HAL_Driver/Src/stm32l4xx_ll_usb.c ****   {
1395:Drivers/STM32L4xx_HAL_Driver/Src/stm32l4xx_ll_usb.c ****     return HAL_ERROR;
1396:Drivers/STM32L4xx_HAL_Driver/Src/stm32l4xx_ll_usb.c ****   }
1397:Drivers/STM32L4xx_HAL_Driver/Src/stm32l4xx_ll_usb.c **** 
1398:Drivers/STM32L4xx_HAL_Driver/Src/stm32l4xx_ll_usb.c ****   return HAL_OK;
 3443              		.loc 1 1398 10 view .LVU1171
 3444 002e 0020     		movs	r0, #0
 3445              	.LVL260:
 3446              		.loc 1 1398 10 view .LVU1172
 3447 0030 7047     		bx	lr
 3448              	.LVL261:
 3449              	.L218:
1387:Drivers/STM32L4xx_HAL_Driver/Src/stm32l4xx_ll_usb.c ****   }
 3450              		.loc 1 1387 5 is_stmt 1 view .LVU1173
1387:Drivers/STM32L4xx_HAL_Driver/Src/stm32l4xx_ll_usb.c ****   }
 3451              		.loc 1 1387 21 is_stmt 0 view .LVU1174
 3452 0032 4BF68033 		movw	r3, #48000
 3453 0036 CCF80430 		str	r3, [ip, #4]
 3454              		.loc 1 1398 10 view .LVU1175
 3455 003a 0020     		movs	r0, #0
 3456              	.LVL262:
 3457              		.loc 1 1398 10 view .LVU1176
 3458 003c 7047     		bx	lr
 3459              	.LVL263:
 3460              	.L217:
1395:Drivers/STM32L4xx_HAL_Driver/Src/stm32l4xx_ll_usb.c ****   }
 3461              		.loc 1 1395 12 view .LVU1177
 3462 003e 0120     		movs	r0, #1
 3463              	.LVL264:
1399:Drivers/STM32L4xx_HAL_Driver/Src/stm32l4xx_ll_usb.c **** }
 3464              		.loc 1 1399 1 view .LVU1178
 3465 0040 7047     		bx	lr
 3466              		.cfi_endproc
ARM GAS  C:\Users\gigig\AppData\Local\Temp\ccWnrG0a.s 			page 104


 3467              	.LFE168:
 3469              		.section	.text.USB_ResetPort,"ax",%progbits
 3470              		.align	1
 3471              		.global	USB_ResetPort
 3472              		.syntax unified
 3473              		.thumb
 3474              		.thumb_func
 3476              	USB_ResetPort:
 3477              	.LVL265:
 3478              	.LFB169:
1400:Drivers/STM32L4xx_HAL_Driver/Src/stm32l4xx_ll_usb.c **** 
1401:Drivers/STM32L4xx_HAL_Driver/Src/stm32l4xx_ll_usb.c **** /**
1402:Drivers/STM32L4xx_HAL_Driver/Src/stm32l4xx_ll_usb.c ****   * @brief  USB_OTG_ResetPort : Reset Host Port
1403:Drivers/STM32L4xx_HAL_Driver/Src/stm32l4xx_ll_usb.c ****   * @param  USBx  Selected device
1404:Drivers/STM32L4xx_HAL_Driver/Src/stm32l4xx_ll_usb.c ****   * @retval HAL status
1405:Drivers/STM32L4xx_HAL_Driver/Src/stm32l4xx_ll_usb.c ****   * @note (1)The application must wait at least 10 ms
1406:Drivers/STM32L4xx_HAL_Driver/Src/stm32l4xx_ll_usb.c ****   *   before clearing the reset bit.
1407:Drivers/STM32L4xx_HAL_Driver/Src/stm32l4xx_ll_usb.c ****   */
1408:Drivers/STM32L4xx_HAL_Driver/Src/stm32l4xx_ll_usb.c **** HAL_StatusTypeDef USB_ResetPort(USB_OTG_GlobalTypeDef *USBx)
1409:Drivers/STM32L4xx_HAL_Driver/Src/stm32l4xx_ll_usb.c **** {
 3479              		.loc 1 1409 1 is_stmt 1 view -0
 3480              		.cfi_startproc
 3481              		@ args = 0, pretend = 0, frame = 8
 3482              		@ frame_needed = 0, uses_anonymous_args = 0
 3483              		.loc 1 1409 1 is_stmt 0 view .LVU1180
 3484 0000 30B5     		push	{r4, r5, lr}
 3485              		.cfi_def_cfa_offset 12
 3486              		.cfi_offset 4, -12
 3487              		.cfi_offset 5, -8
 3488              		.cfi_offset 14, -4
 3489 0002 83B0     		sub	sp, sp, #12
 3490              		.cfi_def_cfa_offset 24
 3491 0004 0446     		mov	r4, r0
1410:Drivers/STM32L4xx_HAL_Driver/Src/stm32l4xx_ll_usb.c ****   uint32_t USBx_BASE = (uint32_t)USBx;
 3492              		.loc 1 1410 3 is_stmt 1 view .LVU1181
 3493              	.LVL266:
1411:Drivers/STM32L4xx_HAL_Driver/Src/stm32l4xx_ll_usb.c **** 
1412:Drivers/STM32L4xx_HAL_Driver/Src/stm32l4xx_ll_usb.c ****   __IO uint32_t hprt0 = 0U;
 3494              		.loc 1 1412 3 view .LVU1182
 3495              		.loc 1 1412 17 is_stmt 0 view .LVU1183
 3496 0006 0025     		movs	r5, #0
 3497 0008 0195     		str	r5, [sp, #4]
1413:Drivers/STM32L4xx_HAL_Driver/Src/stm32l4xx_ll_usb.c **** 
1414:Drivers/STM32L4xx_HAL_Driver/Src/stm32l4xx_ll_usb.c ****   hprt0 = USBx_HPRT0;
 3498              		.loc 1 1414 3 is_stmt 1 view .LVU1184
 3499              		.loc 1 1414 11 is_stmt 0 view .LVU1185
 3500 000a D0F84034 		ldr	r3, [r0, #1088]
 3501              		.loc 1 1414 9 view .LVU1186
 3502 000e 0193     		str	r3, [sp, #4]
1415:Drivers/STM32L4xx_HAL_Driver/Src/stm32l4xx_ll_usb.c **** 
1416:Drivers/STM32L4xx_HAL_Driver/Src/stm32l4xx_ll_usb.c ****   hprt0 &= ~(USB_OTG_HPRT_PENA | USB_OTG_HPRT_PCDET |
 3503              		.loc 1 1416 3 is_stmt 1 view .LVU1187
 3504              		.loc 1 1416 9 is_stmt 0 view .LVU1188
 3505 0010 019B     		ldr	r3, [sp, #4]
 3506 0012 23F02E03 		bic	r3, r3, #46
 3507 0016 0193     		str	r3, [sp, #4]
1417:Drivers/STM32L4xx_HAL_Driver/Src/stm32l4xx_ll_usb.c ****              USB_OTG_HPRT_PENCHNG | USB_OTG_HPRT_POCCHNG);
ARM GAS  C:\Users\gigig\AppData\Local\Temp\ccWnrG0a.s 			page 105


1418:Drivers/STM32L4xx_HAL_Driver/Src/stm32l4xx_ll_usb.c **** 
1419:Drivers/STM32L4xx_HAL_Driver/Src/stm32l4xx_ll_usb.c ****   USBx_HPRT0 = (USB_OTG_HPRT_PRST | hprt0);
 3508              		.loc 1 1419 3 is_stmt 1 view .LVU1189
 3509              		.loc 1 1419 35 is_stmt 0 view .LVU1190
 3510 0018 019B     		ldr	r3, [sp, #4]
 3511 001a 43F48073 		orr	r3, r3, #256
 3512              		.loc 1 1419 14 view .LVU1191
 3513 001e C0F84034 		str	r3, [r0, #1088]
1420:Drivers/STM32L4xx_HAL_Driver/Src/stm32l4xx_ll_usb.c ****   HAL_Delay(100U);                                 /* See Note #1 */
 3514              		.loc 1 1420 3 is_stmt 1 view .LVU1192
 3515 0022 6420     		movs	r0, #100
 3516              	.LVL267:
 3517              		.loc 1 1420 3 is_stmt 0 view .LVU1193
 3518 0024 FFF7FEFF 		bl	HAL_Delay
 3519              	.LVL268:
1421:Drivers/STM32L4xx_HAL_Driver/Src/stm32l4xx_ll_usb.c ****   USBx_HPRT0 = ((~USB_OTG_HPRT_PRST) & hprt0);
 3520              		.loc 1 1421 3 is_stmt 1 view .LVU1194
 3521              		.loc 1 1421 38 is_stmt 0 view .LVU1195
 3522 0028 019B     		ldr	r3, [sp, #4]
 3523 002a 23F48073 		bic	r3, r3, #256
 3524              		.loc 1 1421 14 view .LVU1196
 3525 002e C4F84034 		str	r3, [r4, #1088]
1422:Drivers/STM32L4xx_HAL_Driver/Src/stm32l4xx_ll_usb.c ****   HAL_Delay(10U);
 3526              		.loc 1 1422 3 is_stmt 1 view .LVU1197
 3527 0032 0A20     		movs	r0, #10
 3528 0034 FFF7FEFF 		bl	HAL_Delay
 3529              	.LVL269:
1423:Drivers/STM32L4xx_HAL_Driver/Src/stm32l4xx_ll_usb.c **** 
1424:Drivers/STM32L4xx_HAL_Driver/Src/stm32l4xx_ll_usb.c ****   return HAL_OK;
 3530              		.loc 1 1424 3 view .LVU1198
1425:Drivers/STM32L4xx_HAL_Driver/Src/stm32l4xx_ll_usb.c **** }
 3531              		.loc 1 1425 1 is_stmt 0 view .LVU1199
 3532 0038 2846     		mov	r0, r5
 3533 003a 03B0     		add	sp, sp, #12
 3534              		.cfi_def_cfa_offset 12
 3535              		@ sp needed
 3536 003c 30BD     		pop	{r4, r5, pc}
 3537              		.loc 1 1425 1 view .LVU1200
 3538              		.cfi_endproc
 3539              	.LFE169:
 3541              		.section	.text.USB_DriveVbus,"ax",%progbits
 3542              		.align	1
 3543              		.global	USB_DriveVbus
 3544              		.syntax unified
 3545              		.thumb
 3546              		.thumb_func
 3548              	USB_DriveVbus:
 3549              	.LVL270:
 3550              	.LFB170:
1426:Drivers/STM32L4xx_HAL_Driver/Src/stm32l4xx_ll_usb.c **** 
1427:Drivers/STM32L4xx_HAL_Driver/Src/stm32l4xx_ll_usb.c **** /**
1428:Drivers/STM32L4xx_HAL_Driver/Src/stm32l4xx_ll_usb.c ****   * @brief  USB_DriveVbus : activate or de-activate vbus
1429:Drivers/STM32L4xx_HAL_Driver/Src/stm32l4xx_ll_usb.c ****   * @param  state  VBUS state
1430:Drivers/STM32L4xx_HAL_Driver/Src/stm32l4xx_ll_usb.c ****   *          This parameter can be one of these values:
1431:Drivers/STM32L4xx_HAL_Driver/Src/stm32l4xx_ll_usb.c ****   *           0 : Deactivate VBUS
1432:Drivers/STM32L4xx_HAL_Driver/Src/stm32l4xx_ll_usb.c ****   *           1 : Activate VBUS
1433:Drivers/STM32L4xx_HAL_Driver/Src/stm32l4xx_ll_usb.c ****   * @retval HAL status
ARM GAS  C:\Users\gigig\AppData\Local\Temp\ccWnrG0a.s 			page 106


1434:Drivers/STM32L4xx_HAL_Driver/Src/stm32l4xx_ll_usb.c ****   */
1435:Drivers/STM32L4xx_HAL_Driver/Src/stm32l4xx_ll_usb.c **** HAL_StatusTypeDef USB_DriveVbus(USB_OTG_GlobalTypeDef *USBx, uint8_t state)
1436:Drivers/STM32L4xx_HAL_Driver/Src/stm32l4xx_ll_usb.c **** {
 3551              		.loc 1 1436 1 is_stmt 1 view -0
 3552              		.cfi_startproc
 3553              		@ args = 0, pretend = 0, frame = 8
 3554              		@ frame_needed = 0, uses_anonymous_args = 0
 3555              		@ link register save eliminated.
 3556              		.loc 1 1436 1 is_stmt 0 view .LVU1202
 3557 0000 82B0     		sub	sp, sp, #8
 3558              		.cfi_def_cfa_offset 8
1437:Drivers/STM32L4xx_HAL_Driver/Src/stm32l4xx_ll_usb.c ****   uint32_t USBx_BASE = (uint32_t)USBx;
 3559              		.loc 1 1437 3 is_stmt 1 view .LVU1203
 3560              	.LVL271:
1438:Drivers/STM32L4xx_HAL_Driver/Src/stm32l4xx_ll_usb.c ****   __IO uint32_t hprt0 = 0U;
 3561              		.loc 1 1438 3 view .LVU1204
 3562              		.loc 1 1438 17 is_stmt 0 view .LVU1205
 3563 0002 0023     		movs	r3, #0
 3564 0004 0193     		str	r3, [sp, #4]
1439:Drivers/STM32L4xx_HAL_Driver/Src/stm32l4xx_ll_usb.c **** 
1440:Drivers/STM32L4xx_HAL_Driver/Src/stm32l4xx_ll_usb.c ****   hprt0 = USBx_HPRT0;
 3565              		.loc 1 1440 3 is_stmt 1 view .LVU1206
 3566              		.loc 1 1440 11 is_stmt 0 view .LVU1207
 3567 0006 D0F84034 		ldr	r3, [r0, #1088]
 3568              		.loc 1 1440 9 view .LVU1208
 3569 000a 0193     		str	r3, [sp, #4]
1441:Drivers/STM32L4xx_HAL_Driver/Src/stm32l4xx_ll_usb.c **** 
1442:Drivers/STM32L4xx_HAL_Driver/Src/stm32l4xx_ll_usb.c ****   hprt0 &= ~(USB_OTG_HPRT_PENA | USB_OTG_HPRT_PCDET |
 3570              		.loc 1 1442 3 is_stmt 1 view .LVU1209
 3571              		.loc 1 1442 9 is_stmt 0 view .LVU1210
 3572 000c 019B     		ldr	r3, [sp, #4]
 3573 000e 23F02E03 		bic	r3, r3, #46
 3574 0012 0193     		str	r3, [sp, #4]
1443:Drivers/STM32L4xx_HAL_Driver/Src/stm32l4xx_ll_usb.c ****              USB_OTG_HPRT_PENCHNG | USB_OTG_HPRT_POCCHNG);
1444:Drivers/STM32L4xx_HAL_Driver/Src/stm32l4xx_ll_usb.c **** 
1445:Drivers/STM32L4xx_HAL_Driver/Src/stm32l4xx_ll_usb.c ****   if (((hprt0 & USB_OTG_HPRT_PPWR) == 0U) && (state == 1U))
 3575              		.loc 1 1445 3 is_stmt 1 view .LVU1211
 3576              		.loc 1 1445 15 is_stmt 0 view .LVU1212
 3577 0014 019B     		ldr	r3, [sp, #4]
 3578              		.loc 1 1445 6 view .LVU1213
 3579 0016 13F4805F 		tst	r3, #4096
 3580 001a 01D1     		bne	.L222
 3581              		.loc 1 1445 43 discriminator 1 view .LVU1214
 3582 001c 0129     		cmp	r1, #1
 3583 001e 0CD0     		beq	.L225
 3584              	.L222:
1446:Drivers/STM32L4xx_HAL_Driver/Src/stm32l4xx_ll_usb.c ****   {
1447:Drivers/STM32L4xx_HAL_Driver/Src/stm32l4xx_ll_usb.c ****     USBx_HPRT0 = (USB_OTG_HPRT_PPWR | hprt0);
1448:Drivers/STM32L4xx_HAL_Driver/Src/stm32l4xx_ll_usb.c ****   }
1449:Drivers/STM32L4xx_HAL_Driver/Src/stm32l4xx_ll_usb.c ****   if (((hprt0 & USB_OTG_HPRT_PPWR) == USB_OTG_HPRT_PPWR) && (state == 0U))
 3585              		.loc 1 1449 3 is_stmt 1 view .LVU1215
 3586              		.loc 1 1449 15 is_stmt 0 view .LVU1216
 3587 0020 019B     		ldr	r3, [sp, #4]
 3588              		.loc 1 1449 6 view .LVU1217
 3589 0022 13F4805F 		tst	r3, #4096
 3590 0026 05D0     		beq	.L223
 3591              		.loc 1 1449 58 discriminator 1 view .LVU1218
ARM GAS  C:\Users\gigig\AppData\Local\Temp\ccWnrG0a.s 			page 107


 3592 0028 21B9     		cbnz	r1, .L223
1450:Drivers/STM32L4xx_HAL_Driver/Src/stm32l4xx_ll_usb.c ****   {
1451:Drivers/STM32L4xx_HAL_Driver/Src/stm32l4xx_ll_usb.c ****     USBx_HPRT0 = ((~USB_OTG_HPRT_PPWR) & hprt0);
 3593              		.loc 1 1451 5 is_stmt 1 view .LVU1219
 3594              		.loc 1 1451 40 is_stmt 0 view .LVU1220
 3595 002a 019B     		ldr	r3, [sp, #4]
 3596 002c 23F48053 		bic	r3, r3, #4096
 3597              		.loc 1 1451 16 view .LVU1221
 3598 0030 C0F84034 		str	r3, [r0, #1088]
 3599              	.L223:
1452:Drivers/STM32L4xx_HAL_Driver/Src/stm32l4xx_ll_usb.c ****   }
1453:Drivers/STM32L4xx_HAL_Driver/Src/stm32l4xx_ll_usb.c ****   return HAL_OK;
 3600              		.loc 1 1453 3 is_stmt 1 view .LVU1222
1454:Drivers/STM32L4xx_HAL_Driver/Src/stm32l4xx_ll_usb.c **** }
 3601              		.loc 1 1454 1 is_stmt 0 view .LVU1223
 3602 0034 0020     		movs	r0, #0
 3603              	.LVL272:
 3604              		.loc 1 1454 1 view .LVU1224
 3605 0036 02B0     		add	sp, sp, #8
 3606              		.cfi_remember_state
 3607              		.cfi_def_cfa_offset 0
 3608              		@ sp needed
 3609 0038 7047     		bx	lr
 3610              	.LVL273:
 3611              	.L225:
 3612              		.cfi_restore_state
1447:Drivers/STM32L4xx_HAL_Driver/Src/stm32l4xx_ll_usb.c ****   }
 3613              		.loc 1 1447 5 is_stmt 1 view .LVU1225
1447:Drivers/STM32L4xx_HAL_Driver/Src/stm32l4xx_ll_usb.c ****   }
 3614              		.loc 1 1447 37 is_stmt 0 view .LVU1226
 3615 003a 019B     		ldr	r3, [sp, #4]
 3616 003c 43F48053 		orr	r3, r3, #4096
1447:Drivers/STM32L4xx_HAL_Driver/Src/stm32l4xx_ll_usb.c ****   }
 3617              		.loc 1 1447 16 view .LVU1227
 3618 0040 C0F84034 		str	r3, [r0, #1088]
 3619 0044 ECE7     		b	.L222
 3620              		.cfi_endproc
 3621              	.LFE170:
 3623              		.section	.text.USB_GetHostSpeed,"ax",%progbits
 3624              		.align	1
 3625              		.global	USB_GetHostSpeed
 3626              		.syntax unified
 3627              		.thumb
 3628              		.thumb_func
 3630              	USB_GetHostSpeed:
 3631              	.LVL274:
 3632              	.LFB171:
1455:Drivers/STM32L4xx_HAL_Driver/Src/stm32l4xx_ll_usb.c **** 
1456:Drivers/STM32L4xx_HAL_Driver/Src/stm32l4xx_ll_usb.c **** /**
1457:Drivers/STM32L4xx_HAL_Driver/Src/stm32l4xx_ll_usb.c ****   * @brief  Return Host Core speed
1458:Drivers/STM32L4xx_HAL_Driver/Src/stm32l4xx_ll_usb.c ****   * @param  USBx  Selected device
1459:Drivers/STM32L4xx_HAL_Driver/Src/stm32l4xx_ll_usb.c ****   * @retval speed : Host speed
1460:Drivers/STM32L4xx_HAL_Driver/Src/stm32l4xx_ll_usb.c ****   *          This parameter can be one of these values:
1461:Drivers/STM32L4xx_HAL_Driver/Src/stm32l4xx_ll_usb.c ****   *            @arg HCD_SPEED_FULL: Full speed mode
1462:Drivers/STM32L4xx_HAL_Driver/Src/stm32l4xx_ll_usb.c ****   *            @arg HCD_SPEED_LOW: Low speed mode
1463:Drivers/STM32L4xx_HAL_Driver/Src/stm32l4xx_ll_usb.c ****   */
1464:Drivers/STM32L4xx_HAL_Driver/Src/stm32l4xx_ll_usb.c **** uint32_t USB_GetHostSpeed(USB_OTG_GlobalTypeDef const *USBx)
ARM GAS  C:\Users\gigig\AppData\Local\Temp\ccWnrG0a.s 			page 108


1465:Drivers/STM32L4xx_HAL_Driver/Src/stm32l4xx_ll_usb.c **** {
 3633              		.loc 1 1465 1 is_stmt 1 view -0
 3634              		.cfi_startproc
 3635              		@ args = 0, pretend = 0, frame = 8
 3636              		@ frame_needed = 0, uses_anonymous_args = 0
 3637              		@ link register save eliminated.
 3638              		.loc 1 1465 1 is_stmt 0 view .LVU1229
 3639 0000 82B0     		sub	sp, sp, #8
 3640              		.cfi_def_cfa_offset 8
1466:Drivers/STM32L4xx_HAL_Driver/Src/stm32l4xx_ll_usb.c ****   uint32_t USBx_BASE = (uint32_t)USBx;
 3641              		.loc 1 1466 3 is_stmt 1 view .LVU1230
 3642              	.LVL275:
1467:Drivers/STM32L4xx_HAL_Driver/Src/stm32l4xx_ll_usb.c ****   __IO uint32_t hprt0 = 0U;
 3643              		.loc 1 1467 3 view .LVU1231
 3644              		.loc 1 1467 17 is_stmt 0 view .LVU1232
 3645 0002 0023     		movs	r3, #0
 3646 0004 0193     		str	r3, [sp, #4]
1468:Drivers/STM32L4xx_HAL_Driver/Src/stm32l4xx_ll_usb.c **** 
1469:Drivers/STM32L4xx_HAL_Driver/Src/stm32l4xx_ll_usb.c ****   hprt0 = USBx_HPRT0;
 3647              		.loc 1 1469 3 is_stmt 1 view .LVU1233
 3648              		.loc 1 1469 11 is_stmt 0 view .LVU1234
 3649 0006 D0F84034 		ldr	r3, [r0, #1088]
 3650              		.loc 1 1469 9 view .LVU1235
 3651 000a 0193     		str	r3, [sp, #4]
1470:Drivers/STM32L4xx_HAL_Driver/Src/stm32l4xx_ll_usb.c ****   return ((hprt0 & USB_OTG_HPRT_PSPD) >> 17);
 3652              		.loc 1 1470 3 is_stmt 1 view .LVU1236
 3653              		.loc 1 1470 39 is_stmt 0 view .LVU1237
 3654 000c 0198     		ldr	r0, [sp, #4]
 3655              	.LVL276:
1471:Drivers/STM32L4xx_HAL_Driver/Src/stm32l4xx_ll_usb.c **** }
 3656              		.loc 1 1471 1 view .LVU1238
 3657 000e C0F34140 		ubfx	r0, r0, #17, #2
 3658 0012 02B0     		add	sp, sp, #8
 3659              		.cfi_def_cfa_offset 0
 3660              		@ sp needed
 3661 0014 7047     		bx	lr
 3662              		.cfi_endproc
 3663              	.LFE171:
 3665              		.section	.text.USB_GetCurrentFrame,"ax",%progbits
 3666              		.align	1
 3667              		.global	USB_GetCurrentFrame
 3668              		.syntax unified
 3669              		.thumb
 3670              		.thumb_func
 3672              	USB_GetCurrentFrame:
 3673              	.LVL277:
 3674              	.LFB172:
1472:Drivers/STM32L4xx_HAL_Driver/Src/stm32l4xx_ll_usb.c **** 
1473:Drivers/STM32L4xx_HAL_Driver/Src/stm32l4xx_ll_usb.c **** /**
1474:Drivers/STM32L4xx_HAL_Driver/Src/stm32l4xx_ll_usb.c ****   * @brief  Return Host Current Frame number
1475:Drivers/STM32L4xx_HAL_Driver/Src/stm32l4xx_ll_usb.c ****   * @param  USBx  Selected device
1476:Drivers/STM32L4xx_HAL_Driver/Src/stm32l4xx_ll_usb.c ****   * @retval current frame number
1477:Drivers/STM32L4xx_HAL_Driver/Src/stm32l4xx_ll_usb.c ****   */
1478:Drivers/STM32L4xx_HAL_Driver/Src/stm32l4xx_ll_usb.c **** uint32_t USB_GetCurrentFrame(USB_OTG_GlobalTypeDef const *USBx)
1479:Drivers/STM32L4xx_HAL_Driver/Src/stm32l4xx_ll_usb.c **** {
 3675              		.loc 1 1479 1 is_stmt 1 view -0
 3676              		.cfi_startproc
ARM GAS  C:\Users\gigig\AppData\Local\Temp\ccWnrG0a.s 			page 109


 3677              		@ args = 0, pretend = 0, frame = 0
 3678              		@ frame_needed = 0, uses_anonymous_args = 0
 3679              		@ link register save eliminated.
1480:Drivers/STM32L4xx_HAL_Driver/Src/stm32l4xx_ll_usb.c ****   uint32_t USBx_BASE = (uint32_t)USBx;
 3680              		.loc 1 1480 3 view .LVU1240
1481:Drivers/STM32L4xx_HAL_Driver/Src/stm32l4xx_ll_usb.c **** 
1482:Drivers/STM32L4xx_HAL_Driver/Src/stm32l4xx_ll_usb.c ****   return (USBx_HOST->HFNUM & USB_OTG_HFNUM_FRNUM);
 3681              		.loc 1 1482 3 view .LVU1241
 3682              		.loc 1 1482 11 is_stmt 0 view .LVU1242
 3683 0000 00F58060 		add	r0, r0, #1024
 3684              	.LVL278:
 3685              		.loc 1 1482 20 view .LVU1243
 3686 0004 8068     		ldr	r0, [r0, #8]
 3687              	.LVL279:
1483:Drivers/STM32L4xx_HAL_Driver/Src/stm32l4xx_ll_usb.c **** }
 3688              		.loc 1 1483 1 view .LVU1244
 3689 0006 80B2     		uxth	r0, r0
 3690 0008 7047     		bx	lr
 3691              		.cfi_endproc
 3692              	.LFE172:
 3694              		.section	.text.USB_HC_Init,"ax",%progbits
 3695              		.align	1
 3696              		.global	USB_HC_Init
 3697              		.syntax unified
 3698              		.thumb
 3699              		.thumb_func
 3701              	USB_HC_Init:
 3702              	.LVL280:
 3703              	.LFB173:
1484:Drivers/STM32L4xx_HAL_Driver/Src/stm32l4xx_ll_usb.c **** 
1485:Drivers/STM32L4xx_HAL_Driver/Src/stm32l4xx_ll_usb.c **** /**
1486:Drivers/STM32L4xx_HAL_Driver/Src/stm32l4xx_ll_usb.c ****   * @brief  Initialize a host channel
1487:Drivers/STM32L4xx_HAL_Driver/Src/stm32l4xx_ll_usb.c ****   * @param  USBx  Selected device
1488:Drivers/STM32L4xx_HAL_Driver/Src/stm32l4xx_ll_usb.c ****   * @param  ch_num  Channel number
1489:Drivers/STM32L4xx_HAL_Driver/Src/stm32l4xx_ll_usb.c ****   *         This parameter can be a value from 1 to 15
1490:Drivers/STM32L4xx_HAL_Driver/Src/stm32l4xx_ll_usb.c ****   * @param  epnum  Endpoint number
1491:Drivers/STM32L4xx_HAL_Driver/Src/stm32l4xx_ll_usb.c ****   *          This parameter can be a value from 1 to 15
1492:Drivers/STM32L4xx_HAL_Driver/Src/stm32l4xx_ll_usb.c ****   * @param  dev_address  Current device address
1493:Drivers/STM32L4xx_HAL_Driver/Src/stm32l4xx_ll_usb.c ****   *          This parameter can be a value from 0 to 255
1494:Drivers/STM32L4xx_HAL_Driver/Src/stm32l4xx_ll_usb.c ****   * @param  speed  Current device speed
1495:Drivers/STM32L4xx_HAL_Driver/Src/stm32l4xx_ll_usb.c ****   *          This parameter can be one of these values:
1496:Drivers/STM32L4xx_HAL_Driver/Src/stm32l4xx_ll_usb.c ****   *            @arg USB_OTG_SPEED_FULL: Full speed mode
1497:Drivers/STM32L4xx_HAL_Driver/Src/stm32l4xx_ll_usb.c ****   *            @arg USB_OTG_SPEED_LOW: Low speed mode
1498:Drivers/STM32L4xx_HAL_Driver/Src/stm32l4xx_ll_usb.c ****   * @param  ep_type  Endpoint Type
1499:Drivers/STM32L4xx_HAL_Driver/Src/stm32l4xx_ll_usb.c ****   *          This parameter can be one of these values:
1500:Drivers/STM32L4xx_HAL_Driver/Src/stm32l4xx_ll_usb.c ****   *            @arg EP_TYPE_CTRL: Control type
1501:Drivers/STM32L4xx_HAL_Driver/Src/stm32l4xx_ll_usb.c ****   *            @arg EP_TYPE_ISOC: Isochronous type
1502:Drivers/STM32L4xx_HAL_Driver/Src/stm32l4xx_ll_usb.c ****   *            @arg EP_TYPE_BULK: Bulk type
1503:Drivers/STM32L4xx_HAL_Driver/Src/stm32l4xx_ll_usb.c ****   *            @arg EP_TYPE_INTR: Interrupt type
1504:Drivers/STM32L4xx_HAL_Driver/Src/stm32l4xx_ll_usb.c ****   * @param  mps  Max Packet Size
1505:Drivers/STM32L4xx_HAL_Driver/Src/stm32l4xx_ll_usb.c ****   *          This parameter can be a value from 0 to 32K
1506:Drivers/STM32L4xx_HAL_Driver/Src/stm32l4xx_ll_usb.c ****   * @retval HAL state
1507:Drivers/STM32L4xx_HAL_Driver/Src/stm32l4xx_ll_usb.c ****   */
1508:Drivers/STM32L4xx_HAL_Driver/Src/stm32l4xx_ll_usb.c **** HAL_StatusTypeDef USB_HC_Init(USB_OTG_GlobalTypeDef *USBx, uint8_t ch_num,
1509:Drivers/STM32L4xx_HAL_Driver/Src/stm32l4xx_ll_usb.c ****                               uint8_t epnum, uint8_t dev_address, uint8_t speed,
1510:Drivers/STM32L4xx_HAL_Driver/Src/stm32l4xx_ll_usb.c ****                               uint8_t ep_type, uint16_t mps)
1511:Drivers/STM32L4xx_HAL_Driver/Src/stm32l4xx_ll_usb.c **** {
ARM GAS  C:\Users\gigig\AppData\Local\Temp\ccWnrG0a.s 			page 110


 3704              		.loc 1 1511 1 is_stmt 1 view -0
 3705              		.cfi_startproc
 3706              		@ args = 12, pretend = 0, frame = 0
 3707              		@ frame_needed = 0, uses_anonymous_args = 0
 3708              		.loc 1 1511 1 is_stmt 0 view .LVU1246
 3709 0000 2DE9F843 		push	{r3, r4, r5, r6, r7, r8, r9, lr}
 3710              		.cfi_def_cfa_offset 32
 3711              		.cfi_offset 3, -32
 3712              		.cfi_offset 4, -28
 3713              		.cfi_offset 5, -24
 3714              		.cfi_offset 6, -20
 3715              		.cfi_offset 7, -16
 3716              		.cfi_offset 8, -12
 3717              		.cfi_offset 9, -8
 3718              		.cfi_offset 14, -4
 3719 0004 9146     		mov	r9, r2
 3720 0006 1C46     		mov	r4, r3
 3721 0008 9DF82450 		ldrb	r5, [sp, #36]	@ zero_extendqisi2
1512:Drivers/STM32L4xx_HAL_Driver/Src/stm32l4xx_ll_usb.c ****   HAL_StatusTypeDef ret = HAL_OK;
 3722              		.loc 1 1512 3 is_stmt 1 view .LVU1247
 3723              	.LVL281:
1513:Drivers/STM32L4xx_HAL_Driver/Src/stm32l4xx_ll_usb.c ****   uint32_t USBx_BASE = (uint32_t)USBx;
 3724              		.loc 1 1513 3 view .LVU1248
1514:Drivers/STM32L4xx_HAL_Driver/Src/stm32l4xx_ll_usb.c ****   uint32_t HCcharEpDir;
 3725              		.loc 1 1514 3 view .LVU1249
1515:Drivers/STM32L4xx_HAL_Driver/Src/stm32l4xx_ll_usb.c ****   uint32_t HCcharLowSpeed;
 3726              		.loc 1 1515 3 view .LVU1250
1516:Drivers/STM32L4xx_HAL_Driver/Src/stm32l4xx_ll_usb.c ****   uint32_t HostCoreSpeed;
 3727              		.loc 1 1516 3 view .LVU1251
1517:Drivers/STM32L4xx_HAL_Driver/Src/stm32l4xx_ll_usb.c **** 
1518:Drivers/STM32L4xx_HAL_Driver/Src/stm32l4xx_ll_usb.c ****   /* Clear old interrupt conditions for this host channel. */
1519:Drivers/STM32L4xx_HAL_Driver/Src/stm32l4xx_ll_usb.c ****   USBx_HC((uint32_t)ch_num)->HCINT = CLEAR_INTERRUPT_MASK;
 3728              		.loc 1 1519 3 view .LVU1252
 3729 000c 00EB4116 		add	r6, r0, r1, lsl #5
 3730 0010 06F5A063 		add	r3, r6, #1280
 3731              	.LVL282:
 3732              		.loc 1 1519 36 is_stmt 0 view .LVU1253
 3733 0014 4FF0FF32 		mov	r2, #-1
 3734              	.LVL283:
 3735              		.loc 1 1519 36 view .LVU1254
 3736 0018 9A60     		str	r2, [r3, #8]
1520:Drivers/STM32L4xx_HAL_Driver/Src/stm32l4xx_ll_usb.c **** 
1521:Drivers/STM32L4xx_HAL_Driver/Src/stm32l4xx_ll_usb.c ****   /* Enable channel interrupts required for this transfer. */
1522:Drivers/STM32L4xx_HAL_Driver/Src/stm32l4xx_ll_usb.c ****   switch (ep_type)
 3737              		.loc 1 1522 3 is_stmt 1 view .LVU1255
 3738 001a 032D     		cmp	r5, #3
 3739 001c 6FD8     		bhi	.L239
 3740 001e DFE805F0 		tbb	[pc, r5]
 3741              	.L232:
 3742 0022 02       		.byte	(.L233-.L232)/2
 3743 0023 60       		.byte	(.L234-.L232)/2
 3744 0024 02       		.byte	(.L233-.L232)/2
 3745 0025 52       		.byte	(.L231-.L232)/2
 3746              		.p2align 1
 3747              	.L233:
1523:Drivers/STM32L4xx_HAL_Driver/Src/stm32l4xx_ll_usb.c ****   {
1524:Drivers/STM32L4xx_HAL_Driver/Src/stm32l4xx_ll_usb.c ****     case EP_TYPE_CTRL:
ARM GAS  C:\Users\gigig\AppData\Local\Temp\ccWnrG0a.s 			page 111


1525:Drivers/STM32L4xx_HAL_Driver/Src/stm32l4xx_ll_usb.c ****     case EP_TYPE_BULK:
1526:Drivers/STM32L4xx_HAL_Driver/Src/stm32l4xx_ll_usb.c ****       USBx_HC((uint32_t)ch_num)->HCINTMSK = USB_OTG_HCINTMSK_XFRCM  |
 3748              		.loc 1 1526 7 view .LVU1256
 3749              		.loc 1 1526 43 is_stmt 0 view .LVU1257
 3750 0026 40F29D42 		movw	r2, #1181
 3751 002a DA60     		str	r2, [r3, #12]
1527:Drivers/STM32L4xx_HAL_Driver/Src/stm32l4xx_ll_usb.c ****                                             USB_OTG_HCINTMSK_STALLM |
1528:Drivers/STM32L4xx_HAL_Driver/Src/stm32l4xx_ll_usb.c ****                                             USB_OTG_HCINTMSK_TXERRM |
1529:Drivers/STM32L4xx_HAL_Driver/Src/stm32l4xx_ll_usb.c ****                                             USB_OTG_HCINTMSK_DTERRM |
1530:Drivers/STM32L4xx_HAL_Driver/Src/stm32l4xx_ll_usb.c ****                                             USB_OTG_HCINTMSK_AHBERR |
1531:Drivers/STM32L4xx_HAL_Driver/Src/stm32l4xx_ll_usb.c ****                                             USB_OTG_HCINTMSK_NAKM;
1532:Drivers/STM32L4xx_HAL_Driver/Src/stm32l4xx_ll_usb.c **** 
1533:Drivers/STM32L4xx_HAL_Driver/Src/stm32l4xx_ll_usb.c ****       if ((epnum & 0x80U) == 0x80U)
 3752              		.loc 1 1533 7 is_stmt 1 view .LVU1258
 3753              		.loc 1 1533 10 is_stmt 0 view .LVU1259
 3754 002c 19F0800F 		tst	r9, #128
 3755 0030 43D1     		bne	.L247
1512:Drivers/STM32L4xx_HAL_Driver/Src/stm32l4xx_ll_usb.c ****   uint32_t USBx_BASE = (uint32_t)USBx;
 3756              		.loc 1 1512 21 view .LVU1260
 3757 0032 0027     		movs	r7, #0
 3758              	.L230:
 3759              	.LVL284:
1534:Drivers/STM32L4xx_HAL_Driver/Src/stm32l4xx_ll_usb.c ****       {
1535:Drivers/STM32L4xx_HAL_Driver/Src/stm32l4xx_ll_usb.c ****         USBx_HC((uint32_t)ch_num)->HCINTMSK |= USB_OTG_HCINTMSK_BBERRM;
1536:Drivers/STM32L4xx_HAL_Driver/Src/stm32l4xx_ll_usb.c ****       }
1537:Drivers/STM32L4xx_HAL_Driver/Src/stm32l4xx_ll_usb.c ****       break;
1538:Drivers/STM32L4xx_HAL_Driver/Src/stm32l4xx_ll_usb.c **** 
1539:Drivers/STM32L4xx_HAL_Driver/Src/stm32l4xx_ll_usb.c ****     case EP_TYPE_INTR:
1540:Drivers/STM32L4xx_HAL_Driver/Src/stm32l4xx_ll_usb.c ****       USBx_HC((uint32_t)ch_num)->HCINTMSK = USB_OTG_HCINTMSK_XFRCM  |
1541:Drivers/STM32L4xx_HAL_Driver/Src/stm32l4xx_ll_usb.c ****                                             USB_OTG_HCINTMSK_STALLM |
1542:Drivers/STM32L4xx_HAL_Driver/Src/stm32l4xx_ll_usb.c ****                                             USB_OTG_HCINTMSK_TXERRM |
1543:Drivers/STM32L4xx_HAL_Driver/Src/stm32l4xx_ll_usb.c ****                                             USB_OTG_HCINTMSK_DTERRM |
1544:Drivers/STM32L4xx_HAL_Driver/Src/stm32l4xx_ll_usb.c ****                                             USB_OTG_HCINTMSK_NAKM   |
1545:Drivers/STM32L4xx_HAL_Driver/Src/stm32l4xx_ll_usb.c ****                                             USB_OTG_HCINTMSK_AHBERR |
1546:Drivers/STM32L4xx_HAL_Driver/Src/stm32l4xx_ll_usb.c ****                                             USB_OTG_HCINTMSK_FRMORM;
1547:Drivers/STM32L4xx_HAL_Driver/Src/stm32l4xx_ll_usb.c **** 
1548:Drivers/STM32L4xx_HAL_Driver/Src/stm32l4xx_ll_usb.c ****       if ((epnum & 0x80U) == 0x80U)
1549:Drivers/STM32L4xx_HAL_Driver/Src/stm32l4xx_ll_usb.c ****       {
1550:Drivers/STM32L4xx_HAL_Driver/Src/stm32l4xx_ll_usb.c ****         USBx_HC((uint32_t)ch_num)->HCINTMSK |= USB_OTG_HCINTMSK_BBERRM;
1551:Drivers/STM32L4xx_HAL_Driver/Src/stm32l4xx_ll_usb.c ****       }
1552:Drivers/STM32L4xx_HAL_Driver/Src/stm32l4xx_ll_usb.c **** 
1553:Drivers/STM32L4xx_HAL_Driver/Src/stm32l4xx_ll_usb.c ****       break;
1554:Drivers/STM32L4xx_HAL_Driver/Src/stm32l4xx_ll_usb.c **** 
1555:Drivers/STM32L4xx_HAL_Driver/Src/stm32l4xx_ll_usb.c ****     case EP_TYPE_ISOC:
1556:Drivers/STM32L4xx_HAL_Driver/Src/stm32l4xx_ll_usb.c ****       USBx_HC((uint32_t)ch_num)->HCINTMSK = USB_OTG_HCINTMSK_XFRCM  |
1557:Drivers/STM32L4xx_HAL_Driver/Src/stm32l4xx_ll_usb.c ****                                             USB_OTG_HCINTMSK_ACKM   |
1558:Drivers/STM32L4xx_HAL_Driver/Src/stm32l4xx_ll_usb.c ****                                             USB_OTG_HCINTMSK_AHBERR |
1559:Drivers/STM32L4xx_HAL_Driver/Src/stm32l4xx_ll_usb.c ****                                             USB_OTG_HCINTMSK_FRMORM;
1560:Drivers/STM32L4xx_HAL_Driver/Src/stm32l4xx_ll_usb.c **** 
1561:Drivers/STM32L4xx_HAL_Driver/Src/stm32l4xx_ll_usb.c ****       if ((epnum & 0x80U) == 0x80U)
1562:Drivers/STM32L4xx_HAL_Driver/Src/stm32l4xx_ll_usb.c ****       {
1563:Drivers/STM32L4xx_HAL_Driver/Src/stm32l4xx_ll_usb.c ****         USBx_HC((uint32_t)ch_num)->HCINTMSK |= (USB_OTG_HCINTMSK_TXERRM | USB_OTG_HCINTMSK_BBERRM);
1564:Drivers/STM32L4xx_HAL_Driver/Src/stm32l4xx_ll_usb.c ****       }
1565:Drivers/STM32L4xx_HAL_Driver/Src/stm32l4xx_ll_usb.c ****       break;
1566:Drivers/STM32L4xx_HAL_Driver/Src/stm32l4xx_ll_usb.c **** 
1567:Drivers/STM32L4xx_HAL_Driver/Src/stm32l4xx_ll_usb.c ****     default:
1568:Drivers/STM32L4xx_HAL_Driver/Src/stm32l4xx_ll_usb.c ****       ret = HAL_ERROR;
ARM GAS  C:\Users\gigig\AppData\Local\Temp\ccWnrG0a.s 			page 112


1569:Drivers/STM32L4xx_HAL_Driver/Src/stm32l4xx_ll_usb.c ****       break;
1570:Drivers/STM32L4xx_HAL_Driver/Src/stm32l4xx_ll_usb.c ****   }
1571:Drivers/STM32L4xx_HAL_Driver/Src/stm32l4xx_ll_usb.c **** 
1572:Drivers/STM32L4xx_HAL_Driver/Src/stm32l4xx_ll_usb.c ****   /* Enable host channel Halt interrupt */
1573:Drivers/STM32L4xx_HAL_Driver/Src/stm32l4xx_ll_usb.c ****   USBx_HC((uint32_t)ch_num)->HCINTMSK |= USB_OTG_HCINTMSK_CHHM;
 3760              		.loc 1 1573 3 is_stmt 1 view .LVU1261
 3761              		.loc 1 1573 28 is_stmt 0 view .LVU1262
 3762 0034 DA68     		ldr	r2, [r3, #12]
 3763              		.loc 1 1573 39 view .LVU1263
 3764 0036 42F00202 		orr	r2, r2, #2
 3765 003a DA60     		str	r2, [r3, #12]
1574:Drivers/STM32L4xx_HAL_Driver/Src/stm32l4xx_ll_usb.c **** 
1575:Drivers/STM32L4xx_HAL_Driver/Src/stm32l4xx_ll_usb.c ****   /* Enable the top level host channel interrupt. */
1576:Drivers/STM32L4xx_HAL_Driver/Src/stm32l4xx_ll_usb.c ****   USBx_HOST->HAINTMSK |= 1UL << (ch_num & 0xFU);
 3766              		.loc 1 1576 3 is_stmt 1 view .LVU1264
 3767              		.loc 1 1576 12 is_stmt 0 view .LVU1265
 3768 003c D0F81834 		ldr	r3, [r0, #1048]
 3769              		.loc 1 1576 41 view .LVU1266
 3770 0040 01F00F01 		and	r1, r1, #15
 3771              	.LVL285:
 3772              		.loc 1 1576 30 view .LVU1267
 3773 0044 0122     		movs	r2, #1
 3774 0046 8A40     		lsls	r2, r2, r1
 3775              		.loc 1 1576 23 view .LVU1268
 3776 0048 1343     		orrs	r3, r3, r2
 3777 004a C0F81834 		str	r3, [r0, #1048]
1577:Drivers/STM32L4xx_HAL_Driver/Src/stm32l4xx_ll_usb.c **** 
1578:Drivers/STM32L4xx_HAL_Driver/Src/stm32l4xx_ll_usb.c ****   /* Make sure host channel interrupts are enabled. */
1579:Drivers/STM32L4xx_HAL_Driver/Src/stm32l4xx_ll_usb.c ****   USBx->GINTMSK |= USB_OTG_GINTMSK_HCIM;
 3778              		.loc 1 1579 3 is_stmt 1 view .LVU1269
 3779              		.loc 1 1579 7 is_stmt 0 view .LVU1270
 3780 004e 8369     		ldr	r3, [r0, #24]
 3781              		.loc 1 1579 17 view .LVU1271
 3782 0050 43F00073 		orr	r3, r3, #33554432
 3783 0054 8361     		str	r3, [r0, #24]
1580:Drivers/STM32L4xx_HAL_Driver/Src/stm32l4xx_ll_usb.c **** 
1581:Drivers/STM32L4xx_HAL_Driver/Src/stm32l4xx_ll_usb.c ****   /* Program the HCCHAR register */
1582:Drivers/STM32L4xx_HAL_Driver/Src/stm32l4xx_ll_usb.c ****   if ((epnum & 0x80U) == 0x80U)
 3784              		.loc 1 1582 3 is_stmt 1 view .LVU1272
 3785              		.loc 1 1582 6 is_stmt 0 view .LVU1273
 3786 0056 19F0800F 		tst	r9, #128
 3787 005a 52D1     		bne	.L248
1583:Drivers/STM32L4xx_HAL_Driver/Src/stm32l4xx_ll_usb.c ****   {
1584:Drivers/STM32L4xx_HAL_Driver/Src/stm32l4xx_ll_usb.c ****     HCcharEpDir = (0x1U << 15) & USB_OTG_HCCHAR_EPDIR;
1585:Drivers/STM32L4xx_HAL_Driver/Src/stm32l4xx_ll_usb.c ****   }
1586:Drivers/STM32L4xx_HAL_Driver/Src/stm32l4xx_ll_usb.c ****   else
1587:Drivers/STM32L4xx_HAL_Driver/Src/stm32l4xx_ll_usb.c ****   {
1588:Drivers/STM32L4xx_HAL_Driver/Src/stm32l4xx_ll_usb.c ****     HCcharEpDir = 0U;
 3788              		.loc 1 1588 17 view .LVU1274
 3789 005c 4FF00008 		mov	r8, #0
 3790              	.L235:
 3791              	.LVL286:
1589:Drivers/STM32L4xx_HAL_Driver/Src/stm32l4xx_ll_usb.c ****   }
1590:Drivers/STM32L4xx_HAL_Driver/Src/stm32l4xx_ll_usb.c **** 
1591:Drivers/STM32L4xx_HAL_Driver/Src/stm32l4xx_ll_usb.c ****   HostCoreSpeed = USB_GetHostSpeed(USBx);
 3792              		.loc 1 1591 3 is_stmt 1 view .LVU1275
 3793              		.loc 1 1591 19 is_stmt 0 view .LVU1276
ARM GAS  C:\Users\gigig\AppData\Local\Temp\ccWnrG0a.s 			page 113


 3794 0060 FFF7FEFF 		bl	USB_GetHostSpeed
 3795              	.LVL287:
1592:Drivers/STM32L4xx_HAL_Driver/Src/stm32l4xx_ll_usb.c **** 
1593:Drivers/STM32L4xx_HAL_Driver/Src/stm32l4xx_ll_usb.c ****   /* LS device plugged to HUB */
1594:Drivers/STM32L4xx_HAL_Driver/Src/stm32l4xx_ll_usb.c ****   if ((speed == HPRT0_PRTSPD_LOW_SPEED) && (HostCoreSpeed != HPRT0_PRTSPD_LOW_SPEED))
 3796              		.loc 1 1594 3 is_stmt 1 view .LVU1277
 3797              		.loc 1 1594 6 is_stmt 0 view .LVU1278
 3798 0064 9DF82030 		ldrb	r3, [sp, #32]	@ zero_extendqisi2
 3799 0068 022B     		cmp	r3, #2
 3800 006a 4DD0     		beq	.L249
1595:Drivers/STM32L4xx_HAL_Driver/Src/stm32l4xx_ll_usb.c ****   {
1596:Drivers/STM32L4xx_HAL_Driver/Src/stm32l4xx_ll_usb.c ****     HCcharLowSpeed = (0x1U << 17) & USB_OTG_HCCHAR_LSDEV;
1597:Drivers/STM32L4xx_HAL_Driver/Src/stm32l4xx_ll_usb.c ****   }
1598:Drivers/STM32L4xx_HAL_Driver/Src/stm32l4xx_ll_usb.c ****   else
1599:Drivers/STM32L4xx_HAL_Driver/Src/stm32l4xx_ll_usb.c ****   {
1600:Drivers/STM32L4xx_HAL_Driver/Src/stm32l4xx_ll_usb.c ****     HCcharLowSpeed = 0U;
 3801              		.loc 1 1600 20 view .LVU1279
 3802 006c 0022     		movs	r2, #0
 3803              	.L236:
 3804              	.LVL288:
1601:Drivers/STM32L4xx_HAL_Driver/Src/stm32l4xx_ll_usb.c ****   }
1602:Drivers/STM32L4xx_HAL_Driver/Src/stm32l4xx_ll_usb.c **** 
1603:Drivers/STM32L4xx_HAL_Driver/Src/stm32l4xx_ll_usb.c ****   USBx_HC((uint32_t)ch_num)->HCCHAR = (((uint32_t)dev_address << 22) & USB_OTG_HCCHAR_DAD) |
 3805              		.loc 1 1603 3 is_stmt 1 view .LVU1280
 3806              		.loc 1 1603 63 is_stmt 0 view .LVU1281
 3807 006e A305     		lsls	r3, r4, #22
 3808              		.loc 1 1603 70 view .LVU1282
 3809 0070 03F0FE53 		and	r3, r3, #532676608
1604:Drivers/STM32L4xx_HAL_Driver/Src/stm32l4xx_ll_usb.c ****                                       ((((uint32_t)epnum & 0x7FU) << 11) & USB_OTG_HCCHAR_EPNUM) |
 3810              		.loc 1 1604 67 view .LVU1283
 3811 0074 4FEAC929 		lsl	r9, r9, #11
 3812              	.LVL289:
 3813              		.loc 1 1604 74 view .LVU1284
 3814 0078 09F4F049 		and	r9, r9, #30720
1603:Drivers/STM32L4xx_HAL_Driver/Src/stm32l4xx_ll_usb.c ****                                       ((((uint32_t)epnum & 0x7FU) << 11) & USB_OTG_HCCHAR_EPNUM) |
 3815              		.loc 1 1603 92 view .LVU1285
 3816 007c 43EA0903 		orr	r3, r3, r9
1605:Drivers/STM32L4xx_HAL_Driver/Src/stm32l4xx_ll_usb.c ****                                       (((uint32_t)ep_type << 18) & USB_OTG_HCCHAR_EPTYP) |
 3817              		.loc 1 1605 59 view .LVU1286
 3818 0080 A904     		lsls	r1, r5, #18
 3819              		.loc 1 1605 66 view .LVU1287
 3820 0082 01F44021 		and	r1, r1, #786432
1604:Drivers/STM32L4xx_HAL_Driver/Src/stm32l4xx_ll_usb.c ****                                       ((((uint32_t)epnum & 0x7FU) << 11) & USB_OTG_HCCHAR_EPNUM) |
 3821              		.loc 1 1604 98 view .LVU1288
 3822 0086 0B43     		orrs	r3, r3, r1
1606:Drivers/STM32L4xx_HAL_Driver/Src/stm32l4xx_ll_usb.c ****                                       ((uint32_t)mps & USB_OTG_HCCHAR_MPSIZ) |
 3823              		.loc 1 1606 54 view .LVU1289
 3824 0088 BDF82810 		ldrh	r1, [sp, #40]
 3825 008c C1F30A01 		ubfx	r1, r1, #0, #11
1605:Drivers/STM32L4xx_HAL_Driver/Src/stm32l4xx_ll_usb.c ****                                       (((uint32_t)ep_type << 18) & USB_OTG_HCCHAR_EPTYP) |
 3826              		.loc 1 1605 90 view .LVU1290
 3827 0090 0B43     		orrs	r3, r3, r1
1607:Drivers/STM32L4xx_HAL_Driver/Src/stm32l4xx_ll_usb.c ****                                       USB_OTG_HCCHAR_MC_0 | HCcharEpDir | HCcharLowSpeed;
 3828              		.loc 1 1607 59 view .LVU1291
 3829 0092 43EA0803 		orr	r3, r3, r8
 3830              		.loc 1 1607 73 view .LVU1292
 3831 0096 1343     		orrs	r3, r3, r2
ARM GAS  C:\Users\gigig\AppData\Local\Temp\ccWnrG0a.s 			page 114


 3832 0098 43F48013 		orr	r3, r3, #1048576
1603:Drivers/STM32L4xx_HAL_Driver/Src/stm32l4xx_ll_usb.c ****                                       ((((uint32_t)epnum & 0x7FU) << 11) & USB_OTG_HCCHAR_EPNUM) |
 3833              		.loc 1 1603 37 view .LVU1293
 3834 009c C6F80035 		str	r3, [r6, #1280]
1608:Drivers/STM32L4xx_HAL_Driver/Src/stm32l4xx_ll_usb.c **** 
1609:Drivers/STM32L4xx_HAL_Driver/Src/stm32l4xx_ll_usb.c ****   if ((ep_type == EP_TYPE_INTR) || (ep_type == EP_TYPE_ISOC))
 3835              		.loc 1 1609 3 is_stmt 1 view .LVU1294
 3836              		.loc 1 1609 6 is_stmt 0 view .LVU1295
 3837 00a0 032D     		cmp	r5, #3
 3838 00a2 01D0     		beq	.L237
 3839              		.loc 1 1609 33 discriminator 1 view .LVU1296
 3840 00a4 012D     		cmp	r5, #1
 3841 00a6 05D1     		bne	.L238
 3842              	.L237:
1610:Drivers/STM32L4xx_HAL_Driver/Src/stm32l4xx_ll_usb.c ****   {
1611:Drivers/STM32L4xx_HAL_Driver/Src/stm32l4xx_ll_usb.c ****     USBx_HC((uint32_t)ch_num)->HCCHAR |= USB_OTG_HCCHAR_ODDFRM;
 3843              		.loc 1 1611 5 is_stmt 1 view .LVU1297
 3844              		.loc 1 1611 30 is_stmt 0 view .LVU1298
 3845 00a8 D6F80035 		ldr	r3, [r6, #1280]
 3846              		.loc 1 1611 39 view .LVU1299
 3847 00ac 43F00053 		orr	r3, r3, #536870912
 3848 00b0 C6F80035 		str	r3, [r6, #1280]
 3849              	.L238:
1612:Drivers/STM32L4xx_HAL_Driver/Src/stm32l4xx_ll_usb.c ****   }
1613:Drivers/STM32L4xx_HAL_Driver/Src/stm32l4xx_ll_usb.c **** 
1614:Drivers/STM32L4xx_HAL_Driver/Src/stm32l4xx_ll_usb.c ****   return ret;
 3850              		.loc 1 1614 3 is_stmt 1 view .LVU1300
1615:Drivers/STM32L4xx_HAL_Driver/Src/stm32l4xx_ll_usb.c **** }
 3851              		.loc 1 1615 1 is_stmt 0 view .LVU1301
 3852 00b4 3846     		mov	r0, r7
 3853              	.LVL290:
 3854              		.loc 1 1615 1 view .LVU1302
 3855 00b6 BDE8F883 		pop	{r3, r4, r5, r6, r7, r8, r9, pc}
 3856              	.LVL291:
 3857              	.L247:
1535:Drivers/STM32L4xx_HAL_Driver/Src/stm32l4xx_ll_usb.c ****       }
 3858              		.loc 1 1535 9 is_stmt 1 view .LVU1303
1535:Drivers/STM32L4xx_HAL_Driver/Src/stm32l4xx_ll_usb.c ****       }
 3859              		.loc 1 1535 34 is_stmt 0 view .LVU1304
 3860 00ba DA68     		ldr	r2, [r3, #12]
1535:Drivers/STM32L4xx_HAL_Driver/Src/stm32l4xx_ll_usb.c ****       }
 3861              		.loc 1 1535 45 view .LVU1305
 3862 00bc 42F48072 		orr	r2, r2, #256
 3863 00c0 DA60     		str	r2, [r3, #12]
1512:Drivers/STM32L4xx_HAL_Driver/Src/stm32l4xx_ll_usb.c ****   uint32_t USBx_BASE = (uint32_t)USBx;
 3864              		.loc 1 1512 21 view .LVU1306
 3865 00c2 0027     		movs	r7, #0
 3866 00c4 B6E7     		b	.L230
 3867              	.L231:
1540:Drivers/STM32L4xx_HAL_Driver/Src/stm32l4xx_ll_usb.c ****                                             USB_OTG_HCINTMSK_STALLM |
 3868              		.loc 1 1540 7 is_stmt 1 view .LVU1307
1540:Drivers/STM32L4xx_HAL_Driver/Src/stm32l4xx_ll_usb.c ****                                             USB_OTG_HCINTMSK_STALLM |
 3869              		.loc 1 1540 43 is_stmt 0 view .LVU1308
 3870 00c6 40F29D62 		movw	r2, #1693
 3871 00ca DA60     		str	r2, [r3, #12]
1548:Drivers/STM32L4xx_HAL_Driver/Src/stm32l4xx_ll_usb.c ****       {
 3872              		.loc 1 1548 7 is_stmt 1 view .LVU1309
ARM GAS  C:\Users\gigig\AppData\Local\Temp\ccWnrG0a.s 			page 115


1548:Drivers/STM32L4xx_HAL_Driver/Src/stm32l4xx_ll_usb.c ****       {
 3873              		.loc 1 1548 10 is_stmt 0 view .LVU1310
 3874 00cc 19F0800F 		tst	r9, #128
 3875 00d0 01D1     		bne	.L250
1512:Drivers/STM32L4xx_HAL_Driver/Src/stm32l4xx_ll_usb.c ****   uint32_t USBx_BASE = (uint32_t)USBx;
 3876              		.loc 1 1512 21 view .LVU1311
 3877 00d2 0027     		movs	r7, #0
 3878 00d4 AEE7     		b	.L230
 3879              	.L250:
1550:Drivers/STM32L4xx_HAL_Driver/Src/stm32l4xx_ll_usb.c ****       }
 3880              		.loc 1 1550 9 is_stmt 1 view .LVU1312
1550:Drivers/STM32L4xx_HAL_Driver/Src/stm32l4xx_ll_usb.c ****       }
 3881              		.loc 1 1550 34 is_stmt 0 view .LVU1313
 3882 00d6 DA68     		ldr	r2, [r3, #12]
1550:Drivers/STM32L4xx_HAL_Driver/Src/stm32l4xx_ll_usb.c ****       }
 3883              		.loc 1 1550 45 view .LVU1314
 3884 00d8 42F48072 		orr	r2, r2, #256
 3885 00dc DA60     		str	r2, [r3, #12]
1512:Drivers/STM32L4xx_HAL_Driver/Src/stm32l4xx_ll_usb.c ****   uint32_t USBx_BASE = (uint32_t)USBx;
 3886              		.loc 1 1512 21 view .LVU1315
 3887 00de 0027     		movs	r7, #0
 3888 00e0 A8E7     		b	.L230
 3889              	.L234:
1556:Drivers/STM32L4xx_HAL_Driver/Src/stm32l4xx_ll_usb.c ****                                             USB_OTG_HCINTMSK_ACKM   |
 3890              		.loc 1 1556 7 is_stmt 1 view .LVU1316
1556:Drivers/STM32L4xx_HAL_Driver/Src/stm32l4xx_ll_usb.c ****                                             USB_OTG_HCINTMSK_ACKM   |
 3891              		.loc 1 1556 43 is_stmt 0 view .LVU1317
 3892 00e2 40F22522 		movw	r2, #549
 3893 00e6 DA60     		str	r2, [r3, #12]
1561:Drivers/STM32L4xx_HAL_Driver/Src/stm32l4xx_ll_usb.c ****       {
 3894              		.loc 1 1561 7 is_stmt 1 view .LVU1318
1561:Drivers/STM32L4xx_HAL_Driver/Src/stm32l4xx_ll_usb.c ****       {
 3895              		.loc 1 1561 10 is_stmt 0 view .LVU1319
 3896 00e8 19F0800F 		tst	r9, #128
 3897 00ec 01D1     		bne	.L251
1512:Drivers/STM32L4xx_HAL_Driver/Src/stm32l4xx_ll_usb.c ****   uint32_t USBx_BASE = (uint32_t)USBx;
 3898              		.loc 1 1512 21 view .LVU1320
 3899 00ee 0027     		movs	r7, #0
 3900 00f0 A0E7     		b	.L230
 3901              	.L251:
1563:Drivers/STM32L4xx_HAL_Driver/Src/stm32l4xx_ll_usb.c ****       }
 3902              		.loc 1 1563 9 is_stmt 1 view .LVU1321
1563:Drivers/STM32L4xx_HAL_Driver/Src/stm32l4xx_ll_usb.c ****       }
 3903              		.loc 1 1563 34 is_stmt 0 view .LVU1322
 3904 00f2 DA68     		ldr	r2, [r3, #12]
1563:Drivers/STM32L4xx_HAL_Driver/Src/stm32l4xx_ll_usb.c ****       }
 3905              		.loc 1 1563 45 view .LVU1323
 3906 00f4 42F4C072 		orr	r2, r2, #384
 3907 00f8 DA60     		str	r2, [r3, #12]
1512:Drivers/STM32L4xx_HAL_Driver/Src/stm32l4xx_ll_usb.c ****   uint32_t USBx_BASE = (uint32_t)USBx;
 3908              		.loc 1 1512 21 view .LVU1324
 3909 00fa 0027     		movs	r7, #0
 3910 00fc 9AE7     		b	.L230
 3911              	.L239:
1522:Drivers/STM32L4xx_HAL_Driver/Src/stm32l4xx_ll_usb.c ****   {
 3912              		.loc 1 1522 3 view .LVU1325
 3913 00fe 0127     		movs	r7, #1
ARM GAS  C:\Users\gigig\AppData\Local\Temp\ccWnrG0a.s 			page 116


 3914 0100 98E7     		b	.L230
 3915              	.LVL292:
 3916              	.L248:
1584:Drivers/STM32L4xx_HAL_Driver/Src/stm32l4xx_ll_usb.c ****   }
 3917              		.loc 1 1584 17 view .LVU1326
 3918 0102 4FF40048 		mov	r8, #32768
 3919 0106 ABE7     		b	.L235
 3920              	.LVL293:
 3921              	.L249:
1594:Drivers/STM32L4xx_HAL_Driver/Src/stm32l4xx_ll_usb.c ****   {
 3922              		.loc 1 1594 41 discriminator 1 view .LVU1327
 3923 0108 0228     		cmp	r0, #2
 3924 010a 02D0     		beq	.L252
1596:Drivers/STM32L4xx_HAL_Driver/Src/stm32l4xx_ll_usb.c ****   }
 3925              		.loc 1 1596 20 view .LVU1328
 3926 010c 4FF40032 		mov	r2, #131072
 3927 0110 ADE7     		b	.L236
 3928              	.L252:
1600:Drivers/STM32L4xx_HAL_Driver/Src/stm32l4xx_ll_usb.c ****   }
 3929              		.loc 1 1600 20 view .LVU1329
 3930 0112 0022     		movs	r2, #0
 3931 0114 ABE7     		b	.L236
 3932              		.cfi_endproc
 3933              	.LFE173:
 3935              		.section	.text.USB_HC_StartXfer,"ax",%progbits
 3936              		.align	1
 3937              		.global	USB_HC_StartXfer
 3938              		.syntax unified
 3939              		.thumb
 3940              		.thumb_func
 3942              	USB_HC_StartXfer:
 3943              	.LVL294:
 3944              	.LFB174:
1616:Drivers/STM32L4xx_HAL_Driver/Src/stm32l4xx_ll_usb.c **** 
1617:Drivers/STM32L4xx_HAL_Driver/Src/stm32l4xx_ll_usb.c **** /**
1618:Drivers/STM32L4xx_HAL_Driver/Src/stm32l4xx_ll_usb.c ****   * @brief  Start a transfer over a host channel
1619:Drivers/STM32L4xx_HAL_Driver/Src/stm32l4xx_ll_usb.c ****   * @param  USBx  Selected device
1620:Drivers/STM32L4xx_HAL_Driver/Src/stm32l4xx_ll_usb.c ****   * @param  hc  pointer to host channel structure
1621:Drivers/STM32L4xx_HAL_Driver/Src/stm32l4xx_ll_usb.c ****   * @retval HAL state
1622:Drivers/STM32L4xx_HAL_Driver/Src/stm32l4xx_ll_usb.c ****   */
1623:Drivers/STM32L4xx_HAL_Driver/Src/stm32l4xx_ll_usb.c **** HAL_StatusTypeDef USB_HC_StartXfer(USB_OTG_GlobalTypeDef *USBx, USB_OTG_HCTypeDef *hc)
1624:Drivers/STM32L4xx_HAL_Driver/Src/stm32l4xx_ll_usb.c **** {
 3945              		.loc 1 1624 1 is_stmt 1 view -0
 3946              		.cfi_startproc
 3947              		@ args = 0, pretend = 0, frame = 8
 3948              		@ frame_needed = 0, uses_anonymous_args = 0
 3949              		.loc 1 1624 1 is_stmt 0 view .LVU1331
 3950 0000 10B5     		push	{r4, lr}
 3951              		.cfi_def_cfa_offset 8
 3952              		.cfi_offset 4, -8
 3953              		.cfi_offset 14, -4
 3954 0002 82B0     		sub	sp, sp, #8
 3955              		.cfi_def_cfa_offset 16
1625:Drivers/STM32L4xx_HAL_Driver/Src/stm32l4xx_ll_usb.c ****   uint32_t USBx_BASE = (uint32_t)USBx;
 3956              		.loc 1 1625 3 is_stmt 1 view .LVU1332
 3957              	.LVL295:
1626:Drivers/STM32L4xx_HAL_Driver/Src/stm32l4xx_ll_usb.c ****   uint32_t ch_num = (uint32_t)hc->ch_num;
ARM GAS  C:\Users\gigig\AppData\Local\Temp\ccWnrG0a.s 			page 117


 3958              		.loc 1 1626 3 view .LVU1333
 3959              		.loc 1 1626 33 is_stmt 0 view .LVU1334
 3960 0004 4B78     		ldrb	r3, [r1, #1]	@ zero_extendqisi2
 3961              	.LVL296:
1627:Drivers/STM32L4xx_HAL_Driver/Src/stm32l4xx_ll_usb.c ****   __IO uint32_t tmpreg;
 3962              		.loc 1 1627 3 is_stmt 1 view .LVU1335
1628:Drivers/STM32L4xx_HAL_Driver/Src/stm32l4xx_ll_usb.c ****   uint8_t  is_oddframe;
 3963              		.loc 1 1628 3 view .LVU1336
1629:Drivers/STM32L4xx_HAL_Driver/Src/stm32l4xx_ll_usb.c ****   uint16_t len_words;
 3964              		.loc 1 1629 3 view .LVU1337
1630:Drivers/STM32L4xx_HAL_Driver/Src/stm32l4xx_ll_usb.c ****   uint16_t num_packets;
 3965              		.loc 1 1630 3 view .LVU1338
1631:Drivers/STM32L4xx_HAL_Driver/Src/stm32l4xx_ll_usb.c ****   uint16_t max_hc_pkt_count = HC_MAX_PKT_CNT;
 3966              		.loc 1 1631 3 view .LVU1339
1632:Drivers/STM32L4xx_HAL_Driver/Src/stm32l4xx_ll_usb.c **** 
1633:Drivers/STM32L4xx_HAL_Driver/Src/stm32l4xx_ll_usb.c ****   /* Compute the expected number of packets associated to the transfer */
1634:Drivers/STM32L4xx_HAL_Driver/Src/stm32l4xx_ll_usb.c ****   if (hc->xfer_len > 0U)
 3967              		.loc 1 1634 3 view .LVU1340
 3968              		.loc 1 1634 9 is_stmt 0 view .LVU1341
 3969 0006 8A69     		ldr	r2, [r1, #24]
 3970              		.loc 1 1634 6 view .LVU1342
 3971 0008 82B1     		cbz	r2, .L264
1635:Drivers/STM32L4xx_HAL_Driver/Src/stm32l4xx_ll_usb.c ****   {
1636:Drivers/STM32L4xx_HAL_Driver/Src/stm32l4xx_ll_usb.c ****     num_packets = (uint16_t)((hc->xfer_len + hc->max_packet - 1U) / hc->max_packet);
 3972              		.loc 1 1636 5 is_stmt 1 view .LVU1343
 3973              		.loc 1 1636 48 is_stmt 0 view .LVU1344
 3974 000a 4C89     		ldrh	r4, [r1, #10]
 3975              		.loc 1 1636 44 view .LVU1345
 3976 000c 02EB040C 		add	ip, r2, r4
 3977              		.loc 1 1636 61 view .LVU1346
 3978 0010 0CF1FF3C 		add	ip, ip, #-1
 3979              		.loc 1 1636 67 view .LVU1347
 3980 0014 BCFBF4FC 		udiv	ip, ip, r4
 3981              		.loc 1 1636 17 view .LVU1348
 3982 0018 1FFA8CFC 		uxth	ip, ip
 3983              	.LVL297:
1637:Drivers/STM32L4xx_HAL_Driver/Src/stm32l4xx_ll_usb.c **** 
1638:Drivers/STM32L4xx_HAL_Driver/Src/stm32l4xx_ll_usb.c ****     if (num_packets > max_hc_pkt_count)
 3984              		.loc 1 1638 5 is_stmt 1 view .LVU1349
 3985              		.loc 1 1638 8 is_stmt 0 view .LVU1350
 3986 001c BCF5807F 		cmp	ip, #256
 3987 0020 06D9     		bls	.L254
1639:Drivers/STM32L4xx_HAL_Driver/Src/stm32l4xx_ll_usb.c ****     {
1640:Drivers/STM32L4xx_HAL_Driver/Src/stm32l4xx_ll_usb.c ****       num_packets = max_hc_pkt_count;
 3988              		.loc 1 1640 7 is_stmt 1 view .LVU1351
 3989              	.LVL298:
1641:Drivers/STM32L4xx_HAL_Driver/Src/stm32l4xx_ll_usb.c ****       hc->XferSize = (uint32_t)num_packets * hc->max_packet;
 3990              		.loc 1 1641 7 view .LVU1352
 3991              		.loc 1 1641 44 is_stmt 0 view .LVU1353
 3992 0022 2402     		lsls	r4, r4, #8
 3993              		.loc 1 1641 20 view .LVU1354
 3994 0024 4C61     		str	r4, [r1, #20]
1640:Drivers/STM32L4xx_HAL_Driver/Src/stm32l4xx_ll_usb.c ****       hc->XferSize = (uint32_t)num_packets * hc->max_packet;
 3995              		.loc 1 1640 19 view .LVU1355
 3996 0026 4FF4807C 		mov	ip, #256
 3997 002a 01E0     		b	.L254
 3998              	.LVL299:
ARM GAS  C:\Users\gigig\AppData\Local\Temp\ccWnrG0a.s 			page 118


 3999              	.L264:
1642:Drivers/STM32L4xx_HAL_Driver/Src/stm32l4xx_ll_usb.c ****     }
1643:Drivers/STM32L4xx_HAL_Driver/Src/stm32l4xx_ll_usb.c ****   }
1644:Drivers/STM32L4xx_HAL_Driver/Src/stm32l4xx_ll_usb.c ****   else
1645:Drivers/STM32L4xx_HAL_Driver/Src/stm32l4xx_ll_usb.c ****   {
1646:Drivers/STM32L4xx_HAL_Driver/Src/stm32l4xx_ll_usb.c ****     num_packets = 1U;
 4000              		.loc 1 1646 17 view .LVU1356
 4001 002c 4FF0010C 		mov	ip, #1
 4002              	.L254:
 4003              	.LVL300:
1647:Drivers/STM32L4xx_HAL_Driver/Src/stm32l4xx_ll_usb.c ****   }
1648:Drivers/STM32L4xx_HAL_Driver/Src/stm32l4xx_ll_usb.c **** 
1649:Drivers/STM32L4xx_HAL_Driver/Src/stm32l4xx_ll_usb.c ****   /*
1650:Drivers/STM32L4xx_HAL_Driver/Src/stm32l4xx_ll_usb.c ****    * For IN channel HCTSIZ.XferSize is expected to be an integer multiple of
1651:Drivers/STM32L4xx_HAL_Driver/Src/stm32l4xx_ll_usb.c ****    * max_packet size.
1652:Drivers/STM32L4xx_HAL_Driver/Src/stm32l4xx_ll_usb.c ****    */
1653:Drivers/STM32L4xx_HAL_Driver/Src/stm32l4xx_ll_usb.c ****   if (hc->ep_is_in != 0U)
 4004              		.loc 1 1653 3 is_stmt 1 view .LVU1357
 4005              		.loc 1 1653 9 is_stmt 0 view .LVU1358
 4006 0030 CC78     		ldrb	r4, [r1, #3]	@ zero_extendqisi2
 4007              		.loc 1 1653 6 view .LVU1359
 4008 0032 002C     		cmp	r4, #0
 4009 0034 4CD0     		beq	.L255
1654:Drivers/STM32L4xx_HAL_Driver/Src/stm32l4xx_ll_usb.c ****   {
1655:Drivers/STM32L4xx_HAL_Driver/Src/stm32l4xx_ll_usb.c ****     hc->XferSize = (uint32_t)num_packets * hc->max_packet;
 4010              		.loc 1 1655 5 is_stmt 1 view .LVU1360
 4011              		.loc 1 1655 46 is_stmt 0 view .LVU1361
 4012 0036 4A89     		ldrh	r2, [r1, #10]
 4013              		.loc 1 1655 42 view .LVU1362
 4014 0038 02FB0CF2 		mul	r2, r2, ip
 4015              		.loc 1 1655 18 view .LVU1363
 4016 003c 4A61     		str	r2, [r1, #20]
 4017              	.L256:
1656:Drivers/STM32L4xx_HAL_Driver/Src/stm32l4xx_ll_usb.c ****   }
1657:Drivers/STM32L4xx_HAL_Driver/Src/stm32l4xx_ll_usb.c ****   else
1658:Drivers/STM32L4xx_HAL_Driver/Src/stm32l4xx_ll_usb.c ****   {
1659:Drivers/STM32L4xx_HAL_Driver/Src/stm32l4xx_ll_usb.c ****     hc->XferSize = hc->xfer_len;
1660:Drivers/STM32L4xx_HAL_Driver/Src/stm32l4xx_ll_usb.c ****   }
1661:Drivers/STM32L4xx_HAL_Driver/Src/stm32l4xx_ll_usb.c **** 
1662:Drivers/STM32L4xx_HAL_Driver/Src/stm32l4xx_ll_usb.c ****   /* Initialize the HCTSIZn register */
1663:Drivers/STM32L4xx_HAL_Driver/Src/stm32l4xx_ll_usb.c ****   USBx_HC(ch_num)->HCTSIZ = (hc->XferSize & USB_OTG_HCTSIZ_XFRSIZ) |
 4018              		.loc 1 1663 3 is_stmt 1 view .LVU1364
 4019              		.loc 1 1663 32 is_stmt 0 view .LVU1365
 4020 003e 4A69     		ldr	r2, [r1, #20]
 4021              		.loc 1 1663 43 view .LVU1366
 4022 0040 C2F31202 		ubfx	r2, r2, #0, #19
1664:Drivers/STM32L4xx_HAL_Driver/Src/stm32l4xx_ll_usb.c ****                             (((uint32_t)num_packets << 19) & USB_OTG_HCTSIZ_PKTCNT) |
 4023              		.loc 1 1664 60 view .LVU1367
 4024 0044 354C     		ldr	r4, .L267
 4025 0046 04EACC4C 		and	ip, r4, ip, lsl #19
 4026              	.LVL301:
1663:Drivers/STM32L4xx_HAL_Driver/Src/stm32l4xx_ll_usb.c ****                             (((uint32_t)num_packets << 19) & USB_OTG_HCTSIZ_PKTCNT) |
 4027              		.loc 1 1663 68 view .LVU1368
 4028 004a 42EA0C02 		orr	r2, r2, ip
1665:Drivers/STM32L4xx_HAL_Driver/Src/stm32l4xx_ll_usb.c ****                             (((uint32_t)hc->data_pid << 29) & USB_OTG_HCTSIZ_DPID);
 4029              		.loc 1 1665 43 view .LVU1369
 4030 004e 91F80CC0 		ldrb	ip, [r1, #12]	@ zero_extendqisi2
ARM GAS  C:\Users\gigig\AppData\Local\Temp\ccWnrG0a.s 			page 119


 4031              		.loc 1 1665 54 view .LVU1370
 4032 0052 4FEA4C7C 		lsl	ip, ip, #29
 4033              		.loc 1 1665 61 view .LVU1371
 4034 0056 0CF0C04C 		and	ip, ip, #1610612736
1663:Drivers/STM32L4xx_HAL_Driver/Src/stm32l4xx_ll_usb.c ****                             (((uint32_t)num_packets << 19) & USB_OTG_HCTSIZ_PKTCNT) |
 4035              		.loc 1 1663 3 view .LVU1372
 4036 005a 00EB4313 		add	r3, r0, r3, lsl #5
 4037              	.LVL302:
1664:Drivers/STM32L4xx_HAL_Driver/Src/stm32l4xx_ll_usb.c ****                             (((uint32_t)num_packets << 19) & USB_OTG_HCTSIZ_PKTCNT) |
 4038              		.loc 1 1664 85 view .LVU1373
 4039 005e 42EA0C02 		orr	r2, r2, ip
1663:Drivers/STM32L4xx_HAL_Driver/Src/stm32l4xx_ll_usb.c ****                             (((uint32_t)num_packets << 19) & USB_OTG_HCTSIZ_PKTCNT) |
 4040              		.loc 1 1663 27 view .LVU1374
 4041 0062 C3F81025 		str	r2, [r3, #1296]
 4042              	.LVL303:
1666:Drivers/STM32L4xx_HAL_Driver/Src/stm32l4xx_ll_usb.c **** 
1667:Drivers/STM32L4xx_HAL_Driver/Src/stm32l4xx_ll_usb.c ****   is_oddframe = (((uint32_t)USBx_HOST->HFNUM & 0x01U) != 0U) ? 0U : 1U;
 4043              		.loc 1 1667 3 is_stmt 1 view .LVU1375
 4044              		.loc 1 1667 29 is_stmt 0 view .LVU1376
 4045 0066 00F58064 		add	r4, r0, #1024
 4046              		.loc 1 1667 38 view .LVU1377
 4047 006a A268     		ldr	r2, [r4, #8]
 4048              		.loc 1 1667 67 view .LVU1378
 4049 006c 12F0010F 		tst	r2, #1
 4050 0070 0CBF     		ite	eq
 4051 0072 4FF0010C 		moveq	ip, #1
 4052 0076 4FF0000C 		movne	ip, #0
 4053              	.LVL304:
1668:Drivers/STM32L4xx_HAL_Driver/Src/stm32l4xx_ll_usb.c ****   USBx_HC(ch_num)->HCCHAR &= ~USB_OTG_HCCHAR_ODDFRM;
 4054              		.loc 1 1668 3 is_stmt 1 view .LVU1379
 4055              		.loc 1 1668 18 is_stmt 0 view .LVU1380
 4056 007a D3F80025 		ldr	r2, [r3, #1280]
 4057              		.loc 1 1668 27 view .LVU1381
 4058 007e 22F00052 		bic	r2, r2, #536870912
 4059 0082 C3F80025 		str	r2, [r3, #1280]
1669:Drivers/STM32L4xx_HAL_Driver/Src/stm32l4xx_ll_usb.c ****   USBx_HC(ch_num)->HCCHAR |= (uint32_t)is_oddframe << 29;
 4060              		.loc 1 1669 3 is_stmt 1 view .LVU1382
 4061              		.loc 1 1669 18 is_stmt 0 view .LVU1383
 4062 0086 D3F80025 		ldr	r2, [r3, #1280]
 4063              		.loc 1 1669 27 view .LVU1384
 4064 008a 42EA4C72 		orr	r2, r2, ip, lsl #29
 4065 008e C3F80025 		str	r2, [r3, #1280]
1670:Drivers/STM32L4xx_HAL_Driver/Src/stm32l4xx_ll_usb.c **** 
1671:Drivers/STM32L4xx_HAL_Driver/Src/stm32l4xx_ll_usb.c ****   /* Set host channel enable */
1672:Drivers/STM32L4xx_HAL_Driver/Src/stm32l4xx_ll_usb.c ****   tmpreg = USBx_HC(ch_num)->HCCHAR;
 4066              		.loc 1 1672 3 is_stmt 1 view .LVU1385
 4067              		.loc 1 1672 27 is_stmt 0 view .LVU1386
 4068 0092 D3F80025 		ldr	r2, [r3, #1280]
 4069              		.loc 1 1672 10 view .LVU1387
 4070 0096 0192     		str	r2, [sp, #4]
1673:Drivers/STM32L4xx_HAL_Driver/Src/stm32l4xx_ll_usb.c ****   tmpreg &= ~USB_OTG_HCCHAR_CHDIS;
 4071              		.loc 1 1673 3 is_stmt 1 view .LVU1388
 4072              		.loc 1 1673 10 is_stmt 0 view .LVU1389
 4073 0098 019A     		ldr	r2, [sp, #4]
 4074 009a 22F08042 		bic	r2, r2, #1073741824
 4075 009e 0192     		str	r2, [sp, #4]
1674:Drivers/STM32L4xx_HAL_Driver/Src/stm32l4xx_ll_usb.c **** 
ARM GAS  C:\Users\gigig\AppData\Local\Temp\ccWnrG0a.s 			page 120


1675:Drivers/STM32L4xx_HAL_Driver/Src/stm32l4xx_ll_usb.c ****   /* make sure to set the correct ep direction */
1676:Drivers/STM32L4xx_HAL_Driver/Src/stm32l4xx_ll_usb.c ****   if (hc->ep_is_in != 0U)
 4076              		.loc 1 1676 3 is_stmt 1 view .LVU1390
 4077              		.loc 1 1676 9 is_stmt 0 view .LVU1391
 4078 00a0 CA78     		ldrb	r2, [r1, #3]	@ zero_extendqisi2
 4079              		.loc 1 1676 6 view .LVU1392
 4080 00a2 BAB1     		cbz	r2, .L257
1677:Drivers/STM32L4xx_HAL_Driver/Src/stm32l4xx_ll_usb.c ****   {
1678:Drivers/STM32L4xx_HAL_Driver/Src/stm32l4xx_ll_usb.c ****     tmpreg |= USB_OTG_HCCHAR_EPDIR;
 4081              		.loc 1 1678 5 is_stmt 1 view .LVU1393
 4082              		.loc 1 1678 12 is_stmt 0 view .LVU1394
 4083 00a4 019A     		ldr	r2, [sp, #4]
 4084 00a6 42F40042 		orr	r2, r2, #32768
 4085 00aa 0192     		str	r2, [sp, #4]
 4086              	.L258:
1679:Drivers/STM32L4xx_HAL_Driver/Src/stm32l4xx_ll_usb.c ****   }
1680:Drivers/STM32L4xx_HAL_Driver/Src/stm32l4xx_ll_usb.c ****   else
1681:Drivers/STM32L4xx_HAL_Driver/Src/stm32l4xx_ll_usb.c ****   {
1682:Drivers/STM32L4xx_HAL_Driver/Src/stm32l4xx_ll_usb.c ****     tmpreg &= ~USB_OTG_HCCHAR_EPDIR;
1683:Drivers/STM32L4xx_HAL_Driver/Src/stm32l4xx_ll_usb.c ****   }
1684:Drivers/STM32L4xx_HAL_Driver/Src/stm32l4xx_ll_usb.c ****   tmpreg |= USB_OTG_HCCHAR_CHENA;
 4087              		.loc 1 1684 3 is_stmt 1 view .LVU1395
 4088              		.loc 1 1684 10 is_stmt 0 view .LVU1396
 4089 00ac 019A     		ldr	r2, [sp, #4]
 4090 00ae 42F00042 		orr	r2, r2, #-2147483648
 4091 00b2 0192     		str	r2, [sp, #4]
1685:Drivers/STM32L4xx_HAL_Driver/Src/stm32l4xx_ll_usb.c ****   USBx_HC(ch_num)->HCCHAR = tmpreg;
 4092              		.loc 1 1685 3 is_stmt 1 view .LVU1397
 4093              		.loc 1 1685 27 is_stmt 0 view .LVU1398
 4094 00b4 019A     		ldr	r2, [sp, #4]
 4095 00b6 C3F80025 		str	r2, [r3, #1280]
1686:Drivers/STM32L4xx_HAL_Driver/Src/stm32l4xx_ll_usb.c **** 
1687:Drivers/STM32L4xx_HAL_Driver/Src/stm32l4xx_ll_usb.c ****   if ((hc->ep_is_in == 0U) && (hc->xfer_len > 0U))
 4096              		.loc 1 1687 3 is_stmt 1 view .LVU1399
 4097              		.loc 1 1687 10 is_stmt 0 view .LVU1400
 4098 00ba CB78     		ldrb	r3, [r1, #3]	@ zero_extendqisi2
 4099              		.loc 1 1687 6 view .LVU1401
 4100 00bc FBB9     		cbnz	r3, .L259
 4101              		.loc 1 1687 34 discriminator 1 view .LVU1402
 4102 00be 8B69     		ldr	r3, [r1, #24]
 4103              		.loc 1 1687 28 discriminator 1 view .LVU1403
 4104 00c0 EBB1     		cbz	r3, .L259
1688:Drivers/STM32L4xx_HAL_Driver/Src/stm32l4xx_ll_usb.c ****   {
1689:Drivers/STM32L4xx_HAL_Driver/Src/stm32l4xx_ll_usb.c ****     switch (hc->ep_type)
 4105              		.loc 1 1689 5 is_stmt 1 view .LVU1404
 4106              		.loc 1 1689 15 is_stmt 0 view .LVU1405
 4107 00c2 0A7A     		ldrb	r2, [r1, #8]	@ zero_extendqisi2
 4108              		.loc 1 1689 5 view .LVU1406
 4109 00c4 032A     		cmp	r2, #3
 4110 00c6 15D8     		bhi	.L260
 4111 00c8 DFE802F0 		tbb	[pc, r2]
 4112              	.LVL305:
 4113              	.L262:
 4114 00cc 09       		.byte	(.L263-.L262)/2
 4115 00cd 1C       		.byte	(.L261-.L262)/2
 4116 00ce 09       		.byte	(.L263-.L262)/2
 4117 00cf 1C       		.byte	(.L261-.L262)/2
ARM GAS  C:\Users\gigig\AppData\Local\Temp\ccWnrG0a.s 			page 121


 4118              		.p2align 1
 4119              	.L255:
1659:Drivers/STM32L4xx_HAL_Driver/Src/stm32l4xx_ll_usb.c ****   }
 4120              		.loc 1 1659 5 is_stmt 1 view .LVU1407
1659:Drivers/STM32L4xx_HAL_Driver/Src/stm32l4xx_ll_usb.c ****   }
 4121              		.loc 1 1659 18 is_stmt 0 view .LVU1408
 4122 00d0 4A61     		str	r2, [r1, #20]
 4123 00d2 B4E7     		b	.L256
 4124              	.LVL306:
 4125              	.L257:
1682:Drivers/STM32L4xx_HAL_Driver/Src/stm32l4xx_ll_usb.c ****   }
 4126              		.loc 1 1682 5 is_stmt 1 view .LVU1409
1682:Drivers/STM32L4xx_HAL_Driver/Src/stm32l4xx_ll_usb.c ****   }
 4127              		.loc 1 1682 12 is_stmt 0 view .LVU1410
 4128 00d4 019A     		ldr	r2, [sp, #4]
 4129 00d6 22F40042 		bic	r2, r2, #32768
 4130 00da 0192     		str	r2, [sp, #4]
 4131 00dc E6E7     		b	.L258
 4132              	.LVL307:
 4133              	.L263:
1690:Drivers/STM32L4xx_HAL_Driver/Src/stm32l4xx_ll_usb.c ****     {
1691:Drivers/STM32L4xx_HAL_Driver/Src/stm32l4xx_ll_usb.c ****       /* Non periodic transfer */
1692:Drivers/STM32L4xx_HAL_Driver/Src/stm32l4xx_ll_usb.c ****       case EP_TYPE_CTRL:
1693:Drivers/STM32L4xx_HAL_Driver/Src/stm32l4xx_ll_usb.c ****       case EP_TYPE_BULK:
1694:Drivers/STM32L4xx_HAL_Driver/Src/stm32l4xx_ll_usb.c **** 
1695:Drivers/STM32L4xx_HAL_Driver/Src/stm32l4xx_ll_usb.c ****         len_words = (uint16_t)((hc->xfer_len + 3U) / 4U);
 4134              		.loc 1 1695 9 is_stmt 1 view .LVU1411
 4135              		.loc 1 1695 46 is_stmt 0 view .LVU1412
 4136 00de 0333     		adds	r3, r3, #3
 4137              	.LVL308:
1696:Drivers/STM32L4xx_HAL_Driver/Src/stm32l4xx_ll_usb.c **** 
1697:Drivers/STM32L4xx_HAL_Driver/Src/stm32l4xx_ll_usb.c ****         /* check if there is enough space in FIFO space */
1698:Drivers/STM32L4xx_HAL_Driver/Src/stm32l4xx_ll_usb.c ****         if (len_words > (USBx->HNPTXSTS & 0xFFFFU))
 4138              		.loc 1 1698 9 is_stmt 1 view .LVU1413
 4139              		.loc 1 1698 30 is_stmt 0 view .LVU1414
 4140 00e0 C26A     		ldr	r2, [r0, #44]
 4141              		.loc 1 1698 41 view .LVU1415
 4142 00e2 92B2     		uxth	r2, r2
 4143              		.loc 1 1698 12 view .LVU1416
 4144 00e4 C3F38F03 		ubfx	r3, r3, #2, #16
 4145              	.LVL309:
 4146              		.loc 1 1698 12 view .LVU1417
 4147 00e8 9A42     		cmp	r2, r3
 4148 00ea 03D2     		bcs	.L260
1699:Drivers/STM32L4xx_HAL_Driver/Src/stm32l4xx_ll_usb.c ****         {
1700:Drivers/STM32L4xx_HAL_Driver/Src/stm32l4xx_ll_usb.c ****           /* need to process data in nptxfempty interrupt */
1701:Drivers/STM32L4xx_HAL_Driver/Src/stm32l4xx_ll_usb.c ****           USBx->GINTMSK |= USB_OTG_GINTMSK_NPTXFEM;
 4149              		.loc 1 1701 11 is_stmt 1 view .LVU1418
 4150              		.loc 1 1701 15 is_stmt 0 view .LVU1419
 4151 00ec 8369     		ldr	r3, [r0, #24]
 4152              		.loc 1 1701 25 view .LVU1420
 4153 00ee 43F02003 		orr	r3, r3, #32
 4154 00f2 8361     		str	r3, [r0, #24]
 4155              	.LVL310:
 4156              	.L260:
1702:Drivers/STM32L4xx_HAL_Driver/Src/stm32l4xx_ll_usb.c ****         }
1703:Drivers/STM32L4xx_HAL_Driver/Src/stm32l4xx_ll_usb.c ****         break;
ARM GAS  C:\Users\gigig\AppData\Local\Temp\ccWnrG0a.s 			page 122


1704:Drivers/STM32L4xx_HAL_Driver/Src/stm32l4xx_ll_usb.c **** 
1705:Drivers/STM32L4xx_HAL_Driver/Src/stm32l4xx_ll_usb.c ****       /* Periodic transfer */
1706:Drivers/STM32L4xx_HAL_Driver/Src/stm32l4xx_ll_usb.c ****       case EP_TYPE_INTR:
1707:Drivers/STM32L4xx_HAL_Driver/Src/stm32l4xx_ll_usb.c ****       case EP_TYPE_ISOC:
1708:Drivers/STM32L4xx_HAL_Driver/Src/stm32l4xx_ll_usb.c ****         len_words = (uint16_t)((hc->xfer_len + 3U) / 4U);
1709:Drivers/STM32L4xx_HAL_Driver/Src/stm32l4xx_ll_usb.c ****         /* check if there is enough space in FIFO space */
1710:Drivers/STM32L4xx_HAL_Driver/Src/stm32l4xx_ll_usb.c ****         if (len_words > (USBx_HOST->HPTXSTS & 0xFFFFU)) /* split the transfer */
1711:Drivers/STM32L4xx_HAL_Driver/Src/stm32l4xx_ll_usb.c ****         {
1712:Drivers/STM32L4xx_HAL_Driver/Src/stm32l4xx_ll_usb.c ****           /* need to process data in ptxfempty interrupt */
1713:Drivers/STM32L4xx_HAL_Driver/Src/stm32l4xx_ll_usb.c ****           USBx->GINTMSK |= USB_OTG_GINTMSK_PTXFEM;
1714:Drivers/STM32L4xx_HAL_Driver/Src/stm32l4xx_ll_usb.c ****         }
1715:Drivers/STM32L4xx_HAL_Driver/Src/stm32l4xx_ll_usb.c ****         break;
1716:Drivers/STM32L4xx_HAL_Driver/Src/stm32l4xx_ll_usb.c **** 
1717:Drivers/STM32L4xx_HAL_Driver/Src/stm32l4xx_ll_usb.c ****       default:
1718:Drivers/STM32L4xx_HAL_Driver/Src/stm32l4xx_ll_usb.c ****         break;
1719:Drivers/STM32L4xx_HAL_Driver/Src/stm32l4xx_ll_usb.c ****     }
1720:Drivers/STM32L4xx_HAL_Driver/Src/stm32l4xx_ll_usb.c **** 
1721:Drivers/STM32L4xx_HAL_Driver/Src/stm32l4xx_ll_usb.c ****     /* Write packet into the Tx FIFO. */
1722:Drivers/STM32L4xx_HAL_Driver/Src/stm32l4xx_ll_usb.c ****     (void)USB_WritePacket(USBx, hc->xfer_buff, hc->ch_num, (uint16_t)hc->xfer_len);
 4157              		.loc 1 1722 5 is_stmt 1 view .LVU1421
 4158              		.loc 1 1722 11 is_stmt 0 view .LVU1422
 4159 00f4 0B8B     		ldrh	r3, [r1, #24]
 4160 00f6 4A78     		ldrb	r2, [r1, #1]	@ zero_extendqisi2
 4161 00f8 0969     		ldr	r1, [r1, #16]
 4162              	.LVL311:
 4163              		.loc 1 1722 11 view .LVU1423
 4164 00fa FFF7FEFF 		bl	USB_WritePacket
 4165              	.LVL312:
 4166              	.L259:
1723:Drivers/STM32L4xx_HAL_Driver/Src/stm32l4xx_ll_usb.c ****   }
1724:Drivers/STM32L4xx_HAL_Driver/Src/stm32l4xx_ll_usb.c **** 
1725:Drivers/STM32L4xx_HAL_Driver/Src/stm32l4xx_ll_usb.c ****   return HAL_OK;
 4167              		.loc 1 1725 3 is_stmt 1 view .LVU1424
1726:Drivers/STM32L4xx_HAL_Driver/Src/stm32l4xx_ll_usb.c **** }
 4168              		.loc 1 1726 1 is_stmt 0 view .LVU1425
 4169 00fe 0020     		movs	r0, #0
 4170 0100 02B0     		add	sp, sp, #8
 4171              		.cfi_remember_state
 4172              		.cfi_def_cfa_offset 8
 4173              		@ sp needed
 4174 0102 10BD     		pop	{r4, pc}
 4175              	.LVL313:
 4176              	.L261:
 4177              		.cfi_restore_state
1708:Drivers/STM32L4xx_HAL_Driver/Src/stm32l4xx_ll_usb.c ****         /* check if there is enough space in FIFO space */
 4178              		.loc 1 1708 9 is_stmt 1 view .LVU1426
1708:Drivers/STM32L4xx_HAL_Driver/Src/stm32l4xx_ll_usb.c ****         /* check if there is enough space in FIFO space */
 4179              		.loc 1 1708 46 is_stmt 0 view .LVU1427
 4180 0104 0333     		adds	r3, r3, #3
 4181              	.LVL314:
1710:Drivers/STM32L4xx_HAL_Driver/Src/stm32l4xx_ll_usb.c ****         {
 4182              		.loc 1 1710 9 is_stmt 1 view .LVU1428
1710:Drivers/STM32L4xx_HAL_Driver/Src/stm32l4xx_ll_usb.c ****         {
 4183              		.loc 1 1710 35 is_stmt 0 view .LVU1429
 4184 0106 2269     		ldr	r2, [r4, #16]
1710:Drivers/STM32L4xx_HAL_Driver/Src/stm32l4xx_ll_usb.c ****         {
 4185              		.loc 1 1710 45 view .LVU1430
ARM GAS  C:\Users\gigig\AppData\Local\Temp\ccWnrG0a.s 			page 123


 4186 0108 92B2     		uxth	r2, r2
1710:Drivers/STM32L4xx_HAL_Driver/Src/stm32l4xx_ll_usb.c ****         {
 4187              		.loc 1 1710 12 view .LVU1431
 4188 010a C3F38F03 		ubfx	r3, r3, #2, #16
 4189              	.LVL315:
1710:Drivers/STM32L4xx_HAL_Driver/Src/stm32l4xx_ll_usb.c ****         {
 4190              		.loc 1 1710 12 view .LVU1432
 4191 010e 9A42     		cmp	r2, r3
 4192 0110 F0D2     		bcs	.L260
1713:Drivers/STM32L4xx_HAL_Driver/Src/stm32l4xx_ll_usb.c ****         }
 4193              		.loc 1 1713 11 is_stmt 1 view .LVU1433
1713:Drivers/STM32L4xx_HAL_Driver/Src/stm32l4xx_ll_usb.c ****         }
 4194              		.loc 1 1713 15 is_stmt 0 view .LVU1434
 4195 0112 8369     		ldr	r3, [r0, #24]
1713:Drivers/STM32L4xx_HAL_Driver/Src/stm32l4xx_ll_usb.c ****         }
 4196              		.loc 1 1713 25 view .LVU1435
 4197 0114 43F08063 		orr	r3, r3, #67108864
 4198 0118 8361     		str	r3, [r0, #24]
 4199              	.LVL316:
1713:Drivers/STM32L4xx_HAL_Driver/Src/stm32l4xx_ll_usb.c ****         }
 4200              		.loc 1 1713 25 view .LVU1436
 4201 011a EBE7     		b	.L260
 4202              	.L268:
 4203              		.align	2
 4204              	.L267:
 4205 011c 0000F81F 		.word	536346624
 4206              		.cfi_endproc
 4207              	.LFE174:
 4209              		.section	.text.USB_HC_ReadInterrupt,"ax",%progbits
 4210              		.align	1
 4211              		.global	USB_HC_ReadInterrupt
 4212              		.syntax unified
 4213              		.thumb
 4214              		.thumb_func
 4216              	USB_HC_ReadInterrupt:
 4217              	.LVL317:
 4218              	.LFB175:
1727:Drivers/STM32L4xx_HAL_Driver/Src/stm32l4xx_ll_usb.c **** 
1728:Drivers/STM32L4xx_HAL_Driver/Src/stm32l4xx_ll_usb.c **** /**
1729:Drivers/STM32L4xx_HAL_Driver/Src/stm32l4xx_ll_usb.c ****   * @brief Read all host channel interrupts status
1730:Drivers/STM32L4xx_HAL_Driver/Src/stm32l4xx_ll_usb.c ****   * @param  USBx  Selected device
1731:Drivers/STM32L4xx_HAL_Driver/Src/stm32l4xx_ll_usb.c ****   * @retval HAL state
1732:Drivers/STM32L4xx_HAL_Driver/Src/stm32l4xx_ll_usb.c ****   */
1733:Drivers/STM32L4xx_HAL_Driver/Src/stm32l4xx_ll_usb.c **** uint32_t USB_HC_ReadInterrupt(USB_OTG_GlobalTypeDef *USBx)
1734:Drivers/STM32L4xx_HAL_Driver/Src/stm32l4xx_ll_usb.c **** {
 4219              		.loc 1 1734 1 is_stmt 1 view -0
 4220              		.cfi_startproc
 4221              		@ args = 0, pretend = 0, frame = 0
 4222              		@ frame_needed = 0, uses_anonymous_args = 0
 4223              		@ link register save eliminated.
1735:Drivers/STM32L4xx_HAL_Driver/Src/stm32l4xx_ll_usb.c ****   uint32_t USBx_BASE = (uint32_t)USBx;
 4224              		.loc 1 1735 3 view .LVU1438
1736:Drivers/STM32L4xx_HAL_Driver/Src/stm32l4xx_ll_usb.c **** 
1737:Drivers/STM32L4xx_HAL_Driver/Src/stm32l4xx_ll_usb.c ****   return ((USBx_HOST->HAINT) & 0xFFFFU);
 4225              		.loc 1 1737 3 view .LVU1439
 4226              		.loc 1 1737 12 is_stmt 0 view .LVU1440
 4227 0000 00F58060 		add	r0, r0, #1024
ARM GAS  C:\Users\gigig\AppData\Local\Temp\ccWnrG0a.s 			page 124


 4228              	.LVL318:
 4229              		.loc 1 1737 21 view .LVU1441
 4230 0004 4069     		ldr	r0, [r0, #20]
 4231              	.LVL319:
1738:Drivers/STM32L4xx_HAL_Driver/Src/stm32l4xx_ll_usb.c **** }
 4232              		.loc 1 1738 1 view .LVU1442
 4233 0006 80B2     		uxth	r0, r0
 4234 0008 7047     		bx	lr
 4235              		.cfi_endproc
 4236              	.LFE175:
 4238              		.section	.text.USB_HC_Halt,"ax",%progbits
 4239              		.align	1
 4240              		.global	USB_HC_Halt
 4241              		.syntax unified
 4242              		.thumb
 4243              		.thumb_func
 4245              	USB_HC_Halt:
 4246              	.LVL320:
 4247              	.LFB176:
1739:Drivers/STM32L4xx_HAL_Driver/Src/stm32l4xx_ll_usb.c **** 
1740:Drivers/STM32L4xx_HAL_Driver/Src/stm32l4xx_ll_usb.c **** /**
1741:Drivers/STM32L4xx_HAL_Driver/Src/stm32l4xx_ll_usb.c ****   * @brief  Halt a host channel
1742:Drivers/STM32L4xx_HAL_Driver/Src/stm32l4xx_ll_usb.c ****   * @param  USBx  Selected device
1743:Drivers/STM32L4xx_HAL_Driver/Src/stm32l4xx_ll_usb.c ****   * @param  hc_num  Host Channel number
1744:Drivers/STM32L4xx_HAL_Driver/Src/stm32l4xx_ll_usb.c ****   *         This parameter can be a value from 1 to 15
1745:Drivers/STM32L4xx_HAL_Driver/Src/stm32l4xx_ll_usb.c ****   * @retval HAL state
1746:Drivers/STM32L4xx_HAL_Driver/Src/stm32l4xx_ll_usb.c ****   */
1747:Drivers/STM32L4xx_HAL_Driver/Src/stm32l4xx_ll_usb.c **** HAL_StatusTypeDef USB_HC_Halt(USB_OTG_GlobalTypeDef *USBx, uint8_t hc_num)
1748:Drivers/STM32L4xx_HAL_Driver/Src/stm32l4xx_ll_usb.c **** {
 4248              		.loc 1 1748 1 is_stmt 1 view -0
 4249              		.cfi_startproc
 4250              		@ args = 0, pretend = 0, frame = 8
 4251              		@ frame_needed = 0, uses_anonymous_args = 0
 4252              		@ link register save eliminated.
 4253              		.loc 1 1748 1 is_stmt 0 view .LVU1444
 4254 0000 70B4     		push	{r4, r5, r6}
 4255              		.cfi_def_cfa_offset 12
 4256              		.cfi_offset 4, -12
 4257              		.cfi_offset 5, -8
 4258              		.cfi_offset 6, -4
 4259 0002 83B0     		sub	sp, sp, #12
 4260              		.cfi_def_cfa_offset 24
1749:Drivers/STM32L4xx_HAL_Driver/Src/stm32l4xx_ll_usb.c ****   uint32_t USBx_BASE = (uint32_t)USBx;
 4261              		.loc 1 1749 3 is_stmt 1 view .LVU1445
 4262              	.LVL321:
1750:Drivers/STM32L4xx_HAL_Driver/Src/stm32l4xx_ll_usb.c ****   uint32_t hcnum = (uint32_t)hc_num;
 4263              		.loc 1 1750 3 view .LVU1446
1751:Drivers/STM32L4xx_HAL_Driver/Src/stm32l4xx_ll_usb.c ****   __IO uint32_t count = 0U;
 4264              		.loc 1 1751 3 view .LVU1447
 4265              		.loc 1 1751 17 is_stmt 0 view .LVU1448
 4266 0004 0023     		movs	r3, #0
 4267 0006 0193     		str	r3, [sp, #4]
1752:Drivers/STM32L4xx_HAL_Driver/Src/stm32l4xx_ll_usb.c ****   uint32_t HcEpType = (USBx_HC(hcnum)->HCCHAR & USB_OTG_HCCHAR_EPTYP) >> 18;
 4268              		.loc 1 1752 3 is_stmt 1 view .LVU1449
 4269              		.loc 1 1752 24 is_stmt 0 view .LVU1450
 4270 0008 00EB4111 		add	r1, r0, r1, lsl #5
 4271              	.LVL322:
ARM GAS  C:\Users\gigig\AppData\Local\Temp\ccWnrG0a.s 			page 125


 4272              		.loc 1 1752 24 view .LVU1451
 4273 000c 01F5A062 		add	r2, r1, #1280
 4274              		.loc 1 1752 38 view .LVU1452
 4275 0010 D1F80035 		ldr	r3, [r1, #1280]
 4276              		.loc 1 1752 12 view .LVU1453
 4277 0014 C3F38143 		ubfx	r3, r3, #18, #2
 4278              	.LVL323:
1753:Drivers/STM32L4xx_HAL_Driver/Src/stm32l4xx_ll_usb.c ****   uint32_t ChannelEna = (USBx_HC(hcnum)->HCCHAR & USB_OTG_HCCHAR_CHENA) >> 31;
 4279              		.loc 1 1753 3 is_stmt 1 view .LVU1454
 4280              		.loc 1 1753 40 is_stmt 0 view .LVU1455
 4281 0018 D1F80055 		ldr	r5, [r1, #1280]
 4282              	.LVL324:
1754:Drivers/STM32L4xx_HAL_Driver/Src/stm32l4xx_ll_usb.c ****   uint32_t SplitEna = (USBx_HC(hcnum)->HCSPLT & USB_OTG_HCSPLT_SPLITEN) >> 31;
 4283              		.loc 1 1754 3 is_stmt 1 view .LVU1456
 4284              		.loc 1 1754 38 is_stmt 0 view .LVU1457
 4285 001c 5468     		ldr	r4, [r2, #4]
 4286              	.LVL325:
1755:Drivers/STM32L4xx_HAL_Driver/Src/stm32l4xx_ll_usb.c **** 
1756:Drivers/STM32L4xx_HAL_Driver/Src/stm32l4xx_ll_usb.c ****   /* In buffer DMA, Channel disable must not be programmed for non-split periodic channels.
1757:Drivers/STM32L4xx_HAL_Driver/Src/stm32l4xx_ll_usb.c ****      At the end of the next uframe/frame (in the worst case), the core generates a channel halted
1758:Drivers/STM32L4xx_HAL_Driver/Src/stm32l4xx_ll_usb.c ****      and disables the channel automatically. */
1759:Drivers/STM32L4xx_HAL_Driver/Src/stm32l4xx_ll_usb.c **** 
1760:Drivers/STM32L4xx_HAL_Driver/Src/stm32l4xx_ll_usb.c ****   if ((((USBx->GAHBCFG & USB_OTG_GAHBCFG_DMAEN) == USB_OTG_GAHBCFG_DMAEN) && (SplitEna == 0U)) &&
 4287              		.loc 1 1760 3 is_stmt 1 view .LVU1458
 4288              		.loc 1 1760 14 is_stmt 0 view .LVU1459
 4289 001e 8668     		ldr	r6, [r0, #8]
 4290              		.loc 1 1760 6 view .LVU1460
 4291 0020 16F0200F 		tst	r6, #32
 4292 0024 08D0     		beq	.L271
 4293 0026 ED0F     		lsrs	r5, r5, #31
 4294              	.LVL326:
 4295              		.loc 1 1760 6 view .LVU1461
 4296 0028 E40F     		lsrs	r4, r4, #31
 4297              	.LVL327:
 4298              		.loc 1 1760 75 discriminator 1 view .LVU1462
 4299 002a 2CB9     		cbnz	r4, .L271
 4300              		.loc 1 1760 96 discriminator 2 view .LVU1463
 4301 002c 002D     		cmp	r5, #0
 4302 002e 5AD0     		beq	.L272
1761:Drivers/STM32L4xx_HAL_Driver/Src/stm32l4xx_ll_usb.c ****       ((ChannelEna == 0U) || (((HcEpType == HCCHAR_ISOC) || (HcEpType == HCCHAR_INTR)))))
 4303              		.loc 1 1761 27 view .LVU1464
 4304 0030 012B     		cmp	r3, #1
 4305 0032 58D0     		beq	.L272
 4306              		.loc 1 1761 58 discriminator 1 view .LVU1465
 4307 0034 032B     		cmp	r3, #3
 4308 0036 56D0     		beq	.L272
 4309              	.LVL328:
 4310              	.L271:
1762:Drivers/STM32L4xx_HAL_Driver/Src/stm32l4xx_ll_usb.c ****   {
1763:Drivers/STM32L4xx_HAL_Driver/Src/stm32l4xx_ll_usb.c ****     return HAL_OK;
1764:Drivers/STM32L4xx_HAL_Driver/Src/stm32l4xx_ll_usb.c ****   }
1765:Drivers/STM32L4xx_HAL_Driver/Src/stm32l4xx_ll_usb.c **** 
1766:Drivers/STM32L4xx_HAL_Driver/Src/stm32l4xx_ll_usb.c ****   /* Check for space in the request queue to issue the halt. */
1767:Drivers/STM32L4xx_HAL_Driver/Src/stm32l4xx_ll_usb.c ****   if ((HcEpType == HCCHAR_CTRL) || (HcEpType == HCCHAR_BULK))
 4311              		.loc 1 1767 3 is_stmt 1 view .LVU1466
 4312              		.loc 1 1767 6 is_stmt 0 view .LVU1467
 4313 0038 1BB3     		cbz	r3, .L273
ARM GAS  C:\Users\gigig\AppData\Local\Temp\ccWnrG0a.s 			page 126


 4314              		.loc 1 1767 33 discriminator 1 view .LVU1468
 4315 003a 022B     		cmp	r3, #2
 4316 003c 21D0     		beq	.L273
1768:Drivers/STM32L4xx_HAL_Driver/Src/stm32l4xx_ll_usb.c ****   {
1769:Drivers/STM32L4xx_HAL_Driver/Src/stm32l4xx_ll_usb.c ****     USBx_HC(hcnum)->HCCHAR |= USB_OTG_HCCHAR_CHDIS;
1770:Drivers/STM32L4xx_HAL_Driver/Src/stm32l4xx_ll_usb.c **** 
1771:Drivers/STM32L4xx_HAL_Driver/Src/stm32l4xx_ll_usb.c ****     if ((USBx->GAHBCFG & USB_OTG_GAHBCFG_DMAEN) == 0U)
1772:Drivers/STM32L4xx_HAL_Driver/Src/stm32l4xx_ll_usb.c ****     {
1773:Drivers/STM32L4xx_HAL_Driver/Src/stm32l4xx_ll_usb.c ****       if ((USBx->HNPTXSTS & (0xFFU << 16)) == 0U)
1774:Drivers/STM32L4xx_HAL_Driver/Src/stm32l4xx_ll_usb.c ****       {
1775:Drivers/STM32L4xx_HAL_Driver/Src/stm32l4xx_ll_usb.c ****         USBx_HC(hcnum)->HCCHAR &= ~USB_OTG_HCCHAR_CHENA;
1776:Drivers/STM32L4xx_HAL_Driver/Src/stm32l4xx_ll_usb.c ****         USBx_HC(hcnum)->HCCHAR |= USB_OTG_HCCHAR_CHENA;
1777:Drivers/STM32L4xx_HAL_Driver/Src/stm32l4xx_ll_usb.c ****         do
1778:Drivers/STM32L4xx_HAL_Driver/Src/stm32l4xx_ll_usb.c ****         {
1779:Drivers/STM32L4xx_HAL_Driver/Src/stm32l4xx_ll_usb.c ****           count++;
1780:Drivers/STM32L4xx_HAL_Driver/Src/stm32l4xx_ll_usb.c **** 
1781:Drivers/STM32L4xx_HAL_Driver/Src/stm32l4xx_ll_usb.c ****           if (count > 1000U)
1782:Drivers/STM32L4xx_HAL_Driver/Src/stm32l4xx_ll_usb.c ****           {
1783:Drivers/STM32L4xx_HAL_Driver/Src/stm32l4xx_ll_usb.c ****             break;
1784:Drivers/STM32L4xx_HAL_Driver/Src/stm32l4xx_ll_usb.c ****           }
1785:Drivers/STM32L4xx_HAL_Driver/Src/stm32l4xx_ll_usb.c ****         } while ((USBx_HC(hcnum)->HCCHAR & USB_OTG_HCCHAR_CHENA) == USB_OTG_HCCHAR_CHENA);
1786:Drivers/STM32L4xx_HAL_Driver/Src/stm32l4xx_ll_usb.c ****       }
1787:Drivers/STM32L4xx_HAL_Driver/Src/stm32l4xx_ll_usb.c ****       else
1788:Drivers/STM32L4xx_HAL_Driver/Src/stm32l4xx_ll_usb.c ****       {
1789:Drivers/STM32L4xx_HAL_Driver/Src/stm32l4xx_ll_usb.c ****         USBx_HC(hcnum)->HCCHAR |= USB_OTG_HCCHAR_CHENA;
1790:Drivers/STM32L4xx_HAL_Driver/Src/stm32l4xx_ll_usb.c ****       }
1791:Drivers/STM32L4xx_HAL_Driver/Src/stm32l4xx_ll_usb.c ****     }
1792:Drivers/STM32L4xx_HAL_Driver/Src/stm32l4xx_ll_usb.c ****     else
1793:Drivers/STM32L4xx_HAL_Driver/Src/stm32l4xx_ll_usb.c ****     {
1794:Drivers/STM32L4xx_HAL_Driver/Src/stm32l4xx_ll_usb.c ****       USBx_HC(hcnum)->HCCHAR |= USB_OTG_HCCHAR_CHENA;
1795:Drivers/STM32L4xx_HAL_Driver/Src/stm32l4xx_ll_usb.c ****     }
1796:Drivers/STM32L4xx_HAL_Driver/Src/stm32l4xx_ll_usb.c ****   }
1797:Drivers/STM32L4xx_HAL_Driver/Src/stm32l4xx_ll_usb.c ****   else
1798:Drivers/STM32L4xx_HAL_Driver/Src/stm32l4xx_ll_usb.c ****   {
1799:Drivers/STM32L4xx_HAL_Driver/Src/stm32l4xx_ll_usb.c ****     USBx_HC(hcnum)->HCCHAR |= USB_OTG_HCCHAR_CHDIS;
 4317              		.loc 1 1799 5 is_stmt 1 view .LVU1469
 4318              		.loc 1 1799 19 is_stmt 0 view .LVU1470
 4319 003e D1F80035 		ldr	r3, [r1, #1280]
 4320              	.LVL329:
 4321              		.loc 1 1799 28 view .LVU1471
 4322 0042 43F08043 		orr	r3, r3, #1073741824
 4323 0046 C1F80035 		str	r3, [r1, #1280]
1800:Drivers/STM32L4xx_HAL_Driver/Src/stm32l4xx_ll_usb.c **** 
1801:Drivers/STM32L4xx_HAL_Driver/Src/stm32l4xx_ll_usb.c ****     if ((USBx_HOST->HPTXSTS & (0xFFU << 16)) == 0U)
 4324              		.loc 1 1801 5 is_stmt 1 view .LVU1472
 4325              		.loc 1 1801 19 is_stmt 0 view .LVU1473
 4326 004a D0F81034 		ldr	r3, [r0, #1040]
 4327              		.loc 1 1801 8 view .LVU1474
 4328 004e 13F47F0F 		tst	r3, #16711680
 4329 0052 4CD1     		bne	.L278
1802:Drivers/STM32L4xx_HAL_Driver/Src/stm32l4xx_ll_usb.c ****     {
1803:Drivers/STM32L4xx_HAL_Driver/Src/stm32l4xx_ll_usb.c ****       USBx_HC(hcnum)->HCCHAR &= ~USB_OTG_HCCHAR_CHENA;
 4330              		.loc 1 1803 7 is_stmt 1 view .LVU1475
 4331              		.loc 1 1803 21 is_stmt 0 view .LVU1476
 4332 0054 D1F80035 		ldr	r3, [r1, #1280]
 4333              		.loc 1 1803 30 view .LVU1477
 4334 0058 23F00043 		bic	r3, r3, #-2147483648
ARM GAS  C:\Users\gigig\AppData\Local\Temp\ccWnrG0a.s 			page 127


 4335 005c C1F80035 		str	r3, [r1, #1280]
1804:Drivers/STM32L4xx_HAL_Driver/Src/stm32l4xx_ll_usb.c ****       USBx_HC(hcnum)->HCCHAR |= USB_OTG_HCCHAR_CHENA;
 4336              		.loc 1 1804 7 is_stmt 1 view .LVU1478
 4337              		.loc 1 1804 21 is_stmt 0 view .LVU1479
 4338 0060 D1F80035 		ldr	r3, [r1, #1280]
 4339              		.loc 1 1804 30 view .LVU1480
 4340 0064 43F00043 		orr	r3, r3, #-2147483648
 4341 0068 C1F80035 		str	r3, [r1, #1280]
 4342              	.L279:
1805:Drivers/STM32L4xx_HAL_Driver/Src/stm32l4xx_ll_usb.c ****       do
 4343              		.loc 1 1805 7 is_stmt 1 view .LVU1481
1806:Drivers/STM32L4xx_HAL_Driver/Src/stm32l4xx_ll_usb.c ****       {
1807:Drivers/STM32L4xx_HAL_Driver/Src/stm32l4xx_ll_usb.c ****         count++;
 4344              		.loc 1 1807 9 view .LVU1482
 4345              		.loc 1 1807 14 is_stmt 0 view .LVU1483
 4346 006c 019B     		ldr	r3, [sp, #4]
 4347 006e 0133     		adds	r3, r3, #1
 4348 0070 0193     		str	r3, [sp, #4]
1808:Drivers/STM32L4xx_HAL_Driver/Src/stm32l4xx_ll_usb.c **** 
1809:Drivers/STM32L4xx_HAL_Driver/Src/stm32l4xx_ll_usb.c ****         if (count > 1000U)
 4349              		.loc 1 1809 9 is_stmt 1 view .LVU1484
 4350              		.loc 1 1809 19 is_stmt 0 view .LVU1485
 4351 0072 019B     		ldr	r3, [sp, #4]
 4352              		.loc 1 1809 12 view .LVU1486
 4353 0074 B3F57A7F 		cmp	r3, #1000
 4354 0078 35D8     		bhi	.L272
1810:Drivers/STM32L4xx_HAL_Driver/Src/stm32l4xx_ll_usb.c ****         {
1811:Drivers/STM32L4xx_HAL_Driver/Src/stm32l4xx_ll_usb.c ****           break;
1812:Drivers/STM32L4xx_HAL_Driver/Src/stm32l4xx_ll_usb.c ****         }
1813:Drivers/STM32L4xx_HAL_Driver/Src/stm32l4xx_ll_usb.c ****       } while ((USBx_HC(hcnum)->HCCHAR & USB_OTG_HCCHAR_CHENA) == USB_OTG_HCCHAR_CHENA);
 4355              		.loc 1 1813 64 is_stmt 1 view .LVU1487
 4356              		.loc 1 1813 31 is_stmt 0 view .LVU1488
 4357 007a 1368     		ldr	r3, [r2]
 4358              		.loc 1 1813 64 view .LVU1489
 4359 007c 002B     		cmp	r3, #0
 4360 007e F5DB     		blt	.L279
 4361 0080 31E0     		b	.L272
 4362              	.LVL330:
 4363              	.L273:
1769:Drivers/STM32L4xx_HAL_Driver/Src/stm32l4xx_ll_usb.c **** 
 4364              		.loc 1 1769 5 is_stmt 1 view .LVU1490
1769:Drivers/STM32L4xx_HAL_Driver/Src/stm32l4xx_ll_usb.c **** 
 4365              		.loc 1 1769 19 is_stmt 0 view .LVU1491
 4366 0082 D1F80035 		ldr	r3, [r1, #1280]
 4367              	.LVL331:
1769:Drivers/STM32L4xx_HAL_Driver/Src/stm32l4xx_ll_usb.c **** 
 4368              		.loc 1 1769 28 view .LVU1492
 4369 0086 43F08043 		orr	r3, r3, #1073741824
 4370 008a C1F80035 		str	r3, [r1, #1280]
1771:Drivers/STM32L4xx_HAL_Driver/Src/stm32l4xx_ll_usb.c ****     {
 4371              		.loc 1 1771 5 is_stmt 1 view .LVU1493
1771:Drivers/STM32L4xx_HAL_Driver/Src/stm32l4xx_ll_usb.c ****     {
 4372              		.loc 1 1771 14 is_stmt 0 view .LVU1494
 4373 008e 8368     		ldr	r3, [r0, #8]
1771:Drivers/STM32L4xx_HAL_Driver/Src/stm32l4xx_ll_usb.c ****     {
 4374              		.loc 1 1771 8 view .LVU1495
 4375 0090 13F0200F 		tst	r3, #32
ARM GAS  C:\Users\gigig\AppData\Local\Temp\ccWnrG0a.s 			page 128


 4376 0094 21D1     		bne	.L275
1773:Drivers/STM32L4xx_HAL_Driver/Src/stm32l4xx_ll_usb.c ****       {
 4377              		.loc 1 1773 7 is_stmt 1 view .LVU1496
1773:Drivers/STM32L4xx_HAL_Driver/Src/stm32l4xx_ll_usb.c ****       {
 4378              		.loc 1 1773 16 is_stmt 0 view .LVU1497
 4379 0096 C36A     		ldr	r3, [r0, #44]
1773:Drivers/STM32L4xx_HAL_Driver/Src/stm32l4xx_ll_usb.c ****       {
 4380              		.loc 1 1773 10 view .LVU1498
 4381 0098 13F47F0F 		tst	r3, #16711680
 4382 009c 16D1     		bne	.L276
1775:Drivers/STM32L4xx_HAL_Driver/Src/stm32l4xx_ll_usb.c ****         USBx_HC(hcnum)->HCCHAR |= USB_OTG_HCCHAR_CHENA;
 4383              		.loc 1 1775 9 is_stmt 1 view .LVU1499
1775:Drivers/STM32L4xx_HAL_Driver/Src/stm32l4xx_ll_usb.c ****         USBx_HC(hcnum)->HCCHAR |= USB_OTG_HCCHAR_CHENA;
 4384              		.loc 1 1775 23 is_stmt 0 view .LVU1500
 4385 009e D1F80035 		ldr	r3, [r1, #1280]
1775:Drivers/STM32L4xx_HAL_Driver/Src/stm32l4xx_ll_usb.c ****         USBx_HC(hcnum)->HCCHAR |= USB_OTG_HCCHAR_CHENA;
 4386              		.loc 1 1775 32 view .LVU1501
 4387 00a2 23F00043 		bic	r3, r3, #-2147483648
 4388 00a6 C1F80035 		str	r3, [r1, #1280]
1776:Drivers/STM32L4xx_HAL_Driver/Src/stm32l4xx_ll_usb.c ****         do
 4389              		.loc 1 1776 9 is_stmt 1 view .LVU1502
1776:Drivers/STM32L4xx_HAL_Driver/Src/stm32l4xx_ll_usb.c ****         do
 4390              		.loc 1 1776 23 is_stmt 0 view .LVU1503
 4391 00aa D1F80035 		ldr	r3, [r1, #1280]
1776:Drivers/STM32L4xx_HAL_Driver/Src/stm32l4xx_ll_usb.c ****         do
 4392              		.loc 1 1776 32 view .LVU1504
 4393 00ae 43F00043 		orr	r3, r3, #-2147483648
 4394 00b2 C1F80035 		str	r3, [r1, #1280]
 4395              	.L277:
1777:Drivers/STM32L4xx_HAL_Driver/Src/stm32l4xx_ll_usb.c ****         {
 4396              		.loc 1 1777 9 is_stmt 1 view .LVU1505
1779:Drivers/STM32L4xx_HAL_Driver/Src/stm32l4xx_ll_usb.c **** 
 4397              		.loc 1 1779 11 view .LVU1506
1779:Drivers/STM32L4xx_HAL_Driver/Src/stm32l4xx_ll_usb.c **** 
 4398              		.loc 1 1779 16 is_stmt 0 view .LVU1507
 4399 00b6 019B     		ldr	r3, [sp, #4]
 4400 00b8 0133     		adds	r3, r3, #1
 4401 00ba 0193     		str	r3, [sp, #4]
1781:Drivers/STM32L4xx_HAL_Driver/Src/stm32l4xx_ll_usb.c ****           {
 4402              		.loc 1 1781 11 is_stmt 1 view .LVU1508
1781:Drivers/STM32L4xx_HAL_Driver/Src/stm32l4xx_ll_usb.c ****           {
 4403              		.loc 1 1781 21 is_stmt 0 view .LVU1509
 4404 00bc 019B     		ldr	r3, [sp, #4]
1781:Drivers/STM32L4xx_HAL_Driver/Src/stm32l4xx_ll_usb.c ****           {
 4405              		.loc 1 1781 14 view .LVU1510
 4406 00be B3F57A7F 		cmp	r3, #1000
 4407 00c2 10D8     		bhi	.L272
1785:Drivers/STM32L4xx_HAL_Driver/Src/stm32l4xx_ll_usb.c ****       }
 4408              		.loc 1 1785 66 is_stmt 1 view .LVU1511
1785:Drivers/STM32L4xx_HAL_Driver/Src/stm32l4xx_ll_usb.c ****       }
 4409              		.loc 1 1785 33 is_stmt 0 view .LVU1512
 4410 00c4 1368     		ldr	r3, [r2]
1785:Drivers/STM32L4xx_HAL_Driver/Src/stm32l4xx_ll_usb.c ****       }
 4411              		.loc 1 1785 66 view .LVU1513
 4412 00c6 002B     		cmp	r3, #0
 4413 00c8 F5DB     		blt	.L277
 4414 00ca 0CE0     		b	.L272
ARM GAS  C:\Users\gigig\AppData\Local\Temp\ccWnrG0a.s 			page 129


 4415              	.L276:
1789:Drivers/STM32L4xx_HAL_Driver/Src/stm32l4xx_ll_usb.c ****       }
 4416              		.loc 1 1789 9 is_stmt 1 view .LVU1514
1789:Drivers/STM32L4xx_HAL_Driver/Src/stm32l4xx_ll_usb.c ****       }
 4417              		.loc 1 1789 23 is_stmt 0 view .LVU1515
 4418 00cc D1F80035 		ldr	r3, [r1, #1280]
1789:Drivers/STM32L4xx_HAL_Driver/Src/stm32l4xx_ll_usb.c ****       }
 4419              		.loc 1 1789 32 view .LVU1516
 4420 00d0 43F00043 		orr	r3, r3, #-2147483648
 4421 00d4 C1F80035 		str	r3, [r1, #1280]
 4422 00d8 05E0     		b	.L272
 4423              	.L275:
1794:Drivers/STM32L4xx_HAL_Driver/Src/stm32l4xx_ll_usb.c ****     }
 4424              		.loc 1 1794 7 is_stmt 1 view .LVU1517
1794:Drivers/STM32L4xx_HAL_Driver/Src/stm32l4xx_ll_usb.c ****     }
 4425              		.loc 1 1794 21 is_stmt 0 view .LVU1518
 4426 00da D1F80035 		ldr	r3, [r1, #1280]
1794:Drivers/STM32L4xx_HAL_Driver/Src/stm32l4xx_ll_usb.c ****     }
 4427              		.loc 1 1794 30 view .LVU1519
 4428 00de 43F00043 		orr	r3, r3, #-2147483648
 4429 00e2 C1F80035 		str	r3, [r1, #1280]
 4430              	.L272:
1814:Drivers/STM32L4xx_HAL_Driver/Src/stm32l4xx_ll_usb.c ****     }
1815:Drivers/STM32L4xx_HAL_Driver/Src/stm32l4xx_ll_usb.c ****     else
1816:Drivers/STM32L4xx_HAL_Driver/Src/stm32l4xx_ll_usb.c ****     {
1817:Drivers/STM32L4xx_HAL_Driver/Src/stm32l4xx_ll_usb.c ****       USBx_HC(hcnum)->HCCHAR |= USB_OTG_HCCHAR_CHENA;
1818:Drivers/STM32L4xx_HAL_Driver/Src/stm32l4xx_ll_usb.c ****     }
1819:Drivers/STM32L4xx_HAL_Driver/Src/stm32l4xx_ll_usb.c ****   }
1820:Drivers/STM32L4xx_HAL_Driver/Src/stm32l4xx_ll_usb.c **** 
1821:Drivers/STM32L4xx_HAL_Driver/Src/stm32l4xx_ll_usb.c ****   return HAL_OK;
1822:Drivers/STM32L4xx_HAL_Driver/Src/stm32l4xx_ll_usb.c **** }
 4431              		.loc 1 1822 1 view .LVU1520
 4432 00e6 0020     		movs	r0, #0
 4433              	.LVL332:
 4434              		.loc 1 1822 1 view .LVU1521
 4435 00e8 03B0     		add	sp, sp, #12
 4436              		.cfi_remember_state
 4437              		.cfi_def_cfa_offset 12
 4438              		@ sp needed
 4439 00ea 70BC     		pop	{r4, r5, r6}
 4440              		.cfi_restore 6
 4441              		.cfi_restore 5
 4442              		.cfi_restore 4
 4443              		.cfi_def_cfa_offset 0
 4444 00ec 7047     		bx	lr
 4445              	.LVL333:
 4446              	.L278:
 4447              		.cfi_restore_state
1817:Drivers/STM32L4xx_HAL_Driver/Src/stm32l4xx_ll_usb.c ****     }
 4448              		.loc 1 1817 7 is_stmt 1 view .LVU1522
1817:Drivers/STM32L4xx_HAL_Driver/Src/stm32l4xx_ll_usb.c ****     }
 4449              		.loc 1 1817 21 is_stmt 0 view .LVU1523
 4450 00ee D1F80035 		ldr	r3, [r1, #1280]
1817:Drivers/STM32L4xx_HAL_Driver/Src/stm32l4xx_ll_usb.c ****     }
 4451              		.loc 1 1817 30 view .LVU1524
 4452 00f2 43F00043 		orr	r3, r3, #-2147483648
 4453 00f6 C1F80035 		str	r3, [r1, #1280]
ARM GAS  C:\Users\gigig\AppData\Local\Temp\ccWnrG0a.s 			page 130


 4454 00fa F4E7     		b	.L272
 4455              		.cfi_endproc
 4456              	.LFE176:
 4458              		.section	.text.USB_DoPing,"ax",%progbits
 4459              		.align	1
 4460              		.global	USB_DoPing
 4461              		.syntax unified
 4462              		.thumb
 4463              		.thumb_func
 4465              	USB_DoPing:
 4466              	.LVL334:
 4467              	.LFB177:
1823:Drivers/STM32L4xx_HAL_Driver/Src/stm32l4xx_ll_usb.c **** 
1824:Drivers/STM32L4xx_HAL_Driver/Src/stm32l4xx_ll_usb.c **** /**
1825:Drivers/STM32L4xx_HAL_Driver/Src/stm32l4xx_ll_usb.c ****   * @brief  Initiate Do Ping protocol
1826:Drivers/STM32L4xx_HAL_Driver/Src/stm32l4xx_ll_usb.c ****   * @param  USBx  Selected device
1827:Drivers/STM32L4xx_HAL_Driver/Src/stm32l4xx_ll_usb.c ****   * @param  hc_num  Host Channel number
1828:Drivers/STM32L4xx_HAL_Driver/Src/stm32l4xx_ll_usb.c ****   *         This parameter can be a value from 1 to 15
1829:Drivers/STM32L4xx_HAL_Driver/Src/stm32l4xx_ll_usb.c ****   * @retval HAL state
1830:Drivers/STM32L4xx_HAL_Driver/Src/stm32l4xx_ll_usb.c ****   */
1831:Drivers/STM32L4xx_HAL_Driver/Src/stm32l4xx_ll_usb.c **** HAL_StatusTypeDef USB_DoPing(USB_OTG_GlobalTypeDef *USBx, uint8_t ch_num)
1832:Drivers/STM32L4xx_HAL_Driver/Src/stm32l4xx_ll_usb.c **** {
 4468              		.loc 1 1832 1 is_stmt 1 view -0
 4469              		.cfi_startproc
 4470              		@ args = 0, pretend = 0, frame = 0
 4471              		@ frame_needed = 0, uses_anonymous_args = 0
 4472              		@ link register save eliminated.
1833:Drivers/STM32L4xx_HAL_Driver/Src/stm32l4xx_ll_usb.c ****   uint32_t USBx_BASE = (uint32_t)USBx;
 4473              		.loc 1 1833 3 view .LVU1526
1834:Drivers/STM32L4xx_HAL_Driver/Src/stm32l4xx_ll_usb.c ****   uint32_t chnum = (uint32_t)ch_num;
 4474              		.loc 1 1834 3 view .LVU1527
1835:Drivers/STM32L4xx_HAL_Driver/Src/stm32l4xx_ll_usb.c ****   uint32_t num_packets = 1U;
 4475              		.loc 1 1835 3 view .LVU1528
1836:Drivers/STM32L4xx_HAL_Driver/Src/stm32l4xx_ll_usb.c ****   uint32_t tmpreg;
 4476              		.loc 1 1836 3 view .LVU1529
1837:Drivers/STM32L4xx_HAL_Driver/Src/stm32l4xx_ll_usb.c **** 
1838:Drivers/STM32L4xx_HAL_Driver/Src/stm32l4xx_ll_usb.c ****   USBx_HC(chnum)->HCTSIZ = ((num_packets << 19) & USB_OTG_HCTSIZ_PKTCNT) |
 4477              		.loc 1 1838 3 view .LVU1530
 4478 0000 00EB4110 		add	r0, r0, r1, lsl #5
 4479              	.LVL335:
 4480              		.loc 1 1838 26 is_stmt 0 view .LVU1531
 4481 0004 064A     		ldr	r2, .L282
 4482 0006 C0F81025 		str	r2, [r0, #1296]
1839:Drivers/STM32L4xx_HAL_Driver/Src/stm32l4xx_ll_usb.c ****                            USB_OTG_HCTSIZ_DOPING;
1840:Drivers/STM32L4xx_HAL_Driver/Src/stm32l4xx_ll_usb.c **** 
1841:Drivers/STM32L4xx_HAL_Driver/Src/stm32l4xx_ll_usb.c ****   /* Set host channel enable */
1842:Drivers/STM32L4xx_HAL_Driver/Src/stm32l4xx_ll_usb.c ****   tmpreg = USBx_HC(chnum)->HCCHAR;
 4483              		.loc 1 1842 3 is_stmt 1 view .LVU1532
 4484              		.loc 1 1842 10 is_stmt 0 view .LVU1533
 4485 000a D0F80035 		ldr	r3, [r0, #1280]
 4486              	.LVL336:
1843:Drivers/STM32L4xx_HAL_Driver/Src/stm32l4xx_ll_usb.c ****   tmpreg &= ~USB_OTG_HCCHAR_CHDIS;
 4487              		.loc 1 1843 3 is_stmt 1 view .LVU1534
 4488              		.loc 1 1843 10 is_stmt 0 view .LVU1535
 4489 000e 23F08043 		bic	r3, r3, #1073741824
 4490              	.LVL337:
1844:Drivers/STM32L4xx_HAL_Driver/Src/stm32l4xx_ll_usb.c ****   tmpreg |= USB_OTG_HCCHAR_CHENA;
ARM GAS  C:\Users\gigig\AppData\Local\Temp\ccWnrG0a.s 			page 131


 4491              		.loc 1 1844 3 is_stmt 1 view .LVU1536
 4492              		.loc 1 1844 10 is_stmt 0 view .LVU1537
 4493 0012 43F00043 		orr	r3, r3, #-2147483648
 4494              	.LVL338:
1845:Drivers/STM32L4xx_HAL_Driver/Src/stm32l4xx_ll_usb.c ****   USBx_HC(chnum)->HCCHAR = tmpreg;
 4495              		.loc 1 1845 3 is_stmt 1 view .LVU1538
 4496              		.loc 1 1845 26 is_stmt 0 view .LVU1539
 4497 0016 C0F80035 		str	r3, [r0, #1280]
1846:Drivers/STM32L4xx_HAL_Driver/Src/stm32l4xx_ll_usb.c **** 
1847:Drivers/STM32L4xx_HAL_Driver/Src/stm32l4xx_ll_usb.c ****   return HAL_OK;
 4498              		.loc 1 1847 3 is_stmt 1 view .LVU1540
1848:Drivers/STM32L4xx_HAL_Driver/Src/stm32l4xx_ll_usb.c **** }
 4499              		.loc 1 1848 1 is_stmt 0 view .LVU1541
 4500 001a 0020     		movs	r0, #0
 4501 001c 7047     		bx	lr
 4502              	.L283:
 4503 001e 00BF     		.align	2
 4504              	.L282:
 4505 0020 00000880 		.word	-2146959360
 4506              		.cfi_endproc
 4507              	.LFE177:
 4509              		.section	.text.USB_StopHost,"ax",%progbits
 4510              		.align	1
 4511              		.global	USB_StopHost
 4512              		.syntax unified
 4513              		.thumb
 4514              		.thumb_func
 4516              	USB_StopHost:
 4517              	.LVL339:
 4518              	.LFB178:
1849:Drivers/STM32L4xx_HAL_Driver/Src/stm32l4xx_ll_usb.c **** 
1850:Drivers/STM32L4xx_HAL_Driver/Src/stm32l4xx_ll_usb.c **** /**
1851:Drivers/STM32L4xx_HAL_Driver/Src/stm32l4xx_ll_usb.c ****   * @brief  Stop Host Core
1852:Drivers/STM32L4xx_HAL_Driver/Src/stm32l4xx_ll_usb.c ****   * @param  USBx  Selected device
1853:Drivers/STM32L4xx_HAL_Driver/Src/stm32l4xx_ll_usb.c ****   * @retval HAL state
1854:Drivers/STM32L4xx_HAL_Driver/Src/stm32l4xx_ll_usb.c ****   */
1855:Drivers/STM32L4xx_HAL_Driver/Src/stm32l4xx_ll_usb.c **** HAL_StatusTypeDef USB_StopHost(USB_OTG_GlobalTypeDef *USBx)
1856:Drivers/STM32L4xx_HAL_Driver/Src/stm32l4xx_ll_usb.c **** {
 4519              		.loc 1 1856 1 is_stmt 1 view -0
 4520              		.cfi_startproc
 4521              		@ args = 0, pretend = 0, frame = 8
 4522              		@ frame_needed = 0, uses_anonymous_args = 0
 4523              		.loc 1 1856 1 is_stmt 0 view .LVU1543
 4524 0000 30B5     		push	{r4, r5, lr}
 4525              		.cfi_def_cfa_offset 12
 4526              		.cfi_offset 4, -12
 4527              		.cfi_offset 5, -8
 4528              		.cfi_offset 14, -4
 4529 0002 83B0     		sub	sp, sp, #12
 4530              		.cfi_def_cfa_offset 24
 4531 0004 0446     		mov	r4, r0
1857:Drivers/STM32L4xx_HAL_Driver/Src/stm32l4xx_ll_usb.c ****   HAL_StatusTypeDef ret = HAL_OK;
 4532              		.loc 1 1857 3 is_stmt 1 view .LVU1544
 4533              	.LVL340:
1858:Drivers/STM32L4xx_HAL_Driver/Src/stm32l4xx_ll_usb.c ****   uint32_t USBx_BASE = (uint32_t)USBx;
 4534              		.loc 1 1858 3 view .LVU1545
1859:Drivers/STM32L4xx_HAL_Driver/Src/stm32l4xx_ll_usb.c ****   __IO uint32_t count = 0U;
ARM GAS  C:\Users\gigig\AppData\Local\Temp\ccWnrG0a.s 			page 132


 4535              		.loc 1 1859 3 view .LVU1546
 4536              		.loc 1 1859 17 is_stmt 0 view .LVU1547
 4537 0006 0023     		movs	r3, #0
 4538 0008 0193     		str	r3, [sp, #4]
1860:Drivers/STM32L4xx_HAL_Driver/Src/stm32l4xx_ll_usb.c ****   uint32_t value;
 4539              		.loc 1 1860 3 is_stmt 1 view .LVU1548
1861:Drivers/STM32L4xx_HAL_Driver/Src/stm32l4xx_ll_usb.c ****   uint32_t i;
 4540              		.loc 1 1861 3 view .LVU1549
1862:Drivers/STM32L4xx_HAL_Driver/Src/stm32l4xx_ll_usb.c **** 
1863:Drivers/STM32L4xx_HAL_Driver/Src/stm32l4xx_ll_usb.c ****   (void)USB_DisableGlobalInt(USBx);
 4541              		.loc 1 1863 3 view .LVU1550
 4542              		.loc 1 1863 9 is_stmt 0 view .LVU1551
 4543 000a FFF7FEFF 		bl	USB_DisableGlobalInt
 4544              	.LVL341:
1864:Drivers/STM32L4xx_HAL_Driver/Src/stm32l4xx_ll_usb.c **** 
1865:Drivers/STM32L4xx_HAL_Driver/Src/stm32l4xx_ll_usb.c ****   /* Flush USB FIFO */
1866:Drivers/STM32L4xx_HAL_Driver/Src/stm32l4xx_ll_usb.c ****   if (USB_FlushTxFifo(USBx, 0x10U) != HAL_OK) /* all Tx FIFOs */
 4545              		.loc 1 1866 3 is_stmt 1 view .LVU1552
 4546              		.loc 1 1866 7 is_stmt 0 view .LVU1553
 4547 000e 1021     		movs	r1, #16
 4548 0010 2046     		mov	r0, r4
 4549 0012 FFF7FEFF 		bl	USB_FlushTxFifo
 4550              	.LVL342:
 4551              		.loc 1 1866 6 discriminator 1 view .LVU1554
 4552 0016 0546     		mov	r5, r0
 4553 0018 00B1     		cbz	r0, .L285
1867:Drivers/STM32L4xx_HAL_Driver/Src/stm32l4xx_ll_usb.c ****   {
1868:Drivers/STM32L4xx_HAL_Driver/Src/stm32l4xx_ll_usb.c ****     ret = HAL_ERROR;
 4554              		.loc 1 1868 9 view .LVU1555
 4555 001a 0125     		movs	r5, #1
 4556              	.L285:
 4557              	.LVL343:
1869:Drivers/STM32L4xx_HAL_Driver/Src/stm32l4xx_ll_usb.c ****   }
1870:Drivers/STM32L4xx_HAL_Driver/Src/stm32l4xx_ll_usb.c **** 
1871:Drivers/STM32L4xx_HAL_Driver/Src/stm32l4xx_ll_usb.c ****   if (USB_FlushRxFifo(USBx) != HAL_OK)
 4558              		.loc 1 1871 3 is_stmt 1 view .LVU1556
 4559              		.loc 1 1871 7 is_stmt 0 view .LVU1557
 4560 001c 2046     		mov	r0, r4
 4561 001e FFF7FEFF 		bl	USB_FlushRxFifo
 4562              	.LVL344:
 4563              		.loc 1 1871 6 discriminator 1 view .LVU1558
 4564 0022 00B1     		cbz	r0, .L286
1872:Drivers/STM32L4xx_HAL_Driver/Src/stm32l4xx_ll_usb.c ****   {
1873:Drivers/STM32L4xx_HAL_Driver/Src/stm32l4xx_ll_usb.c ****     ret = HAL_ERROR;
 4565              		.loc 1 1873 9 view .LVU1559
 4566 0024 0125     		movs	r5, #1
 4567              	.LVL345:
 4568              	.L286:
1874:Drivers/STM32L4xx_HAL_Driver/Src/stm32l4xx_ll_usb.c ****   }
1875:Drivers/STM32L4xx_HAL_Driver/Src/stm32l4xx_ll_usb.c **** 
1876:Drivers/STM32L4xx_HAL_Driver/Src/stm32l4xx_ll_usb.c ****   /* Flush out any leftover queued requests. */
1877:Drivers/STM32L4xx_HAL_Driver/Src/stm32l4xx_ll_usb.c ****   for (i = 0U; i <= 15U; i++)
 4569              		.loc 1 1877 3 is_stmt 1 view .LVU1560
 4570              		.loc 1 1877 10 is_stmt 0 view .LVU1561
 4571 0026 0022     		movs	r2, #0
 4572              		.loc 1 1877 3 view .LVU1562
 4573 0028 0AE0     		b	.L287
ARM GAS  C:\Users\gigig\AppData\Local\Temp\ccWnrG0a.s 			page 133


 4574              	.LVL346:
 4575              	.L288:
1878:Drivers/STM32L4xx_HAL_Driver/Src/stm32l4xx_ll_usb.c ****   {
1879:Drivers/STM32L4xx_HAL_Driver/Src/stm32l4xx_ll_usb.c ****     value = USBx_HC(i)->HCCHAR;
 4576              		.loc 1 1879 5 is_stmt 1 view .LVU1563
 4577              		.loc 1 1879 13 is_stmt 0 view .LVU1564
 4578 002a 04EB4211 		add	r1, r4, r2, lsl #5
 4579              		.loc 1 1879 11 view .LVU1565
 4580 002e D1F80035 		ldr	r3, [r1, #1280]
 4581              	.LVL347:
1880:Drivers/STM32L4xx_HAL_Driver/Src/stm32l4xx_ll_usb.c ****     value |=  USB_OTG_HCCHAR_CHDIS;
 4582              		.loc 1 1880 5 is_stmt 1 view .LVU1566
1881:Drivers/STM32L4xx_HAL_Driver/Src/stm32l4xx_ll_usb.c ****     value &= ~USB_OTG_HCCHAR_CHENA;
 4583              		.loc 1 1881 5 view .LVU1567
1882:Drivers/STM32L4xx_HAL_Driver/Src/stm32l4xx_ll_usb.c ****     value &= ~USB_OTG_HCCHAR_EPDIR;
 4584              		.loc 1 1882 5 view .LVU1568
 4585 0032 23F08023 		bic	r3, r3, #-2147450880
 4586              	.LVL348:
 4587              		.loc 1 1882 11 is_stmt 0 view .LVU1569
 4588 0036 43F08043 		orr	r3, r3, #1073741824
 4589              	.LVL349:
1883:Drivers/STM32L4xx_HAL_Driver/Src/stm32l4xx_ll_usb.c ****     USBx_HC(i)->HCCHAR = value;
 4590              		.loc 1 1883 5 is_stmt 1 view .LVU1570
 4591              		.loc 1 1883 24 is_stmt 0 view .LVU1571
 4592 003a C1F80035 		str	r3, [r1, #1280]
1877:Drivers/STM32L4xx_HAL_Driver/Src/stm32l4xx_ll_usb.c ****   {
 4593              		.loc 1 1877 27 is_stmt 1 discriminator 3 view .LVU1572
 4594 003e 0132     		adds	r2, r2, #1
 4595              	.LVL350:
 4596              	.L287:
1877:Drivers/STM32L4xx_HAL_Driver/Src/stm32l4xx_ll_usb.c ****   {
 4597              		.loc 1 1877 18 discriminator 1 view .LVU1573
 4598 0040 0F2A     		cmp	r2, #15
 4599 0042 F2D9     		bls	.L288
1884:Drivers/STM32L4xx_HAL_Driver/Src/stm32l4xx_ll_usb.c ****   }
1885:Drivers/STM32L4xx_HAL_Driver/Src/stm32l4xx_ll_usb.c **** 
1886:Drivers/STM32L4xx_HAL_Driver/Src/stm32l4xx_ll_usb.c ****   /* Halt all channels to put them into a known state. */
1887:Drivers/STM32L4xx_HAL_Driver/Src/stm32l4xx_ll_usb.c ****   for (i = 0U; i <= 15U; i++)
 4600              		.loc 1 1887 10 is_stmt 0 view .LVU1574
 4601 0044 0021     		movs	r1, #0
 4602 0046 00E0     		b	.L289
 4603              	.LVL351:
 4604              	.L290:
 4605              		.loc 1 1887 27 is_stmt 1 discriminator 2 view .LVU1575
 4606 0048 0131     		adds	r1, r1, #1
 4607              	.LVL352:
 4608              	.L289:
 4609              		.loc 1 1887 18 discriminator 1 view .LVU1576
 4610 004a 0F29     		cmp	r1, #15
 4611 004c 16D8     		bhi	.L296
1888:Drivers/STM32L4xx_HAL_Driver/Src/stm32l4xx_ll_usb.c ****   {
1889:Drivers/STM32L4xx_HAL_Driver/Src/stm32l4xx_ll_usb.c ****     value = USBx_HC(i)->HCCHAR;
 4612              		.loc 1 1889 5 view .LVU1577
 4613              		.loc 1 1889 13 is_stmt 0 view .LVU1578
 4614 004e 04EB4110 		add	r0, r4, r1, lsl #5
 4615 0052 00F5A062 		add	r2, r0, #1280
 4616              		.loc 1 1889 11 view .LVU1579
ARM GAS  C:\Users\gigig\AppData\Local\Temp\ccWnrG0a.s 			page 134


 4617 0056 D0F80035 		ldr	r3, [r0, #1280]
 4618              	.LVL353:
1890:Drivers/STM32L4xx_HAL_Driver/Src/stm32l4xx_ll_usb.c ****     value |= USB_OTG_HCCHAR_CHDIS;
 4619              		.loc 1 1890 5 is_stmt 1 view .LVU1580
1891:Drivers/STM32L4xx_HAL_Driver/Src/stm32l4xx_ll_usb.c ****     value |= USB_OTG_HCCHAR_CHENA;
 4620              		.loc 1 1891 5 view .LVU1581
1892:Drivers/STM32L4xx_HAL_Driver/Src/stm32l4xx_ll_usb.c ****     value &= ~USB_OTG_HCCHAR_EPDIR;
 4621              		.loc 1 1892 5 view .LVU1582
 4622 005a 23F40043 		bic	r3, r3, #32768
 4623              	.LVL354:
 4624              		.loc 1 1892 11 is_stmt 0 view .LVU1583
 4625 005e 43F04043 		orr	r3, r3, #-1073741824
 4626              	.LVL355:
1893:Drivers/STM32L4xx_HAL_Driver/Src/stm32l4xx_ll_usb.c ****     USBx_HC(i)->HCCHAR = value;
 4627              		.loc 1 1893 5 is_stmt 1 view .LVU1584
 4628              		.loc 1 1893 24 is_stmt 0 view .LVU1585
 4629 0062 C0F80035 		str	r3, [r0, #1280]
 4630              	.LVL356:
 4631              	.L291:
1894:Drivers/STM32L4xx_HAL_Driver/Src/stm32l4xx_ll_usb.c **** 
1895:Drivers/STM32L4xx_HAL_Driver/Src/stm32l4xx_ll_usb.c ****     do
 4632              		.loc 1 1895 5 is_stmt 1 view .LVU1586
1896:Drivers/STM32L4xx_HAL_Driver/Src/stm32l4xx_ll_usb.c ****     {
1897:Drivers/STM32L4xx_HAL_Driver/Src/stm32l4xx_ll_usb.c ****       count++;
 4633              		.loc 1 1897 7 view .LVU1587
 4634              		.loc 1 1897 12 is_stmt 0 view .LVU1588
 4635 0066 019B     		ldr	r3, [sp, #4]
 4636 0068 0133     		adds	r3, r3, #1
 4637 006a 0193     		str	r3, [sp, #4]
1898:Drivers/STM32L4xx_HAL_Driver/Src/stm32l4xx_ll_usb.c **** 
1899:Drivers/STM32L4xx_HAL_Driver/Src/stm32l4xx_ll_usb.c ****       if (count > 1000U)
 4638              		.loc 1 1899 7 is_stmt 1 view .LVU1589
 4639              		.loc 1 1899 17 is_stmt 0 view .LVU1590
 4640 006c 019B     		ldr	r3, [sp, #4]
 4641              		.loc 1 1899 10 view .LVU1591
 4642 006e B3F57A7F 		cmp	r3, #1000
 4643 0072 E9D8     		bhi	.L290
1900:Drivers/STM32L4xx_HAL_Driver/Src/stm32l4xx_ll_usb.c ****       {
1901:Drivers/STM32L4xx_HAL_Driver/Src/stm32l4xx_ll_usb.c ****         break;
1902:Drivers/STM32L4xx_HAL_Driver/Src/stm32l4xx_ll_usb.c ****       }
1903:Drivers/STM32L4xx_HAL_Driver/Src/stm32l4xx_ll_usb.c ****     } while ((USBx_HC(i)->HCCHAR & USB_OTG_HCCHAR_CHENA) == USB_OTG_HCCHAR_CHENA);
 4644              		.loc 1 1903 58 is_stmt 1 view .LVU1592
 4645              		.loc 1 1903 25 is_stmt 0 view .LVU1593
 4646 0074 1368     		ldr	r3, [r2]
 4647              		.loc 1 1903 58 view .LVU1594
 4648 0076 002B     		cmp	r3, #0
 4649 0078 F5DB     		blt	.L291
 4650 007a E5E7     		b	.L290
 4651              	.LVL357:
 4652              	.L296:
1904:Drivers/STM32L4xx_HAL_Driver/Src/stm32l4xx_ll_usb.c ****   }
1905:Drivers/STM32L4xx_HAL_Driver/Src/stm32l4xx_ll_usb.c **** 
1906:Drivers/STM32L4xx_HAL_Driver/Src/stm32l4xx_ll_usb.c ****   /* Clear any pending Host interrupts */
1907:Drivers/STM32L4xx_HAL_Driver/Src/stm32l4xx_ll_usb.c ****   USBx_HOST->HAINT = CLEAR_INTERRUPT_MASK;
 4653              		.loc 1 1907 3 is_stmt 1 view .LVU1595
 4654              		.loc 1 1907 20 is_stmt 0 view .LVU1596
 4655 007c 4FF0FF33 		mov	r3, #-1
ARM GAS  C:\Users\gigig\AppData\Local\Temp\ccWnrG0a.s 			page 135


 4656 0080 C4F81434 		str	r3, [r4, #1044]
1908:Drivers/STM32L4xx_HAL_Driver/Src/stm32l4xx_ll_usb.c ****   USBx->GINTSTS = CLEAR_INTERRUPT_MASK;
 4657              		.loc 1 1908 3 is_stmt 1 view .LVU1597
 4658              		.loc 1 1908 17 is_stmt 0 view .LVU1598
 4659 0084 6361     		str	r3, [r4, #20]
1909:Drivers/STM32L4xx_HAL_Driver/Src/stm32l4xx_ll_usb.c **** 
1910:Drivers/STM32L4xx_HAL_Driver/Src/stm32l4xx_ll_usb.c ****   (void)USB_EnableGlobalInt(USBx);
 4660              		.loc 1 1910 3 is_stmt 1 view .LVU1599
 4661              		.loc 1 1910 9 is_stmt 0 view .LVU1600
 4662 0086 2046     		mov	r0, r4
 4663 0088 FFF7FEFF 		bl	USB_EnableGlobalInt
 4664              	.LVL358:
1911:Drivers/STM32L4xx_HAL_Driver/Src/stm32l4xx_ll_usb.c **** 
1912:Drivers/STM32L4xx_HAL_Driver/Src/stm32l4xx_ll_usb.c ****   return ret;
 4665              		.loc 1 1912 3 is_stmt 1 view .LVU1601
1913:Drivers/STM32L4xx_HAL_Driver/Src/stm32l4xx_ll_usb.c **** }
 4666              		.loc 1 1913 1 is_stmt 0 view .LVU1602
 4667 008c 2846     		mov	r0, r5
 4668 008e 03B0     		add	sp, sp, #12
 4669              		.cfi_def_cfa_offset 12
 4670              		@ sp needed
 4671 0090 30BD     		pop	{r4, r5, pc}
 4672              		.loc 1 1913 1 view .LVU1603
 4673              		.cfi_endproc
 4674              	.LFE178:
 4676              		.section	.text.USB_ActivateRemoteWakeup,"ax",%progbits
 4677              		.align	1
 4678              		.global	USB_ActivateRemoteWakeup
 4679              		.syntax unified
 4680              		.thumb
 4681              		.thumb_func
 4683              	USB_ActivateRemoteWakeup:
 4684              	.LVL359:
 4685              	.LFB179:
1914:Drivers/STM32L4xx_HAL_Driver/Src/stm32l4xx_ll_usb.c **** 
1915:Drivers/STM32L4xx_HAL_Driver/Src/stm32l4xx_ll_usb.c **** /**
1916:Drivers/STM32L4xx_HAL_Driver/Src/stm32l4xx_ll_usb.c ****   * @brief  USB_ActivateRemoteWakeup active remote wakeup signalling
1917:Drivers/STM32L4xx_HAL_Driver/Src/stm32l4xx_ll_usb.c ****   * @param  USBx Selected device
1918:Drivers/STM32L4xx_HAL_Driver/Src/stm32l4xx_ll_usb.c ****   * @retval HAL status
1919:Drivers/STM32L4xx_HAL_Driver/Src/stm32l4xx_ll_usb.c ****   */
1920:Drivers/STM32L4xx_HAL_Driver/Src/stm32l4xx_ll_usb.c **** HAL_StatusTypeDef USB_ActivateRemoteWakeup(USB_OTG_GlobalTypeDef *USBx)
1921:Drivers/STM32L4xx_HAL_Driver/Src/stm32l4xx_ll_usb.c **** {
 4686              		.loc 1 1921 1 is_stmt 1 view -0
 4687              		.cfi_startproc
 4688              		@ args = 0, pretend = 0, frame = 0
 4689              		@ frame_needed = 0, uses_anonymous_args = 0
 4690              		@ link register save eliminated.
1922:Drivers/STM32L4xx_HAL_Driver/Src/stm32l4xx_ll_usb.c ****   uint32_t USBx_BASE = (uint32_t)USBx;
 4691              		.loc 1 1922 3 view .LVU1605
1923:Drivers/STM32L4xx_HAL_Driver/Src/stm32l4xx_ll_usb.c **** 
1924:Drivers/STM32L4xx_HAL_Driver/Src/stm32l4xx_ll_usb.c ****   if ((USBx_DEVICE->DSTS & USB_OTG_DSTS_SUSPSTS) == USB_OTG_DSTS_SUSPSTS)
 4692              		.loc 1 1924 3 view .LVU1606
 4693              		.loc 1 1924 19 is_stmt 0 view .LVU1607
 4694 0000 D0F80838 		ldr	r3, [r0, #2056]
 4695              		.loc 1 1924 8 view .LVU1608
 4696 0004 00F50060 		add	r0, r0, #2048
 4697              	.LVL360:
ARM GAS  C:\Users\gigig\AppData\Local\Temp\ccWnrG0a.s 			page 136


 4698              		.loc 1 1924 6 view .LVU1609
 4699 0008 13F0010F 		tst	r3, #1
 4700 000c 03D0     		beq	.L298
1925:Drivers/STM32L4xx_HAL_Driver/Src/stm32l4xx_ll_usb.c ****   {
1926:Drivers/STM32L4xx_HAL_Driver/Src/stm32l4xx_ll_usb.c ****     /* active Remote wakeup signalling */
1927:Drivers/STM32L4xx_HAL_Driver/Src/stm32l4xx_ll_usb.c ****     USBx_DEVICE->DCTL |= USB_OTG_DCTL_RWUSIG;
 4701              		.loc 1 1927 5 is_stmt 1 view .LVU1610
 4702              		.loc 1 1927 16 is_stmt 0 view .LVU1611
 4703 000e 4368     		ldr	r3, [r0, #4]
 4704              		.loc 1 1927 23 view .LVU1612
 4705 0010 43F00103 		orr	r3, r3, #1
 4706 0014 4360     		str	r3, [r0, #4]
 4707              	.L298:
1928:Drivers/STM32L4xx_HAL_Driver/Src/stm32l4xx_ll_usb.c ****   }
1929:Drivers/STM32L4xx_HAL_Driver/Src/stm32l4xx_ll_usb.c **** 
1930:Drivers/STM32L4xx_HAL_Driver/Src/stm32l4xx_ll_usb.c ****   return HAL_OK;
 4708              		.loc 1 1930 3 is_stmt 1 view .LVU1613
1931:Drivers/STM32L4xx_HAL_Driver/Src/stm32l4xx_ll_usb.c **** }
 4709              		.loc 1 1931 1 is_stmt 0 view .LVU1614
 4710 0016 0020     		movs	r0, #0
 4711              	.LVL361:
 4712              		.loc 1 1931 1 view .LVU1615
 4713 0018 7047     		bx	lr
 4714              		.cfi_endproc
 4715              	.LFE179:
 4717              		.section	.text.USB_DeActivateRemoteWakeup,"ax",%progbits
 4718              		.align	1
 4719              		.global	USB_DeActivateRemoteWakeup
 4720              		.syntax unified
 4721              		.thumb
 4722              		.thumb_func
 4724              	USB_DeActivateRemoteWakeup:
 4725              	.LVL362:
 4726              	.LFB180:
1932:Drivers/STM32L4xx_HAL_Driver/Src/stm32l4xx_ll_usb.c **** 
1933:Drivers/STM32L4xx_HAL_Driver/Src/stm32l4xx_ll_usb.c **** /**
1934:Drivers/STM32L4xx_HAL_Driver/Src/stm32l4xx_ll_usb.c ****   * @brief  USB_DeActivateRemoteWakeup de-active remote wakeup signalling
1935:Drivers/STM32L4xx_HAL_Driver/Src/stm32l4xx_ll_usb.c ****   * @param  USBx Selected device
1936:Drivers/STM32L4xx_HAL_Driver/Src/stm32l4xx_ll_usb.c ****   * @retval HAL status
1937:Drivers/STM32L4xx_HAL_Driver/Src/stm32l4xx_ll_usb.c ****   */
1938:Drivers/STM32L4xx_HAL_Driver/Src/stm32l4xx_ll_usb.c **** HAL_StatusTypeDef USB_DeActivateRemoteWakeup(USB_OTG_GlobalTypeDef *USBx)
1939:Drivers/STM32L4xx_HAL_Driver/Src/stm32l4xx_ll_usb.c **** {
 4727              		.loc 1 1939 1 is_stmt 1 view -0
 4728              		.cfi_startproc
 4729              		@ args = 0, pretend = 0, frame = 0
 4730              		@ frame_needed = 0, uses_anonymous_args = 0
 4731              		@ link register save eliminated.
1940:Drivers/STM32L4xx_HAL_Driver/Src/stm32l4xx_ll_usb.c ****   uint32_t USBx_BASE = (uint32_t)USBx;
 4732              		.loc 1 1940 3 view .LVU1617
1941:Drivers/STM32L4xx_HAL_Driver/Src/stm32l4xx_ll_usb.c **** 
1942:Drivers/STM32L4xx_HAL_Driver/Src/stm32l4xx_ll_usb.c ****   /* active Remote wakeup signalling */
1943:Drivers/STM32L4xx_HAL_Driver/Src/stm32l4xx_ll_usb.c ****   USBx_DEVICE->DCTL &= ~(USB_OTG_DCTL_RWUSIG);
 4733              		.loc 1 1943 3 view .LVU1618
 4734              		.loc 1 1943 14 is_stmt 0 view .LVU1619
 4735 0000 D0F80438 		ldr	r3, [r0, #2052]
 4736              		.loc 1 1943 21 view .LVU1620
 4737 0004 23F00103 		bic	r3, r3, #1
ARM GAS  C:\Users\gigig\AppData\Local\Temp\ccWnrG0a.s 			page 137


 4738 0008 C0F80438 		str	r3, [r0, #2052]
1944:Drivers/STM32L4xx_HAL_Driver/Src/stm32l4xx_ll_usb.c **** 
1945:Drivers/STM32L4xx_HAL_Driver/Src/stm32l4xx_ll_usb.c ****   return HAL_OK;
 4739              		.loc 1 1945 3 is_stmt 1 view .LVU1621
1946:Drivers/STM32L4xx_HAL_Driver/Src/stm32l4xx_ll_usb.c **** }
 4740              		.loc 1 1946 1 is_stmt 0 view .LVU1622
 4741 000c 0020     		movs	r0, #0
 4742              	.LVL363:
 4743              		.loc 1 1946 1 view .LVU1623
 4744 000e 7047     		bx	lr
 4745              		.cfi_endproc
 4746              	.LFE180:
 4748              		.text
 4749              	.Letext0:
 4750              		.file 2 "C:/Users/gigig/AppData/Roaming/Code/User/globalStorage/bmd.stm32-for-vscode/@xpack-dev-to
 4751              		.file 3 "C:/Users/gigig/AppData/Roaming/Code/User/globalStorage/bmd.stm32-for-vscode/@xpack-dev-to
 4752              		.file 4 "Drivers/CMSIS/Include/cmsis_gcc.h"
 4753              		.file 5 "Drivers/CMSIS/Device/ST/STM32L4xx/Include/stm32l4r5xx.h"
 4754              		.file 6 "Drivers/STM32L4xx_HAL_Driver/Inc/stm32l4xx_hal_def.h"
 4755              		.file 7 "Drivers/STM32L4xx_HAL_Driver/Inc/stm32l4xx_ll_usb.h"
 4756              		.file 8 "Drivers/STM32L4xx_HAL_Driver/Inc/stm32l4xx_hal.h"
ARM GAS  C:\Users\gigig\AppData\Local\Temp\ccWnrG0a.s 			page 138


DEFINED SYMBOLS
                            *ABS*:00000000 stm32l4xx_ll_usb.c
C:\Users\gigig\AppData\Local\Temp\ccWnrG0a.s:21     .text.USB_CoreReset:00000000 $t
C:\Users\gigig\AppData\Local\Temp\ccWnrG0a.s:26     .text.USB_CoreReset:00000000 USB_CoreReset
C:\Users\gigig\AppData\Local\Temp\ccWnrG0a.s:119    .text.USB_CoreReset:0000004c $d
C:\Users\gigig\AppData\Local\Temp\ccWnrG0a.s:124    .text.USB_CoreInit:00000000 $t
C:\Users\gigig\AppData\Local\Temp\ccWnrG0a.s:130    .text.USB_CoreInit:00000000 USB_CoreInit
C:\Users\gigig\AppData\Local\Temp\ccWnrG0a.s:196    .text.USB_SetTurnaroundTime:00000000 $t
C:\Users\gigig\AppData\Local\Temp\ccWnrG0a.s:202    .text.USB_SetTurnaroundTime:00000000 USB_SetTurnaroundTime
C:\Users\gigig\AppData\Local\Temp\ccWnrG0a.s:355    .text.USB_SetTurnaroundTime:000000a8 $d
C:\Users\gigig\AppData\Local\Temp\ccWnrG0a.s:374    .text.USB_EnableGlobalInt:00000000 $t
C:\Users\gigig\AppData\Local\Temp\ccWnrG0a.s:380    .text.USB_EnableGlobalInt:00000000 USB_EnableGlobalInt
C:\Users\gigig\AppData\Local\Temp\ccWnrG0a.s:404    .text.USB_DisableGlobalInt:00000000 $t
C:\Users\gigig\AppData\Local\Temp\ccWnrG0a.s:410    .text.USB_DisableGlobalInt:00000000 USB_DisableGlobalInt
C:\Users\gigig\AppData\Local\Temp\ccWnrG0a.s:434    .text.USB_FlushTxFifo:00000000 $t
C:\Users\gigig\AppData\Local\Temp\ccWnrG0a.s:440    .text.USB_FlushTxFifo:00000000 USB_FlushTxFifo
C:\Users\gigig\AppData\Local\Temp\ccWnrG0a.s:535    .text.USB_FlushTxFifo:0000004c $d
C:\Users\gigig\AppData\Local\Temp\ccWnrG0a.s:540    .text.USB_FlushRxFifo:00000000 $t
C:\Users\gigig\AppData\Local\Temp\ccWnrG0a.s:546    .text.USB_FlushRxFifo:00000000 USB_FlushRxFifo
C:\Users\gigig\AppData\Local\Temp\ccWnrG0a.s:637    .text.USB_FlushRxFifo:00000048 $d
C:\Users\gigig\AppData\Local\Temp\ccWnrG0a.s:642    .text.USB_SetDevSpeed:00000000 $t
C:\Users\gigig\AppData\Local\Temp\ccWnrG0a.s:648    .text.USB_SetDevSpeed:00000000 USB_SetDevSpeed
C:\Users\gigig\AppData\Local\Temp\ccWnrG0a.s:675    .text.USB_DevInit:00000000 $t
C:\Users\gigig\AppData\Local\Temp\ccWnrG0a.s:681    .text.USB_DevInit:00000000 USB_DevInit
C:\Users\gigig\AppData\Local\Temp\ccWnrG0a.s:994    .text.USB_DevInit:0000015c $d
C:\Users\gigig\AppData\Local\Temp\ccWnrG0a.s:999    .text.USB_GetDevSpeed:00000000 $t
C:\Users\gigig\AppData\Local\Temp\ccWnrG0a.s:1005   .text.USB_GetDevSpeed:00000000 USB_GetDevSpeed
C:\Users\gigig\AppData\Local\Temp\ccWnrG0a.s:1052   .text.USB_ActivateEndpoint:00000000 $t
C:\Users\gigig\AppData\Local\Temp\ccWnrG0a.s:1058   .text.USB_ActivateEndpoint:00000000 USB_ActivateEndpoint
C:\Users\gigig\AppData\Local\Temp\ccWnrG0a.s:1173   .text.USB_ActivateDedicatedEndpoint:00000000 $t
C:\Users\gigig\AppData\Local\Temp\ccWnrG0a.s:1179   .text.USB_ActivateDedicatedEndpoint:00000000 USB_ActivateDedicatedEndpoint
C:\Users\gigig\AppData\Local\Temp\ccWnrG0a.s:1303   .text.USB_DeactivateEndpoint:00000000 $t
C:\Users\gigig\AppData\Local\Temp\ccWnrG0a.s:1309   .text.USB_DeactivateEndpoint:00000000 USB_DeactivateEndpoint
C:\Users\gigig\AppData\Local\Temp\ccWnrG0a.s:1477   .text.USB_DeactivateEndpoint:000000d8 $d
C:\Users\gigig\AppData\Local\Temp\ccWnrG0a.s:1483   .text.USB_DeactivateDedicatedEndpoint:00000000 $t
C:\Users\gigig\AppData\Local\Temp\ccWnrG0a.s:1489   .text.USB_DeactivateDedicatedEndpoint:00000000 USB_DeactivateDedicatedEndpoint
C:\Users\gigig\AppData\Local\Temp\ccWnrG0a.s:1618   .text.USB_EPStopXfer:00000000 $t
C:\Users\gigig\AppData\Local\Temp\ccWnrG0a.s:1624   .text.USB_EPStopXfer:00000000 USB_EPStopXfer
C:\Users\gigig\AppData\Local\Temp\ccWnrG0a.s:1781   .text.USB_WritePacket:00000000 $t
C:\Users\gigig\AppData\Local\Temp\ccWnrG0a.s:1787   .text.USB_WritePacket:00000000 USB_WritePacket
C:\Users\gigig\AppData\Local\Temp\ccWnrG0a.s:1848   .text.USB_EPStartXfer:00000000 $t
C:\Users\gigig\AppData\Local\Temp\ccWnrG0a.s:1854   .text.USB_EPStartXfer:00000000 USB_EPStartXfer
C:\Users\gigig\AppData\Local\Temp\ccWnrG0a.s:2225   .text.USB_EPStartXfer:000001c4 $d
C:\Users\gigig\AppData\Local\Temp\ccWnrG0a.s:2230   .text.USB_ReadPacket:00000000 $t
C:\Users\gigig\AppData\Local\Temp\ccWnrG0a.s:2236   .text.USB_ReadPacket:00000000 USB_ReadPacket
C:\Users\gigig\AppData\Local\Temp\ccWnrG0a.s:2334   .text.USB_EPSetStall:00000000 $t
C:\Users\gigig\AppData\Local\Temp\ccWnrG0a.s:2340   .text.USB_EPSetStall:00000000 USB_EPSetStall
C:\Users\gigig\AppData\Local\Temp\ccWnrG0a.s:2423   .text.USB_EPClearStall:00000000 $t
C:\Users\gigig\AppData\Local\Temp\ccWnrG0a.s:2429   .text.USB_EPClearStall:00000000 USB_EPClearStall
C:\Users\gigig\AppData\Local\Temp\ccWnrG0a.s:2514   .text.USB_StopDevice:00000000 $t
C:\Users\gigig\AppData\Local\Temp\ccWnrG0a.s:2520   .text.USB_StopDevice:00000000 USB_StopDevice
C:\Users\gigig\AppData\Local\Temp\ccWnrG0a.s:2601   .text.USB_SetDevAddress:00000000 $t
C:\Users\gigig\AppData\Local\Temp\ccWnrG0a.s:2607   .text.USB_SetDevAddress:00000000 USB_SetDevAddress
C:\Users\gigig\AppData\Local\Temp\ccWnrG0a.s:2643   .text.USB_DevConnect:00000000 $t
C:\Users\gigig\AppData\Local\Temp\ccWnrG0a.s:2649   .text.USB_DevConnect:00000000 USB_DevConnect
C:\Users\gigig\AppData\Local\Temp\ccWnrG0a.s:2679   .text.USB_DevDisconnect:00000000 $t
C:\Users\gigig\AppData\Local\Temp\ccWnrG0a.s:2685   .text.USB_DevDisconnect:00000000 USB_DevDisconnect
ARM GAS  C:\Users\gigig\AppData\Local\Temp\ccWnrG0a.s 			page 139


C:\Users\gigig\AppData\Local\Temp\ccWnrG0a.s:2715   .text.USB_ReadInterrupts:00000000 $t
C:\Users\gigig\AppData\Local\Temp\ccWnrG0a.s:2721   .text.USB_ReadInterrupts:00000000 USB_ReadInterrupts
C:\Users\gigig\AppData\Local\Temp\ccWnrG0a.s:2748   .text.USB_ReadChInterrupts:00000000 $t
C:\Users\gigig\AppData\Local\Temp\ccWnrG0a.s:2754   .text.USB_ReadChInterrupts:00000000 USB_ReadChInterrupts
C:\Users\gigig\AppData\Local\Temp\ccWnrG0a.s:2787   .text.USB_ReadDevAllOutEpInterrupt:00000000 $t
C:\Users\gigig\AppData\Local\Temp\ccWnrG0a.s:2793   .text.USB_ReadDevAllOutEpInterrupt:00000000 USB_ReadDevAllOutEpInterrupt
C:\Users\gigig\AppData\Local\Temp\ccWnrG0a.s:2826   .text.USB_ReadDevAllInEpInterrupt:00000000 $t
C:\Users\gigig\AppData\Local\Temp\ccWnrG0a.s:2832   .text.USB_ReadDevAllInEpInterrupt:00000000 USB_ReadDevAllInEpInterrupt
C:\Users\gigig\AppData\Local\Temp\ccWnrG0a.s:2865   .text.USB_ReadDevOutEPInterrupt:00000000 $t
C:\Users\gigig\AppData\Local\Temp\ccWnrG0a.s:2871   .text.USB_ReadDevOutEPInterrupt:00000000 USB_ReadDevOutEPInterrupt
C:\Users\gigig\AppData\Local\Temp\ccWnrG0a.s:2905   .text.USB_ReadDevInEPInterrupt:00000000 $t
C:\Users\gigig\AppData\Local\Temp\ccWnrG0a.s:2911   .text.USB_ReadDevInEPInterrupt:00000000 USB_ReadDevInEPInterrupt
C:\Users\gigig\AppData\Local\Temp\ccWnrG0a.s:2962   .text.USB_ClearInterrupts:00000000 $t
C:\Users\gigig\AppData\Local\Temp\ccWnrG0a.s:2968   .text.USB_ClearInterrupts:00000000 USB_ClearInterrupts
C:\Users\gigig\AppData\Local\Temp\ccWnrG0a.s:2988   .text.USB_GetMode:00000000 $t
C:\Users\gigig\AppData\Local\Temp\ccWnrG0a.s:2994   .text.USB_GetMode:00000000 USB_GetMode
C:\Users\gigig\AppData\Local\Temp\ccWnrG0a.s:3013   .text.USB_SetCurrentMode:00000000 $t
C:\Users\gigig\AppData\Local\Temp\ccWnrG0a.s:3019   .text.USB_SetCurrentMode:00000000 USB_SetCurrentMode
C:\Users\gigig\AppData\Local\Temp\ccWnrG0a.s:3138   .text.USB_ActivateSetup:00000000 $t
C:\Users\gigig\AppData\Local\Temp\ccWnrG0a.s:3144   .text.USB_ActivateSetup:00000000 USB_ActivateSetup
C:\Users\gigig\AppData\Local\Temp\ccWnrG0a.s:3175   .text.USB_EP0_OutStart:00000000 $t
C:\Users\gigig\AppData\Local\Temp\ccWnrG0a.s:3181   .text.USB_EP0_OutStart:00000000 USB_EP0_OutStart
C:\Users\gigig\AppData\Local\Temp\ccWnrG0a.s:3239   .text.USB_EP0_OutStart:00000040 $d
C:\Users\gigig\AppData\Local\Temp\ccWnrG0a.s:3244   .text.USB_HostInit:00000000 $t
C:\Users\gigig\AppData\Local\Temp\ccWnrG0a.s:3250   .text.USB_HostInit:00000000 USB_HostInit
C:\Users\gigig\AppData\Local\Temp\ccWnrG0a.s:3395   .text.USB_HostInit:00000098 $d
C:\Users\gigig\AppData\Local\Temp\ccWnrG0a.s:3401   .text.USB_InitFSLSPClkSel:00000000 $t
C:\Users\gigig\AppData\Local\Temp\ccWnrG0a.s:3407   .text.USB_InitFSLSPClkSel:00000000 USB_InitFSLSPClkSel
C:\Users\gigig\AppData\Local\Temp\ccWnrG0a.s:3470   .text.USB_ResetPort:00000000 $t
C:\Users\gigig\AppData\Local\Temp\ccWnrG0a.s:3476   .text.USB_ResetPort:00000000 USB_ResetPort
C:\Users\gigig\AppData\Local\Temp\ccWnrG0a.s:3542   .text.USB_DriveVbus:00000000 $t
C:\Users\gigig\AppData\Local\Temp\ccWnrG0a.s:3548   .text.USB_DriveVbus:00000000 USB_DriveVbus
C:\Users\gigig\AppData\Local\Temp\ccWnrG0a.s:3624   .text.USB_GetHostSpeed:00000000 $t
C:\Users\gigig\AppData\Local\Temp\ccWnrG0a.s:3630   .text.USB_GetHostSpeed:00000000 USB_GetHostSpeed
C:\Users\gigig\AppData\Local\Temp\ccWnrG0a.s:3666   .text.USB_GetCurrentFrame:00000000 $t
C:\Users\gigig\AppData\Local\Temp\ccWnrG0a.s:3672   .text.USB_GetCurrentFrame:00000000 USB_GetCurrentFrame
C:\Users\gigig\AppData\Local\Temp\ccWnrG0a.s:3695   .text.USB_HC_Init:00000000 $t
C:\Users\gigig\AppData\Local\Temp\ccWnrG0a.s:3701   .text.USB_HC_Init:00000000 USB_HC_Init
C:\Users\gigig\AppData\Local\Temp\ccWnrG0a.s:3742   .text.USB_HC_Init:00000022 $d
C:\Users\gigig\AppData\Local\Temp\ccWnrG0a.s:3746   .text.USB_HC_Init:00000026 $t
C:\Users\gigig\AppData\Local\Temp\ccWnrG0a.s:3936   .text.USB_HC_StartXfer:00000000 $t
C:\Users\gigig\AppData\Local\Temp\ccWnrG0a.s:3942   .text.USB_HC_StartXfer:00000000 USB_HC_StartXfer
C:\Users\gigig\AppData\Local\Temp\ccWnrG0a.s:4114   .text.USB_HC_StartXfer:000000cc $d
C:\Users\gigig\AppData\Local\Temp\ccWnrG0a.s:4118   .text.USB_HC_StartXfer:000000d0 $t
C:\Users\gigig\AppData\Local\Temp\ccWnrG0a.s:4205   .text.USB_HC_StartXfer:0000011c $d
C:\Users\gigig\AppData\Local\Temp\ccWnrG0a.s:4210   .text.USB_HC_ReadInterrupt:00000000 $t
C:\Users\gigig\AppData\Local\Temp\ccWnrG0a.s:4216   .text.USB_HC_ReadInterrupt:00000000 USB_HC_ReadInterrupt
C:\Users\gigig\AppData\Local\Temp\ccWnrG0a.s:4239   .text.USB_HC_Halt:00000000 $t
C:\Users\gigig\AppData\Local\Temp\ccWnrG0a.s:4245   .text.USB_HC_Halt:00000000 USB_HC_Halt
C:\Users\gigig\AppData\Local\Temp\ccWnrG0a.s:4459   .text.USB_DoPing:00000000 $t
C:\Users\gigig\AppData\Local\Temp\ccWnrG0a.s:4465   .text.USB_DoPing:00000000 USB_DoPing
C:\Users\gigig\AppData\Local\Temp\ccWnrG0a.s:4505   .text.USB_DoPing:00000020 $d
C:\Users\gigig\AppData\Local\Temp\ccWnrG0a.s:4510   .text.USB_StopHost:00000000 $t
C:\Users\gigig\AppData\Local\Temp\ccWnrG0a.s:4516   .text.USB_StopHost:00000000 USB_StopHost
C:\Users\gigig\AppData\Local\Temp\ccWnrG0a.s:4677   .text.USB_ActivateRemoteWakeup:00000000 $t
C:\Users\gigig\AppData\Local\Temp\ccWnrG0a.s:4683   .text.USB_ActivateRemoteWakeup:00000000 USB_ActivateRemoteWakeup
C:\Users\gigig\AppData\Local\Temp\ccWnrG0a.s:4718   .text.USB_DeActivateRemoteWakeup:00000000 $t
ARM GAS  C:\Users\gigig\AppData\Local\Temp\ccWnrG0a.s 			page 140


C:\Users\gigig\AppData\Local\Temp\ccWnrG0a.s:4724   .text.USB_DeActivateRemoteWakeup:00000000 USB_DeActivateRemoteWakeup

UNDEFINED SYMBOLS
HAL_Delay
