ARM GAS  C:\Users\gigig\AppData\Local\Temp\cczsSJ5Z.s 			page 1


   1              		.cpu cortex-m4
   2              		.arch armv7e-m
   3              		.fpu fpv4-sp-d16
   4              		.eabi_attribute 27, 1
   5              		.eabi_attribute 28, 1
   6              		.eabi_attribute 20, 1
   7              		.eabi_attribute 21, 1
   8              		.eabi_attribute 23, 3
   9              		.eabi_attribute 24, 1
  10              		.eabi_attribute 25, 1
  11              		.eabi_attribute 26, 1
  12              		.eabi_attribute 30, 1
  13              		.eabi_attribute 34, 1
  14              		.eabi_attribute 18, 4
  15              		.file	"stm32l4xx_hal_pwr_ex.c"
  16              		.text
  17              	.Ltext0:
  18              		.cfi_sections	.debug_frame
  19              		.file 1 "Drivers/STM32L4xx_HAL_Driver/Src/stm32l4xx_hal_pwr_ex.c"
  20              		.section	.text.HAL_PWREx_GetVoltageRange,"ax",%progbits
  21              		.align	1
  22              		.global	HAL_PWREx_GetVoltageRange
  23              		.syntax unified
  24              		.thumb
  25              		.thumb_func
  27              	HAL_PWREx_GetVoltageRange:
  28              	.LFB132:
   1:Drivers/STM32L4xx_HAL_Driver/Src/stm32l4xx_hal_pwr_ex.c **** /**
   2:Drivers/STM32L4xx_HAL_Driver/Src/stm32l4xx_hal_pwr_ex.c ****   ******************************************************************************
   3:Drivers/STM32L4xx_HAL_Driver/Src/stm32l4xx_hal_pwr_ex.c ****   * @file    stm32l4xx_hal_pwr_ex.c
   4:Drivers/STM32L4xx_HAL_Driver/Src/stm32l4xx_hal_pwr_ex.c ****   * @author  MCD Application Team
   5:Drivers/STM32L4xx_HAL_Driver/Src/stm32l4xx_hal_pwr_ex.c ****   * @brief   Extended PWR HAL module driver.
   6:Drivers/STM32L4xx_HAL_Driver/Src/stm32l4xx_hal_pwr_ex.c ****   *          This file provides firmware functions to manage the following
   7:Drivers/STM32L4xx_HAL_Driver/Src/stm32l4xx_hal_pwr_ex.c ****   *          functionalities of the Power Controller (PWR) peripheral:
   8:Drivers/STM32L4xx_HAL_Driver/Src/stm32l4xx_hal_pwr_ex.c ****   *           + Extended Initialization and de-initialization functions
   9:Drivers/STM32L4xx_HAL_Driver/Src/stm32l4xx_hal_pwr_ex.c ****   *           + Extended Peripheral Control functions
  10:Drivers/STM32L4xx_HAL_Driver/Src/stm32l4xx_hal_pwr_ex.c ****   *
  11:Drivers/STM32L4xx_HAL_Driver/Src/stm32l4xx_hal_pwr_ex.c ****   ******************************************************************************
  12:Drivers/STM32L4xx_HAL_Driver/Src/stm32l4xx_hal_pwr_ex.c ****   * @attention
  13:Drivers/STM32L4xx_HAL_Driver/Src/stm32l4xx_hal_pwr_ex.c ****   *
  14:Drivers/STM32L4xx_HAL_Driver/Src/stm32l4xx_hal_pwr_ex.c ****   * Copyright (c) 2017 STMicroelectronics.
  15:Drivers/STM32L4xx_HAL_Driver/Src/stm32l4xx_hal_pwr_ex.c ****   * All rights reserved.
  16:Drivers/STM32L4xx_HAL_Driver/Src/stm32l4xx_hal_pwr_ex.c ****   *
  17:Drivers/STM32L4xx_HAL_Driver/Src/stm32l4xx_hal_pwr_ex.c ****   * This software is licensed under terms that can be found in the LICENSE file
  18:Drivers/STM32L4xx_HAL_Driver/Src/stm32l4xx_hal_pwr_ex.c ****   * in the root directory of this software component.
  19:Drivers/STM32L4xx_HAL_Driver/Src/stm32l4xx_hal_pwr_ex.c ****   * If no LICENSE file comes with this software, it is provided AS-IS.
  20:Drivers/STM32L4xx_HAL_Driver/Src/stm32l4xx_hal_pwr_ex.c ****   *
  21:Drivers/STM32L4xx_HAL_Driver/Src/stm32l4xx_hal_pwr_ex.c ****   ******************************************************************************
  22:Drivers/STM32L4xx_HAL_Driver/Src/stm32l4xx_hal_pwr_ex.c ****   */
  23:Drivers/STM32L4xx_HAL_Driver/Src/stm32l4xx_hal_pwr_ex.c **** 
  24:Drivers/STM32L4xx_HAL_Driver/Src/stm32l4xx_hal_pwr_ex.c **** /* Includes ------------------------------------------------------------------*/
  25:Drivers/STM32L4xx_HAL_Driver/Src/stm32l4xx_hal_pwr_ex.c **** #include "stm32l4xx_hal.h"
  26:Drivers/STM32L4xx_HAL_Driver/Src/stm32l4xx_hal_pwr_ex.c **** 
  27:Drivers/STM32L4xx_HAL_Driver/Src/stm32l4xx_hal_pwr_ex.c **** /** @addtogroup STM32L4xx_HAL_Driver
  28:Drivers/STM32L4xx_HAL_Driver/Src/stm32l4xx_hal_pwr_ex.c ****   * @{
  29:Drivers/STM32L4xx_HAL_Driver/Src/stm32l4xx_hal_pwr_ex.c ****   */
  30:Drivers/STM32L4xx_HAL_Driver/Src/stm32l4xx_hal_pwr_ex.c **** 
ARM GAS  C:\Users\gigig\AppData\Local\Temp\cczsSJ5Z.s 			page 2


  31:Drivers/STM32L4xx_HAL_Driver/Src/stm32l4xx_hal_pwr_ex.c **** /** @defgroup PWREx PWREx
  32:Drivers/STM32L4xx_HAL_Driver/Src/stm32l4xx_hal_pwr_ex.c ****   * @brief PWR Extended HAL module driver
  33:Drivers/STM32L4xx_HAL_Driver/Src/stm32l4xx_hal_pwr_ex.c ****   * @{
  34:Drivers/STM32L4xx_HAL_Driver/Src/stm32l4xx_hal_pwr_ex.c ****   */
  35:Drivers/STM32L4xx_HAL_Driver/Src/stm32l4xx_hal_pwr_ex.c **** 
  36:Drivers/STM32L4xx_HAL_Driver/Src/stm32l4xx_hal_pwr_ex.c **** #ifdef HAL_PWR_MODULE_ENABLED
  37:Drivers/STM32L4xx_HAL_Driver/Src/stm32l4xx_hal_pwr_ex.c **** 
  38:Drivers/STM32L4xx_HAL_Driver/Src/stm32l4xx_hal_pwr_ex.c **** /* Private typedef -----------------------------------------------------------*/
  39:Drivers/STM32L4xx_HAL_Driver/Src/stm32l4xx_hal_pwr_ex.c **** /* Private define ------------------------------------------------------------*/
  40:Drivers/STM32L4xx_HAL_Driver/Src/stm32l4xx_hal_pwr_ex.c **** 
  41:Drivers/STM32L4xx_HAL_Driver/Src/stm32l4xx_hal_pwr_ex.c **** #if defined (STM32L412xx) || defined (STM32L422xx) || defined (STM32L431xx) || defined (STM32L432xx
  42:Drivers/STM32L4xx_HAL_Driver/Src/stm32l4xx_hal_pwr_ex.c **** #define PWR_PORTH_AVAILABLE_PINS   ((uint32_t)0x0000000B) /* PH0/PH1/PH3 */
  43:Drivers/STM32L4xx_HAL_Driver/Src/stm32l4xx_hal_pwr_ex.c **** #elif defined (STM32L451xx) || defined (STM32L452xx) || defined (STM32L462xx)
  44:Drivers/STM32L4xx_HAL_Driver/Src/stm32l4xx_hal_pwr_ex.c **** #define PWR_PORTH_AVAILABLE_PINS   ((uint32_t)0x0000000B) /* PH0/PH1/PH3 */
  45:Drivers/STM32L4xx_HAL_Driver/Src/stm32l4xx_hal_pwr_ex.c **** #elif defined (STM32L471xx) || defined (STM32L475xx) || defined (STM32L476xx) || defined (STM32L485
  46:Drivers/STM32L4xx_HAL_Driver/Src/stm32l4xx_hal_pwr_ex.c **** #define PWR_PORTH_AVAILABLE_PINS   ((uint32_t)0x00000003) /* PH0/PH1 */
  47:Drivers/STM32L4xx_HAL_Driver/Src/stm32l4xx_hal_pwr_ex.c **** #elif defined (STM32L496xx) || defined (STM32L4A6xx) || defined (STM32L4P5xx) || defined (STM32L4Q5
  48:Drivers/STM32L4xx_HAL_Driver/Src/stm32l4xx_hal_pwr_ex.c **** #define PWR_PORTH_AVAILABLE_PINS   ((uint32_t)0x0000FFFF) /* PH0..PH15 */
  49:Drivers/STM32L4xx_HAL_Driver/Src/stm32l4xx_hal_pwr_ex.c **** #endif
  50:Drivers/STM32L4xx_HAL_Driver/Src/stm32l4xx_hal_pwr_ex.c **** 
  51:Drivers/STM32L4xx_HAL_Driver/Src/stm32l4xx_hal_pwr_ex.c **** #if defined (STM32L496xx) || defined (STM32L4A6xx) || defined (STM32L4P5xx) || defined (STM32L4Q5xx
  52:Drivers/STM32L4xx_HAL_Driver/Src/stm32l4xx_hal_pwr_ex.c **** #define PWR_PORTI_AVAILABLE_PINS   ((uint32_t)0x00000FFF) /* PI0..PI11 */
  53:Drivers/STM32L4xx_HAL_Driver/Src/stm32l4xx_hal_pwr_ex.c **** #endif
  54:Drivers/STM32L4xx_HAL_Driver/Src/stm32l4xx_hal_pwr_ex.c **** 
  55:Drivers/STM32L4xx_HAL_Driver/Src/stm32l4xx_hal_pwr_ex.c **** /** @defgroup PWR_Extended_Private_Defines PWR Extended Private Defines
  56:Drivers/STM32L4xx_HAL_Driver/Src/stm32l4xx_hal_pwr_ex.c ****   * @{
  57:Drivers/STM32L4xx_HAL_Driver/Src/stm32l4xx_hal_pwr_ex.c ****   */
  58:Drivers/STM32L4xx_HAL_Driver/Src/stm32l4xx_hal_pwr_ex.c **** 
  59:Drivers/STM32L4xx_HAL_Driver/Src/stm32l4xx_hal_pwr_ex.c **** /** @defgroup PWREx_PVM_Mode_Mask PWR PVM Mode Mask
  60:Drivers/STM32L4xx_HAL_Driver/Src/stm32l4xx_hal_pwr_ex.c ****   * @{
  61:Drivers/STM32L4xx_HAL_Driver/Src/stm32l4xx_hal_pwr_ex.c ****   */
  62:Drivers/STM32L4xx_HAL_Driver/Src/stm32l4xx_hal_pwr_ex.c **** #define PVM_MODE_IT               ((uint32_t)0x00010000)  /*!< Mask for interruption yielded by PVM
  63:Drivers/STM32L4xx_HAL_Driver/Src/stm32l4xx_hal_pwr_ex.c **** #define PVM_MODE_EVT              ((uint32_t)0x00020000)  /*!< Mask for event yielded by PVM thresh
  64:Drivers/STM32L4xx_HAL_Driver/Src/stm32l4xx_hal_pwr_ex.c **** #define PVM_RISING_EDGE           ((uint32_t)0x00000001)  /*!< Mask for rising edge set as PVM trig
  65:Drivers/STM32L4xx_HAL_Driver/Src/stm32l4xx_hal_pwr_ex.c **** #define PVM_FALLING_EDGE          ((uint32_t)0x00000002)  /*!< Mask for falling edge set as PVM tri
  66:Drivers/STM32L4xx_HAL_Driver/Src/stm32l4xx_hal_pwr_ex.c **** /**
  67:Drivers/STM32L4xx_HAL_Driver/Src/stm32l4xx_hal_pwr_ex.c ****   * @}
  68:Drivers/STM32L4xx_HAL_Driver/Src/stm32l4xx_hal_pwr_ex.c ****   */
  69:Drivers/STM32L4xx_HAL_Driver/Src/stm32l4xx_hal_pwr_ex.c **** 
  70:Drivers/STM32L4xx_HAL_Driver/Src/stm32l4xx_hal_pwr_ex.c **** /** @defgroup PWREx_TimeOut_Value PWR Extended Flag Setting Time Out Value
  71:Drivers/STM32L4xx_HAL_Driver/Src/stm32l4xx_hal_pwr_ex.c ****   * @{
  72:Drivers/STM32L4xx_HAL_Driver/Src/stm32l4xx_hal_pwr_ex.c ****   */
  73:Drivers/STM32L4xx_HAL_Driver/Src/stm32l4xx_hal_pwr_ex.c **** #define PWR_FLAG_SETTING_DELAY_US                      50UL   /*!< Time out value for REGLPF and VO
  74:Drivers/STM32L4xx_HAL_Driver/Src/stm32l4xx_hal_pwr_ex.c **** /**
  75:Drivers/STM32L4xx_HAL_Driver/Src/stm32l4xx_hal_pwr_ex.c ****   * @}
  76:Drivers/STM32L4xx_HAL_Driver/Src/stm32l4xx_hal_pwr_ex.c ****   */
  77:Drivers/STM32L4xx_HAL_Driver/Src/stm32l4xx_hal_pwr_ex.c **** 
  78:Drivers/STM32L4xx_HAL_Driver/Src/stm32l4xx_hal_pwr_ex.c **** 
  79:Drivers/STM32L4xx_HAL_Driver/Src/stm32l4xx_hal_pwr_ex.c **** 
  80:Drivers/STM32L4xx_HAL_Driver/Src/stm32l4xx_hal_pwr_ex.c **** /**
  81:Drivers/STM32L4xx_HAL_Driver/Src/stm32l4xx_hal_pwr_ex.c ****   * @}
  82:Drivers/STM32L4xx_HAL_Driver/Src/stm32l4xx_hal_pwr_ex.c ****   */
  83:Drivers/STM32L4xx_HAL_Driver/Src/stm32l4xx_hal_pwr_ex.c **** 
  84:Drivers/STM32L4xx_HAL_Driver/Src/stm32l4xx_hal_pwr_ex.c **** 
  85:Drivers/STM32L4xx_HAL_Driver/Src/stm32l4xx_hal_pwr_ex.c **** 
  86:Drivers/STM32L4xx_HAL_Driver/Src/stm32l4xx_hal_pwr_ex.c **** /* Private macro -------------------------------------------------------------*/
  87:Drivers/STM32L4xx_HAL_Driver/Src/stm32l4xx_hal_pwr_ex.c **** /* Private variables ---------------------------------------------------------*/
ARM GAS  C:\Users\gigig\AppData\Local\Temp\cczsSJ5Z.s 			page 3


  88:Drivers/STM32L4xx_HAL_Driver/Src/stm32l4xx_hal_pwr_ex.c **** /* Private function prototypes -----------------------------------------------*/
  89:Drivers/STM32L4xx_HAL_Driver/Src/stm32l4xx_hal_pwr_ex.c **** /* Exported functions --------------------------------------------------------*/
  90:Drivers/STM32L4xx_HAL_Driver/Src/stm32l4xx_hal_pwr_ex.c **** 
  91:Drivers/STM32L4xx_HAL_Driver/Src/stm32l4xx_hal_pwr_ex.c **** /** @defgroup PWREx_Exported_Functions PWR Extended Exported Functions
  92:Drivers/STM32L4xx_HAL_Driver/Src/stm32l4xx_hal_pwr_ex.c ****   * @{
  93:Drivers/STM32L4xx_HAL_Driver/Src/stm32l4xx_hal_pwr_ex.c ****   */
  94:Drivers/STM32L4xx_HAL_Driver/Src/stm32l4xx_hal_pwr_ex.c **** 
  95:Drivers/STM32L4xx_HAL_Driver/Src/stm32l4xx_hal_pwr_ex.c **** /** @defgroup PWREx_Exported_Functions_Group1 Extended Peripheral Control functions
  96:Drivers/STM32L4xx_HAL_Driver/Src/stm32l4xx_hal_pwr_ex.c ****   *  @brief   Extended Peripheral Control functions
  97:Drivers/STM32L4xx_HAL_Driver/Src/stm32l4xx_hal_pwr_ex.c ****   *
  98:Drivers/STM32L4xx_HAL_Driver/Src/stm32l4xx_hal_pwr_ex.c **** @verbatim
  99:Drivers/STM32L4xx_HAL_Driver/Src/stm32l4xx_hal_pwr_ex.c ****  ===============================================================================
 100:Drivers/STM32L4xx_HAL_Driver/Src/stm32l4xx_hal_pwr_ex.c ****               ##### Extended Peripheral Initialization and de-initialization functions #####
 101:Drivers/STM32L4xx_HAL_Driver/Src/stm32l4xx_hal_pwr_ex.c ****  ===============================================================================
 102:Drivers/STM32L4xx_HAL_Driver/Src/stm32l4xx_hal_pwr_ex.c ****     [..]
 103:Drivers/STM32L4xx_HAL_Driver/Src/stm32l4xx_hal_pwr_ex.c **** 
 104:Drivers/STM32L4xx_HAL_Driver/Src/stm32l4xx_hal_pwr_ex.c **** @endverbatim
 105:Drivers/STM32L4xx_HAL_Driver/Src/stm32l4xx_hal_pwr_ex.c ****   * @{
 106:Drivers/STM32L4xx_HAL_Driver/Src/stm32l4xx_hal_pwr_ex.c ****   */
 107:Drivers/STM32L4xx_HAL_Driver/Src/stm32l4xx_hal_pwr_ex.c **** 
 108:Drivers/STM32L4xx_HAL_Driver/Src/stm32l4xx_hal_pwr_ex.c **** 
 109:Drivers/STM32L4xx_HAL_Driver/Src/stm32l4xx_hal_pwr_ex.c **** /**
 110:Drivers/STM32L4xx_HAL_Driver/Src/stm32l4xx_hal_pwr_ex.c ****   * @brief Return Voltage Scaling Range.
 111:Drivers/STM32L4xx_HAL_Driver/Src/stm32l4xx_hal_pwr_ex.c ****   * @retval VOS bit field (PWR_REGULATOR_VOLTAGE_SCALE1 or PWR_REGULATOR_VOLTAGE_SCALE2
 112:Drivers/STM32L4xx_HAL_Driver/Src/stm32l4xx_hal_pwr_ex.c ****   *         or PWR_REGULATOR_VOLTAGE_SCALE1_BOOST when applicable)
 113:Drivers/STM32L4xx_HAL_Driver/Src/stm32l4xx_hal_pwr_ex.c ****   */
 114:Drivers/STM32L4xx_HAL_Driver/Src/stm32l4xx_hal_pwr_ex.c **** uint32_t HAL_PWREx_GetVoltageRange(void)
 115:Drivers/STM32L4xx_HAL_Driver/Src/stm32l4xx_hal_pwr_ex.c **** {
  29              		.loc 1 115 1 view -0
  30              		.cfi_startproc
  31              		@ args = 0, pretend = 0, frame = 0
  32              		@ frame_needed = 0, uses_anonymous_args = 0
  33              		@ link register save eliminated.
 116:Drivers/STM32L4xx_HAL_Driver/Src/stm32l4xx_hal_pwr_ex.c **** #if defined(PWR_CR5_R1MODE)
 117:Drivers/STM32L4xx_HAL_Driver/Src/stm32l4xx_hal_pwr_ex.c ****     if (READ_BIT(PWR->CR1, PWR_CR1_VOS) == PWR_REGULATOR_VOLTAGE_SCALE2)
  34              		.loc 1 117 5 view .LVU1
  35              		.loc 1 117 9 is_stmt 0 view .LVU2
  36 0000 074B     		ldr	r3, .L4
  37 0002 1868     		ldr	r0, [r3]
  38 0004 00F4C060 		and	r0, r0, #1536
  39              		.loc 1 117 8 view .LVU3
  40 0008 B0F5806F 		cmp	r0, #1024
  41 000c 04D0     		beq	.L1
 118:Drivers/STM32L4xx_HAL_Driver/Src/stm32l4xx_hal_pwr_ex.c ****     {
 119:Drivers/STM32L4xx_HAL_Driver/Src/stm32l4xx_hal_pwr_ex.c ****       return PWR_REGULATOR_VOLTAGE_SCALE2;
 120:Drivers/STM32L4xx_HAL_Driver/Src/stm32l4xx_hal_pwr_ex.c ****     }
 121:Drivers/STM32L4xx_HAL_Driver/Src/stm32l4xx_hal_pwr_ex.c ****     else if (READ_BIT(PWR->CR5, PWR_CR5_R1MODE) == PWR_CR5_R1MODE)
  42              		.loc 1 121 10 is_stmt 1 view .LVU4
  43              		.loc 1 121 14 is_stmt 0 view .LVU5
  44 000e D3F88000 		ldr	r0, [r3, #128]
  45              		.loc 1 121 13 view .LVU6
  46 0012 10F48070 		ands	r0, r0, #256
  47 0016 00D1     		bne	.L3
  48              	.L1:
 122:Drivers/STM32L4xx_HAL_Driver/Src/stm32l4xx_hal_pwr_ex.c ****     {
 123:Drivers/STM32L4xx_HAL_Driver/Src/stm32l4xx_hal_pwr_ex.c ****       /* PWR_CR5_R1MODE bit set means that Range 1 Boost is disabled */
 124:Drivers/STM32L4xx_HAL_Driver/Src/stm32l4xx_hal_pwr_ex.c ****       return PWR_REGULATOR_VOLTAGE_SCALE1;
ARM GAS  C:\Users\gigig\AppData\Local\Temp\cczsSJ5Z.s 			page 4


 125:Drivers/STM32L4xx_HAL_Driver/Src/stm32l4xx_hal_pwr_ex.c ****     }
 126:Drivers/STM32L4xx_HAL_Driver/Src/stm32l4xx_hal_pwr_ex.c ****     else
 127:Drivers/STM32L4xx_HAL_Driver/Src/stm32l4xx_hal_pwr_ex.c ****     {
 128:Drivers/STM32L4xx_HAL_Driver/Src/stm32l4xx_hal_pwr_ex.c ****       return PWR_REGULATOR_VOLTAGE_SCALE1_BOOST;
 129:Drivers/STM32L4xx_HAL_Driver/Src/stm32l4xx_hal_pwr_ex.c ****     }
 130:Drivers/STM32L4xx_HAL_Driver/Src/stm32l4xx_hal_pwr_ex.c **** #else
 131:Drivers/STM32L4xx_HAL_Driver/Src/stm32l4xx_hal_pwr_ex.c ****   return  (PWR->CR1 & PWR_CR1_VOS);
 132:Drivers/STM32L4xx_HAL_Driver/Src/stm32l4xx_hal_pwr_ex.c **** #endif
 133:Drivers/STM32L4xx_HAL_Driver/Src/stm32l4xx_hal_pwr_ex.c **** }
  49              		.loc 1 133 1 view .LVU7
  50 0018 7047     		bx	lr
  51              	.L3:
 124:Drivers/STM32L4xx_HAL_Driver/Src/stm32l4xx_hal_pwr_ex.c ****     }
  52              		.loc 1 124 14 view .LVU8
  53 001a 4FF40070 		mov	r0, #512
  54 001e FBE7     		b	.L1
  55              	.L5:
  56              		.align	2
  57              	.L4:
  58 0020 00700040 		.word	1073770496
  59              		.cfi_endproc
  60              	.LFE132:
  62              		.section	.text.HAL_PWREx_ControlVoltageScaling,"ax",%progbits
  63              		.align	1
  64              		.global	HAL_PWREx_ControlVoltageScaling
  65              		.syntax unified
  66              		.thumb
  67              		.thumb_func
  69              	HAL_PWREx_ControlVoltageScaling:
  70              	.LVL0:
  71              	.LFB133:
 134:Drivers/STM32L4xx_HAL_Driver/Src/stm32l4xx_hal_pwr_ex.c **** 
 135:Drivers/STM32L4xx_HAL_Driver/Src/stm32l4xx_hal_pwr_ex.c **** 
 136:Drivers/STM32L4xx_HAL_Driver/Src/stm32l4xx_hal_pwr_ex.c **** 
 137:Drivers/STM32L4xx_HAL_Driver/Src/stm32l4xx_hal_pwr_ex.c **** /**
 138:Drivers/STM32L4xx_HAL_Driver/Src/stm32l4xx_hal_pwr_ex.c ****   * @brief Configure the main internal regulator output voltage.
 139:Drivers/STM32L4xx_HAL_Driver/Src/stm32l4xx_hal_pwr_ex.c ****   * @param  VoltageScaling specifies the regulator output voltage to achieve
 140:Drivers/STM32L4xx_HAL_Driver/Src/stm32l4xx_hal_pwr_ex.c ****   *         a tradeoff between performance and power consumption.
 141:Drivers/STM32L4xx_HAL_Driver/Src/stm32l4xx_hal_pwr_ex.c ****   *          This parameter can be one of the following values:
 142:Drivers/STM32L4xx_HAL_Driver/Src/stm32l4xx_hal_pwr_ex.c ****   @if STM32L4S9xx
 143:Drivers/STM32L4xx_HAL_Driver/Src/stm32l4xx_hal_pwr_ex.c ****   *            @arg @ref PWR_REGULATOR_VOLTAGE_SCALE1_BOOST when available, Regulator voltage outpu
 144:Drivers/STM32L4xx_HAL_Driver/Src/stm32l4xx_hal_pwr_ex.c ****   *                                                typical output voltage at 1.2 V,
 145:Drivers/STM32L4xx_HAL_Driver/Src/stm32l4xx_hal_pwr_ex.c ****   *                                                system frequency up to 120 MHz.
 146:Drivers/STM32L4xx_HAL_Driver/Src/stm32l4xx_hal_pwr_ex.c ****   @endif
 147:Drivers/STM32L4xx_HAL_Driver/Src/stm32l4xx_hal_pwr_ex.c ****   *            @arg @ref PWR_REGULATOR_VOLTAGE_SCALE1 Regulator voltage output range 1 mode,
 148:Drivers/STM32L4xx_HAL_Driver/Src/stm32l4xx_hal_pwr_ex.c ****   *                                                typical output voltage at 1.2 V,
 149:Drivers/STM32L4xx_HAL_Driver/Src/stm32l4xx_hal_pwr_ex.c ****   *                                                system frequency up to 80 MHz.
 150:Drivers/STM32L4xx_HAL_Driver/Src/stm32l4xx_hal_pwr_ex.c ****   *            @arg @ref PWR_REGULATOR_VOLTAGE_SCALE2 Regulator voltage output range 2 mode,
 151:Drivers/STM32L4xx_HAL_Driver/Src/stm32l4xx_hal_pwr_ex.c ****   *                                                typical output voltage at 1.0 V,
 152:Drivers/STM32L4xx_HAL_Driver/Src/stm32l4xx_hal_pwr_ex.c ****   *                                                system frequency up to 26 MHz.
 153:Drivers/STM32L4xx_HAL_Driver/Src/stm32l4xx_hal_pwr_ex.c ****   * @note  When moving from Range 1 to Range 2, the system frequency must be decreased to
 154:Drivers/STM32L4xx_HAL_Driver/Src/stm32l4xx_hal_pwr_ex.c ****   *        a value below 26 MHz before calling HAL_PWREx_ControlVoltageScaling() API.
 155:Drivers/STM32L4xx_HAL_Driver/Src/stm32l4xx_hal_pwr_ex.c ****   *        When moving from Range 2 to Range 1, the system frequency can be increased to
 156:Drivers/STM32L4xx_HAL_Driver/Src/stm32l4xx_hal_pwr_ex.c ****   *        a value up to 80 MHz after calling HAL_PWREx_ControlVoltageScaling() API. For
 157:Drivers/STM32L4xx_HAL_Driver/Src/stm32l4xx_hal_pwr_ex.c ****   *        some devices, the system frequency can be increased up to 120 MHz.
 158:Drivers/STM32L4xx_HAL_Driver/Src/stm32l4xx_hal_pwr_ex.c ****   * @note  When moving from Range 2 to Range 1, the API waits for VOSF flag to be
 159:Drivers/STM32L4xx_HAL_Driver/Src/stm32l4xx_hal_pwr_ex.c ****   *        cleared before returning the status. If the flag is not cleared within
ARM GAS  C:\Users\gigig\AppData\Local\Temp\cczsSJ5Z.s 			page 5


 160:Drivers/STM32L4xx_HAL_Driver/Src/stm32l4xx_hal_pwr_ex.c ****   *        50 microseconds, HAL_TIMEOUT status is reported.
 161:Drivers/STM32L4xx_HAL_Driver/Src/stm32l4xx_hal_pwr_ex.c ****   * @retval HAL Status
 162:Drivers/STM32L4xx_HAL_Driver/Src/stm32l4xx_hal_pwr_ex.c ****   */
 163:Drivers/STM32L4xx_HAL_Driver/Src/stm32l4xx_hal_pwr_ex.c **** HAL_StatusTypeDef HAL_PWREx_ControlVoltageScaling(uint32_t VoltageScaling)
 164:Drivers/STM32L4xx_HAL_Driver/Src/stm32l4xx_hal_pwr_ex.c **** {
  72              		.loc 1 164 1 is_stmt 1 view -0
  73              		.cfi_startproc
  74              		@ args = 0, pretend = 0, frame = 0
  75              		@ frame_needed = 0, uses_anonymous_args = 0
  76              		@ link register save eliminated.
 165:Drivers/STM32L4xx_HAL_Driver/Src/stm32l4xx_hal_pwr_ex.c ****   uint32_t wait_loop_index;
  77              		.loc 1 165 3 view .LVU10
 166:Drivers/STM32L4xx_HAL_Driver/Src/stm32l4xx_hal_pwr_ex.c **** 
 167:Drivers/STM32L4xx_HAL_Driver/Src/stm32l4xx_hal_pwr_ex.c ****   assert_param(IS_PWR_VOLTAGE_SCALING_RANGE(VoltageScaling));
  78              		.loc 1 167 3 view .LVU11
 168:Drivers/STM32L4xx_HAL_Driver/Src/stm32l4xx_hal_pwr_ex.c **** 
 169:Drivers/STM32L4xx_HAL_Driver/Src/stm32l4xx_hal_pwr_ex.c **** #if defined(PWR_CR5_R1MODE)
 170:Drivers/STM32L4xx_HAL_Driver/Src/stm32l4xx_hal_pwr_ex.c ****   if (VoltageScaling == PWR_REGULATOR_VOLTAGE_SCALE1_BOOST)
  79              		.loc 1 170 3 view .LVU12
  80              		.loc 1 170 6 is_stmt 0 view .LVU13
  81 0000 0028     		cmp	r0, #0
  82 0002 36D1     		bne	.L7
 171:Drivers/STM32L4xx_HAL_Driver/Src/stm32l4xx_hal_pwr_ex.c ****   {
 172:Drivers/STM32L4xx_HAL_Driver/Src/stm32l4xx_hal_pwr_ex.c ****     /* If current range is range 2 */
 173:Drivers/STM32L4xx_HAL_Driver/Src/stm32l4xx_hal_pwr_ex.c ****     if (READ_BIT(PWR->CR1, PWR_CR1_VOS) == PWR_REGULATOR_VOLTAGE_SCALE2)
  83              		.loc 1 173 5 is_stmt 1 view .LVU14
  84              		.loc 1 173 9 is_stmt 0 view .LVU15
  85 0004 3E4B     		ldr	r3, .L23
  86 0006 1B68     		ldr	r3, [r3]
  87 0008 03F4C063 		and	r3, r3, #1536
  88              		.loc 1 173 8 view .LVU16
  89 000c B3F5806F 		cmp	r3, #1024
  90 0010 08D0     		beq	.L20
 174:Drivers/STM32L4xx_HAL_Driver/Src/stm32l4xx_hal_pwr_ex.c ****     {
 175:Drivers/STM32L4xx_HAL_Driver/Src/stm32l4xx_hal_pwr_ex.c ****       /* Make sure Range 1 Boost is enabled */
 176:Drivers/STM32L4xx_HAL_Driver/Src/stm32l4xx_hal_pwr_ex.c ****       CLEAR_BIT(PWR->CR5, PWR_CR5_R1MODE);
 177:Drivers/STM32L4xx_HAL_Driver/Src/stm32l4xx_hal_pwr_ex.c **** 
 178:Drivers/STM32L4xx_HAL_Driver/Src/stm32l4xx_hal_pwr_ex.c ****       /* Set Range 1 */
 179:Drivers/STM32L4xx_HAL_Driver/Src/stm32l4xx_hal_pwr_ex.c ****       MODIFY_REG(PWR->CR1, PWR_CR1_VOS, PWR_REGULATOR_VOLTAGE_SCALE1);
 180:Drivers/STM32L4xx_HAL_Driver/Src/stm32l4xx_hal_pwr_ex.c **** 
 181:Drivers/STM32L4xx_HAL_Driver/Src/stm32l4xx_hal_pwr_ex.c ****       /* Wait until VOSF is cleared */
 182:Drivers/STM32L4xx_HAL_Driver/Src/stm32l4xx_hal_pwr_ex.c ****       wait_loop_index = ((PWR_FLAG_SETTING_DELAY_US * SystemCoreClock) / 1000000U) + 1;
 183:Drivers/STM32L4xx_HAL_Driver/Src/stm32l4xx_hal_pwr_ex.c ****       while ((HAL_IS_BIT_SET(PWR->SR2, PWR_SR2_VOSF)) && (wait_loop_index != 0U))
 184:Drivers/STM32L4xx_HAL_Driver/Src/stm32l4xx_hal_pwr_ex.c ****       {
 185:Drivers/STM32L4xx_HAL_Driver/Src/stm32l4xx_hal_pwr_ex.c ****         wait_loop_index--;
 186:Drivers/STM32L4xx_HAL_Driver/Src/stm32l4xx_hal_pwr_ex.c ****       }
 187:Drivers/STM32L4xx_HAL_Driver/Src/stm32l4xx_hal_pwr_ex.c ****       if (HAL_IS_BIT_SET(PWR->SR2, PWR_SR2_VOSF))
 188:Drivers/STM32L4xx_HAL_Driver/Src/stm32l4xx_hal_pwr_ex.c ****       {
 189:Drivers/STM32L4xx_HAL_Driver/Src/stm32l4xx_hal_pwr_ex.c ****         return HAL_TIMEOUT;
 190:Drivers/STM32L4xx_HAL_Driver/Src/stm32l4xx_hal_pwr_ex.c ****       }
 191:Drivers/STM32L4xx_HAL_Driver/Src/stm32l4xx_hal_pwr_ex.c ****     }
 192:Drivers/STM32L4xx_HAL_Driver/Src/stm32l4xx_hal_pwr_ex.c ****     /* If current range is range 1 normal or boost mode */
 193:Drivers/STM32L4xx_HAL_Driver/Src/stm32l4xx_hal_pwr_ex.c ****     else
 194:Drivers/STM32L4xx_HAL_Driver/Src/stm32l4xx_hal_pwr_ex.c ****     {
 195:Drivers/STM32L4xx_HAL_Driver/Src/stm32l4xx_hal_pwr_ex.c ****       /* Enable Range 1 Boost (no issue if bit already reset) */
 196:Drivers/STM32L4xx_HAL_Driver/Src/stm32l4xx_hal_pwr_ex.c ****       CLEAR_BIT(PWR->CR5, PWR_CR5_R1MODE);
  91              		.loc 1 196 7 is_stmt 1 view .LVU17
ARM GAS  C:\Users\gigig\AppData\Local\Temp\cczsSJ5Z.s 			page 6


  92 0012 3B4A     		ldr	r2, .L23
  93 0014 D2F88030 		ldr	r3, [r2, #128]
  94 0018 23F48073 		bic	r3, r3, #256
  95 001c C2F88030 		str	r3, [r2, #128]
 197:Drivers/STM32L4xx_HAL_Driver/Src/stm32l4xx_hal_pwr_ex.c ****     }
 198:Drivers/STM32L4xx_HAL_Driver/Src/stm32l4xx_hal_pwr_ex.c ****   }
 199:Drivers/STM32L4xx_HAL_Driver/Src/stm32l4xx_hal_pwr_ex.c ****   else if (VoltageScaling == PWR_REGULATOR_VOLTAGE_SCALE1)
 200:Drivers/STM32L4xx_HAL_Driver/Src/stm32l4xx_hal_pwr_ex.c ****   {
 201:Drivers/STM32L4xx_HAL_Driver/Src/stm32l4xx_hal_pwr_ex.c ****     /* If current range is range 2 */
 202:Drivers/STM32L4xx_HAL_Driver/Src/stm32l4xx_hal_pwr_ex.c ****     if (READ_BIT(PWR->CR1, PWR_CR1_VOS) == PWR_REGULATOR_VOLTAGE_SCALE2)
 203:Drivers/STM32L4xx_HAL_Driver/Src/stm32l4xx_hal_pwr_ex.c ****     {
 204:Drivers/STM32L4xx_HAL_Driver/Src/stm32l4xx_hal_pwr_ex.c ****       /* Make sure Range 1 Boost is disabled */
 205:Drivers/STM32L4xx_HAL_Driver/Src/stm32l4xx_hal_pwr_ex.c ****       SET_BIT(PWR->CR5, PWR_CR5_R1MODE);
 206:Drivers/STM32L4xx_HAL_Driver/Src/stm32l4xx_hal_pwr_ex.c **** 
 207:Drivers/STM32L4xx_HAL_Driver/Src/stm32l4xx_hal_pwr_ex.c ****       /* Set Range 1 */
 208:Drivers/STM32L4xx_HAL_Driver/Src/stm32l4xx_hal_pwr_ex.c ****       MODIFY_REG(PWR->CR1, PWR_CR1_VOS, PWR_REGULATOR_VOLTAGE_SCALE1);
 209:Drivers/STM32L4xx_HAL_Driver/Src/stm32l4xx_hal_pwr_ex.c **** 
 210:Drivers/STM32L4xx_HAL_Driver/Src/stm32l4xx_hal_pwr_ex.c ****       /* Wait until VOSF is cleared */
 211:Drivers/STM32L4xx_HAL_Driver/Src/stm32l4xx_hal_pwr_ex.c ****       wait_loop_index = ((PWR_FLAG_SETTING_DELAY_US * SystemCoreClock) / 1000000U) + 1;
 212:Drivers/STM32L4xx_HAL_Driver/Src/stm32l4xx_hal_pwr_ex.c ****       while ((HAL_IS_BIT_SET(PWR->SR2, PWR_SR2_VOSF)) && (wait_loop_index != 0U))
 213:Drivers/STM32L4xx_HAL_Driver/Src/stm32l4xx_hal_pwr_ex.c ****       {
 214:Drivers/STM32L4xx_HAL_Driver/Src/stm32l4xx_hal_pwr_ex.c ****         wait_loop_index--;
 215:Drivers/STM32L4xx_HAL_Driver/Src/stm32l4xx_hal_pwr_ex.c ****       }
 216:Drivers/STM32L4xx_HAL_Driver/Src/stm32l4xx_hal_pwr_ex.c ****       if (HAL_IS_BIT_SET(PWR->SR2, PWR_SR2_VOSF))
 217:Drivers/STM32L4xx_HAL_Driver/Src/stm32l4xx_hal_pwr_ex.c ****       {
 218:Drivers/STM32L4xx_HAL_Driver/Src/stm32l4xx_hal_pwr_ex.c ****         return HAL_TIMEOUT;
 219:Drivers/STM32L4xx_HAL_Driver/Src/stm32l4xx_hal_pwr_ex.c ****       }
 220:Drivers/STM32L4xx_HAL_Driver/Src/stm32l4xx_hal_pwr_ex.c ****     }
 221:Drivers/STM32L4xx_HAL_Driver/Src/stm32l4xx_hal_pwr_ex.c ****      /* If current range is range 1 normal or boost mode */
 222:Drivers/STM32L4xx_HAL_Driver/Src/stm32l4xx_hal_pwr_ex.c ****     else
 223:Drivers/STM32L4xx_HAL_Driver/Src/stm32l4xx_hal_pwr_ex.c ****     {
 224:Drivers/STM32L4xx_HAL_Driver/Src/stm32l4xx_hal_pwr_ex.c ****       /* Disable Range 1 Boost (no issue if bit already set) */
 225:Drivers/STM32L4xx_HAL_Driver/Src/stm32l4xx_hal_pwr_ex.c ****       SET_BIT(PWR->CR5, PWR_CR5_R1MODE);
 226:Drivers/STM32L4xx_HAL_Driver/Src/stm32l4xx_hal_pwr_ex.c ****     }
 227:Drivers/STM32L4xx_HAL_Driver/Src/stm32l4xx_hal_pwr_ex.c ****   }
 228:Drivers/STM32L4xx_HAL_Driver/Src/stm32l4xx_hal_pwr_ex.c ****   else
 229:Drivers/STM32L4xx_HAL_Driver/Src/stm32l4xx_hal_pwr_ex.c ****   {
 230:Drivers/STM32L4xx_HAL_Driver/Src/stm32l4xx_hal_pwr_ex.c ****     /* Set Range 2 */
 231:Drivers/STM32L4xx_HAL_Driver/Src/stm32l4xx_hal_pwr_ex.c ****     MODIFY_REG(PWR->CR1, PWR_CR1_VOS, PWR_REGULATOR_VOLTAGE_SCALE2);
 232:Drivers/STM32L4xx_HAL_Driver/Src/stm32l4xx_hal_pwr_ex.c ****     /* No need to wait for VOSF to be cleared for this transition */
 233:Drivers/STM32L4xx_HAL_Driver/Src/stm32l4xx_hal_pwr_ex.c ****     /* PWR_CR5_R1MODE bit setting has no effect in Range 2        */
 234:Drivers/STM32L4xx_HAL_Driver/Src/stm32l4xx_hal_pwr_ex.c ****   }
 235:Drivers/STM32L4xx_HAL_Driver/Src/stm32l4xx_hal_pwr_ex.c **** 
 236:Drivers/STM32L4xx_HAL_Driver/Src/stm32l4xx_hal_pwr_ex.c **** #else
 237:Drivers/STM32L4xx_HAL_Driver/Src/stm32l4xx_hal_pwr_ex.c **** 
 238:Drivers/STM32L4xx_HAL_Driver/Src/stm32l4xx_hal_pwr_ex.c ****   /* If Set Range 1 */
 239:Drivers/STM32L4xx_HAL_Driver/Src/stm32l4xx_hal_pwr_ex.c ****   if (VoltageScaling == PWR_REGULATOR_VOLTAGE_SCALE1)
 240:Drivers/STM32L4xx_HAL_Driver/Src/stm32l4xx_hal_pwr_ex.c ****   {
 241:Drivers/STM32L4xx_HAL_Driver/Src/stm32l4xx_hal_pwr_ex.c ****     if (READ_BIT(PWR->CR1, PWR_CR1_VOS) != PWR_REGULATOR_VOLTAGE_SCALE1)
 242:Drivers/STM32L4xx_HAL_Driver/Src/stm32l4xx_hal_pwr_ex.c ****     {
 243:Drivers/STM32L4xx_HAL_Driver/Src/stm32l4xx_hal_pwr_ex.c ****       /* Set Range 1 */
 244:Drivers/STM32L4xx_HAL_Driver/Src/stm32l4xx_hal_pwr_ex.c ****       MODIFY_REG(PWR->CR1, PWR_CR1_VOS, PWR_REGULATOR_VOLTAGE_SCALE1);
 245:Drivers/STM32L4xx_HAL_Driver/Src/stm32l4xx_hal_pwr_ex.c **** 
 246:Drivers/STM32L4xx_HAL_Driver/Src/stm32l4xx_hal_pwr_ex.c ****       /* Wait until VOSF is cleared */
 247:Drivers/STM32L4xx_HAL_Driver/Src/stm32l4xx_hal_pwr_ex.c ****       wait_loop_index = ((PWR_FLAG_SETTING_DELAY_US * SystemCoreClock) / 1000000U) + 1U;
 248:Drivers/STM32L4xx_HAL_Driver/Src/stm32l4xx_hal_pwr_ex.c ****       while ((HAL_IS_BIT_SET(PWR->SR2, PWR_SR2_VOSF)) && (wait_loop_index != 0U))
 249:Drivers/STM32L4xx_HAL_Driver/Src/stm32l4xx_hal_pwr_ex.c ****       {
ARM GAS  C:\Users\gigig\AppData\Local\Temp\cczsSJ5Z.s 			page 7


 250:Drivers/STM32L4xx_HAL_Driver/Src/stm32l4xx_hal_pwr_ex.c ****         wait_loop_index--;
 251:Drivers/STM32L4xx_HAL_Driver/Src/stm32l4xx_hal_pwr_ex.c ****       }
 252:Drivers/STM32L4xx_HAL_Driver/Src/stm32l4xx_hal_pwr_ex.c ****       if (HAL_IS_BIT_SET(PWR->SR2, PWR_SR2_VOSF))
 253:Drivers/STM32L4xx_HAL_Driver/Src/stm32l4xx_hal_pwr_ex.c ****       {
 254:Drivers/STM32L4xx_HAL_Driver/Src/stm32l4xx_hal_pwr_ex.c ****         return HAL_TIMEOUT;
 255:Drivers/STM32L4xx_HAL_Driver/Src/stm32l4xx_hal_pwr_ex.c ****       }
 256:Drivers/STM32L4xx_HAL_Driver/Src/stm32l4xx_hal_pwr_ex.c ****     }
 257:Drivers/STM32L4xx_HAL_Driver/Src/stm32l4xx_hal_pwr_ex.c ****   }
 258:Drivers/STM32L4xx_HAL_Driver/Src/stm32l4xx_hal_pwr_ex.c ****   else
 259:Drivers/STM32L4xx_HAL_Driver/Src/stm32l4xx_hal_pwr_ex.c ****   {
 260:Drivers/STM32L4xx_HAL_Driver/Src/stm32l4xx_hal_pwr_ex.c ****     if (READ_BIT(PWR->CR1, PWR_CR1_VOS) != PWR_REGULATOR_VOLTAGE_SCALE2)
 261:Drivers/STM32L4xx_HAL_Driver/Src/stm32l4xx_hal_pwr_ex.c ****     {
 262:Drivers/STM32L4xx_HAL_Driver/Src/stm32l4xx_hal_pwr_ex.c ****       /* Set Range 2 */
 263:Drivers/STM32L4xx_HAL_Driver/Src/stm32l4xx_hal_pwr_ex.c ****       MODIFY_REG(PWR->CR1, PWR_CR1_VOS, PWR_REGULATOR_VOLTAGE_SCALE2);
 264:Drivers/STM32L4xx_HAL_Driver/Src/stm32l4xx_hal_pwr_ex.c ****       /* No need to wait for VOSF to be cleared for this transition */
 265:Drivers/STM32L4xx_HAL_Driver/Src/stm32l4xx_hal_pwr_ex.c ****     }
 266:Drivers/STM32L4xx_HAL_Driver/Src/stm32l4xx_hal_pwr_ex.c ****   }
 267:Drivers/STM32L4xx_HAL_Driver/Src/stm32l4xx_hal_pwr_ex.c **** #endif
 268:Drivers/STM32L4xx_HAL_Driver/Src/stm32l4xx_hal_pwr_ex.c **** 
 269:Drivers/STM32L4xx_HAL_Driver/Src/stm32l4xx_hal_pwr_ex.c ****   return HAL_OK;
  96              		.loc 1 269 10 is_stmt 0 view .LVU18
  97 0020 0020     		movs	r0, #0
  98              	.LVL1:
  99              		.loc 1 269 10 view .LVU19
 100 0022 7047     		bx	lr
 101              	.LVL2:
 102              	.L20:
 176:Drivers/STM32L4xx_HAL_Driver/Src/stm32l4xx_hal_pwr_ex.c **** 
 103              		.loc 1 176 7 is_stmt 1 view .LVU20
 104 0024 364A     		ldr	r2, .L23
 105 0026 D2F88030 		ldr	r3, [r2, #128]
 106 002a 23F48073 		bic	r3, r3, #256
 107 002e C2F88030 		str	r3, [r2, #128]
 179:Drivers/STM32L4xx_HAL_Driver/Src/stm32l4xx_hal_pwr_ex.c **** 
 108              		.loc 1 179 7 view .LVU21
 109 0032 1368     		ldr	r3, [r2]
 110 0034 23F4C063 		bic	r3, r3, #1536
 111 0038 43F40073 		orr	r3, r3, #512
 112 003c 1360     		str	r3, [r2]
 182:Drivers/STM32L4xx_HAL_Driver/Src/stm32l4xx_hal_pwr_ex.c ****       while ((HAL_IS_BIT_SET(PWR->SR2, PWR_SR2_VOSF)) && (wait_loop_index != 0U))
 113              		.loc 1 182 7 view .LVU22
 182:Drivers/STM32L4xx_HAL_Driver/Src/stm32l4xx_hal_pwr_ex.c ****       while ((HAL_IS_BIT_SET(PWR->SR2, PWR_SR2_VOSF)) && (wait_loop_index != 0U))
 114              		.loc 1 182 53 is_stmt 0 view .LVU23
 115 003e 314B     		ldr	r3, .L23+4
 116 0040 1B68     		ldr	r3, [r3]
 117 0042 3222     		movs	r2, #50
 118 0044 02FB03F3 		mul	r3, r2, r3
 182:Drivers/STM32L4xx_HAL_Driver/Src/stm32l4xx_hal_pwr_ex.c ****       while ((HAL_IS_BIT_SET(PWR->SR2, PWR_SR2_VOSF)) && (wait_loop_index != 0U))
 119              		.loc 1 182 72 view .LVU24
 120 0048 2F4A     		ldr	r2, .L23+8
 121 004a A2FB0323 		umull	r2, r3, r2, r3
 122 004e 9B0C     		lsrs	r3, r3, #18
 182:Drivers/STM32L4xx_HAL_Driver/Src/stm32l4xx_hal_pwr_ex.c ****       while ((HAL_IS_BIT_SET(PWR->SR2, PWR_SR2_VOSF)) && (wait_loop_index != 0U))
 123              		.loc 1 182 23 view .LVU25
 124 0050 0133     		adds	r3, r3, #1
 125              	.LVL3:
 183:Drivers/STM32L4xx_HAL_Driver/Src/stm32l4xx_hal_pwr_ex.c ****       {
ARM GAS  C:\Users\gigig\AppData\Local\Temp\cczsSJ5Z.s 			page 8


 126              		.loc 1 183 7 is_stmt 1 view .LVU26
 183:Drivers/STM32L4xx_HAL_Driver/Src/stm32l4xx_hal_pwr_ex.c ****       {
 127              		.loc 1 183 13 is_stmt 0 view .LVU27
 128 0052 00E0     		b	.L9
 129              	.L11:
 185:Drivers/STM32L4xx_HAL_Driver/Src/stm32l4xx_hal_pwr_ex.c ****       }
 130              		.loc 1 185 9 is_stmt 1 view .LVU28
 185:Drivers/STM32L4xx_HAL_Driver/Src/stm32l4xx_hal_pwr_ex.c ****       }
 131              		.loc 1 185 24 is_stmt 0 view .LVU29
 132 0054 013B     		subs	r3, r3, #1
 133              	.LVL4:
 134              	.L9:
 183:Drivers/STM32L4xx_HAL_Driver/Src/stm32l4xx_hal_pwr_ex.c ****       {
 135              		.loc 1 183 55 is_stmt 1 view .LVU30
 183:Drivers/STM32L4xx_HAL_Driver/Src/stm32l4xx_hal_pwr_ex.c ****       {
 136              		.loc 1 183 15 is_stmt 0 view .LVU31
 137 0056 2A4A     		ldr	r2, .L23
 138 0058 5269     		ldr	r2, [r2, #20]
 183:Drivers/STM32L4xx_HAL_Driver/Src/stm32l4xx_hal_pwr_ex.c ****       {
 139              		.loc 1 183 55 view .LVU32
 140 005a 12F4806F 		tst	r2, #1024
 141 005e 01D0     		beq	.L10
 183:Drivers/STM32L4xx_HAL_Driver/Src/stm32l4xx_hal_pwr_ex.c ****       {
 142              		.loc 1 183 55 discriminator 1 view .LVU33
 143 0060 002B     		cmp	r3, #0
 144 0062 F7D1     		bne	.L11
 145              	.L10:
 187:Drivers/STM32L4xx_HAL_Driver/Src/stm32l4xx_hal_pwr_ex.c ****       {
 146              		.loc 1 187 7 is_stmt 1 view .LVU34
 187:Drivers/STM32L4xx_HAL_Driver/Src/stm32l4xx_hal_pwr_ex.c ****       {
 147              		.loc 1 187 11 is_stmt 0 view .LVU35
 148 0064 264B     		ldr	r3, .L23
 149              	.LVL5:
 187:Drivers/STM32L4xx_HAL_Driver/Src/stm32l4xx_hal_pwr_ex.c ****       {
 150              		.loc 1 187 11 view .LVU36
 151 0066 5B69     		ldr	r3, [r3, #20]
 187:Drivers/STM32L4xx_HAL_Driver/Src/stm32l4xx_hal_pwr_ex.c ****       {
 152              		.loc 1 187 10 view .LVU37
 153 0068 13F4806F 		tst	r3, #1024
 154 006c 44D1     		bne	.L18
 155              		.loc 1 269 10 view .LVU38
 156 006e 0020     		movs	r0, #0
 157              	.LVL6:
 158              		.loc 1 269 10 view .LVU39
 159 0070 7047     		bx	lr
 160              	.LVL7:
 161              	.L7:
 199:Drivers/STM32L4xx_HAL_Driver/Src/stm32l4xx_hal_pwr_ex.c ****   {
 162              		.loc 1 199 8 is_stmt 1 view .LVU40
 199:Drivers/STM32L4xx_HAL_Driver/Src/stm32l4xx_hal_pwr_ex.c ****   {
 163              		.loc 1 199 11 is_stmt 0 view .LVU41
 164 0072 B0F5007F 		cmp	r0, #512
 165 0076 08D0     		beq	.L21
 231:Drivers/STM32L4xx_HAL_Driver/Src/stm32l4xx_hal_pwr_ex.c ****     /* No need to wait for VOSF to be cleared for this transition */
 166              		.loc 1 231 5 is_stmt 1 view .LVU42
 167 0078 214A     		ldr	r2, .L23
 168 007a 1368     		ldr	r3, [r2]
ARM GAS  C:\Users\gigig\AppData\Local\Temp\cczsSJ5Z.s 			page 9


 169 007c 23F4C063 		bic	r3, r3, #1536
 170 0080 43F48063 		orr	r3, r3, #1024
 171 0084 1360     		str	r3, [r2]
 172              		.loc 1 269 10 is_stmt 0 view .LVU43
 173 0086 0020     		movs	r0, #0
 174              	.LVL8:
 175              		.loc 1 269 10 view .LVU44
 176 0088 7047     		bx	lr
 177              	.LVL9:
 178              	.L21:
 202:Drivers/STM32L4xx_HAL_Driver/Src/stm32l4xx_hal_pwr_ex.c ****     {
 179              		.loc 1 202 5 is_stmt 1 view .LVU45
 202:Drivers/STM32L4xx_HAL_Driver/Src/stm32l4xx_hal_pwr_ex.c ****     {
 180              		.loc 1 202 9 is_stmt 0 view .LVU46
 181 008a 1D4B     		ldr	r3, .L23
 182 008c 1B68     		ldr	r3, [r3]
 183 008e 03F4C063 		and	r3, r3, #1536
 202:Drivers/STM32L4xx_HAL_Driver/Src/stm32l4xx_hal_pwr_ex.c ****     {
 184              		.loc 1 202 8 view .LVU47
 185 0092 B3F5806F 		cmp	r3, #1024
 186 0096 08D0     		beq	.L22
 225:Drivers/STM32L4xx_HAL_Driver/Src/stm32l4xx_hal_pwr_ex.c ****     }
 187              		.loc 1 225 7 is_stmt 1 view .LVU48
 188 0098 194A     		ldr	r2, .L23
 189 009a D2F88030 		ldr	r3, [r2, #128]
 190 009e 43F48073 		orr	r3, r3, #256
 191 00a2 C2F88030 		str	r3, [r2, #128]
 192              		.loc 1 269 10 is_stmt 0 view .LVU49
 193 00a6 0020     		movs	r0, #0
 194              	.LVL10:
 195              		.loc 1 269 10 view .LVU50
 196 00a8 7047     		bx	lr
 197              	.LVL11:
 198              	.L22:
 205:Drivers/STM32L4xx_HAL_Driver/Src/stm32l4xx_hal_pwr_ex.c **** 
 199              		.loc 1 205 7 is_stmt 1 view .LVU51
 200 00aa 154A     		ldr	r2, .L23
 201 00ac D2F88030 		ldr	r3, [r2, #128]
 202 00b0 43F48073 		orr	r3, r3, #256
 203 00b4 C2F88030 		str	r3, [r2, #128]
 208:Drivers/STM32L4xx_HAL_Driver/Src/stm32l4xx_hal_pwr_ex.c **** 
 204              		.loc 1 208 7 view .LVU52
 205 00b8 1368     		ldr	r3, [r2]
 206 00ba 23F4C063 		bic	r3, r3, #1536
 207 00be 43F40073 		orr	r3, r3, #512
 208 00c2 1360     		str	r3, [r2]
 211:Drivers/STM32L4xx_HAL_Driver/Src/stm32l4xx_hal_pwr_ex.c ****       while ((HAL_IS_BIT_SET(PWR->SR2, PWR_SR2_VOSF)) && (wait_loop_index != 0U))
 209              		.loc 1 211 7 view .LVU53
 211:Drivers/STM32L4xx_HAL_Driver/Src/stm32l4xx_hal_pwr_ex.c ****       while ((HAL_IS_BIT_SET(PWR->SR2, PWR_SR2_VOSF)) && (wait_loop_index != 0U))
 210              		.loc 1 211 53 is_stmt 0 view .LVU54
 211 00c4 0F4B     		ldr	r3, .L23+4
 212 00c6 1B68     		ldr	r3, [r3]
 213 00c8 3222     		movs	r2, #50
 214 00ca 02FB03F3 		mul	r3, r2, r3
 211:Drivers/STM32L4xx_HAL_Driver/Src/stm32l4xx_hal_pwr_ex.c ****       while ((HAL_IS_BIT_SET(PWR->SR2, PWR_SR2_VOSF)) && (wait_loop_index != 0U))
 215              		.loc 1 211 72 view .LVU55
 216 00ce 0E4A     		ldr	r2, .L23+8
ARM GAS  C:\Users\gigig\AppData\Local\Temp\cczsSJ5Z.s 			page 10


 217 00d0 A2FB0323 		umull	r2, r3, r2, r3
 218 00d4 9B0C     		lsrs	r3, r3, #18
 211:Drivers/STM32L4xx_HAL_Driver/Src/stm32l4xx_hal_pwr_ex.c ****       while ((HAL_IS_BIT_SET(PWR->SR2, PWR_SR2_VOSF)) && (wait_loop_index != 0U))
 219              		.loc 1 211 23 view .LVU56
 220 00d6 0133     		adds	r3, r3, #1
 221              	.LVL12:
 212:Drivers/STM32L4xx_HAL_Driver/Src/stm32l4xx_hal_pwr_ex.c ****       {
 222              		.loc 1 212 7 is_stmt 1 view .LVU57
 212:Drivers/STM32L4xx_HAL_Driver/Src/stm32l4xx_hal_pwr_ex.c ****       {
 223              		.loc 1 212 13 is_stmt 0 view .LVU58
 224 00d8 00E0     		b	.L15
 225              	.L17:
 214:Drivers/STM32L4xx_HAL_Driver/Src/stm32l4xx_hal_pwr_ex.c ****       }
 226              		.loc 1 214 9 is_stmt 1 view .LVU59
 214:Drivers/STM32L4xx_HAL_Driver/Src/stm32l4xx_hal_pwr_ex.c ****       }
 227              		.loc 1 214 24 is_stmt 0 view .LVU60
 228 00da 013B     		subs	r3, r3, #1
 229              	.LVL13:
 230              	.L15:
 212:Drivers/STM32L4xx_HAL_Driver/Src/stm32l4xx_hal_pwr_ex.c ****       {
 231              		.loc 1 212 55 is_stmt 1 view .LVU61
 212:Drivers/STM32L4xx_HAL_Driver/Src/stm32l4xx_hal_pwr_ex.c ****       {
 232              		.loc 1 212 15 is_stmt 0 view .LVU62
 233 00dc 084A     		ldr	r2, .L23
 234 00de 5269     		ldr	r2, [r2, #20]
 212:Drivers/STM32L4xx_HAL_Driver/Src/stm32l4xx_hal_pwr_ex.c ****       {
 235              		.loc 1 212 55 view .LVU63
 236 00e0 12F4806F 		tst	r2, #1024
 237 00e4 01D0     		beq	.L16
 212:Drivers/STM32L4xx_HAL_Driver/Src/stm32l4xx_hal_pwr_ex.c ****       {
 238              		.loc 1 212 55 discriminator 1 view .LVU64
 239 00e6 002B     		cmp	r3, #0
 240 00e8 F7D1     		bne	.L17
 241              	.L16:
 216:Drivers/STM32L4xx_HAL_Driver/Src/stm32l4xx_hal_pwr_ex.c ****       {
 242              		.loc 1 216 7 is_stmt 1 view .LVU65
 216:Drivers/STM32L4xx_HAL_Driver/Src/stm32l4xx_hal_pwr_ex.c ****       {
 243              		.loc 1 216 11 is_stmt 0 view .LVU66
 244 00ea 054B     		ldr	r3, .L23
 245              	.LVL14:
 216:Drivers/STM32L4xx_HAL_Driver/Src/stm32l4xx_hal_pwr_ex.c ****       {
 246              		.loc 1 216 11 view .LVU67
 247 00ec 5B69     		ldr	r3, [r3, #20]
 216:Drivers/STM32L4xx_HAL_Driver/Src/stm32l4xx_hal_pwr_ex.c ****       {
 248              		.loc 1 216 10 view .LVU68
 249 00ee 13F4806F 		tst	r3, #1024
 250 00f2 03D1     		bne	.L19
 251              		.loc 1 269 10 view .LVU69
 252 00f4 0020     		movs	r0, #0
 253              	.LVL15:
 254              		.loc 1 269 10 view .LVU70
 255 00f6 7047     		bx	lr
 256              	.LVL16:
 257              	.L18:
 189:Drivers/STM32L4xx_HAL_Driver/Src/stm32l4xx_hal_pwr_ex.c ****       }
 258              		.loc 1 189 16 view .LVU71
 259 00f8 0320     		movs	r0, #3
ARM GAS  C:\Users\gigig\AppData\Local\Temp\cczsSJ5Z.s 			page 11


 260              	.LVL17:
 189:Drivers/STM32L4xx_HAL_Driver/Src/stm32l4xx_hal_pwr_ex.c ****       }
 261              		.loc 1 189 16 view .LVU72
 262 00fa 7047     		bx	lr
 263              	.LVL18:
 264              	.L19:
 218:Drivers/STM32L4xx_HAL_Driver/Src/stm32l4xx_hal_pwr_ex.c ****       }
 265              		.loc 1 218 16 view .LVU73
 266 00fc 0320     		movs	r0, #3
 267              	.LVL19:
 270:Drivers/STM32L4xx_HAL_Driver/Src/stm32l4xx_hal_pwr_ex.c **** }
 268              		.loc 1 270 1 view .LVU74
 269 00fe 7047     		bx	lr
 270              	.L24:
 271              		.align	2
 272              	.L23:
 273 0100 00700040 		.word	1073770496
 274 0104 00000000 		.word	SystemCoreClock
 275 0108 83DE1B43 		.word	1125899907
 276              		.cfi_endproc
 277              	.LFE133:
 279              		.section	.text.HAL_PWREx_EnableBatteryCharging,"ax",%progbits
 280              		.align	1
 281              		.global	HAL_PWREx_EnableBatteryCharging
 282              		.syntax unified
 283              		.thumb
 284              		.thumb_func
 286              	HAL_PWREx_EnableBatteryCharging:
 287              	.LVL20:
 288              	.LFB134:
 271:Drivers/STM32L4xx_HAL_Driver/Src/stm32l4xx_hal_pwr_ex.c **** 
 272:Drivers/STM32L4xx_HAL_Driver/Src/stm32l4xx_hal_pwr_ex.c **** 
 273:Drivers/STM32L4xx_HAL_Driver/Src/stm32l4xx_hal_pwr_ex.c **** /**
 274:Drivers/STM32L4xx_HAL_Driver/Src/stm32l4xx_hal_pwr_ex.c ****   * @brief Enable battery charging.
 275:Drivers/STM32L4xx_HAL_Driver/Src/stm32l4xx_hal_pwr_ex.c ****   *        When VDD is present, charge the external battery on VBAT through an internal resistor.
 276:Drivers/STM32L4xx_HAL_Driver/Src/stm32l4xx_hal_pwr_ex.c ****   * @param  ResistorSelection specifies the resistor impedance.
 277:Drivers/STM32L4xx_HAL_Driver/Src/stm32l4xx_hal_pwr_ex.c ****   *          This parameter can be one of the following values:
 278:Drivers/STM32L4xx_HAL_Driver/Src/stm32l4xx_hal_pwr_ex.c ****   *            @arg @ref PWR_BATTERY_CHARGING_RESISTOR_5     5 kOhms resistor
 279:Drivers/STM32L4xx_HAL_Driver/Src/stm32l4xx_hal_pwr_ex.c ****   *            @arg @ref PWR_BATTERY_CHARGING_RESISTOR_1_5 1.5 kOhms resistor
 280:Drivers/STM32L4xx_HAL_Driver/Src/stm32l4xx_hal_pwr_ex.c ****   * @retval None
 281:Drivers/STM32L4xx_HAL_Driver/Src/stm32l4xx_hal_pwr_ex.c ****   */
 282:Drivers/STM32L4xx_HAL_Driver/Src/stm32l4xx_hal_pwr_ex.c **** void HAL_PWREx_EnableBatteryCharging(uint32_t ResistorSelection)
 283:Drivers/STM32L4xx_HAL_Driver/Src/stm32l4xx_hal_pwr_ex.c **** {
 289              		.loc 1 283 1 is_stmt 1 view -0
 290              		.cfi_startproc
 291              		@ args = 0, pretend = 0, frame = 0
 292              		@ frame_needed = 0, uses_anonymous_args = 0
 293              		@ link register save eliminated.
 284:Drivers/STM32L4xx_HAL_Driver/Src/stm32l4xx_hal_pwr_ex.c ****   assert_param(IS_PWR_BATTERY_RESISTOR_SELECT(ResistorSelection));
 294              		.loc 1 284 3 view .LVU76
 285:Drivers/STM32L4xx_HAL_Driver/Src/stm32l4xx_hal_pwr_ex.c **** 
 286:Drivers/STM32L4xx_HAL_Driver/Src/stm32l4xx_hal_pwr_ex.c ****   /* Specify resistor selection */
 287:Drivers/STM32L4xx_HAL_Driver/Src/stm32l4xx_hal_pwr_ex.c ****   MODIFY_REG(PWR->CR4, PWR_CR4_VBRS, ResistorSelection);
 295              		.loc 1 287 3 view .LVU77
 296 0000 054A     		ldr	r2, .L26
 297 0002 D368     		ldr	r3, [r2, #12]
 298 0004 23F40073 		bic	r3, r3, #512
ARM GAS  C:\Users\gigig\AppData\Local\Temp\cczsSJ5Z.s 			page 12


 299 0008 0343     		orrs	r3, r3, r0
 300 000a D360     		str	r3, [r2, #12]
 288:Drivers/STM32L4xx_HAL_Driver/Src/stm32l4xx_hal_pwr_ex.c **** 
 289:Drivers/STM32L4xx_HAL_Driver/Src/stm32l4xx_hal_pwr_ex.c ****   /* Enable battery charging */
 290:Drivers/STM32L4xx_HAL_Driver/Src/stm32l4xx_hal_pwr_ex.c ****   SET_BIT(PWR->CR4, PWR_CR4_VBE);
 301              		.loc 1 290 3 view .LVU78
 302 000c D368     		ldr	r3, [r2, #12]
 303 000e 43F48073 		orr	r3, r3, #256
 304 0012 D360     		str	r3, [r2, #12]
 291:Drivers/STM32L4xx_HAL_Driver/Src/stm32l4xx_hal_pwr_ex.c **** }
 305              		.loc 1 291 1 is_stmt 0 view .LVU79
 306 0014 7047     		bx	lr
 307              	.L27:
 308 0016 00BF     		.align	2
 309              	.L26:
 310 0018 00700040 		.word	1073770496
 311              		.cfi_endproc
 312              	.LFE134:
 314              		.section	.text.HAL_PWREx_DisableBatteryCharging,"ax",%progbits
 315              		.align	1
 316              		.global	HAL_PWREx_DisableBatteryCharging
 317              		.syntax unified
 318              		.thumb
 319              		.thumb_func
 321              	HAL_PWREx_DisableBatteryCharging:
 322              	.LFB135:
 292:Drivers/STM32L4xx_HAL_Driver/Src/stm32l4xx_hal_pwr_ex.c **** 
 293:Drivers/STM32L4xx_HAL_Driver/Src/stm32l4xx_hal_pwr_ex.c **** 
 294:Drivers/STM32L4xx_HAL_Driver/Src/stm32l4xx_hal_pwr_ex.c **** /**
 295:Drivers/STM32L4xx_HAL_Driver/Src/stm32l4xx_hal_pwr_ex.c ****   * @brief Disable battery charging.
 296:Drivers/STM32L4xx_HAL_Driver/Src/stm32l4xx_hal_pwr_ex.c ****   * @retval None
 297:Drivers/STM32L4xx_HAL_Driver/Src/stm32l4xx_hal_pwr_ex.c ****   */
 298:Drivers/STM32L4xx_HAL_Driver/Src/stm32l4xx_hal_pwr_ex.c **** void HAL_PWREx_DisableBatteryCharging(void)
 299:Drivers/STM32L4xx_HAL_Driver/Src/stm32l4xx_hal_pwr_ex.c **** {
 323              		.loc 1 299 1 is_stmt 1 view -0
 324              		.cfi_startproc
 325              		@ args = 0, pretend = 0, frame = 0
 326              		@ frame_needed = 0, uses_anonymous_args = 0
 327              		@ link register save eliminated.
 300:Drivers/STM32L4xx_HAL_Driver/Src/stm32l4xx_hal_pwr_ex.c ****   CLEAR_BIT(PWR->CR4, PWR_CR4_VBE);
 328              		.loc 1 300 3 view .LVU81
 329 0000 024A     		ldr	r2, .L29
 330 0002 D368     		ldr	r3, [r2, #12]
 331 0004 23F48073 		bic	r3, r3, #256
 332 0008 D360     		str	r3, [r2, #12]
 301:Drivers/STM32L4xx_HAL_Driver/Src/stm32l4xx_hal_pwr_ex.c **** }
 333              		.loc 1 301 1 is_stmt 0 view .LVU82
 334 000a 7047     		bx	lr
 335              	.L30:
 336              		.align	2
 337              	.L29:
 338 000c 00700040 		.word	1073770496
 339              		.cfi_endproc
 340              	.LFE135:
 342              		.section	.text.HAL_PWREx_EnableVddUSB,"ax",%progbits
 343              		.align	1
 344              		.global	HAL_PWREx_EnableVddUSB
ARM GAS  C:\Users\gigig\AppData\Local\Temp\cczsSJ5Z.s 			page 13


 345              		.syntax unified
 346              		.thumb
 347              		.thumb_func
 349              	HAL_PWREx_EnableVddUSB:
 350              	.LFB136:
 302:Drivers/STM32L4xx_HAL_Driver/Src/stm32l4xx_hal_pwr_ex.c **** 
 303:Drivers/STM32L4xx_HAL_Driver/Src/stm32l4xx_hal_pwr_ex.c **** 
 304:Drivers/STM32L4xx_HAL_Driver/Src/stm32l4xx_hal_pwr_ex.c **** #if defined(PWR_CR2_USV)
 305:Drivers/STM32L4xx_HAL_Driver/Src/stm32l4xx_hal_pwr_ex.c **** /**
 306:Drivers/STM32L4xx_HAL_Driver/Src/stm32l4xx_hal_pwr_ex.c ****   * @brief Enable VDDUSB supply.
 307:Drivers/STM32L4xx_HAL_Driver/Src/stm32l4xx_hal_pwr_ex.c ****   * @note  Remove VDDUSB electrical and logical isolation, once VDDUSB supply is present.
 308:Drivers/STM32L4xx_HAL_Driver/Src/stm32l4xx_hal_pwr_ex.c ****   * @retval None
 309:Drivers/STM32L4xx_HAL_Driver/Src/stm32l4xx_hal_pwr_ex.c ****   */
 310:Drivers/STM32L4xx_HAL_Driver/Src/stm32l4xx_hal_pwr_ex.c **** void HAL_PWREx_EnableVddUSB(void)
 311:Drivers/STM32L4xx_HAL_Driver/Src/stm32l4xx_hal_pwr_ex.c **** {
 351              		.loc 1 311 1 is_stmt 1 view -0
 352              		.cfi_startproc
 353              		@ args = 0, pretend = 0, frame = 0
 354              		@ frame_needed = 0, uses_anonymous_args = 0
 355              		@ link register save eliminated.
 312:Drivers/STM32L4xx_HAL_Driver/Src/stm32l4xx_hal_pwr_ex.c ****   SET_BIT(PWR->CR2, PWR_CR2_USV);
 356              		.loc 1 312 3 view .LVU84
 357 0000 024A     		ldr	r2, .L32
 358 0002 5368     		ldr	r3, [r2, #4]
 359 0004 43F48063 		orr	r3, r3, #1024
 360 0008 5360     		str	r3, [r2, #4]
 313:Drivers/STM32L4xx_HAL_Driver/Src/stm32l4xx_hal_pwr_ex.c **** }
 361              		.loc 1 313 1 is_stmt 0 view .LVU85
 362 000a 7047     		bx	lr
 363              	.L33:
 364              		.align	2
 365              	.L32:
 366 000c 00700040 		.word	1073770496
 367              		.cfi_endproc
 368              	.LFE136:
 370              		.section	.text.HAL_PWREx_DisableVddUSB,"ax",%progbits
 371              		.align	1
 372              		.global	HAL_PWREx_DisableVddUSB
 373              		.syntax unified
 374              		.thumb
 375              		.thumb_func
 377              	HAL_PWREx_DisableVddUSB:
 378              	.LFB137:
 314:Drivers/STM32L4xx_HAL_Driver/Src/stm32l4xx_hal_pwr_ex.c **** 
 315:Drivers/STM32L4xx_HAL_Driver/Src/stm32l4xx_hal_pwr_ex.c **** 
 316:Drivers/STM32L4xx_HAL_Driver/Src/stm32l4xx_hal_pwr_ex.c **** /**
 317:Drivers/STM32L4xx_HAL_Driver/Src/stm32l4xx_hal_pwr_ex.c ****   * @brief Disable VDDUSB supply.
 318:Drivers/STM32L4xx_HAL_Driver/Src/stm32l4xx_hal_pwr_ex.c ****   * @retval None
 319:Drivers/STM32L4xx_HAL_Driver/Src/stm32l4xx_hal_pwr_ex.c ****   */
 320:Drivers/STM32L4xx_HAL_Driver/Src/stm32l4xx_hal_pwr_ex.c **** void HAL_PWREx_DisableVddUSB(void)
 321:Drivers/STM32L4xx_HAL_Driver/Src/stm32l4xx_hal_pwr_ex.c **** {
 379              		.loc 1 321 1 is_stmt 1 view -0
 380              		.cfi_startproc
 381              		@ args = 0, pretend = 0, frame = 0
 382              		@ frame_needed = 0, uses_anonymous_args = 0
 383              		@ link register save eliminated.
 322:Drivers/STM32L4xx_HAL_Driver/Src/stm32l4xx_hal_pwr_ex.c ****   CLEAR_BIT(PWR->CR2, PWR_CR2_USV);
ARM GAS  C:\Users\gigig\AppData\Local\Temp\cczsSJ5Z.s 			page 14


 384              		.loc 1 322 3 view .LVU87
 385 0000 024A     		ldr	r2, .L35
 386 0002 5368     		ldr	r3, [r2, #4]
 387 0004 23F48063 		bic	r3, r3, #1024
 388 0008 5360     		str	r3, [r2, #4]
 323:Drivers/STM32L4xx_HAL_Driver/Src/stm32l4xx_hal_pwr_ex.c **** }
 389              		.loc 1 323 1 is_stmt 0 view .LVU88
 390 000a 7047     		bx	lr
 391              	.L36:
 392              		.align	2
 393              	.L35:
 394 000c 00700040 		.word	1073770496
 395              		.cfi_endproc
 396              	.LFE137:
 398              		.section	.text.HAL_PWREx_EnableVddIO2,"ax",%progbits
 399              		.align	1
 400              		.global	HAL_PWREx_EnableVddIO2
 401              		.syntax unified
 402              		.thumb
 403              		.thumb_func
 405              	HAL_PWREx_EnableVddIO2:
 406              	.LFB138:
 324:Drivers/STM32L4xx_HAL_Driver/Src/stm32l4xx_hal_pwr_ex.c **** #endif /* PWR_CR2_USV */
 325:Drivers/STM32L4xx_HAL_Driver/Src/stm32l4xx_hal_pwr_ex.c **** 
 326:Drivers/STM32L4xx_HAL_Driver/Src/stm32l4xx_hal_pwr_ex.c **** #if defined(PWR_CR2_IOSV)
 327:Drivers/STM32L4xx_HAL_Driver/Src/stm32l4xx_hal_pwr_ex.c **** /**
 328:Drivers/STM32L4xx_HAL_Driver/Src/stm32l4xx_hal_pwr_ex.c ****   * @brief Enable VDDIO2 supply.
 329:Drivers/STM32L4xx_HAL_Driver/Src/stm32l4xx_hal_pwr_ex.c ****   * @note  Remove VDDIO2 electrical and logical isolation, once VDDIO2 supply is present.
 330:Drivers/STM32L4xx_HAL_Driver/Src/stm32l4xx_hal_pwr_ex.c ****   * @retval None
 331:Drivers/STM32L4xx_HAL_Driver/Src/stm32l4xx_hal_pwr_ex.c ****   */
 332:Drivers/STM32L4xx_HAL_Driver/Src/stm32l4xx_hal_pwr_ex.c **** void HAL_PWREx_EnableVddIO2(void)
 333:Drivers/STM32L4xx_HAL_Driver/Src/stm32l4xx_hal_pwr_ex.c **** {
 407              		.loc 1 333 1 is_stmt 1 view -0
 408              		.cfi_startproc
 409              		@ args = 0, pretend = 0, frame = 0
 410              		@ frame_needed = 0, uses_anonymous_args = 0
 411              		@ link register save eliminated.
 334:Drivers/STM32L4xx_HAL_Driver/Src/stm32l4xx_hal_pwr_ex.c ****   SET_BIT(PWR->CR2, PWR_CR2_IOSV);
 412              		.loc 1 334 3 view .LVU90
 413 0000 024A     		ldr	r2, .L38
 414 0002 5368     		ldr	r3, [r2, #4]
 415 0004 43F40073 		orr	r3, r3, #512
 416 0008 5360     		str	r3, [r2, #4]
 335:Drivers/STM32L4xx_HAL_Driver/Src/stm32l4xx_hal_pwr_ex.c **** }
 417              		.loc 1 335 1 is_stmt 0 view .LVU91
 418 000a 7047     		bx	lr
 419              	.L39:
 420              		.align	2
 421              	.L38:
 422 000c 00700040 		.word	1073770496
 423              		.cfi_endproc
 424              	.LFE138:
 426              		.section	.text.HAL_PWREx_DisableVddIO2,"ax",%progbits
 427              		.align	1
 428              		.global	HAL_PWREx_DisableVddIO2
 429              		.syntax unified
 430              		.thumb
ARM GAS  C:\Users\gigig\AppData\Local\Temp\cczsSJ5Z.s 			page 15


 431              		.thumb_func
 433              	HAL_PWREx_DisableVddIO2:
 434              	.LFB139:
 336:Drivers/STM32L4xx_HAL_Driver/Src/stm32l4xx_hal_pwr_ex.c **** 
 337:Drivers/STM32L4xx_HAL_Driver/Src/stm32l4xx_hal_pwr_ex.c **** 
 338:Drivers/STM32L4xx_HAL_Driver/Src/stm32l4xx_hal_pwr_ex.c **** /**
 339:Drivers/STM32L4xx_HAL_Driver/Src/stm32l4xx_hal_pwr_ex.c ****   * @brief Disable VDDIO2 supply.
 340:Drivers/STM32L4xx_HAL_Driver/Src/stm32l4xx_hal_pwr_ex.c ****   * @retval None
 341:Drivers/STM32L4xx_HAL_Driver/Src/stm32l4xx_hal_pwr_ex.c ****   */
 342:Drivers/STM32L4xx_HAL_Driver/Src/stm32l4xx_hal_pwr_ex.c **** void HAL_PWREx_DisableVddIO2(void)
 343:Drivers/STM32L4xx_HAL_Driver/Src/stm32l4xx_hal_pwr_ex.c **** {
 435              		.loc 1 343 1 is_stmt 1 view -0
 436              		.cfi_startproc
 437              		@ args = 0, pretend = 0, frame = 0
 438              		@ frame_needed = 0, uses_anonymous_args = 0
 439              		@ link register save eliminated.
 344:Drivers/STM32L4xx_HAL_Driver/Src/stm32l4xx_hal_pwr_ex.c ****   CLEAR_BIT(PWR->CR2, PWR_CR2_IOSV);
 440              		.loc 1 344 3 view .LVU93
 441 0000 024A     		ldr	r2, .L41
 442 0002 5368     		ldr	r3, [r2, #4]
 443 0004 23F40073 		bic	r3, r3, #512
 444 0008 5360     		str	r3, [r2, #4]
 345:Drivers/STM32L4xx_HAL_Driver/Src/stm32l4xx_hal_pwr_ex.c **** }
 445              		.loc 1 345 1 is_stmt 0 view .LVU94
 446 000a 7047     		bx	lr
 447              	.L42:
 448              		.align	2
 449              	.L41:
 450 000c 00700040 		.word	1073770496
 451              		.cfi_endproc
 452              	.LFE139:
 454              		.section	.text.HAL_PWREx_EnableInternalWakeUpLine,"ax",%progbits
 455              		.align	1
 456              		.global	HAL_PWREx_EnableInternalWakeUpLine
 457              		.syntax unified
 458              		.thumb
 459              		.thumb_func
 461              	HAL_PWREx_EnableInternalWakeUpLine:
 462              	.LFB140:
 346:Drivers/STM32L4xx_HAL_Driver/Src/stm32l4xx_hal_pwr_ex.c **** #endif /* PWR_CR2_IOSV */
 347:Drivers/STM32L4xx_HAL_Driver/Src/stm32l4xx_hal_pwr_ex.c **** 
 348:Drivers/STM32L4xx_HAL_Driver/Src/stm32l4xx_hal_pwr_ex.c **** 
 349:Drivers/STM32L4xx_HAL_Driver/Src/stm32l4xx_hal_pwr_ex.c **** /**
 350:Drivers/STM32L4xx_HAL_Driver/Src/stm32l4xx_hal_pwr_ex.c ****   * @brief Enable Internal Wake-up Line.
 351:Drivers/STM32L4xx_HAL_Driver/Src/stm32l4xx_hal_pwr_ex.c ****   * @retval None
 352:Drivers/STM32L4xx_HAL_Driver/Src/stm32l4xx_hal_pwr_ex.c ****   */
 353:Drivers/STM32L4xx_HAL_Driver/Src/stm32l4xx_hal_pwr_ex.c **** void HAL_PWREx_EnableInternalWakeUpLine(void)
 354:Drivers/STM32L4xx_HAL_Driver/Src/stm32l4xx_hal_pwr_ex.c **** {
 463              		.loc 1 354 1 is_stmt 1 view -0
 464              		.cfi_startproc
 465              		@ args = 0, pretend = 0, frame = 0
 466              		@ frame_needed = 0, uses_anonymous_args = 0
 467              		@ link register save eliminated.
 355:Drivers/STM32L4xx_HAL_Driver/Src/stm32l4xx_hal_pwr_ex.c ****   SET_BIT(PWR->CR3, PWR_CR3_EIWF);
 468              		.loc 1 355 3 view .LVU96
 469 0000 024A     		ldr	r2, .L44
 470 0002 9368     		ldr	r3, [r2, #8]
ARM GAS  C:\Users\gigig\AppData\Local\Temp\cczsSJ5Z.s 			page 16


 471 0004 43F40043 		orr	r3, r3, #32768
 472 0008 9360     		str	r3, [r2, #8]
 356:Drivers/STM32L4xx_HAL_Driver/Src/stm32l4xx_hal_pwr_ex.c **** }
 473              		.loc 1 356 1 is_stmt 0 view .LVU97
 474 000a 7047     		bx	lr
 475              	.L45:
 476              		.align	2
 477              	.L44:
 478 000c 00700040 		.word	1073770496
 479              		.cfi_endproc
 480              	.LFE140:
 482              		.section	.text.HAL_PWREx_DisableInternalWakeUpLine,"ax",%progbits
 483              		.align	1
 484              		.global	HAL_PWREx_DisableInternalWakeUpLine
 485              		.syntax unified
 486              		.thumb
 487              		.thumb_func
 489              	HAL_PWREx_DisableInternalWakeUpLine:
 490              	.LFB141:
 357:Drivers/STM32L4xx_HAL_Driver/Src/stm32l4xx_hal_pwr_ex.c **** 
 358:Drivers/STM32L4xx_HAL_Driver/Src/stm32l4xx_hal_pwr_ex.c **** 
 359:Drivers/STM32L4xx_HAL_Driver/Src/stm32l4xx_hal_pwr_ex.c **** /**
 360:Drivers/STM32L4xx_HAL_Driver/Src/stm32l4xx_hal_pwr_ex.c ****   * @brief Disable Internal Wake-up Line.
 361:Drivers/STM32L4xx_HAL_Driver/Src/stm32l4xx_hal_pwr_ex.c ****   * @retval None
 362:Drivers/STM32L4xx_HAL_Driver/Src/stm32l4xx_hal_pwr_ex.c ****   */
 363:Drivers/STM32L4xx_HAL_Driver/Src/stm32l4xx_hal_pwr_ex.c **** void HAL_PWREx_DisableInternalWakeUpLine(void)
 364:Drivers/STM32L4xx_HAL_Driver/Src/stm32l4xx_hal_pwr_ex.c **** {
 491              		.loc 1 364 1 is_stmt 1 view -0
 492              		.cfi_startproc
 493              		@ args = 0, pretend = 0, frame = 0
 494              		@ frame_needed = 0, uses_anonymous_args = 0
 495              		@ link register save eliminated.
 365:Drivers/STM32L4xx_HAL_Driver/Src/stm32l4xx_hal_pwr_ex.c ****   CLEAR_BIT(PWR->CR3, PWR_CR3_EIWF);
 496              		.loc 1 365 3 view .LVU99
 497 0000 024A     		ldr	r2, .L47
 498 0002 9368     		ldr	r3, [r2, #8]
 499 0004 23F40043 		bic	r3, r3, #32768
 500 0008 9360     		str	r3, [r2, #8]
 366:Drivers/STM32L4xx_HAL_Driver/Src/stm32l4xx_hal_pwr_ex.c **** }
 501              		.loc 1 366 1 is_stmt 0 view .LVU100
 502 000a 7047     		bx	lr
 503              	.L48:
 504              		.align	2
 505              	.L47:
 506 000c 00700040 		.word	1073770496
 507              		.cfi_endproc
 508              	.LFE141:
 510              		.section	.text.HAL_PWREx_EnableGPIOPullUp,"ax",%progbits
 511              		.align	1
 512              		.global	HAL_PWREx_EnableGPIOPullUp
 513              		.syntax unified
 514              		.thumb
 515              		.thumb_func
 517              	HAL_PWREx_EnableGPIOPullUp:
 518              	.LVL21:
 519              	.LFB142:
 367:Drivers/STM32L4xx_HAL_Driver/Src/stm32l4xx_hal_pwr_ex.c **** 
ARM GAS  C:\Users\gigig\AppData\Local\Temp\cczsSJ5Z.s 			page 17


 368:Drivers/STM32L4xx_HAL_Driver/Src/stm32l4xx_hal_pwr_ex.c **** 
 369:Drivers/STM32L4xx_HAL_Driver/Src/stm32l4xx_hal_pwr_ex.c **** 
 370:Drivers/STM32L4xx_HAL_Driver/Src/stm32l4xx_hal_pwr_ex.c **** /**
 371:Drivers/STM32L4xx_HAL_Driver/Src/stm32l4xx_hal_pwr_ex.c ****   * @brief Enable GPIO pull-up state in Standby and Shutdown modes.
 372:Drivers/STM32L4xx_HAL_Driver/Src/stm32l4xx_hal_pwr_ex.c ****   * @note  Set the relevant PUy bits of PWR_PUCRx register to configure the I/O in
 373:Drivers/STM32L4xx_HAL_Driver/Src/stm32l4xx_hal_pwr_ex.c ****   *        pull-up state in Standby and Shutdown modes.
 374:Drivers/STM32L4xx_HAL_Driver/Src/stm32l4xx_hal_pwr_ex.c ****   * @note  This state is effective in Standby and Shutdown modes only if APC bit
 375:Drivers/STM32L4xx_HAL_Driver/Src/stm32l4xx_hal_pwr_ex.c ****   *        is set through HAL_PWREx_EnablePullUpPullDownConfig() API.
 376:Drivers/STM32L4xx_HAL_Driver/Src/stm32l4xx_hal_pwr_ex.c ****   * @note  The configuration is lost when exiting the Shutdown mode due to the
 377:Drivers/STM32L4xx_HAL_Driver/Src/stm32l4xx_hal_pwr_ex.c ****   *        power-on reset, maintained when exiting the Standby mode.
 378:Drivers/STM32L4xx_HAL_Driver/Src/stm32l4xx_hal_pwr_ex.c ****   * @note  To avoid any conflict at Standby and Shutdown modes exits, the corresponding
 379:Drivers/STM32L4xx_HAL_Driver/Src/stm32l4xx_hal_pwr_ex.c ****   *        PDy bit of PWR_PDCRx register is cleared unless it is reserved.
 380:Drivers/STM32L4xx_HAL_Driver/Src/stm32l4xx_hal_pwr_ex.c ****   * @note  Even if a PUy bit to set is reserved, the other PUy bits entered as input
 381:Drivers/STM32L4xx_HAL_Driver/Src/stm32l4xx_hal_pwr_ex.c ****   *        parameter at the same time are set.
 382:Drivers/STM32L4xx_HAL_Driver/Src/stm32l4xx_hal_pwr_ex.c ****   * @param  GPIO Specify the IO port. This parameter can be PWR_GPIO_A, ..., PWR_GPIO_H
 383:Drivers/STM32L4xx_HAL_Driver/Src/stm32l4xx_hal_pwr_ex.c ****   *         (or PWR_GPIO_I depending on the devices) to select the GPIO peripheral.
 384:Drivers/STM32L4xx_HAL_Driver/Src/stm32l4xx_hal_pwr_ex.c ****   * @param  GPIONumber Specify the I/O pins numbers.
 385:Drivers/STM32L4xx_HAL_Driver/Src/stm32l4xx_hal_pwr_ex.c ****   *         This parameter can be one of the following values:
 386:Drivers/STM32L4xx_HAL_Driver/Src/stm32l4xx_hal_pwr_ex.c ****   *         PWR_GPIO_BIT_0, ..., PWR_GPIO_BIT_15 (except for the port where less
 387:Drivers/STM32L4xx_HAL_Driver/Src/stm32l4xx_hal_pwr_ex.c ****   *         I/O pins are available) or the logical OR of several of them to set
 388:Drivers/STM32L4xx_HAL_Driver/Src/stm32l4xx_hal_pwr_ex.c ****   *         several bits for a given port in a single API call.
 389:Drivers/STM32L4xx_HAL_Driver/Src/stm32l4xx_hal_pwr_ex.c ****   * @retval HAL Status
 390:Drivers/STM32L4xx_HAL_Driver/Src/stm32l4xx_hal_pwr_ex.c ****   */
 391:Drivers/STM32L4xx_HAL_Driver/Src/stm32l4xx_hal_pwr_ex.c **** HAL_StatusTypeDef HAL_PWREx_EnableGPIOPullUp(uint32_t GPIO, uint32_t GPIONumber)
 392:Drivers/STM32L4xx_HAL_Driver/Src/stm32l4xx_hal_pwr_ex.c **** {
 520              		.loc 1 392 1 is_stmt 1 view -0
 521              		.cfi_startproc
 522              		@ args = 0, pretend = 0, frame = 0
 523              		@ frame_needed = 0, uses_anonymous_args = 0
 524              		@ link register save eliminated.
 393:Drivers/STM32L4xx_HAL_Driver/Src/stm32l4xx_hal_pwr_ex.c ****   HAL_StatusTypeDef status = HAL_OK;
 525              		.loc 1 393 3 view .LVU102
 394:Drivers/STM32L4xx_HAL_Driver/Src/stm32l4xx_hal_pwr_ex.c **** 
 395:Drivers/STM32L4xx_HAL_Driver/Src/stm32l4xx_hal_pwr_ex.c ****   assert_param(IS_PWR_GPIO(GPIO));
 526              		.loc 1 395 3 view .LVU103
 396:Drivers/STM32L4xx_HAL_Driver/Src/stm32l4xx_hal_pwr_ex.c ****   assert_param(IS_PWR_GPIO_BIT_NUMBER(GPIONumber));
 527              		.loc 1 396 3 view .LVU104
 397:Drivers/STM32L4xx_HAL_Driver/Src/stm32l4xx_hal_pwr_ex.c **** 
 398:Drivers/STM32L4xx_HAL_Driver/Src/stm32l4xx_hal_pwr_ex.c ****   switch (GPIO)
 528              		.loc 1 398 3 view .LVU105
 529 0000 0828     		cmp	r0, #8
 530 0002 69D8     		bhi	.L61
 531 0004 DFE800F0 		tbb	[pc, r0]
 532              	.L52:
 533 0008 05       		.byte	(.L60-.L52)/2
 534 0009 13       		.byte	(.L59-.L52)/2
 535 000a 1F       		.byte	(.L58-.L52)/2
 536 000b 29       		.byte	(.L57-.L52)/2
 537 000c 33       		.byte	(.L56-.L52)/2
 538 000d 3D       		.byte	(.L55-.L52)/2
 539 000e 47       		.byte	(.L54-.L52)/2
 540 000f 51       		.byte	(.L53-.L52)/2
 541 0010 5C       		.byte	(.L51-.L52)/2
 542 0011 00       		.p2align 1
 543              	.L60:
 399:Drivers/STM32L4xx_HAL_Driver/Src/stm32l4xx_hal_pwr_ex.c ****   {
 400:Drivers/STM32L4xx_HAL_Driver/Src/stm32l4xx_hal_pwr_ex.c ****     case PWR_GPIO_A:
ARM GAS  C:\Users\gigig\AppData\Local\Temp\cczsSJ5Z.s 			page 18


 401:Drivers/STM32L4xx_HAL_Driver/Src/stm32l4xx_hal_pwr_ex.c ****        SET_BIT(PWR->PUCRA, (GPIONumber & (~(PWR_GPIO_BIT_14))));
 544              		.loc 1 401 8 view .LVU106
 545 0012 324B     		ldr	r3, .L62
 546 0014 1A6A     		ldr	r2, [r3, #32]
 547 0016 21F48040 		bic	r0, r1, #16384
 548              	.LVL22:
 549              		.loc 1 401 8 is_stmt 0 view .LVU107
 550 001a 0243     		orrs	r2, r2, r0
 551 001c 1A62     		str	r2, [r3, #32]
 402:Drivers/STM32L4xx_HAL_Driver/Src/stm32l4xx_hal_pwr_ex.c ****        CLEAR_BIT(PWR->PDCRA, (GPIONumber & (~(PWR_GPIO_BIT_13|PWR_GPIO_BIT_15))));
 552              		.loc 1 402 8 is_stmt 1 view .LVU108
 553 001e 5A6A     		ldr	r2, [r3, #36]
 554 0020 21F42041 		bic	r1, r1, #40960
 555              	.LVL23:
 556              		.loc 1 402 8 is_stmt 0 view .LVU109
 557 0024 22EA0102 		bic	r2, r2, r1
 558 0028 5A62     		str	r2, [r3, #36]
 403:Drivers/STM32L4xx_HAL_Driver/Src/stm32l4xx_hal_pwr_ex.c ****        break;
 559              		.loc 1 403 8 is_stmt 1 view .LVU110
 393:Drivers/STM32L4xx_HAL_Driver/Src/stm32l4xx_hal_pwr_ex.c **** 
 560              		.loc 1 393 21 is_stmt 0 view .LVU111
 561 002a 0020     		movs	r0, #0
 562              		.loc 1 403 8 view .LVU112
 563 002c 7047     		bx	lr
 564              	.LVL24:
 565              	.L59:
 404:Drivers/STM32L4xx_HAL_Driver/Src/stm32l4xx_hal_pwr_ex.c ****     case PWR_GPIO_B:
 405:Drivers/STM32L4xx_HAL_Driver/Src/stm32l4xx_hal_pwr_ex.c ****        SET_BIT(PWR->PUCRB, GPIONumber);
 566              		.loc 1 405 8 is_stmt 1 view .LVU113
 567 002e 2B4B     		ldr	r3, .L62
 568 0030 9A6A     		ldr	r2, [r3, #40]
 569 0032 0A43     		orrs	r2, r2, r1
 570 0034 9A62     		str	r2, [r3, #40]
 406:Drivers/STM32L4xx_HAL_Driver/Src/stm32l4xx_hal_pwr_ex.c ****        CLEAR_BIT(PWR->PDCRB, (GPIONumber & (~(PWR_GPIO_BIT_4))));
 571              		.loc 1 406 8 view .LVU114
 572 0036 DA6A     		ldr	r2, [r3, #44]
 573 0038 21F01001 		bic	r1, r1, #16
 574              	.LVL25:
 575              		.loc 1 406 8 is_stmt 0 view .LVU115
 576 003c 22EA0102 		bic	r2, r2, r1
 577 0040 DA62     		str	r2, [r3, #44]
 407:Drivers/STM32L4xx_HAL_Driver/Src/stm32l4xx_hal_pwr_ex.c ****        break;
 578              		.loc 1 407 8 is_stmt 1 view .LVU116
 393:Drivers/STM32L4xx_HAL_Driver/Src/stm32l4xx_hal_pwr_ex.c **** 
 579              		.loc 1 393 21 is_stmt 0 view .LVU117
 580 0042 0020     		movs	r0, #0
 581              	.LVL26:
 582              		.loc 1 407 8 view .LVU118
 583 0044 7047     		bx	lr
 584              	.LVL27:
 585              	.L58:
 408:Drivers/STM32L4xx_HAL_Driver/Src/stm32l4xx_hal_pwr_ex.c ****     case PWR_GPIO_C:
 409:Drivers/STM32L4xx_HAL_Driver/Src/stm32l4xx_hal_pwr_ex.c ****        SET_BIT(PWR->PUCRC, GPIONumber);
 586              		.loc 1 409 8 is_stmt 1 view .LVU119
 587 0046 254B     		ldr	r3, .L62
 588 0048 1A6B     		ldr	r2, [r3, #48]
 589 004a 0A43     		orrs	r2, r2, r1
ARM GAS  C:\Users\gigig\AppData\Local\Temp\cczsSJ5Z.s 			page 19


 590 004c 1A63     		str	r2, [r3, #48]
 410:Drivers/STM32L4xx_HAL_Driver/Src/stm32l4xx_hal_pwr_ex.c ****        CLEAR_BIT(PWR->PDCRC, GPIONumber);
 591              		.loc 1 410 8 view .LVU120
 592 004e 5A6B     		ldr	r2, [r3, #52]
 593 0050 22EA0102 		bic	r2, r2, r1
 594 0054 5A63     		str	r2, [r3, #52]
 411:Drivers/STM32L4xx_HAL_Driver/Src/stm32l4xx_hal_pwr_ex.c ****        break;
 595              		.loc 1 411 8 view .LVU121
 393:Drivers/STM32L4xx_HAL_Driver/Src/stm32l4xx_hal_pwr_ex.c **** 
 596              		.loc 1 393 21 is_stmt 0 view .LVU122
 597 0056 0020     		movs	r0, #0
 598              	.LVL28:
 599              		.loc 1 411 8 view .LVU123
 600 0058 7047     		bx	lr
 601              	.LVL29:
 602              	.L57:
 412:Drivers/STM32L4xx_HAL_Driver/Src/stm32l4xx_hal_pwr_ex.c **** #if defined(GPIOD)
 413:Drivers/STM32L4xx_HAL_Driver/Src/stm32l4xx_hal_pwr_ex.c ****     case PWR_GPIO_D:
 414:Drivers/STM32L4xx_HAL_Driver/Src/stm32l4xx_hal_pwr_ex.c ****        SET_BIT(PWR->PUCRD, GPIONumber);
 603              		.loc 1 414 8 is_stmt 1 view .LVU124
 604 005a 204B     		ldr	r3, .L62
 605 005c 9A6B     		ldr	r2, [r3, #56]
 606 005e 0A43     		orrs	r2, r2, r1
 607 0060 9A63     		str	r2, [r3, #56]
 415:Drivers/STM32L4xx_HAL_Driver/Src/stm32l4xx_hal_pwr_ex.c ****        CLEAR_BIT(PWR->PDCRD, GPIONumber);
 608              		.loc 1 415 8 view .LVU125
 609 0062 DA6B     		ldr	r2, [r3, #60]
 610 0064 22EA0102 		bic	r2, r2, r1
 611 0068 DA63     		str	r2, [r3, #60]
 416:Drivers/STM32L4xx_HAL_Driver/Src/stm32l4xx_hal_pwr_ex.c ****        break;
 612              		.loc 1 416 8 view .LVU126
 393:Drivers/STM32L4xx_HAL_Driver/Src/stm32l4xx_hal_pwr_ex.c **** 
 613              		.loc 1 393 21 is_stmt 0 view .LVU127
 614 006a 0020     		movs	r0, #0
 615              	.LVL30:
 616              		.loc 1 416 8 view .LVU128
 617 006c 7047     		bx	lr
 618              	.LVL31:
 619              	.L56:
 417:Drivers/STM32L4xx_HAL_Driver/Src/stm32l4xx_hal_pwr_ex.c **** #endif
 418:Drivers/STM32L4xx_HAL_Driver/Src/stm32l4xx_hal_pwr_ex.c **** #if defined(GPIOE)
 419:Drivers/STM32L4xx_HAL_Driver/Src/stm32l4xx_hal_pwr_ex.c ****     case PWR_GPIO_E:
 420:Drivers/STM32L4xx_HAL_Driver/Src/stm32l4xx_hal_pwr_ex.c ****        SET_BIT(PWR->PUCRE, GPIONumber);
 620              		.loc 1 420 8 is_stmt 1 view .LVU129
 621 006e 1B4B     		ldr	r3, .L62
 622 0070 1A6C     		ldr	r2, [r3, #64]
 623 0072 0A43     		orrs	r2, r2, r1
 624 0074 1A64     		str	r2, [r3, #64]
 421:Drivers/STM32L4xx_HAL_Driver/Src/stm32l4xx_hal_pwr_ex.c ****        CLEAR_BIT(PWR->PDCRE, GPIONumber);
 625              		.loc 1 421 8 view .LVU130
 626 0076 5A6C     		ldr	r2, [r3, #68]
 627 0078 22EA0102 		bic	r2, r2, r1
 628 007c 5A64     		str	r2, [r3, #68]
 422:Drivers/STM32L4xx_HAL_Driver/Src/stm32l4xx_hal_pwr_ex.c ****        break;
 629              		.loc 1 422 8 view .LVU131
 393:Drivers/STM32L4xx_HAL_Driver/Src/stm32l4xx_hal_pwr_ex.c **** 
 630              		.loc 1 393 21 is_stmt 0 view .LVU132
ARM GAS  C:\Users\gigig\AppData\Local\Temp\cczsSJ5Z.s 			page 20


 631 007e 0020     		movs	r0, #0
 632              	.LVL32:
 633              		.loc 1 422 8 view .LVU133
 634 0080 7047     		bx	lr
 635              	.LVL33:
 636              	.L55:
 423:Drivers/STM32L4xx_HAL_Driver/Src/stm32l4xx_hal_pwr_ex.c **** #endif
 424:Drivers/STM32L4xx_HAL_Driver/Src/stm32l4xx_hal_pwr_ex.c **** #if defined(GPIOF)
 425:Drivers/STM32L4xx_HAL_Driver/Src/stm32l4xx_hal_pwr_ex.c ****     case PWR_GPIO_F:
 426:Drivers/STM32L4xx_HAL_Driver/Src/stm32l4xx_hal_pwr_ex.c ****        SET_BIT(PWR->PUCRF, GPIONumber);
 637              		.loc 1 426 8 is_stmt 1 view .LVU134
 638 0082 164B     		ldr	r3, .L62
 639 0084 9A6C     		ldr	r2, [r3, #72]
 640 0086 0A43     		orrs	r2, r2, r1
 641 0088 9A64     		str	r2, [r3, #72]
 427:Drivers/STM32L4xx_HAL_Driver/Src/stm32l4xx_hal_pwr_ex.c ****        CLEAR_BIT(PWR->PDCRF, GPIONumber);
 642              		.loc 1 427 8 view .LVU135
 643 008a DA6C     		ldr	r2, [r3, #76]
 644 008c 22EA0102 		bic	r2, r2, r1
 645 0090 DA64     		str	r2, [r3, #76]
 428:Drivers/STM32L4xx_HAL_Driver/Src/stm32l4xx_hal_pwr_ex.c ****        break;
 646              		.loc 1 428 8 view .LVU136
 393:Drivers/STM32L4xx_HAL_Driver/Src/stm32l4xx_hal_pwr_ex.c **** 
 647              		.loc 1 393 21 is_stmt 0 view .LVU137
 648 0092 0020     		movs	r0, #0
 649              	.LVL34:
 650              		.loc 1 428 8 view .LVU138
 651 0094 7047     		bx	lr
 652              	.LVL35:
 653              	.L54:
 429:Drivers/STM32L4xx_HAL_Driver/Src/stm32l4xx_hal_pwr_ex.c **** #endif
 430:Drivers/STM32L4xx_HAL_Driver/Src/stm32l4xx_hal_pwr_ex.c **** #if defined(GPIOG)
 431:Drivers/STM32L4xx_HAL_Driver/Src/stm32l4xx_hal_pwr_ex.c ****     case PWR_GPIO_G:
 432:Drivers/STM32L4xx_HAL_Driver/Src/stm32l4xx_hal_pwr_ex.c ****        SET_BIT(PWR->PUCRG, GPIONumber);
 654              		.loc 1 432 8 is_stmt 1 view .LVU139
 655 0096 114B     		ldr	r3, .L62
 656 0098 1A6D     		ldr	r2, [r3, #80]
 657 009a 0A43     		orrs	r2, r2, r1
 658 009c 1A65     		str	r2, [r3, #80]
 433:Drivers/STM32L4xx_HAL_Driver/Src/stm32l4xx_hal_pwr_ex.c ****        CLEAR_BIT(PWR->PDCRG, GPIONumber);
 659              		.loc 1 433 8 view .LVU140
 660 009e 5A6D     		ldr	r2, [r3, #84]
 661 00a0 22EA0102 		bic	r2, r2, r1
 662 00a4 5A65     		str	r2, [r3, #84]
 434:Drivers/STM32L4xx_HAL_Driver/Src/stm32l4xx_hal_pwr_ex.c ****        break;
 663              		.loc 1 434 8 view .LVU141
 393:Drivers/STM32L4xx_HAL_Driver/Src/stm32l4xx_hal_pwr_ex.c **** 
 664              		.loc 1 393 21 is_stmt 0 view .LVU142
 665 00a6 0020     		movs	r0, #0
 666              	.LVL36:
 667              		.loc 1 434 8 view .LVU143
 668 00a8 7047     		bx	lr
 669              	.LVL37:
 670              	.L53:
 435:Drivers/STM32L4xx_HAL_Driver/Src/stm32l4xx_hal_pwr_ex.c **** #endif
 436:Drivers/STM32L4xx_HAL_Driver/Src/stm32l4xx_hal_pwr_ex.c ****     case PWR_GPIO_H:
 437:Drivers/STM32L4xx_HAL_Driver/Src/stm32l4xx_hal_pwr_ex.c ****        SET_BIT(PWR->PUCRH, (GPIONumber & PWR_PORTH_AVAILABLE_PINS));
ARM GAS  C:\Users\gigig\AppData\Local\Temp\cczsSJ5Z.s 			page 21


 671              		.loc 1 437 8 is_stmt 1 view .LVU144
 672 00aa 0C4B     		ldr	r3, .L62
 673 00ac 9A6D     		ldr	r2, [r3, #88]
 674 00ae 89B2     		uxth	r1, r1
 675              	.LVL38:
 676              		.loc 1 437 8 is_stmt 0 view .LVU145
 677 00b0 0A43     		orrs	r2, r2, r1
 678 00b2 9A65     		str	r2, [r3, #88]
 438:Drivers/STM32L4xx_HAL_Driver/Src/stm32l4xx_hal_pwr_ex.c **** #if defined (STM32L496xx) || defined (STM32L4A6xx)
 439:Drivers/STM32L4xx_HAL_Driver/Src/stm32l4xx_hal_pwr_ex.c ****        CLEAR_BIT(PWR->PDCRH, ((GPIONumber & PWR_PORTH_AVAILABLE_PINS) & (~(PWR_GPIO_BIT_3))));
 440:Drivers/STM32L4xx_HAL_Driver/Src/stm32l4xx_hal_pwr_ex.c **** #else
 441:Drivers/STM32L4xx_HAL_Driver/Src/stm32l4xx_hal_pwr_ex.c ****        CLEAR_BIT(PWR->PDCRH, (GPIONumber & PWR_PORTH_AVAILABLE_PINS));
 679              		.loc 1 441 8 is_stmt 1 view .LVU146
 680 00b4 DA6D     		ldr	r2, [r3, #92]
 681 00b6 22EA0102 		bic	r2, r2, r1
 682 00ba DA65     		str	r2, [r3, #92]
 442:Drivers/STM32L4xx_HAL_Driver/Src/stm32l4xx_hal_pwr_ex.c **** #endif
 443:Drivers/STM32L4xx_HAL_Driver/Src/stm32l4xx_hal_pwr_ex.c ****        break;
 683              		.loc 1 443 8 view .LVU147
 393:Drivers/STM32L4xx_HAL_Driver/Src/stm32l4xx_hal_pwr_ex.c **** 
 684              		.loc 1 393 21 is_stmt 0 view .LVU148
 685 00bc 0020     		movs	r0, #0
 686              	.LVL39:
 687              		.loc 1 443 8 view .LVU149
 688 00be 7047     		bx	lr
 689              	.LVL40:
 690              	.L51:
 444:Drivers/STM32L4xx_HAL_Driver/Src/stm32l4xx_hal_pwr_ex.c **** #if defined(GPIOI)
 445:Drivers/STM32L4xx_HAL_Driver/Src/stm32l4xx_hal_pwr_ex.c ****     case PWR_GPIO_I:
 446:Drivers/STM32L4xx_HAL_Driver/Src/stm32l4xx_hal_pwr_ex.c ****        SET_BIT(PWR->PUCRI, (GPIONumber & PWR_PORTI_AVAILABLE_PINS));
 691              		.loc 1 446 8 is_stmt 1 view .LVU150
 692 00c0 064B     		ldr	r3, .L62
 693 00c2 1A6E     		ldr	r2, [r3, #96]
 694 00c4 C1F30B01 		ubfx	r1, r1, #0, #12
 695              	.LVL41:
 696              		.loc 1 446 8 is_stmt 0 view .LVU151
 697 00c8 0A43     		orrs	r2, r2, r1
 698 00ca 1A66     		str	r2, [r3, #96]
 447:Drivers/STM32L4xx_HAL_Driver/Src/stm32l4xx_hal_pwr_ex.c ****        CLEAR_BIT(PWR->PDCRI, (GPIONumber & PWR_PORTI_AVAILABLE_PINS));
 699              		.loc 1 447 8 is_stmt 1 view .LVU152
 700 00cc 5A6E     		ldr	r2, [r3, #100]
 701 00ce 22EA0102 		bic	r2, r2, r1
 702 00d2 5A66     		str	r2, [r3, #100]
 448:Drivers/STM32L4xx_HAL_Driver/Src/stm32l4xx_hal_pwr_ex.c ****        break;
 703              		.loc 1 448 8 view .LVU153
 393:Drivers/STM32L4xx_HAL_Driver/Src/stm32l4xx_hal_pwr_ex.c **** 
 704              		.loc 1 393 21 is_stmt 0 view .LVU154
 705 00d4 0020     		movs	r0, #0
 706              	.LVL42:
 707              		.loc 1 448 8 view .LVU155
 708 00d6 7047     		bx	lr
 709              	.LVL43:
 710              	.L61:
 398:Drivers/STM32L4xx_HAL_Driver/Src/stm32l4xx_hal_pwr_ex.c ****   {
 711              		.loc 1 398 3 view .LVU156
 712 00d8 0120     		movs	r0, #1
 713              	.LVL44:
ARM GAS  C:\Users\gigig\AppData\Local\Temp\cczsSJ5Z.s 			page 22


 449:Drivers/STM32L4xx_HAL_Driver/Src/stm32l4xx_hal_pwr_ex.c **** #endif
 450:Drivers/STM32L4xx_HAL_Driver/Src/stm32l4xx_hal_pwr_ex.c ****     default:
 451:Drivers/STM32L4xx_HAL_Driver/Src/stm32l4xx_hal_pwr_ex.c ****       status = HAL_ERROR;
 452:Drivers/STM32L4xx_HAL_Driver/Src/stm32l4xx_hal_pwr_ex.c ****       break;
 453:Drivers/STM32L4xx_HAL_Driver/Src/stm32l4xx_hal_pwr_ex.c ****   }
 454:Drivers/STM32L4xx_HAL_Driver/Src/stm32l4xx_hal_pwr_ex.c **** 
 455:Drivers/STM32L4xx_HAL_Driver/Src/stm32l4xx_hal_pwr_ex.c ****   return status;
 714              		.loc 1 455 3 is_stmt 1 view .LVU157
 456:Drivers/STM32L4xx_HAL_Driver/Src/stm32l4xx_hal_pwr_ex.c **** }
 715              		.loc 1 456 1 is_stmt 0 view .LVU158
 716 00da 7047     		bx	lr
 717              	.L63:
 718              		.align	2
 719              	.L62:
 720 00dc 00700040 		.word	1073770496
 721              		.cfi_endproc
 722              	.LFE142:
 724              		.section	.text.HAL_PWREx_DisableGPIOPullUp,"ax",%progbits
 725              		.align	1
 726              		.global	HAL_PWREx_DisableGPIOPullUp
 727              		.syntax unified
 728              		.thumb
 729              		.thumb_func
 731              	HAL_PWREx_DisableGPIOPullUp:
 732              	.LVL45:
 733              	.LFB143:
 457:Drivers/STM32L4xx_HAL_Driver/Src/stm32l4xx_hal_pwr_ex.c **** 
 458:Drivers/STM32L4xx_HAL_Driver/Src/stm32l4xx_hal_pwr_ex.c **** 
 459:Drivers/STM32L4xx_HAL_Driver/Src/stm32l4xx_hal_pwr_ex.c **** /**
 460:Drivers/STM32L4xx_HAL_Driver/Src/stm32l4xx_hal_pwr_ex.c ****   * @brief Disable GPIO pull-up state in Standby mode and Shutdown modes.
 461:Drivers/STM32L4xx_HAL_Driver/Src/stm32l4xx_hal_pwr_ex.c ****   * @note  Reset the relevant PUy bits of PWR_PUCRx register used to configure the I/O
 462:Drivers/STM32L4xx_HAL_Driver/Src/stm32l4xx_hal_pwr_ex.c ****   *        in pull-up state in Standby and Shutdown modes.
 463:Drivers/STM32L4xx_HAL_Driver/Src/stm32l4xx_hal_pwr_ex.c ****   * @note  Even if a PUy bit to reset is reserved, the other PUy bits entered as input
 464:Drivers/STM32L4xx_HAL_Driver/Src/stm32l4xx_hal_pwr_ex.c ****   *        parameter at the same time are reset.
 465:Drivers/STM32L4xx_HAL_Driver/Src/stm32l4xx_hal_pwr_ex.c ****   * @param  GPIO Specifies the IO port. This parameter can be PWR_GPIO_A, ..., PWR_GPIO_H
 466:Drivers/STM32L4xx_HAL_Driver/Src/stm32l4xx_hal_pwr_ex.c ****   *          (or PWR_GPIO_I depending on the devices) to select the GPIO peripheral.
 467:Drivers/STM32L4xx_HAL_Driver/Src/stm32l4xx_hal_pwr_ex.c ****   * @param  GPIONumber Specify the I/O pins numbers.
 468:Drivers/STM32L4xx_HAL_Driver/Src/stm32l4xx_hal_pwr_ex.c ****   *         This parameter can be one of the following values:
 469:Drivers/STM32L4xx_HAL_Driver/Src/stm32l4xx_hal_pwr_ex.c ****   *         PWR_GPIO_BIT_0, ..., PWR_GPIO_BIT_15 (except for the port where less
 470:Drivers/STM32L4xx_HAL_Driver/Src/stm32l4xx_hal_pwr_ex.c ****   *         I/O pins are available) or the logical OR of several of them to reset
 471:Drivers/STM32L4xx_HAL_Driver/Src/stm32l4xx_hal_pwr_ex.c ****   *         several bits for a given port in a single API call.
 472:Drivers/STM32L4xx_HAL_Driver/Src/stm32l4xx_hal_pwr_ex.c ****   * @retval HAL Status
 473:Drivers/STM32L4xx_HAL_Driver/Src/stm32l4xx_hal_pwr_ex.c ****   */
 474:Drivers/STM32L4xx_HAL_Driver/Src/stm32l4xx_hal_pwr_ex.c **** HAL_StatusTypeDef HAL_PWREx_DisableGPIOPullUp(uint32_t GPIO, uint32_t GPIONumber)
 475:Drivers/STM32L4xx_HAL_Driver/Src/stm32l4xx_hal_pwr_ex.c **** {
 734              		.loc 1 475 1 is_stmt 1 view -0
 735              		.cfi_startproc
 736              		@ args = 0, pretend = 0, frame = 0
 737              		@ frame_needed = 0, uses_anonymous_args = 0
 738              		@ link register save eliminated.
 476:Drivers/STM32L4xx_HAL_Driver/Src/stm32l4xx_hal_pwr_ex.c ****   HAL_StatusTypeDef status = HAL_OK;
 739              		.loc 1 476 3 view .LVU160
 477:Drivers/STM32L4xx_HAL_Driver/Src/stm32l4xx_hal_pwr_ex.c **** 
 478:Drivers/STM32L4xx_HAL_Driver/Src/stm32l4xx_hal_pwr_ex.c ****   assert_param(IS_PWR_GPIO(GPIO));
 740              		.loc 1 478 3 view .LVU161
 479:Drivers/STM32L4xx_HAL_Driver/Src/stm32l4xx_hal_pwr_ex.c ****   assert_param(IS_PWR_GPIO_BIT_NUMBER(GPIONumber));
 741              		.loc 1 479 3 view .LVU162
ARM GAS  C:\Users\gigig\AppData\Local\Temp\cczsSJ5Z.s 			page 23


 480:Drivers/STM32L4xx_HAL_Driver/Src/stm32l4xx_hal_pwr_ex.c **** 
 481:Drivers/STM32L4xx_HAL_Driver/Src/stm32l4xx_hal_pwr_ex.c ****   switch (GPIO)
 742              		.loc 1 481 3 view .LVU163
 743 0000 0828     		cmp	r0, #8
 744 0002 4AD8     		bhi	.L76
 745 0004 DFE800F0 		tbb	[pc, r0]
 746              	.L67:
 747 0008 05       		.byte	(.L75-.L67)/2
 748 0009 0E       		.byte	(.L74-.L67)/2
 749 000a 15       		.byte	(.L73-.L67)/2
 750 000b 1C       		.byte	(.L72-.L67)/2
 751 000c 23       		.byte	(.L71-.L67)/2
 752 000d 2A       		.byte	(.L70-.L67)/2
 753 000e 31       		.byte	(.L69-.L67)/2
 754 000f 38       		.byte	(.L68-.L67)/2
 755 0010 40       		.byte	(.L66-.L67)/2
 756 0011 00       		.p2align 1
 757              	.L75:
 482:Drivers/STM32L4xx_HAL_Driver/Src/stm32l4xx_hal_pwr_ex.c ****   {
 483:Drivers/STM32L4xx_HAL_Driver/Src/stm32l4xx_hal_pwr_ex.c ****     case PWR_GPIO_A:
 484:Drivers/STM32L4xx_HAL_Driver/Src/stm32l4xx_hal_pwr_ex.c ****        CLEAR_BIT(PWR->PUCRA, (GPIONumber & (~(PWR_GPIO_BIT_14))));
 758              		.loc 1 484 8 view .LVU164
 759 0012 234A     		ldr	r2, .L77
 760 0014 136A     		ldr	r3, [r2, #32]
 761 0016 21F48041 		bic	r1, r1, #16384
 762              	.LVL46:
 763              		.loc 1 484 8 is_stmt 0 view .LVU165
 764 001a 23EA0101 		bic	r1, r3, r1
 765 001e 1162     		str	r1, [r2, #32]
 485:Drivers/STM32L4xx_HAL_Driver/Src/stm32l4xx_hal_pwr_ex.c ****        break;
 766              		.loc 1 485 8 is_stmt 1 view .LVU166
 476:Drivers/STM32L4xx_HAL_Driver/Src/stm32l4xx_hal_pwr_ex.c **** 
 767              		.loc 1 476 21 is_stmt 0 view .LVU167
 768 0020 0020     		movs	r0, #0
 769              	.LVL47:
 770              		.loc 1 485 8 view .LVU168
 771 0022 7047     		bx	lr
 772              	.LVL48:
 773              	.L74:
 486:Drivers/STM32L4xx_HAL_Driver/Src/stm32l4xx_hal_pwr_ex.c ****     case PWR_GPIO_B:
 487:Drivers/STM32L4xx_HAL_Driver/Src/stm32l4xx_hal_pwr_ex.c ****        CLEAR_BIT(PWR->PUCRB, GPIONumber);
 774              		.loc 1 487 8 is_stmt 1 view .LVU169
 775 0024 1E4A     		ldr	r2, .L77
 776 0026 936A     		ldr	r3, [r2, #40]
 777 0028 23EA0103 		bic	r3, r3, r1
 778 002c 9362     		str	r3, [r2, #40]
 488:Drivers/STM32L4xx_HAL_Driver/Src/stm32l4xx_hal_pwr_ex.c ****        break;
 779              		.loc 1 488 8 view .LVU170
 476:Drivers/STM32L4xx_HAL_Driver/Src/stm32l4xx_hal_pwr_ex.c **** 
 780              		.loc 1 476 21 is_stmt 0 view .LVU171
 781 002e 0020     		movs	r0, #0
 782              	.LVL49:
 783              		.loc 1 488 8 view .LVU172
 784 0030 7047     		bx	lr
 785              	.LVL50:
 786              	.L73:
 489:Drivers/STM32L4xx_HAL_Driver/Src/stm32l4xx_hal_pwr_ex.c ****     case PWR_GPIO_C:
ARM GAS  C:\Users\gigig\AppData\Local\Temp\cczsSJ5Z.s 			page 24


 490:Drivers/STM32L4xx_HAL_Driver/Src/stm32l4xx_hal_pwr_ex.c ****        CLEAR_BIT(PWR->PUCRC, GPIONumber);
 787              		.loc 1 490 8 is_stmt 1 view .LVU173
 788 0032 1B4A     		ldr	r2, .L77
 789 0034 136B     		ldr	r3, [r2, #48]
 790 0036 23EA0103 		bic	r3, r3, r1
 791 003a 1363     		str	r3, [r2, #48]
 491:Drivers/STM32L4xx_HAL_Driver/Src/stm32l4xx_hal_pwr_ex.c ****        break;
 792              		.loc 1 491 8 view .LVU174
 476:Drivers/STM32L4xx_HAL_Driver/Src/stm32l4xx_hal_pwr_ex.c **** 
 793              		.loc 1 476 21 is_stmt 0 view .LVU175
 794 003c 0020     		movs	r0, #0
 795              	.LVL51:
 796              		.loc 1 491 8 view .LVU176
 797 003e 7047     		bx	lr
 798              	.LVL52:
 799              	.L72:
 492:Drivers/STM32L4xx_HAL_Driver/Src/stm32l4xx_hal_pwr_ex.c **** #if defined(GPIOD)
 493:Drivers/STM32L4xx_HAL_Driver/Src/stm32l4xx_hal_pwr_ex.c ****     case PWR_GPIO_D:
 494:Drivers/STM32L4xx_HAL_Driver/Src/stm32l4xx_hal_pwr_ex.c ****        CLEAR_BIT(PWR->PUCRD, GPIONumber);
 800              		.loc 1 494 8 is_stmt 1 view .LVU177
 801 0040 174A     		ldr	r2, .L77
 802 0042 936B     		ldr	r3, [r2, #56]
 803 0044 23EA0103 		bic	r3, r3, r1
 804 0048 9363     		str	r3, [r2, #56]
 495:Drivers/STM32L4xx_HAL_Driver/Src/stm32l4xx_hal_pwr_ex.c ****        break;
 805              		.loc 1 495 8 view .LVU178
 476:Drivers/STM32L4xx_HAL_Driver/Src/stm32l4xx_hal_pwr_ex.c **** 
 806              		.loc 1 476 21 is_stmt 0 view .LVU179
 807 004a 0020     		movs	r0, #0
 808              	.LVL53:
 809              		.loc 1 495 8 view .LVU180
 810 004c 7047     		bx	lr
 811              	.LVL54:
 812              	.L71:
 496:Drivers/STM32L4xx_HAL_Driver/Src/stm32l4xx_hal_pwr_ex.c **** #endif
 497:Drivers/STM32L4xx_HAL_Driver/Src/stm32l4xx_hal_pwr_ex.c **** #if defined(GPIOE)
 498:Drivers/STM32L4xx_HAL_Driver/Src/stm32l4xx_hal_pwr_ex.c ****     case PWR_GPIO_E:
 499:Drivers/STM32L4xx_HAL_Driver/Src/stm32l4xx_hal_pwr_ex.c ****        CLEAR_BIT(PWR->PUCRE, GPIONumber);
 813              		.loc 1 499 8 is_stmt 1 view .LVU181
 814 004e 144A     		ldr	r2, .L77
 815 0050 136C     		ldr	r3, [r2, #64]
 816 0052 23EA0103 		bic	r3, r3, r1
 817 0056 1364     		str	r3, [r2, #64]
 500:Drivers/STM32L4xx_HAL_Driver/Src/stm32l4xx_hal_pwr_ex.c ****        break;
 818              		.loc 1 500 8 view .LVU182
 476:Drivers/STM32L4xx_HAL_Driver/Src/stm32l4xx_hal_pwr_ex.c **** 
 819              		.loc 1 476 21 is_stmt 0 view .LVU183
 820 0058 0020     		movs	r0, #0
 821              	.LVL55:
 822              		.loc 1 500 8 view .LVU184
 823 005a 7047     		bx	lr
 824              	.LVL56:
 825              	.L70:
 501:Drivers/STM32L4xx_HAL_Driver/Src/stm32l4xx_hal_pwr_ex.c **** #endif
 502:Drivers/STM32L4xx_HAL_Driver/Src/stm32l4xx_hal_pwr_ex.c **** #if defined(GPIOF)
 503:Drivers/STM32L4xx_HAL_Driver/Src/stm32l4xx_hal_pwr_ex.c ****     case PWR_GPIO_F:
 504:Drivers/STM32L4xx_HAL_Driver/Src/stm32l4xx_hal_pwr_ex.c ****        CLEAR_BIT(PWR->PUCRF, GPIONumber);
ARM GAS  C:\Users\gigig\AppData\Local\Temp\cczsSJ5Z.s 			page 25


 826              		.loc 1 504 8 is_stmt 1 view .LVU185
 827 005c 104A     		ldr	r2, .L77
 828 005e 936C     		ldr	r3, [r2, #72]
 829 0060 23EA0103 		bic	r3, r3, r1
 830 0064 9364     		str	r3, [r2, #72]
 505:Drivers/STM32L4xx_HAL_Driver/Src/stm32l4xx_hal_pwr_ex.c ****        break;
 831              		.loc 1 505 8 view .LVU186
 476:Drivers/STM32L4xx_HAL_Driver/Src/stm32l4xx_hal_pwr_ex.c **** 
 832              		.loc 1 476 21 is_stmt 0 view .LVU187
 833 0066 0020     		movs	r0, #0
 834              	.LVL57:
 835              		.loc 1 505 8 view .LVU188
 836 0068 7047     		bx	lr
 837              	.LVL58:
 838              	.L69:
 506:Drivers/STM32L4xx_HAL_Driver/Src/stm32l4xx_hal_pwr_ex.c **** #endif
 507:Drivers/STM32L4xx_HAL_Driver/Src/stm32l4xx_hal_pwr_ex.c **** #if defined(GPIOG)
 508:Drivers/STM32L4xx_HAL_Driver/Src/stm32l4xx_hal_pwr_ex.c ****     case PWR_GPIO_G:
 509:Drivers/STM32L4xx_HAL_Driver/Src/stm32l4xx_hal_pwr_ex.c ****        CLEAR_BIT(PWR->PUCRG, GPIONumber);
 839              		.loc 1 509 8 is_stmt 1 view .LVU189
 840 006a 0D4A     		ldr	r2, .L77
 841 006c 136D     		ldr	r3, [r2, #80]
 842 006e 23EA0103 		bic	r3, r3, r1
 843 0072 1365     		str	r3, [r2, #80]
 510:Drivers/STM32L4xx_HAL_Driver/Src/stm32l4xx_hal_pwr_ex.c ****        break;
 844              		.loc 1 510 8 view .LVU190
 476:Drivers/STM32L4xx_HAL_Driver/Src/stm32l4xx_hal_pwr_ex.c **** 
 845              		.loc 1 476 21 is_stmt 0 view .LVU191
 846 0074 0020     		movs	r0, #0
 847              	.LVL59:
 848              		.loc 1 510 8 view .LVU192
 849 0076 7047     		bx	lr
 850              	.LVL60:
 851              	.L68:
 511:Drivers/STM32L4xx_HAL_Driver/Src/stm32l4xx_hal_pwr_ex.c **** #endif
 512:Drivers/STM32L4xx_HAL_Driver/Src/stm32l4xx_hal_pwr_ex.c ****     case PWR_GPIO_H:
 513:Drivers/STM32L4xx_HAL_Driver/Src/stm32l4xx_hal_pwr_ex.c ****        CLEAR_BIT(PWR->PUCRH, (GPIONumber & PWR_PORTH_AVAILABLE_PINS));
 852              		.loc 1 513 8 is_stmt 1 view .LVU193
 853 0078 094A     		ldr	r2, .L77
 854 007a 936D     		ldr	r3, [r2, #88]
 855 007c 89B2     		uxth	r1, r1
 856              	.LVL61:
 857              		.loc 1 513 8 is_stmt 0 view .LVU194
 858 007e 23EA0101 		bic	r1, r3, r1
 859 0082 9165     		str	r1, [r2, #88]
 514:Drivers/STM32L4xx_HAL_Driver/Src/stm32l4xx_hal_pwr_ex.c ****        break;
 860              		.loc 1 514 8 is_stmt 1 view .LVU195
 476:Drivers/STM32L4xx_HAL_Driver/Src/stm32l4xx_hal_pwr_ex.c **** 
 861              		.loc 1 476 21 is_stmt 0 view .LVU196
 862 0084 0020     		movs	r0, #0
 863              	.LVL62:
 864              		.loc 1 514 8 view .LVU197
 865 0086 7047     		bx	lr
 866              	.LVL63:
 867              	.L66:
 515:Drivers/STM32L4xx_HAL_Driver/Src/stm32l4xx_hal_pwr_ex.c **** #if defined(GPIOI)
 516:Drivers/STM32L4xx_HAL_Driver/Src/stm32l4xx_hal_pwr_ex.c ****     case PWR_GPIO_I:
ARM GAS  C:\Users\gigig\AppData\Local\Temp\cczsSJ5Z.s 			page 26


 517:Drivers/STM32L4xx_HAL_Driver/Src/stm32l4xx_hal_pwr_ex.c ****        CLEAR_BIT(PWR->PUCRI, (GPIONumber & PWR_PORTI_AVAILABLE_PINS));
 868              		.loc 1 517 8 is_stmt 1 view .LVU198
 869 0088 054A     		ldr	r2, .L77
 870 008a 136E     		ldr	r3, [r2, #96]
 871 008c C1F30B01 		ubfx	r1, r1, #0, #12
 872              	.LVL64:
 873              		.loc 1 517 8 is_stmt 0 view .LVU199
 874 0090 23EA0103 		bic	r3, r3, r1
 875 0094 1366     		str	r3, [r2, #96]
 518:Drivers/STM32L4xx_HAL_Driver/Src/stm32l4xx_hal_pwr_ex.c ****        break;
 876              		.loc 1 518 8 is_stmt 1 view .LVU200
 476:Drivers/STM32L4xx_HAL_Driver/Src/stm32l4xx_hal_pwr_ex.c **** 
 877              		.loc 1 476 21 is_stmt 0 view .LVU201
 878 0096 0020     		movs	r0, #0
 879              	.LVL65:
 880              		.loc 1 518 8 view .LVU202
 881 0098 7047     		bx	lr
 882              	.LVL66:
 883              	.L76:
 481:Drivers/STM32L4xx_HAL_Driver/Src/stm32l4xx_hal_pwr_ex.c ****   {
 884              		.loc 1 481 3 view .LVU203
 885 009a 0120     		movs	r0, #1
 886              	.LVL67:
 519:Drivers/STM32L4xx_HAL_Driver/Src/stm32l4xx_hal_pwr_ex.c **** #endif
 520:Drivers/STM32L4xx_HAL_Driver/Src/stm32l4xx_hal_pwr_ex.c ****     default:
 521:Drivers/STM32L4xx_HAL_Driver/Src/stm32l4xx_hal_pwr_ex.c ****        status = HAL_ERROR;
 522:Drivers/STM32L4xx_HAL_Driver/Src/stm32l4xx_hal_pwr_ex.c ****        break;
 523:Drivers/STM32L4xx_HAL_Driver/Src/stm32l4xx_hal_pwr_ex.c ****   }
 524:Drivers/STM32L4xx_HAL_Driver/Src/stm32l4xx_hal_pwr_ex.c **** 
 525:Drivers/STM32L4xx_HAL_Driver/Src/stm32l4xx_hal_pwr_ex.c ****   return status;
 887              		.loc 1 525 3 is_stmt 1 view .LVU204
 526:Drivers/STM32L4xx_HAL_Driver/Src/stm32l4xx_hal_pwr_ex.c **** }
 888              		.loc 1 526 1 is_stmt 0 view .LVU205
 889 009c 7047     		bx	lr
 890              	.L78:
 891 009e 00BF     		.align	2
 892              	.L77:
 893 00a0 00700040 		.word	1073770496
 894              		.cfi_endproc
 895              	.LFE143:
 897              		.section	.text.HAL_PWREx_EnableGPIOPullDown,"ax",%progbits
 898              		.align	1
 899              		.global	HAL_PWREx_EnableGPIOPullDown
 900              		.syntax unified
 901              		.thumb
 902              		.thumb_func
 904              	HAL_PWREx_EnableGPIOPullDown:
 905              	.LVL68:
 906              	.LFB144:
 527:Drivers/STM32L4xx_HAL_Driver/Src/stm32l4xx_hal_pwr_ex.c **** 
 528:Drivers/STM32L4xx_HAL_Driver/Src/stm32l4xx_hal_pwr_ex.c **** 
 529:Drivers/STM32L4xx_HAL_Driver/Src/stm32l4xx_hal_pwr_ex.c **** 
 530:Drivers/STM32L4xx_HAL_Driver/Src/stm32l4xx_hal_pwr_ex.c **** /**
 531:Drivers/STM32L4xx_HAL_Driver/Src/stm32l4xx_hal_pwr_ex.c ****   * @brief Enable GPIO pull-down state in Standby and Shutdown modes.
 532:Drivers/STM32L4xx_HAL_Driver/Src/stm32l4xx_hal_pwr_ex.c ****   * @note  Set the relevant PDy bits of PWR_PDCRx register to configure the I/O in
 533:Drivers/STM32L4xx_HAL_Driver/Src/stm32l4xx_hal_pwr_ex.c ****   *        pull-down state in Standby and Shutdown modes.
 534:Drivers/STM32L4xx_HAL_Driver/Src/stm32l4xx_hal_pwr_ex.c ****   * @note  This state is effective in Standby and Shutdown modes only if APC bit
ARM GAS  C:\Users\gigig\AppData\Local\Temp\cczsSJ5Z.s 			page 27


 535:Drivers/STM32L4xx_HAL_Driver/Src/stm32l4xx_hal_pwr_ex.c ****   *        is set through HAL_PWREx_EnablePullUpPullDownConfig() API.
 536:Drivers/STM32L4xx_HAL_Driver/Src/stm32l4xx_hal_pwr_ex.c ****   * @note  The configuration is lost when exiting the Shutdown mode due to the
 537:Drivers/STM32L4xx_HAL_Driver/Src/stm32l4xx_hal_pwr_ex.c ****   *        power-on reset, maintained when exiting the Standby mode.
 538:Drivers/STM32L4xx_HAL_Driver/Src/stm32l4xx_hal_pwr_ex.c ****   * @note  To avoid any conflict at Standby and Shutdown modes exits, the corresponding
 539:Drivers/STM32L4xx_HAL_Driver/Src/stm32l4xx_hal_pwr_ex.c ****   *        PUy bit of PWR_PUCRx register is cleared unless it is reserved.
 540:Drivers/STM32L4xx_HAL_Driver/Src/stm32l4xx_hal_pwr_ex.c ****   * @note  Even if a PDy bit to set is reserved, the other PDy bits entered as input
 541:Drivers/STM32L4xx_HAL_Driver/Src/stm32l4xx_hal_pwr_ex.c ****   *        parameter at the same time are set.
 542:Drivers/STM32L4xx_HAL_Driver/Src/stm32l4xx_hal_pwr_ex.c ****   * @param  GPIO Specify the IO port. This parameter can be PWR_GPIO_A..PWR_GPIO_H
 543:Drivers/STM32L4xx_HAL_Driver/Src/stm32l4xx_hal_pwr_ex.c ****   *         (or PWR_GPIO_I depending on the devices) to select the GPIO peripheral.
 544:Drivers/STM32L4xx_HAL_Driver/Src/stm32l4xx_hal_pwr_ex.c ****   * @param  GPIONumber Specify the I/O pins numbers.
 545:Drivers/STM32L4xx_HAL_Driver/Src/stm32l4xx_hal_pwr_ex.c ****   *         This parameter can be one of the following values:
 546:Drivers/STM32L4xx_HAL_Driver/Src/stm32l4xx_hal_pwr_ex.c ****   *         PWR_GPIO_BIT_0, ..., PWR_GPIO_BIT_15 (except for the port where less
 547:Drivers/STM32L4xx_HAL_Driver/Src/stm32l4xx_hal_pwr_ex.c ****   *         I/O pins are available) or the logical OR of several of them to set
 548:Drivers/STM32L4xx_HAL_Driver/Src/stm32l4xx_hal_pwr_ex.c ****   *         several bits for a given port in a single API call.
 549:Drivers/STM32L4xx_HAL_Driver/Src/stm32l4xx_hal_pwr_ex.c ****   * @retval HAL Status
 550:Drivers/STM32L4xx_HAL_Driver/Src/stm32l4xx_hal_pwr_ex.c ****   */
 551:Drivers/STM32L4xx_HAL_Driver/Src/stm32l4xx_hal_pwr_ex.c **** HAL_StatusTypeDef HAL_PWREx_EnableGPIOPullDown(uint32_t GPIO, uint32_t GPIONumber)
 552:Drivers/STM32L4xx_HAL_Driver/Src/stm32l4xx_hal_pwr_ex.c **** {
 907              		.loc 1 552 1 is_stmt 1 view -0
 908              		.cfi_startproc
 909              		@ args = 0, pretend = 0, frame = 0
 910              		@ frame_needed = 0, uses_anonymous_args = 0
 911              		@ link register save eliminated.
 553:Drivers/STM32L4xx_HAL_Driver/Src/stm32l4xx_hal_pwr_ex.c ****   HAL_StatusTypeDef status = HAL_OK;
 912              		.loc 1 553 3 view .LVU207
 554:Drivers/STM32L4xx_HAL_Driver/Src/stm32l4xx_hal_pwr_ex.c **** 
 555:Drivers/STM32L4xx_HAL_Driver/Src/stm32l4xx_hal_pwr_ex.c ****   assert_param(IS_PWR_GPIO(GPIO));
 913              		.loc 1 555 3 view .LVU208
 556:Drivers/STM32L4xx_HAL_Driver/Src/stm32l4xx_hal_pwr_ex.c ****   assert_param(IS_PWR_GPIO_BIT_NUMBER(GPIONumber));
 914              		.loc 1 556 3 view .LVU209
 557:Drivers/STM32L4xx_HAL_Driver/Src/stm32l4xx_hal_pwr_ex.c **** 
 558:Drivers/STM32L4xx_HAL_Driver/Src/stm32l4xx_hal_pwr_ex.c ****   switch (GPIO)
 915              		.loc 1 558 3 view .LVU210
 916 0000 0828     		cmp	r0, #8
 917 0002 69D8     		bhi	.L91
 918 0004 DFE800F0 		tbb	[pc, r0]
 919              	.L82:
 920 0008 05       		.byte	(.L90-.L82)/2
 921 0009 13       		.byte	(.L89-.L82)/2
 922 000a 1F       		.byte	(.L88-.L82)/2
 923 000b 29       		.byte	(.L87-.L82)/2
 924 000c 33       		.byte	(.L86-.L82)/2
 925 000d 3D       		.byte	(.L85-.L82)/2
 926 000e 47       		.byte	(.L84-.L82)/2
 927 000f 51       		.byte	(.L83-.L82)/2
 928 0010 5C       		.byte	(.L81-.L82)/2
 929 0011 00       		.p2align 1
 930              	.L90:
 559:Drivers/STM32L4xx_HAL_Driver/Src/stm32l4xx_hal_pwr_ex.c ****   {
 560:Drivers/STM32L4xx_HAL_Driver/Src/stm32l4xx_hal_pwr_ex.c ****     case PWR_GPIO_A:
 561:Drivers/STM32L4xx_HAL_Driver/Src/stm32l4xx_hal_pwr_ex.c ****        SET_BIT(PWR->PDCRA, (GPIONumber & (~(PWR_GPIO_BIT_13|PWR_GPIO_BIT_15))));
 931              		.loc 1 561 8 view .LVU211
 932 0012 324B     		ldr	r3, .L92
 933 0014 5A6A     		ldr	r2, [r3, #36]
 934 0016 21F42040 		bic	r0, r1, #40960
 935              	.LVL69:
 936              		.loc 1 561 8 is_stmt 0 view .LVU212
ARM GAS  C:\Users\gigig\AppData\Local\Temp\cczsSJ5Z.s 			page 28


 937 001a 0243     		orrs	r2, r2, r0
 938 001c 5A62     		str	r2, [r3, #36]
 562:Drivers/STM32L4xx_HAL_Driver/Src/stm32l4xx_hal_pwr_ex.c ****        CLEAR_BIT(PWR->PUCRA, (GPIONumber & (~(PWR_GPIO_BIT_14))));
 939              		.loc 1 562 8 is_stmt 1 view .LVU213
 940 001e 1A6A     		ldr	r2, [r3, #32]
 941 0020 21F48041 		bic	r1, r1, #16384
 942              	.LVL70:
 943              		.loc 1 562 8 is_stmt 0 view .LVU214
 944 0024 22EA0102 		bic	r2, r2, r1
 945 0028 1A62     		str	r2, [r3, #32]
 563:Drivers/STM32L4xx_HAL_Driver/Src/stm32l4xx_hal_pwr_ex.c ****        break;
 946              		.loc 1 563 8 is_stmt 1 view .LVU215
 553:Drivers/STM32L4xx_HAL_Driver/Src/stm32l4xx_hal_pwr_ex.c **** 
 947              		.loc 1 553 21 is_stmt 0 view .LVU216
 948 002a 0020     		movs	r0, #0
 949              		.loc 1 563 8 view .LVU217
 950 002c 7047     		bx	lr
 951              	.LVL71:
 952              	.L89:
 564:Drivers/STM32L4xx_HAL_Driver/Src/stm32l4xx_hal_pwr_ex.c ****     case PWR_GPIO_B:
 565:Drivers/STM32L4xx_HAL_Driver/Src/stm32l4xx_hal_pwr_ex.c ****        SET_BIT(PWR->PDCRB, (GPIONumber & (~(PWR_GPIO_BIT_4))));
 953              		.loc 1 565 8 is_stmt 1 view .LVU218
 954 002e 2B4B     		ldr	r3, .L92
 955 0030 DA6A     		ldr	r2, [r3, #44]
 956 0032 21F01000 		bic	r0, r1, #16
 957              	.LVL72:
 958              		.loc 1 565 8 is_stmt 0 view .LVU219
 959 0036 0243     		orrs	r2, r2, r0
 960 0038 DA62     		str	r2, [r3, #44]
 566:Drivers/STM32L4xx_HAL_Driver/Src/stm32l4xx_hal_pwr_ex.c ****        CLEAR_BIT(PWR->PUCRB, GPIONumber);
 961              		.loc 1 566 8 is_stmt 1 view .LVU220
 962 003a 9A6A     		ldr	r2, [r3, #40]
 963 003c 22EA0102 		bic	r2, r2, r1
 964 0040 9A62     		str	r2, [r3, #40]
 567:Drivers/STM32L4xx_HAL_Driver/Src/stm32l4xx_hal_pwr_ex.c ****        break;
 965              		.loc 1 567 8 view .LVU221
 553:Drivers/STM32L4xx_HAL_Driver/Src/stm32l4xx_hal_pwr_ex.c **** 
 966              		.loc 1 553 21 is_stmt 0 view .LVU222
 967 0042 0020     		movs	r0, #0
 968              		.loc 1 567 8 view .LVU223
 969 0044 7047     		bx	lr
 970              	.LVL73:
 971              	.L88:
 568:Drivers/STM32L4xx_HAL_Driver/Src/stm32l4xx_hal_pwr_ex.c ****     case PWR_GPIO_C:
 569:Drivers/STM32L4xx_HAL_Driver/Src/stm32l4xx_hal_pwr_ex.c ****        SET_BIT(PWR->PDCRC, GPIONumber);
 972              		.loc 1 569 8 is_stmt 1 view .LVU224
 973 0046 254B     		ldr	r3, .L92
 974 0048 5A6B     		ldr	r2, [r3, #52]
 975 004a 0A43     		orrs	r2, r2, r1
 976 004c 5A63     		str	r2, [r3, #52]
 570:Drivers/STM32L4xx_HAL_Driver/Src/stm32l4xx_hal_pwr_ex.c ****        CLEAR_BIT(PWR->PUCRC, GPIONumber);
 977              		.loc 1 570 8 view .LVU225
 978 004e 1A6B     		ldr	r2, [r3, #48]
 979 0050 22EA0102 		bic	r2, r2, r1
 980 0054 1A63     		str	r2, [r3, #48]
 571:Drivers/STM32L4xx_HAL_Driver/Src/stm32l4xx_hal_pwr_ex.c ****        break;
 981              		.loc 1 571 8 view .LVU226
ARM GAS  C:\Users\gigig\AppData\Local\Temp\cczsSJ5Z.s 			page 29


 553:Drivers/STM32L4xx_HAL_Driver/Src/stm32l4xx_hal_pwr_ex.c **** 
 982              		.loc 1 553 21 is_stmt 0 view .LVU227
 983 0056 0020     		movs	r0, #0
 984              	.LVL74:
 985              		.loc 1 571 8 view .LVU228
 986 0058 7047     		bx	lr
 987              	.LVL75:
 988              	.L87:
 572:Drivers/STM32L4xx_HAL_Driver/Src/stm32l4xx_hal_pwr_ex.c **** #if defined(GPIOD)
 573:Drivers/STM32L4xx_HAL_Driver/Src/stm32l4xx_hal_pwr_ex.c ****     case PWR_GPIO_D:
 574:Drivers/STM32L4xx_HAL_Driver/Src/stm32l4xx_hal_pwr_ex.c ****        SET_BIT(PWR->PDCRD, GPIONumber);
 989              		.loc 1 574 8 is_stmt 1 view .LVU229
 990 005a 204B     		ldr	r3, .L92
 991 005c DA6B     		ldr	r2, [r3, #60]
 992 005e 0A43     		orrs	r2, r2, r1
 993 0060 DA63     		str	r2, [r3, #60]
 575:Drivers/STM32L4xx_HAL_Driver/Src/stm32l4xx_hal_pwr_ex.c ****        CLEAR_BIT(PWR->PUCRD, GPIONumber);
 994              		.loc 1 575 8 view .LVU230
 995 0062 9A6B     		ldr	r2, [r3, #56]
 996 0064 22EA0102 		bic	r2, r2, r1
 997 0068 9A63     		str	r2, [r3, #56]
 576:Drivers/STM32L4xx_HAL_Driver/Src/stm32l4xx_hal_pwr_ex.c ****        break;
 998              		.loc 1 576 8 view .LVU231
 553:Drivers/STM32L4xx_HAL_Driver/Src/stm32l4xx_hal_pwr_ex.c **** 
 999              		.loc 1 553 21 is_stmt 0 view .LVU232
 1000 006a 0020     		movs	r0, #0
 1001              	.LVL76:
 1002              		.loc 1 576 8 view .LVU233
 1003 006c 7047     		bx	lr
 1004              	.LVL77:
 1005              	.L86:
 577:Drivers/STM32L4xx_HAL_Driver/Src/stm32l4xx_hal_pwr_ex.c **** #endif
 578:Drivers/STM32L4xx_HAL_Driver/Src/stm32l4xx_hal_pwr_ex.c **** #if defined(GPIOE)
 579:Drivers/STM32L4xx_HAL_Driver/Src/stm32l4xx_hal_pwr_ex.c ****     case PWR_GPIO_E:
 580:Drivers/STM32L4xx_HAL_Driver/Src/stm32l4xx_hal_pwr_ex.c ****        SET_BIT(PWR->PDCRE, GPIONumber);
 1006              		.loc 1 580 8 is_stmt 1 view .LVU234
 1007 006e 1B4B     		ldr	r3, .L92
 1008 0070 5A6C     		ldr	r2, [r3, #68]
 1009 0072 0A43     		orrs	r2, r2, r1
 1010 0074 5A64     		str	r2, [r3, #68]
 581:Drivers/STM32L4xx_HAL_Driver/Src/stm32l4xx_hal_pwr_ex.c ****        CLEAR_BIT(PWR->PUCRE, GPIONumber);
 1011              		.loc 1 581 8 view .LVU235
 1012 0076 1A6C     		ldr	r2, [r3, #64]
 1013 0078 22EA0102 		bic	r2, r2, r1
 1014 007c 1A64     		str	r2, [r3, #64]
 582:Drivers/STM32L4xx_HAL_Driver/Src/stm32l4xx_hal_pwr_ex.c ****        break;
 1015              		.loc 1 582 8 view .LVU236
 553:Drivers/STM32L4xx_HAL_Driver/Src/stm32l4xx_hal_pwr_ex.c **** 
 1016              		.loc 1 553 21 is_stmt 0 view .LVU237
 1017 007e 0020     		movs	r0, #0
 1018              	.LVL78:
 1019              		.loc 1 582 8 view .LVU238
 1020 0080 7047     		bx	lr
 1021              	.LVL79:
 1022              	.L85:
 583:Drivers/STM32L4xx_HAL_Driver/Src/stm32l4xx_hal_pwr_ex.c **** #endif
 584:Drivers/STM32L4xx_HAL_Driver/Src/stm32l4xx_hal_pwr_ex.c **** #if defined(GPIOF)
ARM GAS  C:\Users\gigig\AppData\Local\Temp\cczsSJ5Z.s 			page 30


 585:Drivers/STM32L4xx_HAL_Driver/Src/stm32l4xx_hal_pwr_ex.c ****     case PWR_GPIO_F:
 586:Drivers/STM32L4xx_HAL_Driver/Src/stm32l4xx_hal_pwr_ex.c ****        SET_BIT(PWR->PDCRF, GPIONumber);
 1023              		.loc 1 586 8 is_stmt 1 view .LVU239
 1024 0082 164B     		ldr	r3, .L92
 1025 0084 DA6C     		ldr	r2, [r3, #76]
 1026 0086 0A43     		orrs	r2, r2, r1
 1027 0088 DA64     		str	r2, [r3, #76]
 587:Drivers/STM32L4xx_HAL_Driver/Src/stm32l4xx_hal_pwr_ex.c ****        CLEAR_BIT(PWR->PUCRF, GPIONumber);
 1028              		.loc 1 587 8 view .LVU240
 1029 008a 9A6C     		ldr	r2, [r3, #72]
 1030 008c 22EA0102 		bic	r2, r2, r1
 1031 0090 9A64     		str	r2, [r3, #72]
 588:Drivers/STM32L4xx_HAL_Driver/Src/stm32l4xx_hal_pwr_ex.c ****        break;
 1032              		.loc 1 588 8 view .LVU241
 553:Drivers/STM32L4xx_HAL_Driver/Src/stm32l4xx_hal_pwr_ex.c **** 
 1033              		.loc 1 553 21 is_stmt 0 view .LVU242
 1034 0092 0020     		movs	r0, #0
 1035              	.LVL80:
 1036              		.loc 1 588 8 view .LVU243
 1037 0094 7047     		bx	lr
 1038              	.LVL81:
 1039              	.L84:
 589:Drivers/STM32L4xx_HAL_Driver/Src/stm32l4xx_hal_pwr_ex.c **** #endif
 590:Drivers/STM32L4xx_HAL_Driver/Src/stm32l4xx_hal_pwr_ex.c **** #if defined(GPIOG)
 591:Drivers/STM32L4xx_HAL_Driver/Src/stm32l4xx_hal_pwr_ex.c ****     case PWR_GPIO_G:
 592:Drivers/STM32L4xx_HAL_Driver/Src/stm32l4xx_hal_pwr_ex.c ****        SET_BIT(PWR->PDCRG, GPIONumber);
 1040              		.loc 1 592 8 is_stmt 1 view .LVU244
 1041 0096 114B     		ldr	r3, .L92
 1042 0098 5A6D     		ldr	r2, [r3, #84]
 1043 009a 0A43     		orrs	r2, r2, r1
 1044 009c 5A65     		str	r2, [r3, #84]
 593:Drivers/STM32L4xx_HAL_Driver/Src/stm32l4xx_hal_pwr_ex.c ****        CLEAR_BIT(PWR->PUCRG, GPIONumber);
 1045              		.loc 1 593 8 view .LVU245
 1046 009e 1A6D     		ldr	r2, [r3, #80]
 1047 00a0 22EA0102 		bic	r2, r2, r1
 1048 00a4 1A65     		str	r2, [r3, #80]
 594:Drivers/STM32L4xx_HAL_Driver/Src/stm32l4xx_hal_pwr_ex.c ****        break;
 1049              		.loc 1 594 8 view .LVU246
 553:Drivers/STM32L4xx_HAL_Driver/Src/stm32l4xx_hal_pwr_ex.c **** 
 1050              		.loc 1 553 21 is_stmt 0 view .LVU247
 1051 00a6 0020     		movs	r0, #0
 1052              	.LVL82:
 1053              		.loc 1 594 8 view .LVU248
 1054 00a8 7047     		bx	lr
 1055              	.LVL83:
 1056              	.L83:
 595:Drivers/STM32L4xx_HAL_Driver/Src/stm32l4xx_hal_pwr_ex.c **** #endif
 596:Drivers/STM32L4xx_HAL_Driver/Src/stm32l4xx_hal_pwr_ex.c ****     case PWR_GPIO_H:
 597:Drivers/STM32L4xx_HAL_Driver/Src/stm32l4xx_hal_pwr_ex.c **** #if defined (STM32L496xx) || defined (STM32L4A6xx)
 598:Drivers/STM32L4xx_HAL_Driver/Src/stm32l4xx_hal_pwr_ex.c ****        SET_BIT(PWR->PDCRH, ((GPIONumber & PWR_PORTH_AVAILABLE_PINS) & (~(PWR_GPIO_BIT_3))));
 599:Drivers/STM32L4xx_HAL_Driver/Src/stm32l4xx_hal_pwr_ex.c **** #else
 600:Drivers/STM32L4xx_HAL_Driver/Src/stm32l4xx_hal_pwr_ex.c ****        SET_BIT(PWR->PDCRH, (GPIONumber & PWR_PORTH_AVAILABLE_PINS));
 1057              		.loc 1 600 8 is_stmt 1 view .LVU249
 1058 00aa 0C4B     		ldr	r3, .L92
 1059 00ac DA6D     		ldr	r2, [r3, #92]
 1060 00ae 89B2     		uxth	r1, r1
 1061              	.LVL84:
ARM GAS  C:\Users\gigig\AppData\Local\Temp\cczsSJ5Z.s 			page 31


 1062              		.loc 1 600 8 is_stmt 0 view .LVU250
 1063 00b0 0A43     		orrs	r2, r2, r1
 1064 00b2 DA65     		str	r2, [r3, #92]
 601:Drivers/STM32L4xx_HAL_Driver/Src/stm32l4xx_hal_pwr_ex.c **** #endif
 602:Drivers/STM32L4xx_HAL_Driver/Src/stm32l4xx_hal_pwr_ex.c ****        CLEAR_BIT(PWR->PUCRH, (GPIONumber & PWR_PORTH_AVAILABLE_PINS));
 1065              		.loc 1 602 8 is_stmt 1 view .LVU251
 1066 00b4 9A6D     		ldr	r2, [r3, #88]
 1067 00b6 22EA0102 		bic	r2, r2, r1
 1068 00ba 9A65     		str	r2, [r3, #88]
 603:Drivers/STM32L4xx_HAL_Driver/Src/stm32l4xx_hal_pwr_ex.c ****        break;
 1069              		.loc 1 603 8 view .LVU252
 553:Drivers/STM32L4xx_HAL_Driver/Src/stm32l4xx_hal_pwr_ex.c **** 
 1070              		.loc 1 553 21 is_stmt 0 view .LVU253
 1071 00bc 0020     		movs	r0, #0
 1072              	.LVL85:
 1073              		.loc 1 603 8 view .LVU254
 1074 00be 7047     		bx	lr
 1075              	.LVL86:
 1076              	.L81:
 604:Drivers/STM32L4xx_HAL_Driver/Src/stm32l4xx_hal_pwr_ex.c **** #if defined(GPIOI)
 605:Drivers/STM32L4xx_HAL_Driver/Src/stm32l4xx_hal_pwr_ex.c ****     case PWR_GPIO_I:
 606:Drivers/STM32L4xx_HAL_Driver/Src/stm32l4xx_hal_pwr_ex.c ****        SET_BIT(PWR->PDCRI, (GPIONumber & PWR_PORTI_AVAILABLE_PINS));
 1077              		.loc 1 606 8 is_stmt 1 view .LVU255
 1078 00c0 064B     		ldr	r3, .L92
 1079 00c2 5A6E     		ldr	r2, [r3, #100]
 1080 00c4 C1F30B01 		ubfx	r1, r1, #0, #12
 1081              	.LVL87:
 1082              		.loc 1 606 8 is_stmt 0 view .LVU256
 1083 00c8 0A43     		orrs	r2, r2, r1
 1084 00ca 5A66     		str	r2, [r3, #100]
 607:Drivers/STM32L4xx_HAL_Driver/Src/stm32l4xx_hal_pwr_ex.c ****        CLEAR_BIT(PWR->PUCRI, (GPIONumber & PWR_PORTI_AVAILABLE_PINS));
 1085              		.loc 1 607 8 is_stmt 1 view .LVU257
 1086 00cc 1A6E     		ldr	r2, [r3, #96]
 1087 00ce 22EA0102 		bic	r2, r2, r1
 1088 00d2 1A66     		str	r2, [r3, #96]
 608:Drivers/STM32L4xx_HAL_Driver/Src/stm32l4xx_hal_pwr_ex.c ****        break;
 1089              		.loc 1 608 8 view .LVU258
 553:Drivers/STM32L4xx_HAL_Driver/Src/stm32l4xx_hal_pwr_ex.c **** 
 1090              		.loc 1 553 21 is_stmt 0 view .LVU259
 1091 00d4 0020     		movs	r0, #0
 1092              	.LVL88:
 1093              		.loc 1 608 8 view .LVU260
 1094 00d6 7047     		bx	lr
 1095              	.LVL89:
 1096              	.L91:
 558:Drivers/STM32L4xx_HAL_Driver/Src/stm32l4xx_hal_pwr_ex.c ****   {
 1097              		.loc 1 558 3 view .LVU261
 1098 00d8 0120     		movs	r0, #1
 1099              	.LVL90:
 609:Drivers/STM32L4xx_HAL_Driver/Src/stm32l4xx_hal_pwr_ex.c **** #endif
 610:Drivers/STM32L4xx_HAL_Driver/Src/stm32l4xx_hal_pwr_ex.c ****     default:
 611:Drivers/STM32L4xx_HAL_Driver/Src/stm32l4xx_hal_pwr_ex.c ****       status = HAL_ERROR;
 612:Drivers/STM32L4xx_HAL_Driver/Src/stm32l4xx_hal_pwr_ex.c ****       break;
 613:Drivers/STM32L4xx_HAL_Driver/Src/stm32l4xx_hal_pwr_ex.c ****   }
 614:Drivers/STM32L4xx_HAL_Driver/Src/stm32l4xx_hal_pwr_ex.c **** 
 615:Drivers/STM32L4xx_HAL_Driver/Src/stm32l4xx_hal_pwr_ex.c ****   return status;
 1100              		.loc 1 615 3 is_stmt 1 view .LVU262
ARM GAS  C:\Users\gigig\AppData\Local\Temp\cczsSJ5Z.s 			page 32


 616:Drivers/STM32L4xx_HAL_Driver/Src/stm32l4xx_hal_pwr_ex.c **** }
 1101              		.loc 1 616 1 is_stmt 0 view .LVU263
 1102 00da 7047     		bx	lr
 1103              	.L93:
 1104              		.align	2
 1105              	.L92:
 1106 00dc 00700040 		.word	1073770496
 1107              		.cfi_endproc
 1108              	.LFE144:
 1110              		.section	.text.HAL_PWREx_DisableGPIOPullDown,"ax",%progbits
 1111              		.align	1
 1112              		.global	HAL_PWREx_DisableGPIOPullDown
 1113              		.syntax unified
 1114              		.thumb
 1115              		.thumb_func
 1117              	HAL_PWREx_DisableGPIOPullDown:
 1118              	.LVL91:
 1119              	.LFB145:
 617:Drivers/STM32L4xx_HAL_Driver/Src/stm32l4xx_hal_pwr_ex.c **** 
 618:Drivers/STM32L4xx_HAL_Driver/Src/stm32l4xx_hal_pwr_ex.c **** 
 619:Drivers/STM32L4xx_HAL_Driver/Src/stm32l4xx_hal_pwr_ex.c **** /**
 620:Drivers/STM32L4xx_HAL_Driver/Src/stm32l4xx_hal_pwr_ex.c ****   * @brief Disable GPIO pull-down state in Standby and Shutdown modes.
 621:Drivers/STM32L4xx_HAL_Driver/Src/stm32l4xx_hal_pwr_ex.c ****   * @note  Reset the relevant PDy bits of PWR_PDCRx register used to configure the I/O
 622:Drivers/STM32L4xx_HAL_Driver/Src/stm32l4xx_hal_pwr_ex.c ****   *        in pull-down state in Standby and Shutdown modes.
 623:Drivers/STM32L4xx_HAL_Driver/Src/stm32l4xx_hal_pwr_ex.c ****   * @note  Even if a PDy bit to reset is reserved, the other PDy bits entered as input
 624:Drivers/STM32L4xx_HAL_Driver/Src/stm32l4xx_hal_pwr_ex.c ****   *        parameter at the same time are reset.
 625:Drivers/STM32L4xx_HAL_Driver/Src/stm32l4xx_hal_pwr_ex.c ****   * @param  GPIO Specifies the IO port. This parameter can be PWR_GPIO_A..PWR_GPIO_H
 626:Drivers/STM32L4xx_HAL_Driver/Src/stm32l4xx_hal_pwr_ex.c ****   *         (or PWR_GPIO_I depending on the devices) to select the GPIO peripheral.
 627:Drivers/STM32L4xx_HAL_Driver/Src/stm32l4xx_hal_pwr_ex.c ****   * @param  GPIONumber Specify the I/O pins numbers.
 628:Drivers/STM32L4xx_HAL_Driver/Src/stm32l4xx_hal_pwr_ex.c ****   *         This parameter can be one of the following values:
 629:Drivers/STM32L4xx_HAL_Driver/Src/stm32l4xx_hal_pwr_ex.c ****   *         PWR_GPIO_BIT_0, ..., PWR_GPIO_BIT_15 (except for the port where less
 630:Drivers/STM32L4xx_HAL_Driver/Src/stm32l4xx_hal_pwr_ex.c ****   *         I/O pins are available) or the logical OR of several of them to reset
 631:Drivers/STM32L4xx_HAL_Driver/Src/stm32l4xx_hal_pwr_ex.c ****   *         several bits for a given port in a single API call.
 632:Drivers/STM32L4xx_HAL_Driver/Src/stm32l4xx_hal_pwr_ex.c ****   * @retval HAL Status
 633:Drivers/STM32L4xx_HAL_Driver/Src/stm32l4xx_hal_pwr_ex.c ****   */
 634:Drivers/STM32L4xx_HAL_Driver/Src/stm32l4xx_hal_pwr_ex.c **** HAL_StatusTypeDef HAL_PWREx_DisableGPIOPullDown(uint32_t GPIO, uint32_t GPIONumber)
 635:Drivers/STM32L4xx_HAL_Driver/Src/stm32l4xx_hal_pwr_ex.c **** {
 1120              		.loc 1 635 1 is_stmt 1 view -0
 1121              		.cfi_startproc
 1122              		@ args = 0, pretend = 0, frame = 0
 1123              		@ frame_needed = 0, uses_anonymous_args = 0
 1124              		@ link register save eliminated.
 636:Drivers/STM32L4xx_HAL_Driver/Src/stm32l4xx_hal_pwr_ex.c ****   HAL_StatusTypeDef status = HAL_OK;
 1125              		.loc 1 636 3 view .LVU265
 637:Drivers/STM32L4xx_HAL_Driver/Src/stm32l4xx_hal_pwr_ex.c **** 
 638:Drivers/STM32L4xx_HAL_Driver/Src/stm32l4xx_hal_pwr_ex.c ****   assert_param(IS_PWR_GPIO(GPIO));
 1126              		.loc 1 638 3 view .LVU266
 639:Drivers/STM32L4xx_HAL_Driver/Src/stm32l4xx_hal_pwr_ex.c ****   assert_param(IS_PWR_GPIO_BIT_NUMBER(GPIONumber));
 1127              		.loc 1 639 3 view .LVU267
 640:Drivers/STM32L4xx_HAL_Driver/Src/stm32l4xx_hal_pwr_ex.c **** 
 641:Drivers/STM32L4xx_HAL_Driver/Src/stm32l4xx_hal_pwr_ex.c ****   switch (GPIO)
 1128              		.loc 1 641 3 view .LVU268
 1129 0000 0828     		cmp	r0, #8
 1130 0002 4CD8     		bhi	.L106
 1131 0004 DFE800F0 		tbb	[pc, r0]
 1132              	.L97:
 1133 0008 05       		.byte	(.L105-.L97)/2
ARM GAS  C:\Users\gigig\AppData\Local\Temp\cczsSJ5Z.s 			page 33


 1134 0009 0E       		.byte	(.L104-.L97)/2
 1135 000a 17       		.byte	(.L103-.L97)/2
 1136 000b 1E       		.byte	(.L102-.L97)/2
 1137 000c 25       		.byte	(.L101-.L97)/2
 1138 000d 2C       		.byte	(.L100-.L97)/2
 1139 000e 33       		.byte	(.L99-.L97)/2
 1140 000f 3A       		.byte	(.L98-.L97)/2
 1141 0010 42       		.byte	(.L96-.L97)/2
 1142 0011 00       		.p2align 1
 1143              	.L105:
 642:Drivers/STM32L4xx_HAL_Driver/Src/stm32l4xx_hal_pwr_ex.c ****   {
 643:Drivers/STM32L4xx_HAL_Driver/Src/stm32l4xx_hal_pwr_ex.c ****     case PWR_GPIO_A:
 644:Drivers/STM32L4xx_HAL_Driver/Src/stm32l4xx_hal_pwr_ex.c ****        CLEAR_BIT(PWR->PDCRA, (GPIONumber & (~(PWR_GPIO_BIT_13|PWR_GPIO_BIT_15))));
 1144              		.loc 1 644 8 view .LVU269
 1145 0012 244A     		ldr	r2, .L107
 1146 0014 536A     		ldr	r3, [r2, #36]
 1147 0016 21F42041 		bic	r1, r1, #40960
 1148              	.LVL92:
 1149              		.loc 1 644 8 is_stmt 0 view .LVU270
 1150 001a 23EA0101 		bic	r1, r3, r1
 1151 001e 5162     		str	r1, [r2, #36]
 645:Drivers/STM32L4xx_HAL_Driver/Src/stm32l4xx_hal_pwr_ex.c ****        break;
 1152              		.loc 1 645 8 is_stmt 1 view .LVU271
 636:Drivers/STM32L4xx_HAL_Driver/Src/stm32l4xx_hal_pwr_ex.c **** 
 1153              		.loc 1 636 21 is_stmt 0 view .LVU272
 1154 0020 0020     		movs	r0, #0
 1155              	.LVL93:
 1156              		.loc 1 645 8 view .LVU273
 1157 0022 7047     		bx	lr
 1158              	.LVL94:
 1159              	.L104:
 646:Drivers/STM32L4xx_HAL_Driver/Src/stm32l4xx_hal_pwr_ex.c ****     case PWR_GPIO_B:
 647:Drivers/STM32L4xx_HAL_Driver/Src/stm32l4xx_hal_pwr_ex.c ****        CLEAR_BIT(PWR->PDCRB, (GPIONumber & (~(PWR_GPIO_BIT_4))));
 1160              		.loc 1 647 8 is_stmt 1 view .LVU274
 1161 0024 1F4A     		ldr	r2, .L107
 1162 0026 D36A     		ldr	r3, [r2, #44]
 1163 0028 21F01001 		bic	r1, r1, #16
 1164              	.LVL95:
 1165              		.loc 1 647 8 is_stmt 0 view .LVU275
 1166 002c 23EA0101 		bic	r1, r3, r1
 1167 0030 D162     		str	r1, [r2, #44]
 648:Drivers/STM32L4xx_HAL_Driver/Src/stm32l4xx_hal_pwr_ex.c ****        break;
 1168              		.loc 1 648 8 is_stmt 1 view .LVU276
 636:Drivers/STM32L4xx_HAL_Driver/Src/stm32l4xx_hal_pwr_ex.c **** 
 1169              		.loc 1 636 21 is_stmt 0 view .LVU277
 1170 0032 0020     		movs	r0, #0
 1171              	.LVL96:
 1172              		.loc 1 648 8 view .LVU278
 1173 0034 7047     		bx	lr
 1174              	.LVL97:
 1175              	.L103:
 649:Drivers/STM32L4xx_HAL_Driver/Src/stm32l4xx_hal_pwr_ex.c ****     case PWR_GPIO_C:
 650:Drivers/STM32L4xx_HAL_Driver/Src/stm32l4xx_hal_pwr_ex.c ****        CLEAR_BIT(PWR->PDCRC, GPIONumber);
 1176              		.loc 1 650 8 is_stmt 1 view .LVU279
 1177 0036 1B4A     		ldr	r2, .L107
 1178 0038 536B     		ldr	r3, [r2, #52]
 1179 003a 23EA0103 		bic	r3, r3, r1
ARM GAS  C:\Users\gigig\AppData\Local\Temp\cczsSJ5Z.s 			page 34


 1180 003e 5363     		str	r3, [r2, #52]
 651:Drivers/STM32L4xx_HAL_Driver/Src/stm32l4xx_hal_pwr_ex.c ****        break;
 1181              		.loc 1 651 8 view .LVU280
 636:Drivers/STM32L4xx_HAL_Driver/Src/stm32l4xx_hal_pwr_ex.c **** 
 1182              		.loc 1 636 21 is_stmt 0 view .LVU281
 1183 0040 0020     		movs	r0, #0
 1184              	.LVL98:
 1185              		.loc 1 651 8 view .LVU282
 1186 0042 7047     		bx	lr
 1187              	.LVL99:
 1188              	.L102:
 652:Drivers/STM32L4xx_HAL_Driver/Src/stm32l4xx_hal_pwr_ex.c **** #if defined(GPIOD)
 653:Drivers/STM32L4xx_HAL_Driver/Src/stm32l4xx_hal_pwr_ex.c ****     case PWR_GPIO_D:
 654:Drivers/STM32L4xx_HAL_Driver/Src/stm32l4xx_hal_pwr_ex.c ****        CLEAR_BIT(PWR->PDCRD, GPIONumber);
 1189              		.loc 1 654 8 is_stmt 1 view .LVU283
 1190 0044 174A     		ldr	r2, .L107
 1191 0046 D36B     		ldr	r3, [r2, #60]
 1192 0048 23EA0103 		bic	r3, r3, r1
 1193 004c D363     		str	r3, [r2, #60]
 655:Drivers/STM32L4xx_HAL_Driver/Src/stm32l4xx_hal_pwr_ex.c ****        break;
 1194              		.loc 1 655 8 view .LVU284
 636:Drivers/STM32L4xx_HAL_Driver/Src/stm32l4xx_hal_pwr_ex.c **** 
 1195              		.loc 1 636 21 is_stmt 0 view .LVU285
 1196 004e 0020     		movs	r0, #0
 1197              	.LVL100:
 1198              		.loc 1 655 8 view .LVU286
 1199 0050 7047     		bx	lr
 1200              	.LVL101:
 1201              	.L101:
 656:Drivers/STM32L4xx_HAL_Driver/Src/stm32l4xx_hal_pwr_ex.c **** #endif
 657:Drivers/STM32L4xx_HAL_Driver/Src/stm32l4xx_hal_pwr_ex.c **** #if defined(GPIOE)
 658:Drivers/STM32L4xx_HAL_Driver/Src/stm32l4xx_hal_pwr_ex.c ****     case PWR_GPIO_E:
 659:Drivers/STM32L4xx_HAL_Driver/Src/stm32l4xx_hal_pwr_ex.c ****        CLEAR_BIT(PWR->PDCRE, GPIONumber);
 1202              		.loc 1 659 8 is_stmt 1 view .LVU287
 1203 0052 144A     		ldr	r2, .L107
 1204 0054 536C     		ldr	r3, [r2, #68]
 1205 0056 23EA0103 		bic	r3, r3, r1
 1206 005a 5364     		str	r3, [r2, #68]
 660:Drivers/STM32L4xx_HAL_Driver/Src/stm32l4xx_hal_pwr_ex.c ****        break;
 1207              		.loc 1 660 8 view .LVU288
 636:Drivers/STM32L4xx_HAL_Driver/Src/stm32l4xx_hal_pwr_ex.c **** 
 1208              		.loc 1 636 21 is_stmt 0 view .LVU289
 1209 005c 0020     		movs	r0, #0
 1210              	.LVL102:
 1211              		.loc 1 660 8 view .LVU290
 1212 005e 7047     		bx	lr
 1213              	.LVL103:
 1214              	.L100:
 661:Drivers/STM32L4xx_HAL_Driver/Src/stm32l4xx_hal_pwr_ex.c **** #endif
 662:Drivers/STM32L4xx_HAL_Driver/Src/stm32l4xx_hal_pwr_ex.c **** #if defined(GPIOF)
 663:Drivers/STM32L4xx_HAL_Driver/Src/stm32l4xx_hal_pwr_ex.c ****     case PWR_GPIO_F:
 664:Drivers/STM32L4xx_HAL_Driver/Src/stm32l4xx_hal_pwr_ex.c ****        CLEAR_BIT(PWR->PDCRF, GPIONumber);
 1215              		.loc 1 664 8 is_stmt 1 view .LVU291
 1216 0060 104A     		ldr	r2, .L107
 1217 0062 D36C     		ldr	r3, [r2, #76]
 1218 0064 23EA0103 		bic	r3, r3, r1
 1219 0068 D364     		str	r3, [r2, #76]
ARM GAS  C:\Users\gigig\AppData\Local\Temp\cczsSJ5Z.s 			page 35


 665:Drivers/STM32L4xx_HAL_Driver/Src/stm32l4xx_hal_pwr_ex.c ****        break;
 1220              		.loc 1 665 8 view .LVU292
 636:Drivers/STM32L4xx_HAL_Driver/Src/stm32l4xx_hal_pwr_ex.c **** 
 1221              		.loc 1 636 21 is_stmt 0 view .LVU293
 1222 006a 0020     		movs	r0, #0
 1223              	.LVL104:
 1224              		.loc 1 665 8 view .LVU294
 1225 006c 7047     		bx	lr
 1226              	.LVL105:
 1227              	.L99:
 666:Drivers/STM32L4xx_HAL_Driver/Src/stm32l4xx_hal_pwr_ex.c **** #endif
 667:Drivers/STM32L4xx_HAL_Driver/Src/stm32l4xx_hal_pwr_ex.c **** #if defined(GPIOG)
 668:Drivers/STM32L4xx_HAL_Driver/Src/stm32l4xx_hal_pwr_ex.c ****     case PWR_GPIO_G:
 669:Drivers/STM32L4xx_HAL_Driver/Src/stm32l4xx_hal_pwr_ex.c ****        CLEAR_BIT(PWR->PDCRG, GPIONumber);
 1228              		.loc 1 669 8 is_stmt 1 view .LVU295
 1229 006e 0D4A     		ldr	r2, .L107
 1230 0070 536D     		ldr	r3, [r2, #84]
 1231 0072 23EA0103 		bic	r3, r3, r1
 1232 0076 5365     		str	r3, [r2, #84]
 670:Drivers/STM32L4xx_HAL_Driver/Src/stm32l4xx_hal_pwr_ex.c ****        break;
 1233              		.loc 1 670 8 view .LVU296
 636:Drivers/STM32L4xx_HAL_Driver/Src/stm32l4xx_hal_pwr_ex.c **** 
 1234              		.loc 1 636 21 is_stmt 0 view .LVU297
 1235 0078 0020     		movs	r0, #0
 1236              	.LVL106:
 1237              		.loc 1 670 8 view .LVU298
 1238 007a 7047     		bx	lr
 1239              	.LVL107:
 1240              	.L98:
 671:Drivers/STM32L4xx_HAL_Driver/Src/stm32l4xx_hal_pwr_ex.c **** #endif
 672:Drivers/STM32L4xx_HAL_Driver/Src/stm32l4xx_hal_pwr_ex.c ****     case PWR_GPIO_H:
 673:Drivers/STM32L4xx_HAL_Driver/Src/stm32l4xx_hal_pwr_ex.c **** #if defined (STM32L496xx) || defined (STM32L4A6xx)
 674:Drivers/STM32L4xx_HAL_Driver/Src/stm32l4xx_hal_pwr_ex.c ****        CLEAR_BIT(PWR->PDCRH, ((GPIONumber & PWR_PORTH_AVAILABLE_PINS) & (~(PWR_GPIO_BIT_3))));
 675:Drivers/STM32L4xx_HAL_Driver/Src/stm32l4xx_hal_pwr_ex.c **** #else
 676:Drivers/STM32L4xx_HAL_Driver/Src/stm32l4xx_hal_pwr_ex.c ****        CLEAR_BIT(PWR->PDCRH, (GPIONumber & PWR_PORTH_AVAILABLE_PINS));
 1241              		.loc 1 676 8 is_stmt 1 view .LVU299
 1242 007c 094A     		ldr	r2, .L107
 1243 007e D36D     		ldr	r3, [r2, #92]
 1244 0080 89B2     		uxth	r1, r1
 1245              	.LVL108:
 1246              		.loc 1 676 8 is_stmt 0 view .LVU300
 1247 0082 23EA0101 		bic	r1, r3, r1
 1248 0086 D165     		str	r1, [r2, #92]
 677:Drivers/STM32L4xx_HAL_Driver/Src/stm32l4xx_hal_pwr_ex.c **** #endif
 678:Drivers/STM32L4xx_HAL_Driver/Src/stm32l4xx_hal_pwr_ex.c ****        break;
 1249              		.loc 1 678 8 is_stmt 1 view .LVU301
 636:Drivers/STM32L4xx_HAL_Driver/Src/stm32l4xx_hal_pwr_ex.c **** 
 1250              		.loc 1 636 21 is_stmt 0 view .LVU302
 1251 0088 0020     		movs	r0, #0
 1252              	.LVL109:
 1253              		.loc 1 678 8 view .LVU303
 1254 008a 7047     		bx	lr
 1255              	.LVL110:
 1256              	.L96:
 679:Drivers/STM32L4xx_HAL_Driver/Src/stm32l4xx_hal_pwr_ex.c **** #if defined(GPIOI)
 680:Drivers/STM32L4xx_HAL_Driver/Src/stm32l4xx_hal_pwr_ex.c ****     case PWR_GPIO_I:
 681:Drivers/STM32L4xx_HAL_Driver/Src/stm32l4xx_hal_pwr_ex.c ****        CLEAR_BIT(PWR->PDCRI, (GPIONumber & PWR_PORTI_AVAILABLE_PINS));
ARM GAS  C:\Users\gigig\AppData\Local\Temp\cczsSJ5Z.s 			page 36


 1257              		.loc 1 681 8 is_stmt 1 view .LVU304
 1258 008c 054A     		ldr	r2, .L107
 1259 008e 536E     		ldr	r3, [r2, #100]
 1260 0090 C1F30B01 		ubfx	r1, r1, #0, #12
 1261              	.LVL111:
 1262              		.loc 1 681 8 is_stmt 0 view .LVU305
 1263 0094 23EA0103 		bic	r3, r3, r1
 1264 0098 5366     		str	r3, [r2, #100]
 682:Drivers/STM32L4xx_HAL_Driver/Src/stm32l4xx_hal_pwr_ex.c ****        break;
 1265              		.loc 1 682 8 is_stmt 1 view .LVU306
 636:Drivers/STM32L4xx_HAL_Driver/Src/stm32l4xx_hal_pwr_ex.c **** 
 1266              		.loc 1 636 21 is_stmt 0 view .LVU307
 1267 009a 0020     		movs	r0, #0
 1268              	.LVL112:
 1269              		.loc 1 682 8 view .LVU308
 1270 009c 7047     		bx	lr
 1271              	.LVL113:
 1272              	.L106:
 641:Drivers/STM32L4xx_HAL_Driver/Src/stm32l4xx_hal_pwr_ex.c ****   {
 1273              		.loc 1 641 3 view .LVU309
 1274 009e 0120     		movs	r0, #1
 1275              	.LVL114:
 683:Drivers/STM32L4xx_HAL_Driver/Src/stm32l4xx_hal_pwr_ex.c **** #endif
 684:Drivers/STM32L4xx_HAL_Driver/Src/stm32l4xx_hal_pwr_ex.c ****     default:
 685:Drivers/STM32L4xx_HAL_Driver/Src/stm32l4xx_hal_pwr_ex.c ****       status = HAL_ERROR;
 686:Drivers/STM32L4xx_HAL_Driver/Src/stm32l4xx_hal_pwr_ex.c ****       break;
 687:Drivers/STM32L4xx_HAL_Driver/Src/stm32l4xx_hal_pwr_ex.c ****   }
 688:Drivers/STM32L4xx_HAL_Driver/Src/stm32l4xx_hal_pwr_ex.c **** 
 689:Drivers/STM32L4xx_HAL_Driver/Src/stm32l4xx_hal_pwr_ex.c ****   return status;
 1276              		.loc 1 689 3 is_stmt 1 view .LVU310
 690:Drivers/STM32L4xx_HAL_Driver/Src/stm32l4xx_hal_pwr_ex.c **** }
 1277              		.loc 1 690 1 is_stmt 0 view .LVU311
 1278 00a0 7047     		bx	lr
 1279              	.L108:
 1280 00a2 00BF     		.align	2
 1281              	.L107:
 1282 00a4 00700040 		.word	1073770496
 1283              		.cfi_endproc
 1284              	.LFE145:
 1286              		.section	.text.HAL_PWREx_EnablePullUpPullDownConfig,"ax",%progbits
 1287              		.align	1
 1288              		.global	HAL_PWREx_EnablePullUpPullDownConfig
 1289              		.syntax unified
 1290              		.thumb
 1291              		.thumb_func
 1293              	HAL_PWREx_EnablePullUpPullDownConfig:
 1294              	.LFB146:
 691:Drivers/STM32L4xx_HAL_Driver/Src/stm32l4xx_hal_pwr_ex.c **** 
 692:Drivers/STM32L4xx_HAL_Driver/Src/stm32l4xx_hal_pwr_ex.c **** 
 693:Drivers/STM32L4xx_HAL_Driver/Src/stm32l4xx_hal_pwr_ex.c **** 
 694:Drivers/STM32L4xx_HAL_Driver/Src/stm32l4xx_hal_pwr_ex.c **** /**
 695:Drivers/STM32L4xx_HAL_Driver/Src/stm32l4xx_hal_pwr_ex.c ****   * @brief Enable pull-up and pull-down configuration.
 696:Drivers/STM32L4xx_HAL_Driver/Src/stm32l4xx_hal_pwr_ex.c ****   * @note  When APC bit is set, the I/O pull-up and pull-down configurations defined in
 697:Drivers/STM32L4xx_HAL_Driver/Src/stm32l4xx_hal_pwr_ex.c ****   *        PWR_PUCRx and PWR_PDCRx registers are applied in Standby and Shutdown modes.
 698:Drivers/STM32L4xx_HAL_Driver/Src/stm32l4xx_hal_pwr_ex.c ****   * @note  Pull-up set by PUy bit of PWR_PUCRx register is not activated if the corresponding
 699:Drivers/STM32L4xx_HAL_Driver/Src/stm32l4xx_hal_pwr_ex.c ****   *        PDy bit of PWR_PDCRx register is also set (pull-down configuration priority is higher).
 700:Drivers/STM32L4xx_HAL_Driver/Src/stm32l4xx_hal_pwr_ex.c ****   *        HAL_PWREx_EnableGPIOPullUp() and HAL_PWREx_EnableGPIOPullDown() API's ensure there
ARM GAS  C:\Users\gigig\AppData\Local\Temp\cczsSJ5Z.s 			page 37


 701:Drivers/STM32L4xx_HAL_Driver/Src/stm32l4xx_hal_pwr_ex.c ****   *        is no conflict when setting PUy or PDy bit.
 702:Drivers/STM32L4xx_HAL_Driver/Src/stm32l4xx_hal_pwr_ex.c ****   * @retval None
 703:Drivers/STM32L4xx_HAL_Driver/Src/stm32l4xx_hal_pwr_ex.c ****   */
 704:Drivers/STM32L4xx_HAL_Driver/Src/stm32l4xx_hal_pwr_ex.c **** void HAL_PWREx_EnablePullUpPullDownConfig(void)
 705:Drivers/STM32L4xx_HAL_Driver/Src/stm32l4xx_hal_pwr_ex.c **** {
 1295              		.loc 1 705 1 is_stmt 1 view -0
 1296              		.cfi_startproc
 1297              		@ args = 0, pretend = 0, frame = 0
 1298              		@ frame_needed = 0, uses_anonymous_args = 0
 1299              		@ link register save eliminated.
 706:Drivers/STM32L4xx_HAL_Driver/Src/stm32l4xx_hal_pwr_ex.c ****   SET_BIT(PWR->CR3, PWR_CR3_APC);
 1300              		.loc 1 706 3 view .LVU313
 1301 0000 024A     		ldr	r2, .L110
 1302 0002 9368     		ldr	r3, [r2, #8]
 1303 0004 43F48063 		orr	r3, r3, #1024
 1304 0008 9360     		str	r3, [r2, #8]
 707:Drivers/STM32L4xx_HAL_Driver/Src/stm32l4xx_hal_pwr_ex.c **** }
 1305              		.loc 1 707 1 is_stmt 0 view .LVU314
 1306 000a 7047     		bx	lr
 1307              	.L111:
 1308              		.align	2
 1309              	.L110:
 1310 000c 00700040 		.word	1073770496
 1311              		.cfi_endproc
 1312              	.LFE146:
 1314              		.section	.text.HAL_PWREx_DisablePullUpPullDownConfig,"ax",%progbits
 1315              		.align	1
 1316              		.global	HAL_PWREx_DisablePullUpPullDownConfig
 1317              		.syntax unified
 1318              		.thumb
 1319              		.thumb_func
 1321              	HAL_PWREx_DisablePullUpPullDownConfig:
 1322              	.LFB147:
 708:Drivers/STM32L4xx_HAL_Driver/Src/stm32l4xx_hal_pwr_ex.c **** 
 709:Drivers/STM32L4xx_HAL_Driver/Src/stm32l4xx_hal_pwr_ex.c **** 
 710:Drivers/STM32L4xx_HAL_Driver/Src/stm32l4xx_hal_pwr_ex.c **** /**
 711:Drivers/STM32L4xx_HAL_Driver/Src/stm32l4xx_hal_pwr_ex.c ****   * @brief Disable pull-up and pull-down configuration.
 712:Drivers/STM32L4xx_HAL_Driver/Src/stm32l4xx_hal_pwr_ex.c ****   * @note  When APC bit is cleared, the I/O pull-up and pull-down configurations defined in
 713:Drivers/STM32L4xx_HAL_Driver/Src/stm32l4xx_hal_pwr_ex.c ****   *        PWR_PUCRx and PWR_PDCRx registers are not applied in Standby and Shutdown modes.
 714:Drivers/STM32L4xx_HAL_Driver/Src/stm32l4xx_hal_pwr_ex.c ****   * @retval None
 715:Drivers/STM32L4xx_HAL_Driver/Src/stm32l4xx_hal_pwr_ex.c ****   */
 716:Drivers/STM32L4xx_HAL_Driver/Src/stm32l4xx_hal_pwr_ex.c **** void HAL_PWREx_DisablePullUpPullDownConfig(void)
 717:Drivers/STM32L4xx_HAL_Driver/Src/stm32l4xx_hal_pwr_ex.c **** {
 1323              		.loc 1 717 1 is_stmt 1 view -0
 1324              		.cfi_startproc
 1325              		@ args = 0, pretend = 0, frame = 0
 1326              		@ frame_needed = 0, uses_anonymous_args = 0
 1327              		@ link register save eliminated.
 718:Drivers/STM32L4xx_HAL_Driver/Src/stm32l4xx_hal_pwr_ex.c ****   CLEAR_BIT(PWR->CR3, PWR_CR3_APC);
 1328              		.loc 1 718 3 view .LVU316
 1329 0000 024A     		ldr	r2, .L113
 1330 0002 9368     		ldr	r3, [r2, #8]
 1331 0004 23F48063 		bic	r3, r3, #1024
 1332 0008 9360     		str	r3, [r2, #8]
 719:Drivers/STM32L4xx_HAL_Driver/Src/stm32l4xx_hal_pwr_ex.c **** }
 1333              		.loc 1 719 1 is_stmt 0 view .LVU317
 1334 000a 7047     		bx	lr
ARM GAS  C:\Users\gigig\AppData\Local\Temp\cczsSJ5Z.s 			page 38


 1335              	.L114:
 1336              		.align	2
 1337              	.L113:
 1338 000c 00700040 		.word	1073770496
 1339              		.cfi_endproc
 1340              	.LFE147:
 1342              		.section	.text.HAL_PWREx_SetSRAM2ContentRetention,"ax",%progbits
 1343              		.align	1
 1344              		.global	HAL_PWREx_SetSRAM2ContentRetention
 1345              		.syntax unified
 1346              		.thumb
 1347              		.thumb_func
 1349              	HAL_PWREx_SetSRAM2ContentRetention:
 1350              	.LVL115:
 1351              	.LFB150:
 720:Drivers/STM32L4xx_HAL_Driver/Src/stm32l4xx_hal_pwr_ex.c **** 
 721:Drivers/STM32L4xx_HAL_Driver/Src/stm32l4xx_hal_pwr_ex.c **** 
 722:Drivers/STM32L4xx_HAL_Driver/Src/stm32l4xx_hal_pwr_ex.c **** 
 723:Drivers/STM32L4xx_HAL_Driver/Src/stm32l4xx_hal_pwr_ex.c **** /**
 724:Drivers/STM32L4xx_HAL_Driver/Src/stm32l4xx_hal_pwr_ex.c ****   * @brief Enable Full SRAM2 content retention in Standby mode.
 725:Drivers/STM32L4xx_HAL_Driver/Src/stm32l4xx_hal_pwr_ex.c ****   * @retval None
 726:Drivers/STM32L4xx_HAL_Driver/Src/stm32l4xx_hal_pwr_ex.c ****   */
 727:Drivers/STM32L4xx_HAL_Driver/Src/stm32l4xx_hal_pwr_ex.c **** void HAL_PWREx_EnableSRAM2ContentRetention(void)
 728:Drivers/STM32L4xx_HAL_Driver/Src/stm32l4xx_hal_pwr_ex.c **** {
 729:Drivers/STM32L4xx_HAL_Driver/Src/stm32l4xx_hal_pwr_ex.c ****   (void) HAL_PWREx_SetSRAM2ContentRetention(PWR_FULL_SRAM2_RETENTION);
 730:Drivers/STM32L4xx_HAL_Driver/Src/stm32l4xx_hal_pwr_ex.c **** }
 731:Drivers/STM32L4xx_HAL_Driver/Src/stm32l4xx_hal_pwr_ex.c **** 
 732:Drivers/STM32L4xx_HAL_Driver/Src/stm32l4xx_hal_pwr_ex.c **** /**
 733:Drivers/STM32L4xx_HAL_Driver/Src/stm32l4xx_hal_pwr_ex.c ****   * @brief Disable SRAM2 content retention in Standby mode.
 734:Drivers/STM32L4xx_HAL_Driver/Src/stm32l4xx_hal_pwr_ex.c ****   * @retval None
 735:Drivers/STM32L4xx_HAL_Driver/Src/stm32l4xx_hal_pwr_ex.c ****   */
 736:Drivers/STM32L4xx_HAL_Driver/Src/stm32l4xx_hal_pwr_ex.c **** void HAL_PWREx_DisableSRAM2ContentRetention(void)
 737:Drivers/STM32L4xx_HAL_Driver/Src/stm32l4xx_hal_pwr_ex.c **** {
 738:Drivers/STM32L4xx_HAL_Driver/Src/stm32l4xx_hal_pwr_ex.c ****   (void) HAL_PWREx_SetSRAM2ContentRetention(PWR_NO_SRAM2_RETENTION);
 739:Drivers/STM32L4xx_HAL_Driver/Src/stm32l4xx_hal_pwr_ex.c **** }
 740:Drivers/STM32L4xx_HAL_Driver/Src/stm32l4xx_hal_pwr_ex.c **** 
 741:Drivers/STM32L4xx_HAL_Driver/Src/stm32l4xx_hal_pwr_ex.c **** /**
 742:Drivers/STM32L4xx_HAL_Driver/Src/stm32l4xx_hal_pwr_ex.c ****   * @brief Enable SRAM2 content retention in Standby mode.
 743:Drivers/STM32L4xx_HAL_Driver/Src/stm32l4xx_hal_pwr_ex.c ****   * @param  SRAM2Size: specifies the SRAM2 size kept in Standby mode
 744:Drivers/STM32L4xx_HAL_Driver/Src/stm32l4xx_hal_pwr_ex.c ****   *          This parameter can be one of the following values:
 745:Drivers/STM32L4xx_HAL_Driver/Src/stm32l4xx_hal_pwr_ex.c ****   *            @arg @ref PWR_NO_SRAM2_RETENTION        SRAM2 is powered off in Standby mode (SRAM2 
 746:Drivers/STM32L4xx_HAL_Driver/Src/stm32l4xx_hal_pwr_ex.c ****   *            @arg @ref PWR_FULL_SRAM2_RETENTION      Full SRAM2 is powered by the low-power regul
 747:Drivers/STM32L4xx_HAL_Driver/Src/stm32l4xx_hal_pwr_ex.c ****   *            @arg @ref PWR_4KBYTES_SRAM2_RETENTION   Only 4 Kbytes of SRAM2 is powered by the low
 748:Drivers/STM32L4xx_HAL_Driver/Src/stm32l4xx_hal_pwr_ex.c ****   * @note  PWR_4KBYTES_SRAM2_RETENTION parameter is not available on all devices
 749:Drivers/STM32L4xx_HAL_Driver/Src/stm32l4xx_hal_pwr_ex.c ****   * @retval HAL Status
 750:Drivers/STM32L4xx_HAL_Driver/Src/stm32l4xx_hal_pwr_ex.c ****   */
 751:Drivers/STM32L4xx_HAL_Driver/Src/stm32l4xx_hal_pwr_ex.c **** HAL_StatusTypeDef HAL_PWREx_SetSRAM2ContentRetention(uint32_t SRAM2Size)
 752:Drivers/STM32L4xx_HAL_Driver/Src/stm32l4xx_hal_pwr_ex.c **** {
 1352              		.loc 1 752 1 is_stmt 1 view -0
 1353              		.cfi_startproc
 1354              		@ args = 0, pretend = 0, frame = 0
 1355              		@ frame_needed = 0, uses_anonymous_args = 0
 1356              		@ link register save eliminated.
 753:Drivers/STM32L4xx_HAL_Driver/Src/stm32l4xx_hal_pwr_ex.c ****   assert_param(IS_PWR_SRAM2_RETENTION(SRAM2Size));
 1357              		.loc 1 753 3 view .LVU319
 754:Drivers/STM32L4xx_HAL_Driver/Src/stm32l4xx_hal_pwr_ex.c **** 
 755:Drivers/STM32L4xx_HAL_Driver/Src/stm32l4xx_hal_pwr_ex.c ****   if (SRAM2Size == PWR_NO_SRAM2_RETENTION)
ARM GAS  C:\Users\gigig\AppData\Local\Temp\cczsSJ5Z.s 			page 39


 1358              		.loc 1 755 3 view .LVU320
 1359              		.loc 1 755 6 is_stmt 0 view .LVU321
 1360 0000 28B9     		cbnz	r0, .L116
 756:Drivers/STM32L4xx_HAL_Driver/Src/stm32l4xx_hal_pwr_ex.c ****   {
 757:Drivers/STM32L4xx_HAL_Driver/Src/stm32l4xx_hal_pwr_ex.c ****     CLEAR_BIT(PWR->CR3, PWR_CR3_RRS);
 1361              		.loc 1 757 5 is_stmt 1 view .LVU322
 1362 0002 094A     		ldr	r2, .L119
 1363 0004 9368     		ldr	r3, [r2, #8]
 1364 0006 23F48073 		bic	r3, r3, #256
 1365 000a 9360     		str	r3, [r2, #8]
 1366 000c 7047     		bx	lr
 1367              	.L116:
 758:Drivers/STM32L4xx_HAL_Driver/Src/stm32l4xx_hal_pwr_ex.c ****   }
 759:Drivers/STM32L4xx_HAL_Driver/Src/stm32l4xx_hal_pwr_ex.c ****   else if (SRAM2Size == PWR_FULL_SRAM2_RETENTION)
 1368              		.loc 1 759 8 view .LVU323
 1369              		.loc 1 759 11 is_stmt 0 view .LVU324
 1370 000e B0F5807F 		cmp	r0, #256
 1371 0012 06D1     		bne	.L118
 760:Drivers/STM32L4xx_HAL_Driver/Src/stm32l4xx_hal_pwr_ex.c ****   {
 761:Drivers/STM32L4xx_HAL_Driver/Src/stm32l4xx_hal_pwr_ex.c ****     MODIFY_REG(PWR->CR3, PWR_CR3_RRS, PWR_FULL_SRAM2_RETENTION);
 1372              		.loc 1 761 5 is_stmt 1 view .LVU325
 1373 0014 044A     		ldr	r2, .L119
 1374 0016 9368     		ldr	r3, [r2, #8]
 1375 0018 43F48073 		orr	r3, r3, #256
 1376 001c 9360     		str	r3, [r2, #8]
 762:Drivers/STM32L4xx_HAL_Driver/Src/stm32l4xx_hal_pwr_ex.c ****   }
 763:Drivers/STM32L4xx_HAL_Driver/Src/stm32l4xx_hal_pwr_ex.c **** #if defined(PWR_CR3_RRS_1)
 764:Drivers/STM32L4xx_HAL_Driver/Src/stm32l4xx_hal_pwr_ex.c ****   else if (SRAM2Size == PWR_4KBYTES_SRAM2_RETENTION)
 765:Drivers/STM32L4xx_HAL_Driver/Src/stm32l4xx_hal_pwr_ex.c ****   {
 766:Drivers/STM32L4xx_HAL_Driver/Src/stm32l4xx_hal_pwr_ex.c ****     MODIFY_REG(PWR->CR3, PWR_CR3_RRS, PWR_4KBYTES_SRAM2_RETENTION);
 767:Drivers/STM32L4xx_HAL_Driver/Src/stm32l4xx_hal_pwr_ex.c ****   }
 768:Drivers/STM32L4xx_HAL_Driver/Src/stm32l4xx_hal_pwr_ex.c **** #endif /* PWR_CR3_RRS_1 */
 769:Drivers/STM32L4xx_HAL_Driver/Src/stm32l4xx_hal_pwr_ex.c ****   else {
 770:Drivers/STM32L4xx_HAL_Driver/Src/stm32l4xx_hal_pwr_ex.c ****     return HAL_ERROR;
 771:Drivers/STM32L4xx_HAL_Driver/Src/stm32l4xx_hal_pwr_ex.c ****   }
 772:Drivers/STM32L4xx_HAL_Driver/Src/stm32l4xx_hal_pwr_ex.c **** 
 773:Drivers/STM32L4xx_HAL_Driver/Src/stm32l4xx_hal_pwr_ex.c ****   return HAL_OK;
 1377              		.loc 1 773 10 is_stmt 0 view .LVU326
 1378 001e 0020     		movs	r0, #0
 1379              	.LVL116:
 1380              		.loc 1 773 10 view .LVU327
 1381 0020 7047     		bx	lr
 1382              	.LVL117:
 1383              	.L118:
 770:Drivers/STM32L4xx_HAL_Driver/Src/stm32l4xx_hal_pwr_ex.c ****   }
 1384              		.loc 1 770 12 view .LVU328
 1385 0022 0120     		movs	r0, #1
 1386              	.LVL118:
 774:Drivers/STM32L4xx_HAL_Driver/Src/stm32l4xx_hal_pwr_ex.c **** }
 1387              		.loc 1 774 1 view .LVU329
 1388 0024 7047     		bx	lr
 1389              	.L120:
 1390 0026 00BF     		.align	2
 1391              	.L119:
 1392 0028 00700040 		.word	1073770496
 1393              		.cfi_endproc
 1394              	.LFE150:
ARM GAS  C:\Users\gigig\AppData\Local\Temp\cczsSJ5Z.s 			page 40


 1396              		.section	.text.HAL_PWREx_EnableSRAM2ContentRetention,"ax",%progbits
 1397              		.align	1
 1398              		.global	HAL_PWREx_EnableSRAM2ContentRetention
 1399              		.syntax unified
 1400              		.thumb
 1401              		.thumb_func
 1403              	HAL_PWREx_EnableSRAM2ContentRetention:
 1404              	.LFB148:
 728:Drivers/STM32L4xx_HAL_Driver/Src/stm32l4xx_hal_pwr_ex.c ****   (void) HAL_PWREx_SetSRAM2ContentRetention(PWR_FULL_SRAM2_RETENTION);
 1405              		.loc 1 728 1 is_stmt 1 view -0
 1406              		.cfi_startproc
 1407              		@ args = 0, pretend = 0, frame = 0
 1408              		@ frame_needed = 0, uses_anonymous_args = 0
 1409 0000 08B5     		push	{r3, lr}
 1410              		.cfi_def_cfa_offset 8
 1411              		.cfi_offset 3, -8
 1412              		.cfi_offset 14, -4
 729:Drivers/STM32L4xx_HAL_Driver/Src/stm32l4xx_hal_pwr_ex.c **** }
 1413              		.loc 1 729 3 view .LVU331
 729:Drivers/STM32L4xx_HAL_Driver/Src/stm32l4xx_hal_pwr_ex.c **** }
 1414              		.loc 1 729 10 is_stmt 0 view .LVU332
 1415 0002 4FF48070 		mov	r0, #256
 1416 0006 FFF7FEFF 		bl	HAL_PWREx_SetSRAM2ContentRetention
 1417              	.LVL119:
 730:Drivers/STM32L4xx_HAL_Driver/Src/stm32l4xx_hal_pwr_ex.c **** 
 1418              		.loc 1 730 1 view .LVU333
 1419 000a 08BD     		pop	{r3, pc}
 1420              		.cfi_endproc
 1421              	.LFE148:
 1423              		.section	.text.HAL_PWREx_DisableSRAM2ContentRetention,"ax",%progbits
 1424              		.align	1
 1425              		.global	HAL_PWREx_DisableSRAM2ContentRetention
 1426              		.syntax unified
 1427              		.thumb
 1428              		.thumb_func
 1430              	HAL_PWREx_DisableSRAM2ContentRetention:
 1431              	.LFB149:
 737:Drivers/STM32L4xx_HAL_Driver/Src/stm32l4xx_hal_pwr_ex.c ****   (void) HAL_PWREx_SetSRAM2ContentRetention(PWR_NO_SRAM2_RETENTION);
 1432              		.loc 1 737 1 is_stmt 1 view -0
 1433              		.cfi_startproc
 1434              		@ args = 0, pretend = 0, frame = 0
 1435              		@ frame_needed = 0, uses_anonymous_args = 0
 1436 0000 08B5     		push	{r3, lr}
 1437              		.cfi_def_cfa_offset 8
 1438              		.cfi_offset 3, -8
 1439              		.cfi_offset 14, -4
 738:Drivers/STM32L4xx_HAL_Driver/Src/stm32l4xx_hal_pwr_ex.c **** }
 1440              		.loc 1 738 3 view .LVU335
 738:Drivers/STM32L4xx_HAL_Driver/Src/stm32l4xx_hal_pwr_ex.c **** }
 1441              		.loc 1 738 10 is_stmt 0 view .LVU336
 1442 0002 0020     		movs	r0, #0
 1443 0004 FFF7FEFF 		bl	HAL_PWREx_SetSRAM2ContentRetention
 1444              	.LVL120:
 739:Drivers/STM32L4xx_HAL_Driver/Src/stm32l4xx_hal_pwr_ex.c **** 
 1445              		.loc 1 739 1 view .LVU337
 1446 0008 08BD     		pop	{r3, pc}
 1447              		.cfi_endproc
ARM GAS  C:\Users\gigig\AppData\Local\Temp\cczsSJ5Z.s 			page 41


 1448              	.LFE149:
 1450              		.section	.text.HAL_PWREx_EnableSRAM3ContentRetention,"ax",%progbits
 1451              		.align	1
 1452              		.global	HAL_PWREx_EnableSRAM3ContentRetention
 1453              		.syntax unified
 1454              		.thumb
 1455              		.thumb_func
 1457              	HAL_PWREx_EnableSRAM3ContentRetention:
 1458              	.LFB151:
 775:Drivers/STM32L4xx_HAL_Driver/Src/stm32l4xx_hal_pwr_ex.c **** 
 776:Drivers/STM32L4xx_HAL_Driver/Src/stm32l4xx_hal_pwr_ex.c **** 
 777:Drivers/STM32L4xx_HAL_Driver/Src/stm32l4xx_hal_pwr_ex.c **** #if defined(PWR_CR3_ENULP)
 778:Drivers/STM32L4xx_HAL_Driver/Src/stm32l4xx_hal_pwr_ex.c **** /**
 779:Drivers/STM32L4xx_HAL_Driver/Src/stm32l4xx_hal_pwr_ex.c ****   * @brief Enable Ultra Low Power BORL, BORH and PVD for STOP2 and Standby modes.
 780:Drivers/STM32L4xx_HAL_Driver/Src/stm32l4xx_hal_pwr_ex.c ****   * @note  All the other modes are not affected by this bit.
 781:Drivers/STM32L4xx_HAL_Driver/Src/stm32l4xx_hal_pwr_ex.c ****   * @retval None
 782:Drivers/STM32L4xx_HAL_Driver/Src/stm32l4xx_hal_pwr_ex.c ****   */
 783:Drivers/STM32L4xx_HAL_Driver/Src/stm32l4xx_hal_pwr_ex.c **** void HAL_PWREx_EnableBORPVD_ULP(void)
 784:Drivers/STM32L4xx_HAL_Driver/Src/stm32l4xx_hal_pwr_ex.c **** {
 785:Drivers/STM32L4xx_HAL_Driver/Src/stm32l4xx_hal_pwr_ex.c ****   SET_BIT(PWR->CR3, PWR_CR3_ENULP);
 786:Drivers/STM32L4xx_HAL_Driver/Src/stm32l4xx_hal_pwr_ex.c **** }
 787:Drivers/STM32L4xx_HAL_Driver/Src/stm32l4xx_hal_pwr_ex.c **** 
 788:Drivers/STM32L4xx_HAL_Driver/Src/stm32l4xx_hal_pwr_ex.c **** 
 789:Drivers/STM32L4xx_HAL_Driver/Src/stm32l4xx_hal_pwr_ex.c **** /**
 790:Drivers/STM32L4xx_HAL_Driver/Src/stm32l4xx_hal_pwr_ex.c ****   * @brief Disable Ultra Low Power BORL, BORH and PVD for STOP2 and Standby modes.
 791:Drivers/STM32L4xx_HAL_Driver/Src/stm32l4xx_hal_pwr_ex.c ****   * @note  All the other modes are not affected by this bit
 792:Drivers/STM32L4xx_HAL_Driver/Src/stm32l4xx_hal_pwr_ex.c ****   * @retval None
 793:Drivers/STM32L4xx_HAL_Driver/Src/stm32l4xx_hal_pwr_ex.c ****   */
 794:Drivers/STM32L4xx_HAL_Driver/Src/stm32l4xx_hal_pwr_ex.c **** void HAL_PWREx_DisableBORPVD_ULP(void)
 795:Drivers/STM32L4xx_HAL_Driver/Src/stm32l4xx_hal_pwr_ex.c **** {
 796:Drivers/STM32L4xx_HAL_Driver/Src/stm32l4xx_hal_pwr_ex.c ****   CLEAR_BIT(PWR->CR3, PWR_CR3_ENULP);
 797:Drivers/STM32L4xx_HAL_Driver/Src/stm32l4xx_hal_pwr_ex.c **** }
 798:Drivers/STM32L4xx_HAL_Driver/Src/stm32l4xx_hal_pwr_ex.c **** #endif /* PWR_CR3_ENULP */
 799:Drivers/STM32L4xx_HAL_Driver/Src/stm32l4xx_hal_pwr_ex.c **** 
 800:Drivers/STM32L4xx_HAL_Driver/Src/stm32l4xx_hal_pwr_ex.c **** 
 801:Drivers/STM32L4xx_HAL_Driver/Src/stm32l4xx_hal_pwr_ex.c **** #if defined(PWR_CR4_EXT_SMPS_ON)
 802:Drivers/STM32L4xx_HAL_Driver/Src/stm32l4xx_hal_pwr_ex.c **** /**
 803:Drivers/STM32L4xx_HAL_Driver/Src/stm32l4xx_hal_pwr_ex.c ****   * @brief Enable the CFLDO working @ 0.95V.
 804:Drivers/STM32L4xx_HAL_Driver/Src/stm32l4xx_hal_pwr_ex.c ****   * @note  When external SMPS is used & CFLDO operating in Range 2, the regulated voltage of the
 805:Drivers/STM32L4xx_HAL_Driver/Src/stm32l4xx_hal_pwr_ex.c ****   *        internal CFLDO can be reduced to 0.95V.
 806:Drivers/STM32L4xx_HAL_Driver/Src/stm32l4xx_hal_pwr_ex.c ****   * @retval None
 807:Drivers/STM32L4xx_HAL_Driver/Src/stm32l4xx_hal_pwr_ex.c ****   */
 808:Drivers/STM32L4xx_HAL_Driver/Src/stm32l4xx_hal_pwr_ex.c **** void HAL_PWREx_EnableExtSMPS_0V95(void)
 809:Drivers/STM32L4xx_HAL_Driver/Src/stm32l4xx_hal_pwr_ex.c **** {
 810:Drivers/STM32L4xx_HAL_Driver/Src/stm32l4xx_hal_pwr_ex.c ****   SET_BIT(PWR->CR4, PWR_CR4_EXT_SMPS_ON);
 811:Drivers/STM32L4xx_HAL_Driver/Src/stm32l4xx_hal_pwr_ex.c **** }
 812:Drivers/STM32L4xx_HAL_Driver/Src/stm32l4xx_hal_pwr_ex.c **** 
 813:Drivers/STM32L4xx_HAL_Driver/Src/stm32l4xx_hal_pwr_ex.c **** /**
 814:Drivers/STM32L4xx_HAL_Driver/Src/stm32l4xx_hal_pwr_ex.c ****   * @brief Disable the CFLDO working @ 0.95V
 815:Drivers/STM32L4xx_HAL_Driver/Src/stm32l4xx_hal_pwr_ex.c ****   * @note  Before SMPS is switched off, the regulated voltage of the
 816:Drivers/STM32L4xx_HAL_Driver/Src/stm32l4xx_hal_pwr_ex.c ****   *        internal CFLDO shall be set to 1.00V.
 817:Drivers/STM32L4xx_HAL_Driver/Src/stm32l4xx_hal_pwr_ex.c ****   *        1.00V. is also default operating Range 2 voltage.
 818:Drivers/STM32L4xx_HAL_Driver/Src/stm32l4xx_hal_pwr_ex.c ****   * @retval None
 819:Drivers/STM32L4xx_HAL_Driver/Src/stm32l4xx_hal_pwr_ex.c ****   */
 820:Drivers/STM32L4xx_HAL_Driver/Src/stm32l4xx_hal_pwr_ex.c **** void HAL_PWREx_DisableExtSMPS_0V95(void)
 821:Drivers/STM32L4xx_HAL_Driver/Src/stm32l4xx_hal_pwr_ex.c **** {
 822:Drivers/STM32L4xx_HAL_Driver/Src/stm32l4xx_hal_pwr_ex.c ****   CLEAR_BIT(PWR->CR4, PWR_CR4_EXT_SMPS_ON);
ARM GAS  C:\Users\gigig\AppData\Local\Temp\cczsSJ5Z.s 			page 42


 823:Drivers/STM32L4xx_HAL_Driver/Src/stm32l4xx_hal_pwr_ex.c **** }
 824:Drivers/STM32L4xx_HAL_Driver/Src/stm32l4xx_hal_pwr_ex.c **** #endif /* PWR_CR4_EXT_SMPS_ON */
 825:Drivers/STM32L4xx_HAL_Driver/Src/stm32l4xx_hal_pwr_ex.c **** 
 826:Drivers/STM32L4xx_HAL_Driver/Src/stm32l4xx_hal_pwr_ex.c **** 
 827:Drivers/STM32L4xx_HAL_Driver/Src/stm32l4xx_hal_pwr_ex.c **** #if defined(PWR_CR1_RRSTP)
 828:Drivers/STM32L4xx_HAL_Driver/Src/stm32l4xx_hal_pwr_ex.c **** /**
 829:Drivers/STM32L4xx_HAL_Driver/Src/stm32l4xx_hal_pwr_ex.c ****   * @brief Enable SRAM3 content retention in Stop 2 mode.
 830:Drivers/STM32L4xx_HAL_Driver/Src/stm32l4xx_hal_pwr_ex.c ****   * @note  When RRSTP bit is set, SRAM3 is powered by the low-power regulator in
 831:Drivers/STM32L4xx_HAL_Driver/Src/stm32l4xx_hal_pwr_ex.c ****   *        Stop 2 mode and its content is kept.
 832:Drivers/STM32L4xx_HAL_Driver/Src/stm32l4xx_hal_pwr_ex.c ****   * @retval None
 833:Drivers/STM32L4xx_HAL_Driver/Src/stm32l4xx_hal_pwr_ex.c ****   */
 834:Drivers/STM32L4xx_HAL_Driver/Src/stm32l4xx_hal_pwr_ex.c **** void HAL_PWREx_EnableSRAM3ContentRetention(void)
 835:Drivers/STM32L4xx_HAL_Driver/Src/stm32l4xx_hal_pwr_ex.c **** {
 1459              		.loc 1 835 1 is_stmt 1 view -0
 1460              		.cfi_startproc
 1461              		@ args = 0, pretend = 0, frame = 0
 1462              		@ frame_needed = 0, uses_anonymous_args = 0
 1463              		@ link register save eliminated.
 836:Drivers/STM32L4xx_HAL_Driver/Src/stm32l4xx_hal_pwr_ex.c ****   SET_BIT(PWR->CR1, PWR_CR1_RRSTP);
 1464              		.loc 1 836 3 view .LVU339
 1465 0000 024A     		ldr	r2, .L126
 1466 0002 1368     		ldr	r3, [r2]
 1467 0004 43F01003 		orr	r3, r3, #16
 1468 0008 1360     		str	r3, [r2]
 837:Drivers/STM32L4xx_HAL_Driver/Src/stm32l4xx_hal_pwr_ex.c **** }
 1469              		.loc 1 837 1 is_stmt 0 view .LVU340
 1470 000a 7047     		bx	lr
 1471              	.L127:
 1472              		.align	2
 1473              	.L126:
 1474 000c 00700040 		.word	1073770496
 1475              		.cfi_endproc
 1476              	.LFE151:
 1478              		.section	.text.HAL_PWREx_DisableSRAM3ContentRetention,"ax",%progbits
 1479              		.align	1
 1480              		.global	HAL_PWREx_DisableSRAM3ContentRetention
 1481              		.syntax unified
 1482              		.thumb
 1483              		.thumb_func
 1485              	HAL_PWREx_DisableSRAM3ContentRetention:
 1486              	.LFB152:
 838:Drivers/STM32L4xx_HAL_Driver/Src/stm32l4xx_hal_pwr_ex.c **** 
 839:Drivers/STM32L4xx_HAL_Driver/Src/stm32l4xx_hal_pwr_ex.c **** 
 840:Drivers/STM32L4xx_HAL_Driver/Src/stm32l4xx_hal_pwr_ex.c **** /**
 841:Drivers/STM32L4xx_HAL_Driver/Src/stm32l4xx_hal_pwr_ex.c ****   * @brief Disable SRAM3 content retention in Stop 2 mode.
 842:Drivers/STM32L4xx_HAL_Driver/Src/stm32l4xx_hal_pwr_ex.c ****   * @note  When RRSTP bit is reset, SRAM3 is powered off in Stop 2 mode
 843:Drivers/STM32L4xx_HAL_Driver/Src/stm32l4xx_hal_pwr_ex.c ****   *        and its content is lost.
 844:Drivers/STM32L4xx_HAL_Driver/Src/stm32l4xx_hal_pwr_ex.c ****   * @retval None
 845:Drivers/STM32L4xx_HAL_Driver/Src/stm32l4xx_hal_pwr_ex.c ****   */
 846:Drivers/STM32L4xx_HAL_Driver/Src/stm32l4xx_hal_pwr_ex.c **** void HAL_PWREx_DisableSRAM3ContentRetention(void)
 847:Drivers/STM32L4xx_HAL_Driver/Src/stm32l4xx_hal_pwr_ex.c **** {
 1487              		.loc 1 847 1 is_stmt 1 view -0
 1488              		.cfi_startproc
 1489              		@ args = 0, pretend = 0, frame = 0
 1490              		@ frame_needed = 0, uses_anonymous_args = 0
 1491              		@ link register save eliminated.
 848:Drivers/STM32L4xx_HAL_Driver/Src/stm32l4xx_hal_pwr_ex.c ****   CLEAR_BIT(PWR->CR1, PWR_CR1_RRSTP);
ARM GAS  C:\Users\gigig\AppData\Local\Temp\cczsSJ5Z.s 			page 43


 1492              		.loc 1 848 3 view .LVU342
 1493 0000 024A     		ldr	r2, .L129
 1494 0002 1368     		ldr	r3, [r2]
 1495 0004 23F01003 		bic	r3, r3, #16
 1496 0008 1360     		str	r3, [r2]
 849:Drivers/STM32L4xx_HAL_Driver/Src/stm32l4xx_hal_pwr_ex.c **** }
 1497              		.loc 1 849 1 is_stmt 0 view .LVU343
 1498 000a 7047     		bx	lr
 1499              	.L130:
 1500              		.align	2
 1501              	.L129:
 1502 000c 00700040 		.word	1073770496
 1503              		.cfi_endproc
 1504              	.LFE152:
 1506              		.section	.text.HAL_PWREx_EnableDSIPinsPDActivation,"ax",%progbits
 1507              		.align	1
 1508              		.global	HAL_PWREx_EnableDSIPinsPDActivation
 1509              		.syntax unified
 1510              		.thumb
 1511              		.thumb_func
 1513              	HAL_PWREx_EnableDSIPinsPDActivation:
 1514              	.LFB153:
 850:Drivers/STM32L4xx_HAL_Driver/Src/stm32l4xx_hal_pwr_ex.c **** #endif /* PWR_CR1_RRSTP */
 851:Drivers/STM32L4xx_HAL_Driver/Src/stm32l4xx_hal_pwr_ex.c **** 
 852:Drivers/STM32L4xx_HAL_Driver/Src/stm32l4xx_hal_pwr_ex.c **** #if defined(PWR_CR3_DSIPDEN)
 853:Drivers/STM32L4xx_HAL_Driver/Src/stm32l4xx_hal_pwr_ex.c **** /**
 854:Drivers/STM32L4xx_HAL_Driver/Src/stm32l4xx_hal_pwr_ex.c ****   * @brief Enable pull-down activation on DSI pins.
 855:Drivers/STM32L4xx_HAL_Driver/Src/stm32l4xx_hal_pwr_ex.c ****   * @retval None
 856:Drivers/STM32L4xx_HAL_Driver/Src/stm32l4xx_hal_pwr_ex.c ****   */
 857:Drivers/STM32L4xx_HAL_Driver/Src/stm32l4xx_hal_pwr_ex.c **** void HAL_PWREx_EnableDSIPinsPDActivation(void)
 858:Drivers/STM32L4xx_HAL_Driver/Src/stm32l4xx_hal_pwr_ex.c **** {
 1515              		.loc 1 858 1 is_stmt 1 view -0
 1516              		.cfi_startproc
 1517              		@ args = 0, pretend = 0, frame = 0
 1518              		@ frame_needed = 0, uses_anonymous_args = 0
 1519              		@ link register save eliminated.
 859:Drivers/STM32L4xx_HAL_Driver/Src/stm32l4xx_hal_pwr_ex.c ****   SET_BIT(PWR->CR3, PWR_CR3_DSIPDEN);
 1520              		.loc 1 859 3 view .LVU345
 1521 0000 024A     		ldr	r2, .L132
 1522 0002 9368     		ldr	r3, [r2, #8]
 1523 0004 43F48053 		orr	r3, r3, #4096
 1524 0008 9360     		str	r3, [r2, #8]
 860:Drivers/STM32L4xx_HAL_Driver/Src/stm32l4xx_hal_pwr_ex.c **** }
 1525              		.loc 1 860 1 is_stmt 0 view .LVU346
 1526 000a 7047     		bx	lr
 1527              	.L133:
 1528              		.align	2
 1529              	.L132:
 1530 000c 00700040 		.word	1073770496
 1531              		.cfi_endproc
 1532              	.LFE153:
 1534              		.section	.text.HAL_PWREx_DisableDSIPinsPDActivation,"ax",%progbits
 1535              		.align	1
 1536              		.global	HAL_PWREx_DisableDSIPinsPDActivation
 1537              		.syntax unified
 1538              		.thumb
 1539              		.thumb_func
ARM GAS  C:\Users\gigig\AppData\Local\Temp\cczsSJ5Z.s 			page 44


 1541              	HAL_PWREx_DisableDSIPinsPDActivation:
 1542              	.LFB154:
 861:Drivers/STM32L4xx_HAL_Driver/Src/stm32l4xx_hal_pwr_ex.c **** 
 862:Drivers/STM32L4xx_HAL_Driver/Src/stm32l4xx_hal_pwr_ex.c **** 
 863:Drivers/STM32L4xx_HAL_Driver/Src/stm32l4xx_hal_pwr_ex.c **** /**
 864:Drivers/STM32L4xx_HAL_Driver/Src/stm32l4xx_hal_pwr_ex.c ****   * @brief Disable pull-down activation on DSI pins.
 865:Drivers/STM32L4xx_HAL_Driver/Src/stm32l4xx_hal_pwr_ex.c ****   * @retval None
 866:Drivers/STM32L4xx_HAL_Driver/Src/stm32l4xx_hal_pwr_ex.c ****   */
 867:Drivers/STM32L4xx_HAL_Driver/Src/stm32l4xx_hal_pwr_ex.c **** void HAL_PWREx_DisableDSIPinsPDActivation(void)
 868:Drivers/STM32L4xx_HAL_Driver/Src/stm32l4xx_hal_pwr_ex.c **** {
 1543              		.loc 1 868 1 is_stmt 1 view -0
 1544              		.cfi_startproc
 1545              		@ args = 0, pretend = 0, frame = 0
 1546              		@ frame_needed = 0, uses_anonymous_args = 0
 1547              		@ link register save eliminated.
 869:Drivers/STM32L4xx_HAL_Driver/Src/stm32l4xx_hal_pwr_ex.c ****   CLEAR_BIT(PWR->CR3, PWR_CR3_DSIPDEN);
 1548              		.loc 1 869 3 view .LVU348
 1549 0000 024A     		ldr	r2, .L135
 1550 0002 9368     		ldr	r3, [r2, #8]
 1551 0004 23F48053 		bic	r3, r3, #4096
 1552 0008 9360     		str	r3, [r2, #8]
 870:Drivers/STM32L4xx_HAL_Driver/Src/stm32l4xx_hal_pwr_ex.c **** }
 1553              		.loc 1 870 1 is_stmt 0 view .LVU349
 1554 000a 7047     		bx	lr
 1555              	.L136:
 1556              		.align	2
 1557              	.L135:
 1558 000c 00700040 		.word	1073770496
 1559              		.cfi_endproc
 1560              	.LFE154:
 1562              		.section	.text.HAL_PWREx_EnablePVM1,"ax",%progbits
 1563              		.align	1
 1564              		.global	HAL_PWREx_EnablePVM1
 1565              		.syntax unified
 1566              		.thumb
 1567              		.thumb_func
 1569              	HAL_PWREx_EnablePVM1:
 1570              	.LFB155:
 871:Drivers/STM32L4xx_HAL_Driver/Src/stm32l4xx_hal_pwr_ex.c **** #endif /* PWR_CR3_DSIPDEN */
 872:Drivers/STM32L4xx_HAL_Driver/Src/stm32l4xx_hal_pwr_ex.c **** 
 873:Drivers/STM32L4xx_HAL_Driver/Src/stm32l4xx_hal_pwr_ex.c **** #if defined(PWR_CR2_PVME1)
 874:Drivers/STM32L4xx_HAL_Driver/Src/stm32l4xx_hal_pwr_ex.c **** /**
 875:Drivers/STM32L4xx_HAL_Driver/Src/stm32l4xx_hal_pwr_ex.c ****   * @brief Enable the Power Voltage Monitoring 1: VDDUSB versus 1.2V.
 876:Drivers/STM32L4xx_HAL_Driver/Src/stm32l4xx_hal_pwr_ex.c ****   * @retval None
 877:Drivers/STM32L4xx_HAL_Driver/Src/stm32l4xx_hal_pwr_ex.c ****   */
 878:Drivers/STM32L4xx_HAL_Driver/Src/stm32l4xx_hal_pwr_ex.c **** void HAL_PWREx_EnablePVM1(void)
 879:Drivers/STM32L4xx_HAL_Driver/Src/stm32l4xx_hal_pwr_ex.c **** {
 1571              		.loc 1 879 1 is_stmt 1 view -0
 1572              		.cfi_startproc
 1573              		@ args = 0, pretend = 0, frame = 0
 1574              		@ frame_needed = 0, uses_anonymous_args = 0
 1575              		@ link register save eliminated.
 880:Drivers/STM32L4xx_HAL_Driver/Src/stm32l4xx_hal_pwr_ex.c ****   SET_BIT(PWR->CR2, PWR_PVM_1);
 1576              		.loc 1 880 3 view .LVU351
 1577 0000 024A     		ldr	r2, .L138
 1578 0002 5368     		ldr	r3, [r2, #4]
 1579 0004 43F01003 		orr	r3, r3, #16
ARM GAS  C:\Users\gigig\AppData\Local\Temp\cczsSJ5Z.s 			page 45


 1580 0008 5360     		str	r3, [r2, #4]
 881:Drivers/STM32L4xx_HAL_Driver/Src/stm32l4xx_hal_pwr_ex.c **** }
 1581              		.loc 1 881 1 is_stmt 0 view .LVU352
 1582 000a 7047     		bx	lr
 1583              	.L139:
 1584              		.align	2
 1585              	.L138:
 1586 000c 00700040 		.word	1073770496
 1587              		.cfi_endproc
 1588              	.LFE155:
 1590              		.section	.text.HAL_PWREx_DisablePVM1,"ax",%progbits
 1591              		.align	1
 1592              		.global	HAL_PWREx_DisablePVM1
 1593              		.syntax unified
 1594              		.thumb
 1595              		.thumb_func
 1597              	HAL_PWREx_DisablePVM1:
 1598              	.LFB156:
 882:Drivers/STM32L4xx_HAL_Driver/Src/stm32l4xx_hal_pwr_ex.c **** 
 883:Drivers/STM32L4xx_HAL_Driver/Src/stm32l4xx_hal_pwr_ex.c **** /**
 884:Drivers/STM32L4xx_HAL_Driver/Src/stm32l4xx_hal_pwr_ex.c ****   * @brief Disable the Power Voltage Monitoring 1: VDDUSB versus 1.2V.
 885:Drivers/STM32L4xx_HAL_Driver/Src/stm32l4xx_hal_pwr_ex.c ****   * @retval None
 886:Drivers/STM32L4xx_HAL_Driver/Src/stm32l4xx_hal_pwr_ex.c ****   */
 887:Drivers/STM32L4xx_HAL_Driver/Src/stm32l4xx_hal_pwr_ex.c **** void HAL_PWREx_DisablePVM1(void)
 888:Drivers/STM32L4xx_HAL_Driver/Src/stm32l4xx_hal_pwr_ex.c **** {
 1599              		.loc 1 888 1 is_stmt 1 view -0
 1600              		.cfi_startproc
 1601              		@ args = 0, pretend = 0, frame = 0
 1602              		@ frame_needed = 0, uses_anonymous_args = 0
 1603              		@ link register save eliminated.
 889:Drivers/STM32L4xx_HAL_Driver/Src/stm32l4xx_hal_pwr_ex.c ****   CLEAR_BIT(PWR->CR2, PWR_PVM_1);
 1604              		.loc 1 889 3 view .LVU354
 1605 0000 024A     		ldr	r2, .L141
 1606 0002 5368     		ldr	r3, [r2, #4]
 1607 0004 23F01003 		bic	r3, r3, #16
 1608 0008 5360     		str	r3, [r2, #4]
 890:Drivers/STM32L4xx_HAL_Driver/Src/stm32l4xx_hal_pwr_ex.c **** }
 1609              		.loc 1 890 1 is_stmt 0 view .LVU355
 1610 000a 7047     		bx	lr
 1611              	.L142:
 1612              		.align	2
 1613              	.L141:
 1614 000c 00700040 		.word	1073770496
 1615              		.cfi_endproc
 1616              	.LFE156:
 1618              		.section	.text.HAL_PWREx_EnablePVM2,"ax",%progbits
 1619              		.align	1
 1620              		.global	HAL_PWREx_EnablePVM2
 1621              		.syntax unified
 1622              		.thumb
 1623              		.thumb_func
 1625              	HAL_PWREx_EnablePVM2:
 1626              	.LFB157:
 891:Drivers/STM32L4xx_HAL_Driver/Src/stm32l4xx_hal_pwr_ex.c **** #endif /* PWR_CR2_PVME1 */
 892:Drivers/STM32L4xx_HAL_Driver/Src/stm32l4xx_hal_pwr_ex.c **** 
 893:Drivers/STM32L4xx_HAL_Driver/Src/stm32l4xx_hal_pwr_ex.c **** 
 894:Drivers/STM32L4xx_HAL_Driver/Src/stm32l4xx_hal_pwr_ex.c **** #if defined(PWR_CR2_PVME2)
ARM GAS  C:\Users\gigig\AppData\Local\Temp\cczsSJ5Z.s 			page 46


 895:Drivers/STM32L4xx_HAL_Driver/Src/stm32l4xx_hal_pwr_ex.c **** /**
 896:Drivers/STM32L4xx_HAL_Driver/Src/stm32l4xx_hal_pwr_ex.c ****   * @brief Enable the Power Voltage Monitoring 2: VDDIO2 versus 0.9V.
 897:Drivers/STM32L4xx_HAL_Driver/Src/stm32l4xx_hal_pwr_ex.c ****   * @retval None
 898:Drivers/STM32L4xx_HAL_Driver/Src/stm32l4xx_hal_pwr_ex.c ****   */
 899:Drivers/STM32L4xx_HAL_Driver/Src/stm32l4xx_hal_pwr_ex.c **** void HAL_PWREx_EnablePVM2(void)
 900:Drivers/STM32L4xx_HAL_Driver/Src/stm32l4xx_hal_pwr_ex.c **** {
 1627              		.loc 1 900 1 is_stmt 1 view -0
 1628              		.cfi_startproc
 1629              		@ args = 0, pretend = 0, frame = 0
 1630              		@ frame_needed = 0, uses_anonymous_args = 0
 1631              		@ link register save eliminated.
 901:Drivers/STM32L4xx_HAL_Driver/Src/stm32l4xx_hal_pwr_ex.c ****   SET_BIT(PWR->CR2, PWR_PVM_2);
 1632              		.loc 1 901 3 view .LVU357
 1633 0000 024A     		ldr	r2, .L144
 1634 0002 5368     		ldr	r3, [r2, #4]
 1635 0004 43F02003 		orr	r3, r3, #32
 1636 0008 5360     		str	r3, [r2, #4]
 902:Drivers/STM32L4xx_HAL_Driver/Src/stm32l4xx_hal_pwr_ex.c **** }
 1637              		.loc 1 902 1 is_stmt 0 view .LVU358
 1638 000a 7047     		bx	lr
 1639              	.L145:
 1640              		.align	2
 1641              	.L144:
 1642 000c 00700040 		.word	1073770496
 1643              		.cfi_endproc
 1644              	.LFE157:
 1646              		.section	.text.HAL_PWREx_DisablePVM2,"ax",%progbits
 1647              		.align	1
 1648              		.global	HAL_PWREx_DisablePVM2
 1649              		.syntax unified
 1650              		.thumb
 1651              		.thumb_func
 1653              	HAL_PWREx_DisablePVM2:
 1654              	.LFB158:
 903:Drivers/STM32L4xx_HAL_Driver/Src/stm32l4xx_hal_pwr_ex.c **** 
 904:Drivers/STM32L4xx_HAL_Driver/Src/stm32l4xx_hal_pwr_ex.c **** /**
 905:Drivers/STM32L4xx_HAL_Driver/Src/stm32l4xx_hal_pwr_ex.c ****   * @brief Disable the Power Voltage Monitoring 2: VDDIO2 versus 0.9V.
 906:Drivers/STM32L4xx_HAL_Driver/Src/stm32l4xx_hal_pwr_ex.c ****   * @retval None
 907:Drivers/STM32L4xx_HAL_Driver/Src/stm32l4xx_hal_pwr_ex.c ****   */
 908:Drivers/STM32L4xx_HAL_Driver/Src/stm32l4xx_hal_pwr_ex.c **** void HAL_PWREx_DisablePVM2(void)
 909:Drivers/STM32L4xx_HAL_Driver/Src/stm32l4xx_hal_pwr_ex.c **** {
 1655              		.loc 1 909 1 is_stmt 1 view -0
 1656              		.cfi_startproc
 1657              		@ args = 0, pretend = 0, frame = 0
 1658              		@ frame_needed = 0, uses_anonymous_args = 0
 1659              		@ link register save eliminated.
 910:Drivers/STM32L4xx_HAL_Driver/Src/stm32l4xx_hal_pwr_ex.c ****   CLEAR_BIT(PWR->CR2, PWR_PVM_2);
 1660              		.loc 1 910 3 view .LVU360
 1661 0000 024A     		ldr	r2, .L147
 1662 0002 5368     		ldr	r3, [r2, #4]
 1663 0004 23F02003 		bic	r3, r3, #32
 1664 0008 5360     		str	r3, [r2, #4]
 911:Drivers/STM32L4xx_HAL_Driver/Src/stm32l4xx_hal_pwr_ex.c **** }
 1665              		.loc 1 911 1 is_stmt 0 view .LVU361
 1666 000a 7047     		bx	lr
 1667              	.L148:
 1668              		.align	2
ARM GAS  C:\Users\gigig\AppData\Local\Temp\cczsSJ5Z.s 			page 47


 1669              	.L147:
 1670 000c 00700040 		.word	1073770496
 1671              		.cfi_endproc
 1672              	.LFE158:
 1674              		.section	.text.HAL_PWREx_EnablePVM3,"ax",%progbits
 1675              		.align	1
 1676              		.global	HAL_PWREx_EnablePVM3
 1677              		.syntax unified
 1678              		.thumb
 1679              		.thumb_func
 1681              	HAL_PWREx_EnablePVM3:
 1682              	.LFB159:
 912:Drivers/STM32L4xx_HAL_Driver/Src/stm32l4xx_hal_pwr_ex.c **** #endif /* PWR_CR2_PVME2 */
 913:Drivers/STM32L4xx_HAL_Driver/Src/stm32l4xx_hal_pwr_ex.c **** 
 914:Drivers/STM32L4xx_HAL_Driver/Src/stm32l4xx_hal_pwr_ex.c **** 
 915:Drivers/STM32L4xx_HAL_Driver/Src/stm32l4xx_hal_pwr_ex.c **** /**
 916:Drivers/STM32L4xx_HAL_Driver/Src/stm32l4xx_hal_pwr_ex.c ****   * @brief Enable the Power Voltage Monitoring 3: VDDA versus 1.62V.
 917:Drivers/STM32L4xx_HAL_Driver/Src/stm32l4xx_hal_pwr_ex.c ****   * @retval None
 918:Drivers/STM32L4xx_HAL_Driver/Src/stm32l4xx_hal_pwr_ex.c ****   */
 919:Drivers/STM32L4xx_HAL_Driver/Src/stm32l4xx_hal_pwr_ex.c **** void HAL_PWREx_EnablePVM3(void)
 920:Drivers/STM32L4xx_HAL_Driver/Src/stm32l4xx_hal_pwr_ex.c **** {
 1683              		.loc 1 920 1 is_stmt 1 view -0
 1684              		.cfi_startproc
 1685              		@ args = 0, pretend = 0, frame = 0
 1686              		@ frame_needed = 0, uses_anonymous_args = 0
 1687              		@ link register save eliminated.
 921:Drivers/STM32L4xx_HAL_Driver/Src/stm32l4xx_hal_pwr_ex.c ****   SET_BIT(PWR->CR2, PWR_PVM_3);
 1688              		.loc 1 921 3 view .LVU363
 1689 0000 024A     		ldr	r2, .L150
 1690 0002 5368     		ldr	r3, [r2, #4]
 1691 0004 43F04003 		orr	r3, r3, #64
 1692 0008 5360     		str	r3, [r2, #4]
 922:Drivers/STM32L4xx_HAL_Driver/Src/stm32l4xx_hal_pwr_ex.c **** }
 1693              		.loc 1 922 1 is_stmt 0 view .LVU364
 1694 000a 7047     		bx	lr
 1695              	.L151:
 1696              		.align	2
 1697              	.L150:
 1698 000c 00700040 		.word	1073770496
 1699              		.cfi_endproc
 1700              	.LFE159:
 1702              		.section	.text.HAL_PWREx_DisablePVM3,"ax",%progbits
 1703              		.align	1
 1704              		.global	HAL_PWREx_DisablePVM3
 1705              		.syntax unified
 1706              		.thumb
 1707              		.thumb_func
 1709              	HAL_PWREx_DisablePVM3:
 1710              	.LFB160:
 923:Drivers/STM32L4xx_HAL_Driver/Src/stm32l4xx_hal_pwr_ex.c **** 
 924:Drivers/STM32L4xx_HAL_Driver/Src/stm32l4xx_hal_pwr_ex.c **** /**
 925:Drivers/STM32L4xx_HAL_Driver/Src/stm32l4xx_hal_pwr_ex.c ****   * @brief Disable the Power Voltage Monitoring 3: VDDA versus 1.62V.
 926:Drivers/STM32L4xx_HAL_Driver/Src/stm32l4xx_hal_pwr_ex.c ****   * @retval None
 927:Drivers/STM32L4xx_HAL_Driver/Src/stm32l4xx_hal_pwr_ex.c ****   */
 928:Drivers/STM32L4xx_HAL_Driver/Src/stm32l4xx_hal_pwr_ex.c **** void HAL_PWREx_DisablePVM3(void)
 929:Drivers/STM32L4xx_HAL_Driver/Src/stm32l4xx_hal_pwr_ex.c **** {
 1711              		.loc 1 929 1 is_stmt 1 view -0
ARM GAS  C:\Users\gigig\AppData\Local\Temp\cczsSJ5Z.s 			page 48


 1712              		.cfi_startproc
 1713              		@ args = 0, pretend = 0, frame = 0
 1714              		@ frame_needed = 0, uses_anonymous_args = 0
 1715              		@ link register save eliminated.
 930:Drivers/STM32L4xx_HAL_Driver/Src/stm32l4xx_hal_pwr_ex.c ****   CLEAR_BIT(PWR->CR2, PWR_PVM_3);
 1716              		.loc 1 930 3 view .LVU366
 1717 0000 024A     		ldr	r2, .L153
 1718 0002 5368     		ldr	r3, [r2, #4]
 1719 0004 23F04003 		bic	r3, r3, #64
 1720 0008 5360     		str	r3, [r2, #4]
 931:Drivers/STM32L4xx_HAL_Driver/Src/stm32l4xx_hal_pwr_ex.c **** }
 1721              		.loc 1 931 1 is_stmt 0 view .LVU367
 1722 000a 7047     		bx	lr
 1723              	.L154:
 1724              		.align	2
 1725              	.L153:
 1726 000c 00700040 		.word	1073770496
 1727              		.cfi_endproc
 1728              	.LFE160:
 1730              		.section	.text.HAL_PWREx_EnablePVM4,"ax",%progbits
 1731              		.align	1
 1732              		.global	HAL_PWREx_EnablePVM4
 1733              		.syntax unified
 1734              		.thumb
 1735              		.thumb_func
 1737              	HAL_PWREx_EnablePVM4:
 1738              	.LFB161:
 932:Drivers/STM32L4xx_HAL_Driver/Src/stm32l4xx_hal_pwr_ex.c **** 
 933:Drivers/STM32L4xx_HAL_Driver/Src/stm32l4xx_hal_pwr_ex.c **** 
 934:Drivers/STM32L4xx_HAL_Driver/Src/stm32l4xx_hal_pwr_ex.c **** /**
 935:Drivers/STM32L4xx_HAL_Driver/Src/stm32l4xx_hal_pwr_ex.c ****   * @brief Enable the Power Voltage Monitoring 4:  VDDA versus 2.2V.
 936:Drivers/STM32L4xx_HAL_Driver/Src/stm32l4xx_hal_pwr_ex.c ****   * @retval None
 937:Drivers/STM32L4xx_HAL_Driver/Src/stm32l4xx_hal_pwr_ex.c ****   */
 938:Drivers/STM32L4xx_HAL_Driver/Src/stm32l4xx_hal_pwr_ex.c **** void HAL_PWREx_EnablePVM4(void)
 939:Drivers/STM32L4xx_HAL_Driver/Src/stm32l4xx_hal_pwr_ex.c **** {
 1739              		.loc 1 939 1 is_stmt 1 view -0
 1740              		.cfi_startproc
 1741              		@ args = 0, pretend = 0, frame = 0
 1742              		@ frame_needed = 0, uses_anonymous_args = 0
 1743              		@ link register save eliminated.
 940:Drivers/STM32L4xx_HAL_Driver/Src/stm32l4xx_hal_pwr_ex.c ****   SET_BIT(PWR->CR2, PWR_PVM_4);
 1744              		.loc 1 940 3 view .LVU369
 1745 0000 024A     		ldr	r2, .L156
 1746 0002 5368     		ldr	r3, [r2, #4]
 1747 0004 43F08003 		orr	r3, r3, #128
 1748 0008 5360     		str	r3, [r2, #4]
 941:Drivers/STM32L4xx_HAL_Driver/Src/stm32l4xx_hal_pwr_ex.c **** }
 1749              		.loc 1 941 1 is_stmt 0 view .LVU370
 1750 000a 7047     		bx	lr
 1751              	.L157:
 1752              		.align	2
 1753              	.L156:
 1754 000c 00700040 		.word	1073770496
 1755              		.cfi_endproc
 1756              	.LFE161:
 1758              		.section	.text.HAL_PWREx_DisablePVM4,"ax",%progbits
 1759              		.align	1
ARM GAS  C:\Users\gigig\AppData\Local\Temp\cczsSJ5Z.s 			page 49


 1760              		.global	HAL_PWREx_DisablePVM4
 1761              		.syntax unified
 1762              		.thumb
 1763              		.thumb_func
 1765              	HAL_PWREx_DisablePVM4:
 1766              	.LFB162:
 942:Drivers/STM32L4xx_HAL_Driver/Src/stm32l4xx_hal_pwr_ex.c **** 
 943:Drivers/STM32L4xx_HAL_Driver/Src/stm32l4xx_hal_pwr_ex.c **** /**
 944:Drivers/STM32L4xx_HAL_Driver/Src/stm32l4xx_hal_pwr_ex.c ****   * @brief Disable the Power Voltage Monitoring 4:  VDDA versus 2.2V.
 945:Drivers/STM32L4xx_HAL_Driver/Src/stm32l4xx_hal_pwr_ex.c ****   * @retval None
 946:Drivers/STM32L4xx_HAL_Driver/Src/stm32l4xx_hal_pwr_ex.c ****   */
 947:Drivers/STM32L4xx_HAL_Driver/Src/stm32l4xx_hal_pwr_ex.c **** void HAL_PWREx_DisablePVM4(void)
 948:Drivers/STM32L4xx_HAL_Driver/Src/stm32l4xx_hal_pwr_ex.c **** {
 1767              		.loc 1 948 1 is_stmt 1 view -0
 1768              		.cfi_startproc
 1769              		@ args = 0, pretend = 0, frame = 0
 1770              		@ frame_needed = 0, uses_anonymous_args = 0
 1771              		@ link register save eliminated.
 949:Drivers/STM32L4xx_HAL_Driver/Src/stm32l4xx_hal_pwr_ex.c ****   CLEAR_BIT(PWR->CR2, PWR_PVM_4);
 1772              		.loc 1 949 3 view .LVU372
 1773 0000 024A     		ldr	r2, .L159
 1774 0002 5368     		ldr	r3, [r2, #4]
 1775 0004 23F08003 		bic	r3, r3, #128
 1776 0008 5360     		str	r3, [r2, #4]
 950:Drivers/STM32L4xx_HAL_Driver/Src/stm32l4xx_hal_pwr_ex.c **** }
 1777              		.loc 1 950 1 is_stmt 0 view .LVU373
 1778 000a 7047     		bx	lr
 1779              	.L160:
 1780              		.align	2
 1781              	.L159:
 1782 000c 00700040 		.word	1073770496
 1783              		.cfi_endproc
 1784              	.LFE162:
 1786              		.section	.text.HAL_PWREx_ConfigPVM,"ax",%progbits
 1787              		.align	1
 1788              		.global	HAL_PWREx_ConfigPVM
 1789              		.syntax unified
 1790              		.thumb
 1791              		.thumb_func
 1793              	HAL_PWREx_ConfigPVM:
 1794              	.LVL121:
 1795              	.LFB163:
 951:Drivers/STM32L4xx_HAL_Driver/Src/stm32l4xx_hal_pwr_ex.c **** 
 952:Drivers/STM32L4xx_HAL_Driver/Src/stm32l4xx_hal_pwr_ex.c **** 
 953:Drivers/STM32L4xx_HAL_Driver/Src/stm32l4xx_hal_pwr_ex.c **** 
 954:Drivers/STM32L4xx_HAL_Driver/Src/stm32l4xx_hal_pwr_ex.c **** 
 955:Drivers/STM32L4xx_HAL_Driver/Src/stm32l4xx_hal_pwr_ex.c **** /**
 956:Drivers/STM32L4xx_HAL_Driver/Src/stm32l4xx_hal_pwr_ex.c ****   * @brief Configure the Peripheral Voltage Monitoring (PVM).
 957:Drivers/STM32L4xx_HAL_Driver/Src/stm32l4xx_hal_pwr_ex.c ****   * @param sConfigPVM: pointer to a PWR_PVMTypeDef structure that contains the
 958:Drivers/STM32L4xx_HAL_Driver/Src/stm32l4xx_hal_pwr_ex.c ****   *        PVM configuration information.
 959:Drivers/STM32L4xx_HAL_Driver/Src/stm32l4xx_hal_pwr_ex.c ****   * @note The API configures a single PVM according to the information contained
 960:Drivers/STM32L4xx_HAL_Driver/Src/stm32l4xx_hal_pwr_ex.c ****   *       in the input structure. To configure several PVMs, the API must be singly
 961:Drivers/STM32L4xx_HAL_Driver/Src/stm32l4xx_hal_pwr_ex.c ****   *       called for each PVM used.
 962:Drivers/STM32L4xx_HAL_Driver/Src/stm32l4xx_hal_pwr_ex.c ****   * @note Refer to the electrical characteristics of your device datasheet for
 963:Drivers/STM32L4xx_HAL_Driver/Src/stm32l4xx_hal_pwr_ex.c ****   *         more details about the voltage thresholds corresponding to each
 964:Drivers/STM32L4xx_HAL_Driver/Src/stm32l4xx_hal_pwr_ex.c ****   *         detection level and to each monitored supply.
 965:Drivers/STM32L4xx_HAL_Driver/Src/stm32l4xx_hal_pwr_ex.c ****   * @retval HAL status
ARM GAS  C:\Users\gigig\AppData\Local\Temp\cczsSJ5Z.s 			page 50


 966:Drivers/STM32L4xx_HAL_Driver/Src/stm32l4xx_hal_pwr_ex.c ****   */
 967:Drivers/STM32L4xx_HAL_Driver/Src/stm32l4xx_hal_pwr_ex.c **** HAL_StatusTypeDef HAL_PWREx_ConfigPVM(PWR_PVMTypeDef *sConfigPVM)
 968:Drivers/STM32L4xx_HAL_Driver/Src/stm32l4xx_hal_pwr_ex.c **** {
 1796              		.loc 1 968 1 is_stmt 1 view -0
 1797              		.cfi_startproc
 1798              		@ args = 0, pretend = 0, frame = 0
 1799              		@ frame_needed = 0, uses_anonymous_args = 0
 1800              		@ link register save eliminated.
 969:Drivers/STM32L4xx_HAL_Driver/Src/stm32l4xx_hal_pwr_ex.c ****   HAL_StatusTypeDef status = HAL_OK;
 1801              		.loc 1 969 3 view .LVU375
 970:Drivers/STM32L4xx_HAL_Driver/Src/stm32l4xx_hal_pwr_ex.c **** 
 971:Drivers/STM32L4xx_HAL_Driver/Src/stm32l4xx_hal_pwr_ex.c ****   /* Check the parameters */
 972:Drivers/STM32L4xx_HAL_Driver/Src/stm32l4xx_hal_pwr_ex.c ****   assert_param(IS_PWR_PVM_TYPE(sConfigPVM->PVMType));
 1802              		.loc 1 972 3 view .LVU376
 973:Drivers/STM32L4xx_HAL_Driver/Src/stm32l4xx_hal_pwr_ex.c ****   assert_param(IS_PWR_PVM_MODE(sConfigPVM->Mode));
 1803              		.loc 1 973 3 view .LVU377
 974:Drivers/STM32L4xx_HAL_Driver/Src/stm32l4xx_hal_pwr_ex.c **** 
 975:Drivers/STM32L4xx_HAL_Driver/Src/stm32l4xx_hal_pwr_ex.c **** 
 976:Drivers/STM32L4xx_HAL_Driver/Src/stm32l4xx_hal_pwr_ex.c ****   /* Configure EXTI 35 to 38 interrupts if so required:
 977:Drivers/STM32L4xx_HAL_Driver/Src/stm32l4xx_hal_pwr_ex.c ****      scan through PVMType to detect which PVMx is set and
 978:Drivers/STM32L4xx_HAL_Driver/Src/stm32l4xx_hal_pwr_ex.c ****      configure the corresponding EXTI line accordingly. */
 979:Drivers/STM32L4xx_HAL_Driver/Src/stm32l4xx_hal_pwr_ex.c ****   switch (sConfigPVM->PVMType)
 1804              		.loc 1 979 3 view .LVU378
 1805              		.loc 1 979 21 is_stmt 0 view .LVU379
 1806 0000 0368     		ldr	r3, [r0]
 1807              		.loc 1 979 3 view .LVU380
 1808 0002 402B     		cmp	r3, #64
 1809 0004 00F0B180 		beq	.L162
 1810 0008 3DD8     		bhi	.L163
 1811 000a 102B     		cmp	r3, #16
 1812 000c 76D0     		beq	.L164
 1813 000e 202B     		cmp	r3, #32
 1814 0010 37D1     		bne	.L184
 980:Drivers/STM32L4xx_HAL_Driver/Src/stm32l4xx_hal_pwr_ex.c ****   {
 981:Drivers/STM32L4xx_HAL_Driver/Src/stm32l4xx_hal_pwr_ex.c **** #if defined(PWR_CR2_PVME1)
 982:Drivers/STM32L4xx_HAL_Driver/Src/stm32l4xx_hal_pwr_ex.c ****     case PWR_PVM_1:
 983:Drivers/STM32L4xx_HAL_Driver/Src/stm32l4xx_hal_pwr_ex.c ****       /* Clear any previous config. Keep it clear if no event or IT mode is selected */
 984:Drivers/STM32L4xx_HAL_Driver/Src/stm32l4xx_hal_pwr_ex.c ****       __HAL_PWR_PVM1_EXTI_DISABLE_EVENT();
 985:Drivers/STM32L4xx_HAL_Driver/Src/stm32l4xx_hal_pwr_ex.c ****       __HAL_PWR_PVM1_EXTI_DISABLE_IT();
 986:Drivers/STM32L4xx_HAL_Driver/Src/stm32l4xx_hal_pwr_ex.c ****       __HAL_PWR_PVM1_EXTI_DISABLE_FALLING_EDGE();
 987:Drivers/STM32L4xx_HAL_Driver/Src/stm32l4xx_hal_pwr_ex.c ****       __HAL_PWR_PVM1_EXTI_DISABLE_RISING_EDGE();
 988:Drivers/STM32L4xx_HAL_Driver/Src/stm32l4xx_hal_pwr_ex.c **** 
 989:Drivers/STM32L4xx_HAL_Driver/Src/stm32l4xx_hal_pwr_ex.c ****       /* Configure interrupt mode */
 990:Drivers/STM32L4xx_HAL_Driver/Src/stm32l4xx_hal_pwr_ex.c ****       if((sConfigPVM->Mode & PVM_MODE_IT) == PVM_MODE_IT)
 991:Drivers/STM32L4xx_HAL_Driver/Src/stm32l4xx_hal_pwr_ex.c ****       {
 992:Drivers/STM32L4xx_HAL_Driver/Src/stm32l4xx_hal_pwr_ex.c ****         __HAL_PWR_PVM1_EXTI_ENABLE_IT();
 993:Drivers/STM32L4xx_HAL_Driver/Src/stm32l4xx_hal_pwr_ex.c ****       }
 994:Drivers/STM32L4xx_HAL_Driver/Src/stm32l4xx_hal_pwr_ex.c **** 
 995:Drivers/STM32L4xx_HAL_Driver/Src/stm32l4xx_hal_pwr_ex.c ****       /* Configure event mode */
 996:Drivers/STM32L4xx_HAL_Driver/Src/stm32l4xx_hal_pwr_ex.c ****       if((sConfigPVM->Mode & PVM_MODE_EVT) == PVM_MODE_EVT)
 997:Drivers/STM32L4xx_HAL_Driver/Src/stm32l4xx_hal_pwr_ex.c ****       {
 998:Drivers/STM32L4xx_HAL_Driver/Src/stm32l4xx_hal_pwr_ex.c ****         __HAL_PWR_PVM1_EXTI_ENABLE_EVENT();
 999:Drivers/STM32L4xx_HAL_Driver/Src/stm32l4xx_hal_pwr_ex.c ****       }
1000:Drivers/STM32L4xx_HAL_Driver/Src/stm32l4xx_hal_pwr_ex.c **** 
1001:Drivers/STM32L4xx_HAL_Driver/Src/stm32l4xx_hal_pwr_ex.c ****       /* Configure the edge */
1002:Drivers/STM32L4xx_HAL_Driver/Src/stm32l4xx_hal_pwr_ex.c ****       if((sConfigPVM->Mode & PVM_RISING_EDGE) == PVM_RISING_EDGE)
1003:Drivers/STM32L4xx_HAL_Driver/Src/stm32l4xx_hal_pwr_ex.c ****       {
ARM GAS  C:\Users\gigig\AppData\Local\Temp\cczsSJ5Z.s 			page 51


1004:Drivers/STM32L4xx_HAL_Driver/Src/stm32l4xx_hal_pwr_ex.c ****         __HAL_PWR_PVM1_EXTI_ENABLE_RISING_EDGE();
1005:Drivers/STM32L4xx_HAL_Driver/Src/stm32l4xx_hal_pwr_ex.c ****       }
1006:Drivers/STM32L4xx_HAL_Driver/Src/stm32l4xx_hal_pwr_ex.c **** 
1007:Drivers/STM32L4xx_HAL_Driver/Src/stm32l4xx_hal_pwr_ex.c ****       if((sConfigPVM->Mode & PVM_FALLING_EDGE) == PVM_FALLING_EDGE)
1008:Drivers/STM32L4xx_HAL_Driver/Src/stm32l4xx_hal_pwr_ex.c ****       {
1009:Drivers/STM32L4xx_HAL_Driver/Src/stm32l4xx_hal_pwr_ex.c ****         __HAL_PWR_PVM1_EXTI_ENABLE_FALLING_EDGE();
1010:Drivers/STM32L4xx_HAL_Driver/Src/stm32l4xx_hal_pwr_ex.c ****       }
1011:Drivers/STM32L4xx_HAL_Driver/Src/stm32l4xx_hal_pwr_ex.c ****       break;
1012:Drivers/STM32L4xx_HAL_Driver/Src/stm32l4xx_hal_pwr_ex.c **** #endif /* PWR_CR2_PVME1 */
1013:Drivers/STM32L4xx_HAL_Driver/Src/stm32l4xx_hal_pwr_ex.c **** 
1014:Drivers/STM32L4xx_HAL_Driver/Src/stm32l4xx_hal_pwr_ex.c **** #if defined(PWR_CR2_PVME2)
1015:Drivers/STM32L4xx_HAL_Driver/Src/stm32l4xx_hal_pwr_ex.c ****     case PWR_PVM_2:
1016:Drivers/STM32L4xx_HAL_Driver/Src/stm32l4xx_hal_pwr_ex.c ****       /* Clear any previous config. Keep it clear if no event or IT mode is selected */
1017:Drivers/STM32L4xx_HAL_Driver/Src/stm32l4xx_hal_pwr_ex.c ****       __HAL_PWR_PVM2_EXTI_DISABLE_EVENT();
 1815              		.loc 1 1017 7 is_stmt 1 view .LVU381
 1816 0012 754B     		ldr	r3, .L186
 1817 0014 5A6A     		ldr	r2, [r3, #36]
 1818 0016 22F01002 		bic	r2, r2, #16
 1819 001a 5A62     		str	r2, [r3, #36]
1018:Drivers/STM32L4xx_HAL_Driver/Src/stm32l4xx_hal_pwr_ex.c ****       __HAL_PWR_PVM2_EXTI_DISABLE_IT();
 1820              		.loc 1 1018 7 view .LVU382
 1821 001c 1A6A     		ldr	r2, [r3, #32]
 1822 001e 22F01002 		bic	r2, r2, #16
 1823 0022 1A62     		str	r2, [r3, #32]
1019:Drivers/STM32L4xx_HAL_Driver/Src/stm32l4xx_hal_pwr_ex.c ****       __HAL_PWR_PVM2_EXTI_DISABLE_FALLING_EDGE();
 1824              		.loc 1 1019 7 view .LVU383
 1825 0024 DA6A     		ldr	r2, [r3, #44]
 1826 0026 22F01002 		bic	r2, r2, #16
 1827 002a DA62     		str	r2, [r3, #44]
1020:Drivers/STM32L4xx_HAL_Driver/Src/stm32l4xx_hal_pwr_ex.c ****       __HAL_PWR_PVM2_EXTI_DISABLE_RISING_EDGE();
 1828              		.loc 1 1020 7 view .LVU384
 1829 002c 9A6A     		ldr	r2, [r3, #40]
 1830 002e 22F01002 		bic	r2, r2, #16
 1831 0032 9A62     		str	r2, [r3, #40]
1021:Drivers/STM32L4xx_HAL_Driver/Src/stm32l4xx_hal_pwr_ex.c **** 
1022:Drivers/STM32L4xx_HAL_Driver/Src/stm32l4xx_hal_pwr_ex.c ****       /* Configure interrupt mode */
1023:Drivers/STM32L4xx_HAL_Driver/Src/stm32l4xx_hal_pwr_ex.c ****       if((sConfigPVM->Mode & PVM_MODE_IT) == PVM_MODE_IT)
 1832              		.loc 1 1023 7 view .LVU385
 1833              		.loc 1 1023 21 is_stmt 0 view .LVU386
 1834 0034 4368     		ldr	r3, [r0, #4]
 1835              		.loc 1 1023 9 view .LVU387
 1836 0036 13F4803F 		tst	r3, #65536
 1837 003a 04D0     		beq	.L171
1024:Drivers/STM32L4xx_HAL_Driver/Src/stm32l4xx_hal_pwr_ex.c ****       {
1025:Drivers/STM32L4xx_HAL_Driver/Src/stm32l4xx_hal_pwr_ex.c ****         __HAL_PWR_PVM2_EXTI_ENABLE_IT();
 1838              		.loc 1 1025 9 is_stmt 1 view .LVU388
 1839 003c 6A4A     		ldr	r2, .L186
 1840 003e 136A     		ldr	r3, [r2, #32]
 1841 0040 43F01003 		orr	r3, r3, #16
 1842 0044 1362     		str	r3, [r2, #32]
 1843              	.L171:
1026:Drivers/STM32L4xx_HAL_Driver/Src/stm32l4xx_hal_pwr_ex.c ****       }
1027:Drivers/STM32L4xx_HAL_Driver/Src/stm32l4xx_hal_pwr_ex.c **** 
1028:Drivers/STM32L4xx_HAL_Driver/Src/stm32l4xx_hal_pwr_ex.c ****       /* Configure event mode */
1029:Drivers/STM32L4xx_HAL_Driver/Src/stm32l4xx_hal_pwr_ex.c ****       if((sConfigPVM->Mode & PVM_MODE_EVT) == PVM_MODE_EVT)
 1844              		.loc 1 1029 7 view .LVU389
 1845              		.loc 1 1029 21 is_stmt 0 view .LVU390
ARM GAS  C:\Users\gigig\AppData\Local\Temp\cczsSJ5Z.s 			page 52


 1846 0046 4368     		ldr	r3, [r0, #4]
 1847              		.loc 1 1029 9 view .LVU391
 1848 0048 13F4003F 		tst	r3, #131072
 1849 004c 04D0     		beq	.L172
1030:Drivers/STM32L4xx_HAL_Driver/Src/stm32l4xx_hal_pwr_ex.c ****       {
1031:Drivers/STM32L4xx_HAL_Driver/Src/stm32l4xx_hal_pwr_ex.c ****         __HAL_PWR_PVM2_EXTI_ENABLE_EVENT();
 1850              		.loc 1 1031 9 is_stmt 1 view .LVU392
 1851 004e 664A     		ldr	r2, .L186
 1852 0050 536A     		ldr	r3, [r2, #36]
 1853 0052 43F01003 		orr	r3, r3, #16
 1854 0056 5362     		str	r3, [r2, #36]
 1855              	.L172:
1032:Drivers/STM32L4xx_HAL_Driver/Src/stm32l4xx_hal_pwr_ex.c ****       }
1033:Drivers/STM32L4xx_HAL_Driver/Src/stm32l4xx_hal_pwr_ex.c **** 
1034:Drivers/STM32L4xx_HAL_Driver/Src/stm32l4xx_hal_pwr_ex.c ****       /* Configure the edge */
1035:Drivers/STM32L4xx_HAL_Driver/Src/stm32l4xx_hal_pwr_ex.c ****       if((sConfigPVM->Mode & PVM_RISING_EDGE) == PVM_RISING_EDGE)
 1856              		.loc 1 1035 7 view .LVU393
 1857              		.loc 1 1035 21 is_stmt 0 view .LVU394
 1858 0058 4368     		ldr	r3, [r0, #4]
 1859              		.loc 1 1035 9 view .LVU395
 1860 005a 13F0010F 		tst	r3, #1
 1861 005e 04D0     		beq	.L173
1036:Drivers/STM32L4xx_HAL_Driver/Src/stm32l4xx_hal_pwr_ex.c ****       {
1037:Drivers/STM32L4xx_HAL_Driver/Src/stm32l4xx_hal_pwr_ex.c ****         __HAL_PWR_PVM2_EXTI_ENABLE_RISING_EDGE();
 1862              		.loc 1 1037 9 is_stmt 1 view .LVU396
 1863 0060 614A     		ldr	r2, .L186
 1864 0062 936A     		ldr	r3, [r2, #40]
 1865 0064 43F01003 		orr	r3, r3, #16
 1866 0068 9362     		str	r3, [r2, #40]
 1867              	.L173:
1038:Drivers/STM32L4xx_HAL_Driver/Src/stm32l4xx_hal_pwr_ex.c ****       }
1039:Drivers/STM32L4xx_HAL_Driver/Src/stm32l4xx_hal_pwr_ex.c **** 
1040:Drivers/STM32L4xx_HAL_Driver/Src/stm32l4xx_hal_pwr_ex.c ****       if((sConfigPVM->Mode & PVM_FALLING_EDGE) == PVM_FALLING_EDGE)
 1868              		.loc 1 1040 7 view .LVU397
 1869              		.loc 1 1040 21 is_stmt 0 view .LVU398
 1870 006a 4368     		ldr	r3, [r0, #4]
 1871              		.loc 1 1040 9 view .LVU399
 1872 006c 13F0020F 		tst	r3, #2
 1873 0070 00F0B480 		beq	.L181
1041:Drivers/STM32L4xx_HAL_Driver/Src/stm32l4xx_hal_pwr_ex.c ****       {
1042:Drivers/STM32L4xx_HAL_Driver/Src/stm32l4xx_hal_pwr_ex.c ****         __HAL_PWR_PVM2_EXTI_ENABLE_FALLING_EDGE();
 1874              		.loc 1 1042 9 is_stmt 1 view .LVU400
 1875 0074 5C4A     		ldr	r2, .L186
 1876 0076 D36A     		ldr	r3, [r2, #44]
 1877 0078 43F01003 		orr	r3, r3, #16
 1878 007c D362     		str	r3, [r2, #44]
 969:Drivers/STM32L4xx_HAL_Driver/Src/stm32l4xx_hal_pwr_ex.c **** 
 1879              		.loc 1 969 21 is_stmt 0 view .LVU401
 1880 007e 0020     		movs	r0, #0
 1881              	.LVL122:
 969:Drivers/STM32L4xx_HAL_Driver/Src/stm32l4xx_hal_pwr_ex.c **** 
 1882              		.loc 1 969 21 view .LVU402
 1883 0080 7047     		bx	lr
 1884              	.LVL123:
 1885              	.L184:
 979:Drivers/STM32L4xx_HAL_Driver/Src/stm32l4xx_hal_pwr_ex.c ****   {
 1886              		.loc 1 979 3 view .LVU403
ARM GAS  C:\Users\gigig\AppData\Local\Temp\cczsSJ5Z.s 			page 53


 1887 0082 0120     		movs	r0, #1
 1888              	.LVL124:
 979:Drivers/STM32L4xx_HAL_Driver/Src/stm32l4xx_hal_pwr_ex.c ****   {
 1889              		.loc 1 979 3 view .LVU404
 1890 0084 7047     		bx	lr
 1891              	.LVL125:
 1892              	.L163:
 979:Drivers/STM32L4xx_HAL_Driver/Src/stm32l4xx_hal_pwr_ex.c ****   {
 1893              		.loc 1 979 3 view .LVU405
 1894 0086 802B     		cmp	r3, #128
 1895 0088 36D1     		bne	.L185
1043:Drivers/STM32L4xx_HAL_Driver/Src/stm32l4xx_hal_pwr_ex.c ****       }
1044:Drivers/STM32L4xx_HAL_Driver/Src/stm32l4xx_hal_pwr_ex.c ****       break;
1045:Drivers/STM32L4xx_HAL_Driver/Src/stm32l4xx_hal_pwr_ex.c **** #endif /* PWR_CR2_PVME2 */
1046:Drivers/STM32L4xx_HAL_Driver/Src/stm32l4xx_hal_pwr_ex.c **** 
1047:Drivers/STM32L4xx_HAL_Driver/Src/stm32l4xx_hal_pwr_ex.c ****     case PWR_PVM_3:
1048:Drivers/STM32L4xx_HAL_Driver/Src/stm32l4xx_hal_pwr_ex.c ****       /* Clear any previous config. Keep it clear if no event or IT mode is selected */
1049:Drivers/STM32L4xx_HAL_Driver/Src/stm32l4xx_hal_pwr_ex.c ****       __HAL_PWR_PVM3_EXTI_DISABLE_EVENT();
1050:Drivers/STM32L4xx_HAL_Driver/Src/stm32l4xx_hal_pwr_ex.c ****       __HAL_PWR_PVM3_EXTI_DISABLE_IT();
1051:Drivers/STM32L4xx_HAL_Driver/Src/stm32l4xx_hal_pwr_ex.c ****       __HAL_PWR_PVM3_EXTI_DISABLE_FALLING_EDGE();
1052:Drivers/STM32L4xx_HAL_Driver/Src/stm32l4xx_hal_pwr_ex.c ****       __HAL_PWR_PVM3_EXTI_DISABLE_RISING_EDGE();
1053:Drivers/STM32L4xx_HAL_Driver/Src/stm32l4xx_hal_pwr_ex.c **** 
1054:Drivers/STM32L4xx_HAL_Driver/Src/stm32l4xx_hal_pwr_ex.c ****       /* Configure interrupt mode */
1055:Drivers/STM32L4xx_HAL_Driver/Src/stm32l4xx_hal_pwr_ex.c ****       if((sConfigPVM->Mode & PVM_MODE_IT) == PVM_MODE_IT)
1056:Drivers/STM32L4xx_HAL_Driver/Src/stm32l4xx_hal_pwr_ex.c ****       {
1057:Drivers/STM32L4xx_HAL_Driver/Src/stm32l4xx_hal_pwr_ex.c ****         __HAL_PWR_PVM3_EXTI_ENABLE_IT();
1058:Drivers/STM32L4xx_HAL_Driver/Src/stm32l4xx_hal_pwr_ex.c ****       }
1059:Drivers/STM32L4xx_HAL_Driver/Src/stm32l4xx_hal_pwr_ex.c **** 
1060:Drivers/STM32L4xx_HAL_Driver/Src/stm32l4xx_hal_pwr_ex.c ****       /* Configure event mode */
1061:Drivers/STM32L4xx_HAL_Driver/Src/stm32l4xx_hal_pwr_ex.c ****       if((sConfigPVM->Mode & PVM_MODE_EVT) == PVM_MODE_EVT)
1062:Drivers/STM32L4xx_HAL_Driver/Src/stm32l4xx_hal_pwr_ex.c ****       {
1063:Drivers/STM32L4xx_HAL_Driver/Src/stm32l4xx_hal_pwr_ex.c ****         __HAL_PWR_PVM3_EXTI_ENABLE_EVENT();
1064:Drivers/STM32L4xx_HAL_Driver/Src/stm32l4xx_hal_pwr_ex.c ****       }
1065:Drivers/STM32L4xx_HAL_Driver/Src/stm32l4xx_hal_pwr_ex.c **** 
1066:Drivers/STM32L4xx_HAL_Driver/Src/stm32l4xx_hal_pwr_ex.c ****       /* Configure the edge */
1067:Drivers/STM32L4xx_HAL_Driver/Src/stm32l4xx_hal_pwr_ex.c ****       if((sConfigPVM->Mode & PVM_RISING_EDGE) == PVM_RISING_EDGE)
1068:Drivers/STM32L4xx_HAL_Driver/Src/stm32l4xx_hal_pwr_ex.c ****       {
1069:Drivers/STM32L4xx_HAL_Driver/Src/stm32l4xx_hal_pwr_ex.c ****         __HAL_PWR_PVM3_EXTI_ENABLE_RISING_EDGE();
1070:Drivers/STM32L4xx_HAL_Driver/Src/stm32l4xx_hal_pwr_ex.c ****       }
1071:Drivers/STM32L4xx_HAL_Driver/Src/stm32l4xx_hal_pwr_ex.c **** 
1072:Drivers/STM32L4xx_HAL_Driver/Src/stm32l4xx_hal_pwr_ex.c ****       if((sConfigPVM->Mode & PVM_FALLING_EDGE) == PVM_FALLING_EDGE)
1073:Drivers/STM32L4xx_HAL_Driver/Src/stm32l4xx_hal_pwr_ex.c ****       {
1074:Drivers/STM32L4xx_HAL_Driver/Src/stm32l4xx_hal_pwr_ex.c ****         __HAL_PWR_PVM3_EXTI_ENABLE_FALLING_EDGE();
1075:Drivers/STM32L4xx_HAL_Driver/Src/stm32l4xx_hal_pwr_ex.c ****       }
1076:Drivers/STM32L4xx_HAL_Driver/Src/stm32l4xx_hal_pwr_ex.c ****       break;
1077:Drivers/STM32L4xx_HAL_Driver/Src/stm32l4xx_hal_pwr_ex.c **** 
1078:Drivers/STM32L4xx_HAL_Driver/Src/stm32l4xx_hal_pwr_ex.c ****     case PWR_PVM_4:
1079:Drivers/STM32L4xx_HAL_Driver/Src/stm32l4xx_hal_pwr_ex.c ****       /* Clear any previous config. Keep it clear if no event or IT mode is selected */
1080:Drivers/STM32L4xx_HAL_Driver/Src/stm32l4xx_hal_pwr_ex.c ****       __HAL_PWR_PVM4_EXTI_DISABLE_EVENT();
 1896              		.loc 1 1080 7 is_stmt 1 view .LVU406
 1897 008a 574B     		ldr	r3, .L186
 1898 008c 5A6A     		ldr	r2, [r3, #36]
 1899 008e 22F04002 		bic	r2, r2, #64
 1900 0092 5A62     		str	r2, [r3, #36]
1081:Drivers/STM32L4xx_HAL_Driver/Src/stm32l4xx_hal_pwr_ex.c ****       __HAL_PWR_PVM4_EXTI_DISABLE_IT();
 1901              		.loc 1 1081 7 view .LVU407
 1902 0094 1A6A     		ldr	r2, [r3, #32]
ARM GAS  C:\Users\gigig\AppData\Local\Temp\cczsSJ5Z.s 			page 54


 1903 0096 22F04002 		bic	r2, r2, #64
 1904 009a 1A62     		str	r2, [r3, #32]
1082:Drivers/STM32L4xx_HAL_Driver/Src/stm32l4xx_hal_pwr_ex.c ****       __HAL_PWR_PVM4_EXTI_DISABLE_FALLING_EDGE();
 1905              		.loc 1 1082 7 view .LVU408
 1906 009c DA6A     		ldr	r2, [r3, #44]
 1907 009e 22F04002 		bic	r2, r2, #64
 1908 00a2 DA62     		str	r2, [r3, #44]
1083:Drivers/STM32L4xx_HAL_Driver/Src/stm32l4xx_hal_pwr_ex.c ****       __HAL_PWR_PVM4_EXTI_DISABLE_RISING_EDGE();
 1909              		.loc 1 1083 7 view .LVU409
 1910 00a4 9A6A     		ldr	r2, [r3, #40]
 1911 00a6 22F04002 		bic	r2, r2, #64
 1912 00aa 9A62     		str	r2, [r3, #40]
1084:Drivers/STM32L4xx_HAL_Driver/Src/stm32l4xx_hal_pwr_ex.c **** 
1085:Drivers/STM32L4xx_HAL_Driver/Src/stm32l4xx_hal_pwr_ex.c ****       /* Configure interrupt mode */
1086:Drivers/STM32L4xx_HAL_Driver/Src/stm32l4xx_hal_pwr_ex.c ****       if((sConfigPVM->Mode & PVM_MODE_IT) == PVM_MODE_IT)
 1913              		.loc 1 1086 7 view .LVU410
 1914              		.loc 1 1086 21 is_stmt 0 view .LVU411
 1915 00ac 4368     		ldr	r3, [r0, #4]
 1916              		.loc 1 1086 9 view .LVU412
 1917 00ae 13F4803F 		tst	r3, #65536
 1918 00b2 04D0     		beq	.L177
1087:Drivers/STM32L4xx_HAL_Driver/Src/stm32l4xx_hal_pwr_ex.c ****       {
1088:Drivers/STM32L4xx_HAL_Driver/Src/stm32l4xx_hal_pwr_ex.c ****         __HAL_PWR_PVM4_EXTI_ENABLE_IT();
 1919              		.loc 1 1088 9 is_stmt 1 view .LVU413
 1920 00b4 4C4A     		ldr	r2, .L186
 1921 00b6 136A     		ldr	r3, [r2, #32]
 1922 00b8 43F04003 		orr	r3, r3, #64
 1923 00bc 1362     		str	r3, [r2, #32]
 1924              	.L177:
1089:Drivers/STM32L4xx_HAL_Driver/Src/stm32l4xx_hal_pwr_ex.c ****       }
1090:Drivers/STM32L4xx_HAL_Driver/Src/stm32l4xx_hal_pwr_ex.c **** 
1091:Drivers/STM32L4xx_HAL_Driver/Src/stm32l4xx_hal_pwr_ex.c ****       /* Configure event mode */
1092:Drivers/STM32L4xx_HAL_Driver/Src/stm32l4xx_hal_pwr_ex.c ****       if((sConfigPVM->Mode & PVM_MODE_EVT) == PVM_MODE_EVT)
 1925              		.loc 1 1092 7 view .LVU414
 1926              		.loc 1 1092 21 is_stmt 0 view .LVU415
 1927 00be 4368     		ldr	r3, [r0, #4]
 1928              		.loc 1 1092 9 view .LVU416
 1929 00c0 13F4003F 		tst	r3, #131072
 1930 00c4 04D0     		beq	.L178
1093:Drivers/STM32L4xx_HAL_Driver/Src/stm32l4xx_hal_pwr_ex.c ****       {
1094:Drivers/STM32L4xx_HAL_Driver/Src/stm32l4xx_hal_pwr_ex.c ****         __HAL_PWR_PVM4_EXTI_ENABLE_EVENT();
 1931              		.loc 1 1094 9 is_stmt 1 view .LVU417
 1932 00c6 484A     		ldr	r2, .L186
 1933 00c8 536A     		ldr	r3, [r2, #36]
 1934 00ca 43F04003 		orr	r3, r3, #64
 1935 00ce 5362     		str	r3, [r2, #36]
 1936              	.L178:
1095:Drivers/STM32L4xx_HAL_Driver/Src/stm32l4xx_hal_pwr_ex.c ****       }
1096:Drivers/STM32L4xx_HAL_Driver/Src/stm32l4xx_hal_pwr_ex.c **** 
1097:Drivers/STM32L4xx_HAL_Driver/Src/stm32l4xx_hal_pwr_ex.c ****       /* Configure the edge */
1098:Drivers/STM32L4xx_HAL_Driver/Src/stm32l4xx_hal_pwr_ex.c ****       if((sConfigPVM->Mode & PVM_RISING_EDGE) == PVM_RISING_EDGE)
 1937              		.loc 1 1098 7 view .LVU418
 1938              		.loc 1 1098 21 is_stmt 0 view .LVU419
 1939 00d0 4368     		ldr	r3, [r0, #4]
 1940              		.loc 1 1098 9 view .LVU420
 1941 00d2 13F0010F 		tst	r3, #1
 1942 00d6 04D0     		beq	.L179
ARM GAS  C:\Users\gigig\AppData\Local\Temp\cczsSJ5Z.s 			page 55


1099:Drivers/STM32L4xx_HAL_Driver/Src/stm32l4xx_hal_pwr_ex.c ****       {
1100:Drivers/STM32L4xx_HAL_Driver/Src/stm32l4xx_hal_pwr_ex.c ****         __HAL_PWR_PVM4_EXTI_ENABLE_RISING_EDGE();
 1943              		.loc 1 1100 9 is_stmt 1 view .LVU421
 1944 00d8 434A     		ldr	r2, .L186
 1945 00da 936A     		ldr	r3, [r2, #40]
 1946 00dc 43F04003 		orr	r3, r3, #64
 1947 00e0 9362     		str	r3, [r2, #40]
 1948              	.L179:
1101:Drivers/STM32L4xx_HAL_Driver/Src/stm32l4xx_hal_pwr_ex.c ****       }
1102:Drivers/STM32L4xx_HAL_Driver/Src/stm32l4xx_hal_pwr_ex.c **** 
1103:Drivers/STM32L4xx_HAL_Driver/Src/stm32l4xx_hal_pwr_ex.c ****       if((sConfigPVM->Mode & PVM_FALLING_EDGE) == PVM_FALLING_EDGE)
 1949              		.loc 1 1103 7 view .LVU422
 1950              		.loc 1 1103 21 is_stmt 0 view .LVU423
 1951 00e2 4368     		ldr	r3, [r0, #4]
 1952              		.loc 1 1103 9 view .LVU424
 1953 00e4 13F0020F 		tst	r3, #2
 1954 00e8 7CD0     		beq	.L183
1104:Drivers/STM32L4xx_HAL_Driver/Src/stm32l4xx_hal_pwr_ex.c ****       {
1105:Drivers/STM32L4xx_HAL_Driver/Src/stm32l4xx_hal_pwr_ex.c ****         __HAL_PWR_PVM4_EXTI_ENABLE_FALLING_EDGE();
 1955              		.loc 1 1105 9 is_stmt 1 view .LVU425
 1956 00ea 3F4A     		ldr	r2, .L186
 1957 00ec D36A     		ldr	r3, [r2, #44]
 1958 00ee 43F04003 		orr	r3, r3, #64
 1959 00f2 D362     		str	r3, [r2, #44]
 969:Drivers/STM32L4xx_HAL_Driver/Src/stm32l4xx_hal_pwr_ex.c **** 
 1960              		.loc 1 969 21 is_stmt 0 view .LVU426
 1961 00f4 0020     		movs	r0, #0
 1962              	.LVL126:
 969:Drivers/STM32L4xx_HAL_Driver/Src/stm32l4xx_hal_pwr_ex.c **** 
 1963              		.loc 1 969 21 view .LVU427
 1964 00f6 7047     		bx	lr
 1965              	.LVL127:
 1966              	.L185:
 979:Drivers/STM32L4xx_HAL_Driver/Src/stm32l4xx_hal_pwr_ex.c ****   {
 1967              		.loc 1 979 3 view .LVU428
 1968 00f8 0120     		movs	r0, #1
 1969              	.LVL128:
 979:Drivers/STM32L4xx_HAL_Driver/Src/stm32l4xx_hal_pwr_ex.c ****   {
 1970              		.loc 1 979 3 view .LVU429
 1971 00fa 7047     		bx	lr
 1972              	.LVL129:
 1973              	.L164:
 984:Drivers/STM32L4xx_HAL_Driver/Src/stm32l4xx_hal_pwr_ex.c ****       __HAL_PWR_PVM1_EXTI_DISABLE_IT();
 1974              		.loc 1 984 7 is_stmt 1 view .LVU430
 1975 00fc 3A4B     		ldr	r3, .L186
 1976 00fe 5A6A     		ldr	r2, [r3, #36]
 1977 0100 22F00802 		bic	r2, r2, #8
 1978 0104 5A62     		str	r2, [r3, #36]
 985:Drivers/STM32L4xx_HAL_Driver/Src/stm32l4xx_hal_pwr_ex.c ****       __HAL_PWR_PVM1_EXTI_DISABLE_FALLING_EDGE();
 1979              		.loc 1 985 7 view .LVU431
 1980 0106 1A6A     		ldr	r2, [r3, #32]
 1981 0108 22F00802 		bic	r2, r2, #8
 1982 010c 1A62     		str	r2, [r3, #32]
 986:Drivers/STM32L4xx_HAL_Driver/Src/stm32l4xx_hal_pwr_ex.c ****       __HAL_PWR_PVM1_EXTI_DISABLE_RISING_EDGE();
 1983              		.loc 1 986 7 view .LVU432
 1984 010e DA6A     		ldr	r2, [r3, #44]
 1985 0110 22F00802 		bic	r2, r2, #8
ARM GAS  C:\Users\gigig\AppData\Local\Temp\cczsSJ5Z.s 			page 56


 1986 0114 DA62     		str	r2, [r3, #44]
 987:Drivers/STM32L4xx_HAL_Driver/Src/stm32l4xx_hal_pwr_ex.c **** 
 1987              		.loc 1 987 7 view .LVU433
 1988 0116 9A6A     		ldr	r2, [r3, #40]
 1989 0118 22F00802 		bic	r2, r2, #8
 1990 011c 9A62     		str	r2, [r3, #40]
 990:Drivers/STM32L4xx_HAL_Driver/Src/stm32l4xx_hal_pwr_ex.c ****       {
 1991              		.loc 1 990 7 view .LVU434
 990:Drivers/STM32L4xx_HAL_Driver/Src/stm32l4xx_hal_pwr_ex.c ****       {
 1992              		.loc 1 990 21 is_stmt 0 view .LVU435
 1993 011e 4368     		ldr	r3, [r0, #4]
 990:Drivers/STM32L4xx_HAL_Driver/Src/stm32l4xx_hal_pwr_ex.c ****       {
 1994              		.loc 1 990 9 view .LVU436
 1995 0120 13F4803F 		tst	r3, #65536
 1996 0124 04D0     		beq	.L168
 992:Drivers/STM32L4xx_HAL_Driver/Src/stm32l4xx_hal_pwr_ex.c ****       }
 1997              		.loc 1 992 9 is_stmt 1 view .LVU437
 1998 0126 304A     		ldr	r2, .L186
 1999 0128 136A     		ldr	r3, [r2, #32]
 2000 012a 43F00803 		orr	r3, r3, #8
 2001 012e 1362     		str	r3, [r2, #32]
 2002              	.L168:
 996:Drivers/STM32L4xx_HAL_Driver/Src/stm32l4xx_hal_pwr_ex.c ****       {
 2003              		.loc 1 996 7 view .LVU438
 996:Drivers/STM32L4xx_HAL_Driver/Src/stm32l4xx_hal_pwr_ex.c ****       {
 2004              		.loc 1 996 21 is_stmt 0 view .LVU439
 2005 0130 4368     		ldr	r3, [r0, #4]
 996:Drivers/STM32L4xx_HAL_Driver/Src/stm32l4xx_hal_pwr_ex.c ****       {
 2006              		.loc 1 996 9 view .LVU440
 2007 0132 13F4003F 		tst	r3, #131072
 2008 0136 04D0     		beq	.L169
 998:Drivers/STM32L4xx_HAL_Driver/Src/stm32l4xx_hal_pwr_ex.c ****       }
 2009              		.loc 1 998 9 is_stmt 1 view .LVU441
 2010 0138 2B4A     		ldr	r2, .L186
 2011 013a 536A     		ldr	r3, [r2, #36]
 2012 013c 43F00803 		orr	r3, r3, #8
 2013 0140 5362     		str	r3, [r2, #36]
 2014              	.L169:
1002:Drivers/STM32L4xx_HAL_Driver/Src/stm32l4xx_hal_pwr_ex.c ****       {
 2015              		.loc 1 1002 7 view .LVU442
1002:Drivers/STM32L4xx_HAL_Driver/Src/stm32l4xx_hal_pwr_ex.c ****       {
 2016              		.loc 1 1002 21 is_stmt 0 view .LVU443
 2017 0142 4368     		ldr	r3, [r0, #4]
1002:Drivers/STM32L4xx_HAL_Driver/Src/stm32l4xx_hal_pwr_ex.c ****       {
 2018              		.loc 1 1002 9 view .LVU444
 2019 0144 13F0010F 		tst	r3, #1
 2020 0148 04D0     		beq	.L170
1004:Drivers/STM32L4xx_HAL_Driver/Src/stm32l4xx_hal_pwr_ex.c ****       }
 2021              		.loc 1 1004 9 is_stmt 1 view .LVU445
 2022 014a 274A     		ldr	r2, .L186
 2023 014c 936A     		ldr	r3, [r2, #40]
 2024 014e 43F00803 		orr	r3, r3, #8
 2025 0152 9362     		str	r3, [r2, #40]
 2026              	.L170:
1007:Drivers/STM32L4xx_HAL_Driver/Src/stm32l4xx_hal_pwr_ex.c ****       {
 2027              		.loc 1 1007 7 view .LVU446
1007:Drivers/STM32L4xx_HAL_Driver/Src/stm32l4xx_hal_pwr_ex.c ****       {
ARM GAS  C:\Users\gigig\AppData\Local\Temp\cczsSJ5Z.s 			page 57


 2028              		.loc 1 1007 21 is_stmt 0 view .LVU447
 2029 0154 4368     		ldr	r3, [r0, #4]
1007:Drivers/STM32L4xx_HAL_Driver/Src/stm32l4xx_hal_pwr_ex.c ****       {
 2030              		.loc 1 1007 9 view .LVU448
 2031 0156 13F0020F 		tst	r3, #2
 2032 015a 3DD0     		beq	.L180
1009:Drivers/STM32L4xx_HAL_Driver/Src/stm32l4xx_hal_pwr_ex.c ****       }
 2033              		.loc 1 1009 9 is_stmt 1 view .LVU449
 2034 015c 224A     		ldr	r2, .L186
 2035 015e D36A     		ldr	r3, [r2, #44]
 2036 0160 43F00803 		orr	r3, r3, #8
 2037 0164 D362     		str	r3, [r2, #44]
 969:Drivers/STM32L4xx_HAL_Driver/Src/stm32l4xx_hal_pwr_ex.c **** 
 2038              		.loc 1 969 21 is_stmt 0 view .LVU450
 2039 0166 0020     		movs	r0, #0
 2040              	.LVL130:
 969:Drivers/STM32L4xx_HAL_Driver/Src/stm32l4xx_hal_pwr_ex.c **** 
 2041              		.loc 1 969 21 view .LVU451
 2042 0168 7047     		bx	lr
 2043              	.LVL131:
 2044              	.L162:
1049:Drivers/STM32L4xx_HAL_Driver/Src/stm32l4xx_hal_pwr_ex.c ****       __HAL_PWR_PVM3_EXTI_DISABLE_IT();
 2045              		.loc 1 1049 7 is_stmt 1 view .LVU452
 2046 016a 1F4B     		ldr	r3, .L186
 2047 016c 5A6A     		ldr	r2, [r3, #36]
 2048 016e 22F02002 		bic	r2, r2, #32
 2049 0172 5A62     		str	r2, [r3, #36]
1050:Drivers/STM32L4xx_HAL_Driver/Src/stm32l4xx_hal_pwr_ex.c ****       __HAL_PWR_PVM3_EXTI_DISABLE_FALLING_EDGE();
 2050              		.loc 1 1050 7 view .LVU453
 2051 0174 1A6A     		ldr	r2, [r3, #32]
 2052 0176 22F02002 		bic	r2, r2, #32
 2053 017a 1A62     		str	r2, [r3, #32]
1051:Drivers/STM32L4xx_HAL_Driver/Src/stm32l4xx_hal_pwr_ex.c ****       __HAL_PWR_PVM3_EXTI_DISABLE_RISING_EDGE();
 2054              		.loc 1 1051 7 view .LVU454
 2055 017c DA6A     		ldr	r2, [r3, #44]
 2056 017e 22F02002 		bic	r2, r2, #32
 2057 0182 DA62     		str	r2, [r3, #44]
1052:Drivers/STM32L4xx_HAL_Driver/Src/stm32l4xx_hal_pwr_ex.c **** 
 2058              		.loc 1 1052 7 view .LVU455
 2059 0184 9A6A     		ldr	r2, [r3, #40]
 2060 0186 22F02002 		bic	r2, r2, #32
 2061 018a 9A62     		str	r2, [r3, #40]
1055:Drivers/STM32L4xx_HAL_Driver/Src/stm32l4xx_hal_pwr_ex.c ****       {
 2062              		.loc 1 1055 7 view .LVU456
1055:Drivers/STM32L4xx_HAL_Driver/Src/stm32l4xx_hal_pwr_ex.c ****       {
 2063              		.loc 1 1055 21 is_stmt 0 view .LVU457
 2064 018c 4368     		ldr	r3, [r0, #4]
1055:Drivers/STM32L4xx_HAL_Driver/Src/stm32l4xx_hal_pwr_ex.c ****       {
 2065              		.loc 1 1055 9 view .LVU458
 2066 018e 13F4803F 		tst	r3, #65536
 2067 0192 04D0     		beq	.L174
1057:Drivers/STM32L4xx_HAL_Driver/Src/stm32l4xx_hal_pwr_ex.c ****       }
 2068              		.loc 1 1057 9 is_stmt 1 view .LVU459
 2069 0194 144A     		ldr	r2, .L186
 2070 0196 136A     		ldr	r3, [r2, #32]
 2071 0198 43F02003 		orr	r3, r3, #32
 2072 019c 1362     		str	r3, [r2, #32]
ARM GAS  C:\Users\gigig\AppData\Local\Temp\cczsSJ5Z.s 			page 58


 2073              	.L174:
1061:Drivers/STM32L4xx_HAL_Driver/Src/stm32l4xx_hal_pwr_ex.c ****       {
 2074              		.loc 1 1061 7 view .LVU460
1061:Drivers/STM32L4xx_HAL_Driver/Src/stm32l4xx_hal_pwr_ex.c ****       {
 2075              		.loc 1 1061 21 is_stmt 0 view .LVU461
 2076 019e 4368     		ldr	r3, [r0, #4]
1061:Drivers/STM32L4xx_HAL_Driver/Src/stm32l4xx_hal_pwr_ex.c ****       {
 2077              		.loc 1 1061 9 view .LVU462
 2078 01a0 13F4003F 		tst	r3, #131072
 2079 01a4 04D0     		beq	.L175
1063:Drivers/STM32L4xx_HAL_Driver/Src/stm32l4xx_hal_pwr_ex.c ****       }
 2080              		.loc 1 1063 9 is_stmt 1 view .LVU463
 2081 01a6 104A     		ldr	r2, .L186
 2082 01a8 536A     		ldr	r3, [r2, #36]
 2083 01aa 43F02003 		orr	r3, r3, #32
 2084 01ae 5362     		str	r3, [r2, #36]
 2085              	.L175:
1067:Drivers/STM32L4xx_HAL_Driver/Src/stm32l4xx_hal_pwr_ex.c ****       {
 2086              		.loc 1 1067 7 view .LVU464
1067:Drivers/STM32L4xx_HAL_Driver/Src/stm32l4xx_hal_pwr_ex.c ****       {
 2087              		.loc 1 1067 21 is_stmt 0 view .LVU465
 2088 01b0 4368     		ldr	r3, [r0, #4]
1067:Drivers/STM32L4xx_HAL_Driver/Src/stm32l4xx_hal_pwr_ex.c ****       {
 2089              		.loc 1 1067 9 view .LVU466
 2090 01b2 13F0010F 		tst	r3, #1
 2091 01b6 04D0     		beq	.L176
1069:Drivers/STM32L4xx_HAL_Driver/Src/stm32l4xx_hal_pwr_ex.c ****       }
 2092              		.loc 1 1069 9 is_stmt 1 view .LVU467
 2093 01b8 0B4A     		ldr	r2, .L186
 2094 01ba 936A     		ldr	r3, [r2, #40]
 2095 01bc 43F02003 		orr	r3, r3, #32
 2096 01c0 9362     		str	r3, [r2, #40]
 2097              	.L176:
1072:Drivers/STM32L4xx_HAL_Driver/Src/stm32l4xx_hal_pwr_ex.c ****       {
 2098              		.loc 1 1072 7 view .LVU468
1072:Drivers/STM32L4xx_HAL_Driver/Src/stm32l4xx_hal_pwr_ex.c ****       {
 2099              		.loc 1 1072 21 is_stmt 0 view .LVU469
 2100 01c2 4368     		ldr	r3, [r0, #4]
1072:Drivers/STM32L4xx_HAL_Driver/Src/stm32l4xx_hal_pwr_ex.c ****       {
 2101              		.loc 1 1072 9 view .LVU470
 2102 01c4 13F0020F 		tst	r3, #2
 2103 01c8 0AD0     		beq	.L182
1074:Drivers/STM32L4xx_HAL_Driver/Src/stm32l4xx_hal_pwr_ex.c ****       }
 2104              		.loc 1 1074 9 is_stmt 1 view .LVU471
 2105 01ca 074A     		ldr	r2, .L186
 2106 01cc D36A     		ldr	r3, [r2, #44]
 2107 01ce 43F02003 		orr	r3, r3, #32
 2108 01d2 D362     		str	r3, [r2, #44]
 969:Drivers/STM32L4xx_HAL_Driver/Src/stm32l4xx_hal_pwr_ex.c **** 
 2109              		.loc 1 969 21 is_stmt 0 view .LVU472
 2110 01d4 0020     		movs	r0, #0
 2111              	.LVL132:
 969:Drivers/STM32L4xx_HAL_Driver/Src/stm32l4xx_hal_pwr_ex.c **** 
 2112              		.loc 1 969 21 view .LVU473
 2113 01d6 7047     		bx	lr
 2114              	.LVL133:
 2115              	.L180:
ARM GAS  C:\Users\gigig\AppData\Local\Temp\cczsSJ5Z.s 			page 59


 969:Drivers/STM32L4xx_HAL_Driver/Src/stm32l4xx_hal_pwr_ex.c **** 
 2116              		.loc 1 969 21 view .LVU474
 2117 01d8 0020     		movs	r0, #0
 2118              	.LVL134:
 969:Drivers/STM32L4xx_HAL_Driver/Src/stm32l4xx_hal_pwr_ex.c **** 
 2119              		.loc 1 969 21 view .LVU475
 2120 01da 7047     		bx	lr
 2121              	.LVL135:
 2122              	.L181:
 969:Drivers/STM32L4xx_HAL_Driver/Src/stm32l4xx_hal_pwr_ex.c **** 
 2123              		.loc 1 969 21 view .LVU476
 2124 01dc 0020     		movs	r0, #0
 2125              	.LVL136:
 969:Drivers/STM32L4xx_HAL_Driver/Src/stm32l4xx_hal_pwr_ex.c **** 
 2126              		.loc 1 969 21 view .LVU477
 2127 01de 7047     		bx	lr
 2128              	.LVL137:
 2129              	.L182:
 969:Drivers/STM32L4xx_HAL_Driver/Src/stm32l4xx_hal_pwr_ex.c **** 
 2130              		.loc 1 969 21 view .LVU478
 2131 01e0 0020     		movs	r0, #0
 2132              	.LVL138:
 969:Drivers/STM32L4xx_HAL_Driver/Src/stm32l4xx_hal_pwr_ex.c **** 
 2133              		.loc 1 969 21 view .LVU479
 2134 01e2 7047     		bx	lr
 2135              	.LVL139:
 2136              	.L183:
 969:Drivers/STM32L4xx_HAL_Driver/Src/stm32l4xx_hal_pwr_ex.c **** 
 2137              		.loc 1 969 21 view .LVU480
 2138 01e4 0020     		movs	r0, #0
 2139              	.LVL140:
1106:Drivers/STM32L4xx_HAL_Driver/Src/stm32l4xx_hal_pwr_ex.c ****       }
1107:Drivers/STM32L4xx_HAL_Driver/Src/stm32l4xx_hal_pwr_ex.c ****       break;
1108:Drivers/STM32L4xx_HAL_Driver/Src/stm32l4xx_hal_pwr_ex.c **** 
1109:Drivers/STM32L4xx_HAL_Driver/Src/stm32l4xx_hal_pwr_ex.c ****     default:
1110:Drivers/STM32L4xx_HAL_Driver/Src/stm32l4xx_hal_pwr_ex.c ****       status = HAL_ERROR;
1111:Drivers/STM32L4xx_HAL_Driver/Src/stm32l4xx_hal_pwr_ex.c ****       break;
1112:Drivers/STM32L4xx_HAL_Driver/Src/stm32l4xx_hal_pwr_ex.c ****   }
1113:Drivers/STM32L4xx_HAL_Driver/Src/stm32l4xx_hal_pwr_ex.c **** 
1114:Drivers/STM32L4xx_HAL_Driver/Src/stm32l4xx_hal_pwr_ex.c ****   return status;
 2140              		.loc 1 1114 3 is_stmt 1 view .LVU481
1115:Drivers/STM32L4xx_HAL_Driver/Src/stm32l4xx_hal_pwr_ex.c **** }
 2141              		.loc 1 1115 1 is_stmt 0 view .LVU482
 2142 01e6 7047     		bx	lr
 2143              	.L187:
 2144              		.align	2
 2145              	.L186:
 2146 01e8 00040140 		.word	1073808384
 2147              		.cfi_endproc
 2148              	.LFE163:
 2150              		.section	.text.HAL_PWREx_EnableLowPowerRunMode,"ax",%progbits
 2151              		.align	1
 2152              		.global	HAL_PWREx_EnableLowPowerRunMode
 2153              		.syntax unified
 2154              		.thumb
 2155              		.thumb_func
 2157              	HAL_PWREx_EnableLowPowerRunMode:
ARM GAS  C:\Users\gigig\AppData\Local\Temp\cczsSJ5Z.s 			page 60


 2158              	.LFB164:
1116:Drivers/STM32L4xx_HAL_Driver/Src/stm32l4xx_hal_pwr_ex.c **** 
1117:Drivers/STM32L4xx_HAL_Driver/Src/stm32l4xx_hal_pwr_ex.c **** 
1118:Drivers/STM32L4xx_HAL_Driver/Src/stm32l4xx_hal_pwr_ex.c **** 
1119:Drivers/STM32L4xx_HAL_Driver/Src/stm32l4xx_hal_pwr_ex.c **** /**
1120:Drivers/STM32L4xx_HAL_Driver/Src/stm32l4xx_hal_pwr_ex.c ****   * @brief Enter Low-power Run mode
1121:Drivers/STM32L4xx_HAL_Driver/Src/stm32l4xx_hal_pwr_ex.c ****   * @note  In Low-power Run mode, all I/O pins keep the same state as in Run mode.
1122:Drivers/STM32L4xx_HAL_Driver/Src/stm32l4xx_hal_pwr_ex.c ****   * @note  When Regulator is set to PWR_LOWPOWERREGULATOR_ON, the user can optionally configure the
1123:Drivers/STM32L4xx_HAL_Driver/Src/stm32l4xx_hal_pwr_ex.c ****   *        Flash in power-down monde in setting the RUN_PD bit in FLASH_ACR register.
1124:Drivers/STM32L4xx_HAL_Driver/Src/stm32l4xx_hal_pwr_ex.c ****   *        Additionally, the clock frequency must be reduced below 2 MHz.
1125:Drivers/STM32L4xx_HAL_Driver/Src/stm32l4xx_hal_pwr_ex.c ****   *        Setting RUN_PD in FLASH_ACR then appropriately reducing the clock frequency must
1126:Drivers/STM32L4xx_HAL_Driver/Src/stm32l4xx_hal_pwr_ex.c ****   *        be done before calling HAL_PWREx_EnableLowPowerRunMode() API.
1127:Drivers/STM32L4xx_HAL_Driver/Src/stm32l4xx_hal_pwr_ex.c ****   * @retval None
1128:Drivers/STM32L4xx_HAL_Driver/Src/stm32l4xx_hal_pwr_ex.c ****   */
1129:Drivers/STM32L4xx_HAL_Driver/Src/stm32l4xx_hal_pwr_ex.c **** void HAL_PWREx_EnableLowPowerRunMode(void)
1130:Drivers/STM32L4xx_HAL_Driver/Src/stm32l4xx_hal_pwr_ex.c **** {
 2159              		.loc 1 1130 1 is_stmt 1 view -0
 2160              		.cfi_startproc
 2161              		@ args = 0, pretend = 0, frame = 0
 2162              		@ frame_needed = 0, uses_anonymous_args = 0
 2163              		@ link register save eliminated.
1131:Drivers/STM32L4xx_HAL_Driver/Src/stm32l4xx_hal_pwr_ex.c ****   /* Set Regulator parameter */
1132:Drivers/STM32L4xx_HAL_Driver/Src/stm32l4xx_hal_pwr_ex.c ****   SET_BIT(PWR->CR1, PWR_CR1_LPR);
 2164              		.loc 1 1132 3 view .LVU484
 2165 0000 024A     		ldr	r2, .L189
 2166 0002 1368     		ldr	r3, [r2]
 2167 0004 43F48043 		orr	r3, r3, #16384
 2168 0008 1360     		str	r3, [r2]
1133:Drivers/STM32L4xx_HAL_Driver/Src/stm32l4xx_hal_pwr_ex.c **** }
 2169              		.loc 1 1133 1 is_stmt 0 view .LVU485
 2170 000a 7047     		bx	lr
 2171              	.L190:
 2172              		.align	2
 2173              	.L189:
 2174 000c 00700040 		.word	1073770496
 2175              		.cfi_endproc
 2176              	.LFE164:
 2178              		.section	.text.HAL_PWREx_DisableLowPowerRunMode,"ax",%progbits
 2179              		.align	1
 2180              		.global	HAL_PWREx_DisableLowPowerRunMode
 2181              		.syntax unified
 2182              		.thumb
 2183              		.thumb_func
 2185              	HAL_PWREx_DisableLowPowerRunMode:
 2186              	.LFB165:
1134:Drivers/STM32L4xx_HAL_Driver/Src/stm32l4xx_hal_pwr_ex.c **** 
1135:Drivers/STM32L4xx_HAL_Driver/Src/stm32l4xx_hal_pwr_ex.c **** 
1136:Drivers/STM32L4xx_HAL_Driver/Src/stm32l4xx_hal_pwr_ex.c **** /**
1137:Drivers/STM32L4xx_HAL_Driver/Src/stm32l4xx_hal_pwr_ex.c ****   * @brief Exit Low-power Run mode.
1138:Drivers/STM32L4xx_HAL_Driver/Src/stm32l4xx_hal_pwr_ex.c ****   * @note  Before HAL_PWREx_DisableLowPowerRunMode() completion, the function checks that
1139:Drivers/STM32L4xx_HAL_Driver/Src/stm32l4xx_hal_pwr_ex.c ****   *        REGLPF has been properly reset (otherwise, HAL_PWREx_DisableLowPowerRunMode
1140:Drivers/STM32L4xx_HAL_Driver/Src/stm32l4xx_hal_pwr_ex.c ****   *        returns HAL_TIMEOUT status). The system clock frequency can then be
1141:Drivers/STM32L4xx_HAL_Driver/Src/stm32l4xx_hal_pwr_ex.c ****   *        increased above 2 MHz.
1142:Drivers/STM32L4xx_HAL_Driver/Src/stm32l4xx_hal_pwr_ex.c ****   * @retval HAL Status
1143:Drivers/STM32L4xx_HAL_Driver/Src/stm32l4xx_hal_pwr_ex.c ****   */
1144:Drivers/STM32L4xx_HAL_Driver/Src/stm32l4xx_hal_pwr_ex.c **** HAL_StatusTypeDef HAL_PWREx_DisableLowPowerRunMode(void)
1145:Drivers/STM32L4xx_HAL_Driver/Src/stm32l4xx_hal_pwr_ex.c **** {
ARM GAS  C:\Users\gigig\AppData\Local\Temp\cczsSJ5Z.s 			page 61


 2187              		.loc 1 1145 1 is_stmt 1 view -0
 2188              		.cfi_startproc
 2189              		@ args = 0, pretend = 0, frame = 0
 2190              		@ frame_needed = 0, uses_anonymous_args = 0
 2191              		@ link register save eliminated.
1146:Drivers/STM32L4xx_HAL_Driver/Src/stm32l4xx_hal_pwr_ex.c ****   uint32_t wait_loop_index;
 2192              		.loc 1 1146 3 view .LVU487
1147:Drivers/STM32L4xx_HAL_Driver/Src/stm32l4xx_hal_pwr_ex.c **** 
1148:Drivers/STM32L4xx_HAL_Driver/Src/stm32l4xx_hal_pwr_ex.c ****   /* Clear LPR bit */
1149:Drivers/STM32L4xx_HAL_Driver/Src/stm32l4xx_hal_pwr_ex.c ****   CLEAR_BIT(PWR->CR1, PWR_CR1_LPR);
 2193              		.loc 1 1149 3 view .LVU488
 2194 0000 104A     		ldr	r2, .L197
 2195 0002 1368     		ldr	r3, [r2]
 2196 0004 23F48043 		bic	r3, r3, #16384
 2197 0008 1360     		str	r3, [r2]
1150:Drivers/STM32L4xx_HAL_Driver/Src/stm32l4xx_hal_pwr_ex.c **** 
1151:Drivers/STM32L4xx_HAL_Driver/Src/stm32l4xx_hal_pwr_ex.c ****   /* Wait until REGLPF is reset */
1152:Drivers/STM32L4xx_HAL_Driver/Src/stm32l4xx_hal_pwr_ex.c ****   wait_loop_index = ((PWR_FLAG_SETTING_DELAY_US * SystemCoreClock) / 1000000U) + 1U;
 2198              		.loc 1 1152 3 view .LVU489
 2199              		.loc 1 1152 49 is_stmt 0 view .LVU490
 2200 000a 0F4B     		ldr	r3, .L197+4
 2201 000c 1B68     		ldr	r3, [r3]
 2202 000e 3222     		movs	r2, #50
 2203 0010 02FB03F3 		mul	r3, r2, r3
 2204              		.loc 1 1152 68 view .LVU491
 2205 0014 0D4A     		ldr	r2, .L197+8
 2206 0016 A2FB0323 		umull	r2, r3, r2, r3
 2207 001a 9B0C     		lsrs	r3, r3, #18
 2208              		.loc 1 1152 19 view .LVU492
 2209 001c 0133     		adds	r3, r3, #1
 2210              	.LVL141:
1153:Drivers/STM32L4xx_HAL_Driver/Src/stm32l4xx_hal_pwr_ex.c ****   while ((HAL_IS_BIT_SET(PWR->SR2, PWR_SR2_REGLPF)) && (wait_loop_index != 0U))
 2211              		.loc 1 1153 3 is_stmt 1 view .LVU493
 2212              		.loc 1 1153 9 is_stmt 0 view .LVU494
 2213 001e 00E0     		b	.L192
 2214              	.L194:
1154:Drivers/STM32L4xx_HAL_Driver/Src/stm32l4xx_hal_pwr_ex.c ****   {
1155:Drivers/STM32L4xx_HAL_Driver/Src/stm32l4xx_hal_pwr_ex.c ****     wait_loop_index--;
 2215              		.loc 1 1155 5 is_stmt 1 view .LVU495
 2216              		.loc 1 1155 20 is_stmt 0 view .LVU496
 2217 0020 013B     		subs	r3, r3, #1
 2218              	.LVL142:
 2219              	.L192:
1153:Drivers/STM32L4xx_HAL_Driver/Src/stm32l4xx_hal_pwr_ex.c ****   while ((HAL_IS_BIT_SET(PWR->SR2, PWR_SR2_REGLPF)) && (wait_loop_index != 0U))
 2220              		.loc 1 1153 53 is_stmt 1 view .LVU497
1153:Drivers/STM32L4xx_HAL_Driver/Src/stm32l4xx_hal_pwr_ex.c ****   while ((HAL_IS_BIT_SET(PWR->SR2, PWR_SR2_REGLPF)) && (wait_loop_index != 0U))
 2221              		.loc 1 1153 11 is_stmt 0 view .LVU498
 2222 0022 084A     		ldr	r2, .L197
 2223 0024 5269     		ldr	r2, [r2, #20]
1153:Drivers/STM32L4xx_HAL_Driver/Src/stm32l4xx_hal_pwr_ex.c ****   while ((HAL_IS_BIT_SET(PWR->SR2, PWR_SR2_REGLPF)) && (wait_loop_index != 0U))
 2224              		.loc 1 1153 53 view .LVU499
 2225 0026 12F4007F 		tst	r2, #512
 2226 002a 01D0     		beq	.L193
1153:Drivers/STM32L4xx_HAL_Driver/Src/stm32l4xx_hal_pwr_ex.c ****   while ((HAL_IS_BIT_SET(PWR->SR2, PWR_SR2_REGLPF)) && (wait_loop_index != 0U))
 2227              		.loc 1 1153 53 discriminator 1 view .LVU500
 2228 002c 002B     		cmp	r3, #0
 2229 002e F7D1     		bne	.L194
ARM GAS  C:\Users\gigig\AppData\Local\Temp\cczsSJ5Z.s 			page 62


 2230              	.L193:
1156:Drivers/STM32L4xx_HAL_Driver/Src/stm32l4xx_hal_pwr_ex.c ****   }
1157:Drivers/STM32L4xx_HAL_Driver/Src/stm32l4xx_hal_pwr_ex.c ****   if (HAL_IS_BIT_SET(PWR->SR2, PWR_SR2_REGLPF))
 2231              		.loc 1 1157 3 is_stmt 1 view .LVU501
 2232              		.loc 1 1157 7 is_stmt 0 view .LVU502
 2233 0030 044B     		ldr	r3, .L197
 2234              	.LVL143:
 2235              		.loc 1 1157 7 view .LVU503
 2236 0032 5B69     		ldr	r3, [r3, #20]
 2237              		.loc 1 1157 6 view .LVU504
 2238 0034 13F4007F 		tst	r3, #512
 2239 0038 01D1     		bne	.L196
1158:Drivers/STM32L4xx_HAL_Driver/Src/stm32l4xx_hal_pwr_ex.c ****   {
1159:Drivers/STM32L4xx_HAL_Driver/Src/stm32l4xx_hal_pwr_ex.c ****     return HAL_TIMEOUT;
1160:Drivers/STM32L4xx_HAL_Driver/Src/stm32l4xx_hal_pwr_ex.c ****   }
1161:Drivers/STM32L4xx_HAL_Driver/Src/stm32l4xx_hal_pwr_ex.c **** 
1162:Drivers/STM32L4xx_HAL_Driver/Src/stm32l4xx_hal_pwr_ex.c ****   return HAL_OK;
 2240              		.loc 1 1162 10 view .LVU505
 2241 003a 0020     		movs	r0, #0
 2242 003c 7047     		bx	lr
 2243              	.L196:
1159:Drivers/STM32L4xx_HAL_Driver/Src/stm32l4xx_hal_pwr_ex.c ****   }
 2244              		.loc 1 1159 12 view .LVU506
 2245 003e 0320     		movs	r0, #3
1163:Drivers/STM32L4xx_HAL_Driver/Src/stm32l4xx_hal_pwr_ex.c **** }
 2246              		.loc 1 1163 1 view .LVU507
 2247 0040 7047     		bx	lr
 2248              	.L198:
 2249 0042 00BF     		.align	2
 2250              	.L197:
 2251 0044 00700040 		.word	1073770496
 2252 0048 00000000 		.word	SystemCoreClock
 2253 004c 83DE1B43 		.word	1125899907
 2254              		.cfi_endproc
 2255              	.LFE165:
 2257              		.section	.text.HAL_PWREx_EnterSTOP0Mode,"ax",%progbits
 2258              		.align	1
 2259              		.global	HAL_PWREx_EnterSTOP0Mode
 2260              		.syntax unified
 2261              		.thumb
 2262              		.thumb_func
 2264              	HAL_PWREx_EnterSTOP0Mode:
 2265              	.LVL144:
 2266              	.LFB166:
1164:Drivers/STM32L4xx_HAL_Driver/Src/stm32l4xx_hal_pwr_ex.c **** 
1165:Drivers/STM32L4xx_HAL_Driver/Src/stm32l4xx_hal_pwr_ex.c **** 
1166:Drivers/STM32L4xx_HAL_Driver/Src/stm32l4xx_hal_pwr_ex.c **** /**
1167:Drivers/STM32L4xx_HAL_Driver/Src/stm32l4xx_hal_pwr_ex.c ****   * @brief Enter Stop 0 mode.
1168:Drivers/STM32L4xx_HAL_Driver/Src/stm32l4xx_hal_pwr_ex.c ****   * @note  In Stop 0 mode, main and low voltage regulators are ON.
1169:Drivers/STM32L4xx_HAL_Driver/Src/stm32l4xx_hal_pwr_ex.c ****   * @note  In Stop 0 mode, all I/O pins keep the same state as in Run mode.
1170:Drivers/STM32L4xx_HAL_Driver/Src/stm32l4xx_hal_pwr_ex.c ****   * @note  All clocks in the VCORE domain are stopped; the PLL, the MSI,
1171:Drivers/STM32L4xx_HAL_Driver/Src/stm32l4xx_hal_pwr_ex.c ****   *        the HSI and the HSE oscillators are disabled. Some peripherals with the wakeup capabilit
1172:Drivers/STM32L4xx_HAL_Driver/Src/stm32l4xx_hal_pwr_ex.c ****   *        (I2Cx, USARTx and LPUART) can switch on the HSI to receive a frame, and switch off the H
1173:Drivers/STM32L4xx_HAL_Driver/Src/stm32l4xx_hal_pwr_ex.c ****   *        after receiving the frame if it is not a wakeup frame. In this case, the HSI clock is pr
1174:Drivers/STM32L4xx_HAL_Driver/Src/stm32l4xx_hal_pwr_ex.c ****   *        only to the peripheral requesting it.
1175:Drivers/STM32L4xx_HAL_Driver/Src/stm32l4xx_hal_pwr_ex.c ****   *        SRAM1, SRAM2 and register contents are preserved.
1176:Drivers/STM32L4xx_HAL_Driver/Src/stm32l4xx_hal_pwr_ex.c ****   *        The BOR is available.
ARM GAS  C:\Users\gigig\AppData\Local\Temp\cczsSJ5Z.s 			page 63


1177:Drivers/STM32L4xx_HAL_Driver/Src/stm32l4xx_hal_pwr_ex.c ****   * @note  When exiting Stop 0 mode by issuing an interrupt or a wakeup event,
1178:Drivers/STM32L4xx_HAL_Driver/Src/stm32l4xx_hal_pwr_ex.c ****   *         the HSI RC oscillator is selected as system clock if STOPWUCK bit in RCC_CFGR register
1179:Drivers/STM32L4xx_HAL_Driver/Src/stm32l4xx_hal_pwr_ex.c ****   *         is set; the MSI oscillator is selected if STOPWUCK is cleared.
1180:Drivers/STM32L4xx_HAL_Driver/Src/stm32l4xx_hal_pwr_ex.c ****   * @note  By keeping the internal regulator ON during Stop 0 mode, the consumption
1181:Drivers/STM32L4xx_HAL_Driver/Src/stm32l4xx_hal_pwr_ex.c ****   *         is higher although the startup time is reduced.
1182:Drivers/STM32L4xx_HAL_Driver/Src/stm32l4xx_hal_pwr_ex.c ****   * @param STOPEntry  specifies if Stop mode in entered with WFI or WFE instruction.
1183:Drivers/STM32L4xx_HAL_Driver/Src/stm32l4xx_hal_pwr_ex.c ****   *          This parameter can be one of the following values:
1184:Drivers/STM32L4xx_HAL_Driver/Src/stm32l4xx_hal_pwr_ex.c ****   *            @arg @ref PWR_STOPENTRY_WFI  Enter Stop mode with WFI instruction
1185:Drivers/STM32L4xx_HAL_Driver/Src/stm32l4xx_hal_pwr_ex.c ****   *            @arg @ref PWR_STOPENTRY_WFE  Enter Stop mode with WFE instruction
1186:Drivers/STM32L4xx_HAL_Driver/Src/stm32l4xx_hal_pwr_ex.c ****   * @retval None
1187:Drivers/STM32L4xx_HAL_Driver/Src/stm32l4xx_hal_pwr_ex.c ****   */
1188:Drivers/STM32L4xx_HAL_Driver/Src/stm32l4xx_hal_pwr_ex.c **** void HAL_PWREx_EnterSTOP0Mode(uint8_t STOPEntry)
1189:Drivers/STM32L4xx_HAL_Driver/Src/stm32l4xx_hal_pwr_ex.c **** {
 2267              		.loc 1 1189 1 is_stmt 1 view -0
 2268              		.cfi_startproc
 2269              		@ args = 0, pretend = 0, frame = 0
 2270              		@ frame_needed = 0, uses_anonymous_args = 0
 2271              		@ link register save eliminated.
1190:Drivers/STM32L4xx_HAL_Driver/Src/stm32l4xx_hal_pwr_ex.c ****   /* Check the parameters */
1191:Drivers/STM32L4xx_HAL_Driver/Src/stm32l4xx_hal_pwr_ex.c ****   assert_param(IS_PWR_STOP_ENTRY(STOPEntry));
 2272              		.loc 1 1191 3 view .LVU509
1192:Drivers/STM32L4xx_HAL_Driver/Src/stm32l4xx_hal_pwr_ex.c **** 
1193:Drivers/STM32L4xx_HAL_Driver/Src/stm32l4xx_hal_pwr_ex.c ****   /* Stop 0 mode with Main Regulator */
1194:Drivers/STM32L4xx_HAL_Driver/Src/stm32l4xx_hal_pwr_ex.c ****   MODIFY_REG(PWR->CR1, PWR_CR1_LPMS, PWR_CR1_LPMS_STOP0);
 2273              		.loc 1 1194 3 view .LVU510
 2274 0000 0B4A     		ldr	r2, .L203
 2275 0002 1368     		ldr	r3, [r2]
 2276 0004 23F00703 		bic	r3, r3, #7
 2277 0008 1360     		str	r3, [r2]
1195:Drivers/STM32L4xx_HAL_Driver/Src/stm32l4xx_hal_pwr_ex.c **** 
1196:Drivers/STM32L4xx_HAL_Driver/Src/stm32l4xx_hal_pwr_ex.c ****   /* Set SLEEPDEEP bit of Cortex System Control Register */
1197:Drivers/STM32L4xx_HAL_Driver/Src/stm32l4xx_hal_pwr_ex.c ****   SET_BIT(SCB->SCR, ((uint32_t)SCB_SCR_SLEEPDEEP_Msk));
 2278              		.loc 1 1197 3 view .LVU511
 2279 000a 0A4A     		ldr	r2, .L203+4
 2280 000c 1369     		ldr	r3, [r2, #16]
 2281 000e 43F00403 		orr	r3, r3, #4
 2282 0012 1361     		str	r3, [r2, #16]
1198:Drivers/STM32L4xx_HAL_Driver/Src/stm32l4xx_hal_pwr_ex.c **** 
1199:Drivers/STM32L4xx_HAL_Driver/Src/stm32l4xx_hal_pwr_ex.c ****   /* Select Stop mode entry --------------------------------------------------*/
1200:Drivers/STM32L4xx_HAL_Driver/Src/stm32l4xx_hal_pwr_ex.c ****   if(STOPEntry == PWR_STOPENTRY_WFI)
 2283              		.loc 1 1200 3 view .LVU512
 2284              		.loc 1 1200 5 is_stmt 0 view .LVU513
 2285 0014 0128     		cmp	r0, #1
 2286 0016 08D0     		beq	.L202
1201:Drivers/STM32L4xx_HAL_Driver/Src/stm32l4xx_hal_pwr_ex.c ****   {
1202:Drivers/STM32L4xx_HAL_Driver/Src/stm32l4xx_hal_pwr_ex.c ****     /* Request Wait For Interrupt */
1203:Drivers/STM32L4xx_HAL_Driver/Src/stm32l4xx_hal_pwr_ex.c ****     __WFI();
1204:Drivers/STM32L4xx_HAL_Driver/Src/stm32l4xx_hal_pwr_ex.c ****   }
1205:Drivers/STM32L4xx_HAL_Driver/Src/stm32l4xx_hal_pwr_ex.c ****   else
1206:Drivers/STM32L4xx_HAL_Driver/Src/stm32l4xx_hal_pwr_ex.c ****   {
1207:Drivers/STM32L4xx_HAL_Driver/Src/stm32l4xx_hal_pwr_ex.c ****     /* Request Wait For Event */
1208:Drivers/STM32L4xx_HAL_Driver/Src/stm32l4xx_hal_pwr_ex.c ****     __SEV();
 2287              		.loc 1 1208 5 is_stmt 1 view .LVU514
 2288              		.syntax unified
 2289              	@ 1208 "Drivers/STM32L4xx_HAL_Driver/Src/stm32l4xx_hal_pwr_ex.c" 1
 2290 0018 40BF     		sev
 2291              	@ 0 "" 2
ARM GAS  C:\Users\gigig\AppData\Local\Temp\cczsSJ5Z.s 			page 64


1209:Drivers/STM32L4xx_HAL_Driver/Src/stm32l4xx_hal_pwr_ex.c ****     __WFE();
 2292              		.loc 1 1209 5 view .LVU515
 2293              	@ 1209 "Drivers/STM32L4xx_HAL_Driver/Src/stm32l4xx_hal_pwr_ex.c" 1
 2294 001a 20BF     		wfe
 2295              	@ 0 "" 2
1210:Drivers/STM32L4xx_HAL_Driver/Src/stm32l4xx_hal_pwr_ex.c ****     __WFE();
 2296              		.loc 1 1210 5 view .LVU516
 2297              	@ 1210 "Drivers/STM32L4xx_HAL_Driver/Src/stm32l4xx_hal_pwr_ex.c" 1
 2298 001c 20BF     		wfe
 2299              	@ 0 "" 2
 2300              		.thumb
 2301              		.syntax unified
 2302              	.L201:
1211:Drivers/STM32L4xx_HAL_Driver/Src/stm32l4xx_hal_pwr_ex.c ****   }
1212:Drivers/STM32L4xx_HAL_Driver/Src/stm32l4xx_hal_pwr_ex.c **** 
1213:Drivers/STM32L4xx_HAL_Driver/Src/stm32l4xx_hal_pwr_ex.c ****   /* Reset SLEEPDEEP bit of Cortex System Control Register */
1214:Drivers/STM32L4xx_HAL_Driver/Src/stm32l4xx_hal_pwr_ex.c ****   CLEAR_BIT(SCB->SCR, ((uint32_t)SCB_SCR_SLEEPDEEP_Msk));
 2303              		.loc 1 1214 3 view .LVU517
 2304 001e 054A     		ldr	r2, .L203+4
 2305 0020 1369     		ldr	r3, [r2, #16]
 2306 0022 23F00403 		bic	r3, r3, #4
 2307 0026 1361     		str	r3, [r2, #16]
1215:Drivers/STM32L4xx_HAL_Driver/Src/stm32l4xx_hal_pwr_ex.c **** }
 2308              		.loc 1 1215 1 is_stmt 0 view .LVU518
 2309 0028 7047     		bx	lr
 2310              	.L202:
1203:Drivers/STM32L4xx_HAL_Driver/Src/stm32l4xx_hal_pwr_ex.c ****   }
 2311              		.loc 1 1203 5 is_stmt 1 view .LVU519
 2312              		.syntax unified
 2313              	@ 1203 "Drivers/STM32L4xx_HAL_Driver/Src/stm32l4xx_hal_pwr_ex.c" 1
 2314 002a 30BF     		wfi
 2315              	@ 0 "" 2
 2316              		.thumb
 2317              		.syntax unified
 2318 002c F7E7     		b	.L201
 2319              	.L204:
 2320 002e 00BF     		.align	2
 2321              	.L203:
 2322 0030 00700040 		.word	1073770496
 2323 0034 00ED00E0 		.word	-536810240
 2324              		.cfi_endproc
 2325              	.LFE166:
 2327              		.section	.text.HAL_PWREx_EnterSTOP1Mode,"ax",%progbits
 2328              		.align	1
 2329              		.global	HAL_PWREx_EnterSTOP1Mode
 2330              		.syntax unified
 2331              		.thumb
 2332              		.thumb_func
 2334              	HAL_PWREx_EnterSTOP1Mode:
 2335              	.LVL145:
 2336              	.LFB167:
1216:Drivers/STM32L4xx_HAL_Driver/Src/stm32l4xx_hal_pwr_ex.c **** 
1217:Drivers/STM32L4xx_HAL_Driver/Src/stm32l4xx_hal_pwr_ex.c **** 
1218:Drivers/STM32L4xx_HAL_Driver/Src/stm32l4xx_hal_pwr_ex.c **** /**
1219:Drivers/STM32L4xx_HAL_Driver/Src/stm32l4xx_hal_pwr_ex.c ****   * @brief Enter Stop 1 mode.
1220:Drivers/STM32L4xx_HAL_Driver/Src/stm32l4xx_hal_pwr_ex.c ****   * @note  In Stop 1 mode, only low power voltage regulator is ON.
1221:Drivers/STM32L4xx_HAL_Driver/Src/stm32l4xx_hal_pwr_ex.c ****   * @note  In Stop 1 mode, all I/O pins keep the same state as in Run mode.
ARM GAS  C:\Users\gigig\AppData\Local\Temp\cczsSJ5Z.s 			page 65


1222:Drivers/STM32L4xx_HAL_Driver/Src/stm32l4xx_hal_pwr_ex.c ****   * @note  All clocks in the VCORE domain are stopped; the PLL, the MSI,
1223:Drivers/STM32L4xx_HAL_Driver/Src/stm32l4xx_hal_pwr_ex.c ****   *        the HSI and the HSE oscillators are disabled. Some peripherals with the wakeup capabilit
1224:Drivers/STM32L4xx_HAL_Driver/Src/stm32l4xx_hal_pwr_ex.c ****   *        (I2Cx, USARTx and LPUART) can switch on the HSI to receive a frame, and switch off the H
1225:Drivers/STM32L4xx_HAL_Driver/Src/stm32l4xx_hal_pwr_ex.c ****   *        after receiving the frame if it is not a wakeup frame. In this case, the HSI clock is pr
1226:Drivers/STM32L4xx_HAL_Driver/Src/stm32l4xx_hal_pwr_ex.c ****   *        only to the peripheral requesting it.
1227:Drivers/STM32L4xx_HAL_Driver/Src/stm32l4xx_hal_pwr_ex.c ****   *        SRAM1, SRAM2 and register contents are preserved.
1228:Drivers/STM32L4xx_HAL_Driver/Src/stm32l4xx_hal_pwr_ex.c ****   *        The BOR is available.
1229:Drivers/STM32L4xx_HAL_Driver/Src/stm32l4xx_hal_pwr_ex.c ****   * @note  When exiting Stop 1 mode by issuing an interrupt or a wakeup event,
1230:Drivers/STM32L4xx_HAL_Driver/Src/stm32l4xx_hal_pwr_ex.c ****   *         the HSI RC oscillator is selected as system clock if STOPWUCK bit in RCC_CFGR register
1231:Drivers/STM32L4xx_HAL_Driver/Src/stm32l4xx_hal_pwr_ex.c ****   *         is set; the MSI oscillator is selected if STOPWUCK is cleared.
1232:Drivers/STM32L4xx_HAL_Driver/Src/stm32l4xx_hal_pwr_ex.c ****   * @note  Due to low power mode, an additional startup delay is incurred when waking up from Stop 
1233:Drivers/STM32L4xx_HAL_Driver/Src/stm32l4xx_hal_pwr_ex.c ****   * @param STOPEntry  specifies if Stop mode in entered with WFI or WFE instruction.
1234:Drivers/STM32L4xx_HAL_Driver/Src/stm32l4xx_hal_pwr_ex.c ****   *          This parameter can be one of the following values:
1235:Drivers/STM32L4xx_HAL_Driver/Src/stm32l4xx_hal_pwr_ex.c ****   *            @arg @ref PWR_STOPENTRY_WFI  Enter Stop mode with WFI instruction
1236:Drivers/STM32L4xx_HAL_Driver/Src/stm32l4xx_hal_pwr_ex.c ****   *            @arg @ref PWR_STOPENTRY_WFE  Enter Stop mode with WFE instruction
1237:Drivers/STM32L4xx_HAL_Driver/Src/stm32l4xx_hal_pwr_ex.c ****   * @retval None
1238:Drivers/STM32L4xx_HAL_Driver/Src/stm32l4xx_hal_pwr_ex.c ****   */
1239:Drivers/STM32L4xx_HAL_Driver/Src/stm32l4xx_hal_pwr_ex.c **** void HAL_PWREx_EnterSTOP1Mode(uint8_t STOPEntry)
1240:Drivers/STM32L4xx_HAL_Driver/Src/stm32l4xx_hal_pwr_ex.c **** {
 2337              		.loc 1 1240 1 view -0
 2338              		.cfi_startproc
 2339              		@ args = 0, pretend = 0, frame = 0
 2340              		@ frame_needed = 0, uses_anonymous_args = 0
 2341              		@ link register save eliminated.
1241:Drivers/STM32L4xx_HAL_Driver/Src/stm32l4xx_hal_pwr_ex.c ****   /* Check the parameters */
1242:Drivers/STM32L4xx_HAL_Driver/Src/stm32l4xx_hal_pwr_ex.c ****   assert_param(IS_PWR_STOP_ENTRY(STOPEntry));
 2342              		.loc 1 1242 3 view .LVU521
1243:Drivers/STM32L4xx_HAL_Driver/Src/stm32l4xx_hal_pwr_ex.c **** 
1244:Drivers/STM32L4xx_HAL_Driver/Src/stm32l4xx_hal_pwr_ex.c ****   /* Stop 1 mode with Low-Power Regulator */
1245:Drivers/STM32L4xx_HAL_Driver/Src/stm32l4xx_hal_pwr_ex.c ****   MODIFY_REG(PWR->CR1, PWR_CR1_LPMS, PWR_CR1_LPMS_STOP1);
 2343              		.loc 1 1245 3 view .LVU522
 2344 0000 0C4A     		ldr	r2, .L209
 2345 0002 1368     		ldr	r3, [r2]
 2346 0004 23F00703 		bic	r3, r3, #7
 2347 0008 43F00103 		orr	r3, r3, #1
 2348 000c 1360     		str	r3, [r2]
1246:Drivers/STM32L4xx_HAL_Driver/Src/stm32l4xx_hal_pwr_ex.c **** 
1247:Drivers/STM32L4xx_HAL_Driver/Src/stm32l4xx_hal_pwr_ex.c ****   /* Set SLEEPDEEP bit of Cortex System Control Register */
1248:Drivers/STM32L4xx_HAL_Driver/Src/stm32l4xx_hal_pwr_ex.c ****   SET_BIT(SCB->SCR, ((uint32_t)SCB_SCR_SLEEPDEEP_Msk));
 2349              		.loc 1 1248 3 view .LVU523
 2350 000e 0A4A     		ldr	r2, .L209+4
 2351 0010 1369     		ldr	r3, [r2, #16]
 2352 0012 43F00403 		orr	r3, r3, #4
 2353 0016 1361     		str	r3, [r2, #16]
1249:Drivers/STM32L4xx_HAL_Driver/Src/stm32l4xx_hal_pwr_ex.c **** 
1250:Drivers/STM32L4xx_HAL_Driver/Src/stm32l4xx_hal_pwr_ex.c ****   /* Select Stop mode entry --------------------------------------------------*/
1251:Drivers/STM32L4xx_HAL_Driver/Src/stm32l4xx_hal_pwr_ex.c ****   if(STOPEntry == PWR_STOPENTRY_WFI)
 2354              		.loc 1 1251 3 view .LVU524
 2355              		.loc 1 1251 5 is_stmt 0 view .LVU525
 2356 0018 0128     		cmp	r0, #1
 2357 001a 08D0     		beq	.L208
1252:Drivers/STM32L4xx_HAL_Driver/Src/stm32l4xx_hal_pwr_ex.c ****   {
1253:Drivers/STM32L4xx_HAL_Driver/Src/stm32l4xx_hal_pwr_ex.c ****     /* Request Wait For Interrupt */
1254:Drivers/STM32L4xx_HAL_Driver/Src/stm32l4xx_hal_pwr_ex.c ****     __WFI();
1255:Drivers/STM32L4xx_HAL_Driver/Src/stm32l4xx_hal_pwr_ex.c ****   }
1256:Drivers/STM32L4xx_HAL_Driver/Src/stm32l4xx_hal_pwr_ex.c ****   else
1257:Drivers/STM32L4xx_HAL_Driver/Src/stm32l4xx_hal_pwr_ex.c ****   {
ARM GAS  C:\Users\gigig\AppData\Local\Temp\cczsSJ5Z.s 			page 66


1258:Drivers/STM32L4xx_HAL_Driver/Src/stm32l4xx_hal_pwr_ex.c ****     /* Request Wait For Event */
1259:Drivers/STM32L4xx_HAL_Driver/Src/stm32l4xx_hal_pwr_ex.c ****     __SEV();
 2358              		.loc 1 1259 5 is_stmt 1 view .LVU526
 2359              		.syntax unified
 2360              	@ 1259 "Drivers/STM32L4xx_HAL_Driver/Src/stm32l4xx_hal_pwr_ex.c" 1
 2361 001c 40BF     		sev
 2362              	@ 0 "" 2
1260:Drivers/STM32L4xx_HAL_Driver/Src/stm32l4xx_hal_pwr_ex.c ****     __WFE();
 2363              		.loc 1 1260 5 view .LVU527
 2364              	@ 1260 "Drivers/STM32L4xx_HAL_Driver/Src/stm32l4xx_hal_pwr_ex.c" 1
 2365 001e 20BF     		wfe
 2366              	@ 0 "" 2
1261:Drivers/STM32L4xx_HAL_Driver/Src/stm32l4xx_hal_pwr_ex.c ****     __WFE();
 2367              		.loc 1 1261 5 view .LVU528
 2368              	@ 1261 "Drivers/STM32L4xx_HAL_Driver/Src/stm32l4xx_hal_pwr_ex.c" 1
 2369 0020 20BF     		wfe
 2370              	@ 0 "" 2
 2371              		.thumb
 2372              		.syntax unified
 2373              	.L207:
1262:Drivers/STM32L4xx_HAL_Driver/Src/stm32l4xx_hal_pwr_ex.c ****   }
1263:Drivers/STM32L4xx_HAL_Driver/Src/stm32l4xx_hal_pwr_ex.c **** 
1264:Drivers/STM32L4xx_HAL_Driver/Src/stm32l4xx_hal_pwr_ex.c ****   /* Reset SLEEPDEEP bit of Cortex System Control Register */
1265:Drivers/STM32L4xx_HAL_Driver/Src/stm32l4xx_hal_pwr_ex.c ****   CLEAR_BIT(SCB->SCR, ((uint32_t)SCB_SCR_SLEEPDEEP_Msk));
 2374              		.loc 1 1265 3 view .LVU529
 2375 0022 054A     		ldr	r2, .L209+4
 2376 0024 1369     		ldr	r3, [r2, #16]
 2377 0026 23F00403 		bic	r3, r3, #4
 2378 002a 1361     		str	r3, [r2, #16]
1266:Drivers/STM32L4xx_HAL_Driver/Src/stm32l4xx_hal_pwr_ex.c **** }
 2379              		.loc 1 1266 1 is_stmt 0 view .LVU530
 2380 002c 7047     		bx	lr
 2381              	.L208:
1254:Drivers/STM32L4xx_HAL_Driver/Src/stm32l4xx_hal_pwr_ex.c ****   }
 2382              		.loc 1 1254 5 is_stmt 1 view .LVU531
 2383              		.syntax unified
 2384              	@ 1254 "Drivers/STM32L4xx_HAL_Driver/Src/stm32l4xx_hal_pwr_ex.c" 1
 2385 002e 30BF     		wfi
 2386              	@ 0 "" 2
 2387              		.thumb
 2388              		.syntax unified
 2389 0030 F7E7     		b	.L207
 2390              	.L210:
 2391 0032 00BF     		.align	2
 2392              	.L209:
 2393 0034 00700040 		.word	1073770496
 2394 0038 00ED00E0 		.word	-536810240
 2395              		.cfi_endproc
 2396              	.LFE167:
 2398              		.section	.text.HAL_PWREx_EnterSTOP2Mode,"ax",%progbits
 2399              		.align	1
 2400              		.global	HAL_PWREx_EnterSTOP2Mode
 2401              		.syntax unified
 2402              		.thumb
 2403              		.thumb_func
 2405              	HAL_PWREx_EnterSTOP2Mode:
 2406              	.LVL146:
ARM GAS  C:\Users\gigig\AppData\Local\Temp\cczsSJ5Z.s 			page 67


 2407              	.LFB168:
1267:Drivers/STM32L4xx_HAL_Driver/Src/stm32l4xx_hal_pwr_ex.c **** 
1268:Drivers/STM32L4xx_HAL_Driver/Src/stm32l4xx_hal_pwr_ex.c **** 
1269:Drivers/STM32L4xx_HAL_Driver/Src/stm32l4xx_hal_pwr_ex.c **** /**
1270:Drivers/STM32L4xx_HAL_Driver/Src/stm32l4xx_hal_pwr_ex.c ****   * @brief Enter Stop 2 mode.
1271:Drivers/STM32L4xx_HAL_Driver/Src/stm32l4xx_hal_pwr_ex.c ****   * @note  In Stop 2 mode, only low power voltage regulator is ON.
1272:Drivers/STM32L4xx_HAL_Driver/Src/stm32l4xx_hal_pwr_ex.c ****   * @note  In Stop 2 mode, all I/O pins keep the same state as in Run mode.
1273:Drivers/STM32L4xx_HAL_Driver/Src/stm32l4xx_hal_pwr_ex.c ****   * @note  All clocks in the VCORE domain are stopped, the PLL, the MSI,
1274:Drivers/STM32L4xx_HAL_Driver/Src/stm32l4xx_hal_pwr_ex.c ****   *        the HSI and the HSE oscillators are disabled. Some peripherals with wakeup capability
1275:Drivers/STM32L4xx_HAL_Driver/Src/stm32l4xx_hal_pwr_ex.c ****   *        (LCD, LPTIM1, I2C3 and LPUART) can switch on the HSI to receive a frame, and switch off 
1276:Drivers/STM32L4xx_HAL_Driver/Src/stm32l4xx_hal_pwr_ex.c ****   *        receiving the frame if it is not a wakeup frame. In this case the HSI clock is propagate
1277:Drivers/STM32L4xx_HAL_Driver/Src/stm32l4xx_hal_pwr_ex.c ****   *        to the peripheral requesting it.
1278:Drivers/STM32L4xx_HAL_Driver/Src/stm32l4xx_hal_pwr_ex.c ****   *        SRAM1, SRAM2 and register contents are preserved.
1279:Drivers/STM32L4xx_HAL_Driver/Src/stm32l4xx_hal_pwr_ex.c ****   *        SRAM3 content is preserved depending on RRSTP bit setting (not available on all devices)
1280:Drivers/STM32L4xx_HAL_Driver/Src/stm32l4xx_hal_pwr_ex.c ****   *        The BOR is available.
1281:Drivers/STM32L4xx_HAL_Driver/Src/stm32l4xx_hal_pwr_ex.c ****   *        The voltage regulator is set in low-power mode but LPR bit must be cleared to enter stop
1282:Drivers/STM32L4xx_HAL_Driver/Src/stm32l4xx_hal_pwr_ex.c ****   *        Otherwise, Stop 1 mode is entered.
1283:Drivers/STM32L4xx_HAL_Driver/Src/stm32l4xx_hal_pwr_ex.c ****   * @note  When exiting Stop 2 mode by issuing an interrupt or a wakeup event,
1284:Drivers/STM32L4xx_HAL_Driver/Src/stm32l4xx_hal_pwr_ex.c ****   *         the HSI RC oscillator is selected as system clock if STOPWUCK bit in RCC_CFGR register
1285:Drivers/STM32L4xx_HAL_Driver/Src/stm32l4xx_hal_pwr_ex.c ****   *         is set; the MSI oscillator is selected if STOPWUCK is cleared.
1286:Drivers/STM32L4xx_HAL_Driver/Src/stm32l4xx_hal_pwr_ex.c ****   * @param STOPEntry  specifies if Stop mode in entered with WFI or WFE instruction.
1287:Drivers/STM32L4xx_HAL_Driver/Src/stm32l4xx_hal_pwr_ex.c ****   *          This parameter can be one of the following values:
1288:Drivers/STM32L4xx_HAL_Driver/Src/stm32l4xx_hal_pwr_ex.c ****   *            @arg @ref PWR_STOPENTRY_WFI  Enter Stop mode with WFI instruction
1289:Drivers/STM32L4xx_HAL_Driver/Src/stm32l4xx_hal_pwr_ex.c ****   *            @arg @ref PWR_STOPENTRY_WFE  Enter Stop mode with WFE instruction
1290:Drivers/STM32L4xx_HAL_Driver/Src/stm32l4xx_hal_pwr_ex.c ****   * @retval None
1291:Drivers/STM32L4xx_HAL_Driver/Src/stm32l4xx_hal_pwr_ex.c ****   */
1292:Drivers/STM32L4xx_HAL_Driver/Src/stm32l4xx_hal_pwr_ex.c **** void HAL_PWREx_EnterSTOP2Mode(uint8_t STOPEntry)
1293:Drivers/STM32L4xx_HAL_Driver/Src/stm32l4xx_hal_pwr_ex.c **** {
 2408              		.loc 1 1293 1 view -0
 2409              		.cfi_startproc
 2410              		@ args = 0, pretend = 0, frame = 0
 2411              		@ frame_needed = 0, uses_anonymous_args = 0
 2412              		@ link register save eliminated.
1294:Drivers/STM32L4xx_HAL_Driver/Src/stm32l4xx_hal_pwr_ex.c ****   /* Check the parameter */
1295:Drivers/STM32L4xx_HAL_Driver/Src/stm32l4xx_hal_pwr_ex.c ****   assert_param(IS_PWR_STOP_ENTRY(STOPEntry));
 2413              		.loc 1 1295 3 view .LVU533
1296:Drivers/STM32L4xx_HAL_Driver/Src/stm32l4xx_hal_pwr_ex.c **** 
1297:Drivers/STM32L4xx_HAL_Driver/Src/stm32l4xx_hal_pwr_ex.c ****   /* Set Stop mode 2 */
1298:Drivers/STM32L4xx_HAL_Driver/Src/stm32l4xx_hal_pwr_ex.c ****   MODIFY_REG(PWR->CR1, PWR_CR1_LPMS, PWR_CR1_LPMS_STOP2);
 2414              		.loc 1 1298 3 view .LVU534
 2415 0000 0C4A     		ldr	r2, .L215
 2416 0002 1368     		ldr	r3, [r2]
 2417 0004 23F00703 		bic	r3, r3, #7
 2418 0008 43F00203 		orr	r3, r3, #2
 2419 000c 1360     		str	r3, [r2]
1299:Drivers/STM32L4xx_HAL_Driver/Src/stm32l4xx_hal_pwr_ex.c **** 
1300:Drivers/STM32L4xx_HAL_Driver/Src/stm32l4xx_hal_pwr_ex.c ****   /* Set SLEEPDEEP bit of Cortex System Control Register */
1301:Drivers/STM32L4xx_HAL_Driver/Src/stm32l4xx_hal_pwr_ex.c ****   SET_BIT(SCB->SCR, ((uint32_t)SCB_SCR_SLEEPDEEP_Msk));
 2420              		.loc 1 1301 3 view .LVU535
 2421 000e 0A4A     		ldr	r2, .L215+4
 2422 0010 1369     		ldr	r3, [r2, #16]
 2423 0012 43F00403 		orr	r3, r3, #4
 2424 0016 1361     		str	r3, [r2, #16]
1302:Drivers/STM32L4xx_HAL_Driver/Src/stm32l4xx_hal_pwr_ex.c **** 
1303:Drivers/STM32L4xx_HAL_Driver/Src/stm32l4xx_hal_pwr_ex.c ****   /* Select Stop mode entry --------------------------------------------------*/
1304:Drivers/STM32L4xx_HAL_Driver/Src/stm32l4xx_hal_pwr_ex.c ****   if(STOPEntry == PWR_STOPENTRY_WFI)
 2425              		.loc 1 1304 3 view .LVU536
ARM GAS  C:\Users\gigig\AppData\Local\Temp\cczsSJ5Z.s 			page 68


 2426              		.loc 1 1304 5 is_stmt 0 view .LVU537
 2427 0018 0128     		cmp	r0, #1
 2428 001a 08D0     		beq	.L214
1305:Drivers/STM32L4xx_HAL_Driver/Src/stm32l4xx_hal_pwr_ex.c ****   {
1306:Drivers/STM32L4xx_HAL_Driver/Src/stm32l4xx_hal_pwr_ex.c ****     /* Request Wait For Interrupt */
1307:Drivers/STM32L4xx_HAL_Driver/Src/stm32l4xx_hal_pwr_ex.c ****     __WFI();
1308:Drivers/STM32L4xx_HAL_Driver/Src/stm32l4xx_hal_pwr_ex.c ****   }
1309:Drivers/STM32L4xx_HAL_Driver/Src/stm32l4xx_hal_pwr_ex.c ****   else
1310:Drivers/STM32L4xx_HAL_Driver/Src/stm32l4xx_hal_pwr_ex.c ****   {
1311:Drivers/STM32L4xx_HAL_Driver/Src/stm32l4xx_hal_pwr_ex.c ****     /* Request Wait For Event */
1312:Drivers/STM32L4xx_HAL_Driver/Src/stm32l4xx_hal_pwr_ex.c ****     __SEV();
 2429              		.loc 1 1312 5 is_stmt 1 view .LVU538
 2430              		.syntax unified
 2431              	@ 1312 "Drivers/STM32L4xx_HAL_Driver/Src/stm32l4xx_hal_pwr_ex.c" 1
 2432 001c 40BF     		sev
 2433              	@ 0 "" 2
1313:Drivers/STM32L4xx_HAL_Driver/Src/stm32l4xx_hal_pwr_ex.c ****     __WFE();
 2434              		.loc 1 1313 5 view .LVU539
 2435              	@ 1313 "Drivers/STM32L4xx_HAL_Driver/Src/stm32l4xx_hal_pwr_ex.c" 1
 2436 001e 20BF     		wfe
 2437              	@ 0 "" 2
1314:Drivers/STM32L4xx_HAL_Driver/Src/stm32l4xx_hal_pwr_ex.c ****     __WFE();
 2438              		.loc 1 1314 5 view .LVU540
 2439              	@ 1314 "Drivers/STM32L4xx_HAL_Driver/Src/stm32l4xx_hal_pwr_ex.c" 1
 2440 0020 20BF     		wfe
 2441              	@ 0 "" 2
 2442              		.thumb
 2443              		.syntax unified
 2444              	.L213:
1315:Drivers/STM32L4xx_HAL_Driver/Src/stm32l4xx_hal_pwr_ex.c ****   }
1316:Drivers/STM32L4xx_HAL_Driver/Src/stm32l4xx_hal_pwr_ex.c **** 
1317:Drivers/STM32L4xx_HAL_Driver/Src/stm32l4xx_hal_pwr_ex.c ****   /* Reset SLEEPDEEP bit of Cortex System Control Register */
1318:Drivers/STM32L4xx_HAL_Driver/Src/stm32l4xx_hal_pwr_ex.c ****   CLEAR_BIT(SCB->SCR, ((uint32_t)SCB_SCR_SLEEPDEEP_Msk));
 2445              		.loc 1 1318 3 view .LVU541
 2446 0022 054A     		ldr	r2, .L215+4
 2447 0024 1369     		ldr	r3, [r2, #16]
 2448 0026 23F00403 		bic	r3, r3, #4
 2449 002a 1361     		str	r3, [r2, #16]
1319:Drivers/STM32L4xx_HAL_Driver/Src/stm32l4xx_hal_pwr_ex.c **** }
 2450              		.loc 1 1319 1 is_stmt 0 view .LVU542
 2451 002c 7047     		bx	lr
 2452              	.L214:
1307:Drivers/STM32L4xx_HAL_Driver/Src/stm32l4xx_hal_pwr_ex.c ****   }
 2453              		.loc 1 1307 5 is_stmt 1 view .LVU543
 2454              		.syntax unified
 2455              	@ 1307 "Drivers/STM32L4xx_HAL_Driver/Src/stm32l4xx_hal_pwr_ex.c" 1
 2456 002e 30BF     		wfi
 2457              	@ 0 "" 2
 2458              		.thumb
 2459              		.syntax unified
 2460 0030 F7E7     		b	.L213
 2461              	.L216:
 2462 0032 00BF     		.align	2
 2463              	.L215:
 2464 0034 00700040 		.word	1073770496
 2465 0038 00ED00E0 		.word	-536810240
 2466              		.cfi_endproc
ARM GAS  C:\Users\gigig\AppData\Local\Temp\cczsSJ5Z.s 			page 69


 2467              	.LFE168:
 2469              		.section	.text.HAL_PWREx_EnterSHUTDOWNMode,"ax",%progbits
 2470              		.align	1
 2471              		.global	HAL_PWREx_EnterSHUTDOWNMode
 2472              		.syntax unified
 2473              		.thumb
 2474              		.thumb_func
 2476              	HAL_PWREx_EnterSHUTDOWNMode:
 2477              	.LFB169:
1320:Drivers/STM32L4xx_HAL_Driver/Src/stm32l4xx_hal_pwr_ex.c **** 
1321:Drivers/STM32L4xx_HAL_Driver/Src/stm32l4xx_hal_pwr_ex.c **** 
1322:Drivers/STM32L4xx_HAL_Driver/Src/stm32l4xx_hal_pwr_ex.c **** 
1323:Drivers/STM32L4xx_HAL_Driver/Src/stm32l4xx_hal_pwr_ex.c **** 
1324:Drivers/STM32L4xx_HAL_Driver/Src/stm32l4xx_hal_pwr_ex.c **** 
1325:Drivers/STM32L4xx_HAL_Driver/Src/stm32l4xx_hal_pwr_ex.c **** /**
1326:Drivers/STM32L4xx_HAL_Driver/Src/stm32l4xx_hal_pwr_ex.c ****   * @brief Enter Shutdown mode.
1327:Drivers/STM32L4xx_HAL_Driver/Src/stm32l4xx_hal_pwr_ex.c ****   * @note  In Shutdown mode, the PLL, the HSI, the MSI, the LSI and the HSE oscillators are switche
1328:Drivers/STM32L4xx_HAL_Driver/Src/stm32l4xx_hal_pwr_ex.c ****   *        off. The voltage regulator is disabled and Vcore domain is powered off.
1329:Drivers/STM32L4xx_HAL_Driver/Src/stm32l4xx_hal_pwr_ex.c ****   *        SRAM1, SRAM2 and registers contents are lost except for registers in the Backup domain.
1330:Drivers/STM32L4xx_HAL_Driver/Src/stm32l4xx_hal_pwr_ex.c ****   *        The BOR is not available.
1331:Drivers/STM32L4xx_HAL_Driver/Src/stm32l4xx_hal_pwr_ex.c ****   * @note  The I/Os can be configured either with a pull-up or pull-down or can be kept in analog s
1332:Drivers/STM32L4xx_HAL_Driver/Src/stm32l4xx_hal_pwr_ex.c ****   * @retval None
1333:Drivers/STM32L4xx_HAL_Driver/Src/stm32l4xx_hal_pwr_ex.c ****   */
1334:Drivers/STM32L4xx_HAL_Driver/Src/stm32l4xx_hal_pwr_ex.c **** void HAL_PWREx_EnterSHUTDOWNMode(void)
1335:Drivers/STM32L4xx_HAL_Driver/Src/stm32l4xx_hal_pwr_ex.c **** {
 2478              		.loc 1 1335 1 view -0
 2479              		.cfi_startproc
 2480              		@ args = 0, pretend = 0, frame = 0
 2481              		@ frame_needed = 0, uses_anonymous_args = 0
 2482              		@ link register save eliminated.
1336:Drivers/STM32L4xx_HAL_Driver/Src/stm32l4xx_hal_pwr_ex.c **** 
1337:Drivers/STM32L4xx_HAL_Driver/Src/stm32l4xx_hal_pwr_ex.c ****   /* Set Shutdown mode */
1338:Drivers/STM32L4xx_HAL_Driver/Src/stm32l4xx_hal_pwr_ex.c ****   MODIFY_REG(PWR->CR1, PWR_CR1_LPMS, PWR_CR1_LPMS_SHUTDOWN);
 2483              		.loc 1 1338 3 view .LVU545
 2484 0000 064A     		ldr	r2, .L218
 2485 0002 1368     		ldr	r3, [r2]
 2486 0004 23F00703 		bic	r3, r3, #7
 2487 0008 43F00403 		orr	r3, r3, #4
 2488 000c 1360     		str	r3, [r2]
1339:Drivers/STM32L4xx_HAL_Driver/Src/stm32l4xx_hal_pwr_ex.c **** 
1340:Drivers/STM32L4xx_HAL_Driver/Src/stm32l4xx_hal_pwr_ex.c ****   /* Set SLEEPDEEP bit of Cortex System Control Register */
1341:Drivers/STM32L4xx_HAL_Driver/Src/stm32l4xx_hal_pwr_ex.c ****   SET_BIT(SCB->SCR, ((uint32_t)SCB_SCR_SLEEPDEEP_Msk));
 2489              		.loc 1 1341 3 view .LVU546
 2490 000e 044A     		ldr	r2, .L218+4
 2491 0010 1369     		ldr	r3, [r2, #16]
 2492 0012 43F00403 		orr	r3, r3, #4
 2493 0016 1361     		str	r3, [r2, #16]
1342:Drivers/STM32L4xx_HAL_Driver/Src/stm32l4xx_hal_pwr_ex.c **** 
1343:Drivers/STM32L4xx_HAL_Driver/Src/stm32l4xx_hal_pwr_ex.c **** /* This option is used to ensure that store operations are completed */
1344:Drivers/STM32L4xx_HAL_Driver/Src/stm32l4xx_hal_pwr_ex.c **** #if defined ( __CC_ARM)
1345:Drivers/STM32L4xx_HAL_Driver/Src/stm32l4xx_hal_pwr_ex.c ****   __force_stores();
1346:Drivers/STM32L4xx_HAL_Driver/Src/stm32l4xx_hal_pwr_ex.c **** #endif
1347:Drivers/STM32L4xx_HAL_Driver/Src/stm32l4xx_hal_pwr_ex.c ****   /* Request Wait For Interrupt */
1348:Drivers/STM32L4xx_HAL_Driver/Src/stm32l4xx_hal_pwr_ex.c ****   __WFI();
 2494              		.loc 1 1348 3 view .LVU547
 2495              		.syntax unified
 2496              	@ 1348 "Drivers/STM32L4xx_HAL_Driver/Src/stm32l4xx_hal_pwr_ex.c" 1
ARM GAS  C:\Users\gigig\AppData\Local\Temp\cczsSJ5Z.s 			page 70


 2497 0018 30BF     		wfi
 2498              	@ 0 "" 2
1349:Drivers/STM32L4xx_HAL_Driver/Src/stm32l4xx_hal_pwr_ex.c **** }
 2499              		.loc 1 1349 1 is_stmt 0 view .LVU548
 2500              		.thumb
 2501              		.syntax unified
 2502 001a 7047     		bx	lr
 2503              	.L219:
 2504              		.align	2
 2505              	.L218:
 2506 001c 00700040 		.word	1073770496
 2507 0020 00ED00E0 		.word	-536810240
 2508              		.cfi_endproc
 2509              	.LFE169:
 2511              		.section	.text.HAL_PWREx_PVM1Callback,"ax",%progbits
 2512              		.align	1
 2513              		.weak	HAL_PWREx_PVM1Callback
 2514              		.syntax unified
 2515              		.thumb
 2516              		.thumb_func
 2518              	HAL_PWREx_PVM1Callback:
 2519              	.LFB171:
1350:Drivers/STM32L4xx_HAL_Driver/Src/stm32l4xx_hal_pwr_ex.c **** 
1351:Drivers/STM32L4xx_HAL_Driver/Src/stm32l4xx_hal_pwr_ex.c **** 
1352:Drivers/STM32L4xx_HAL_Driver/Src/stm32l4xx_hal_pwr_ex.c **** 
1353:Drivers/STM32L4xx_HAL_Driver/Src/stm32l4xx_hal_pwr_ex.c **** 
1354:Drivers/STM32L4xx_HAL_Driver/Src/stm32l4xx_hal_pwr_ex.c **** /**
1355:Drivers/STM32L4xx_HAL_Driver/Src/stm32l4xx_hal_pwr_ex.c ****   * @brief This function handles the PWR PVD/PVMx interrupt request.
1356:Drivers/STM32L4xx_HAL_Driver/Src/stm32l4xx_hal_pwr_ex.c ****   * @note This API should be called under the PVD_PVM_IRQHandler().
1357:Drivers/STM32L4xx_HAL_Driver/Src/stm32l4xx_hal_pwr_ex.c ****   * @retval None
1358:Drivers/STM32L4xx_HAL_Driver/Src/stm32l4xx_hal_pwr_ex.c ****   */
1359:Drivers/STM32L4xx_HAL_Driver/Src/stm32l4xx_hal_pwr_ex.c **** void HAL_PWREx_PVD_PVM_IRQHandler(void)
1360:Drivers/STM32L4xx_HAL_Driver/Src/stm32l4xx_hal_pwr_ex.c **** {
1361:Drivers/STM32L4xx_HAL_Driver/Src/stm32l4xx_hal_pwr_ex.c ****   /* Check PWR exti flag */
1362:Drivers/STM32L4xx_HAL_Driver/Src/stm32l4xx_hal_pwr_ex.c ****   if(__HAL_PWR_PVD_EXTI_GET_FLAG() != 0x0U)
1363:Drivers/STM32L4xx_HAL_Driver/Src/stm32l4xx_hal_pwr_ex.c ****   {
1364:Drivers/STM32L4xx_HAL_Driver/Src/stm32l4xx_hal_pwr_ex.c ****     /* PWR PVD interrupt user callback */
1365:Drivers/STM32L4xx_HAL_Driver/Src/stm32l4xx_hal_pwr_ex.c ****     HAL_PWR_PVDCallback();
1366:Drivers/STM32L4xx_HAL_Driver/Src/stm32l4xx_hal_pwr_ex.c **** 
1367:Drivers/STM32L4xx_HAL_Driver/Src/stm32l4xx_hal_pwr_ex.c ****     /* Clear PVD exti pending bit */
1368:Drivers/STM32L4xx_HAL_Driver/Src/stm32l4xx_hal_pwr_ex.c ****     __HAL_PWR_PVD_EXTI_CLEAR_FLAG();
1369:Drivers/STM32L4xx_HAL_Driver/Src/stm32l4xx_hal_pwr_ex.c ****   }
1370:Drivers/STM32L4xx_HAL_Driver/Src/stm32l4xx_hal_pwr_ex.c ****   /* Next, successively check PVMx exti flags */
1371:Drivers/STM32L4xx_HAL_Driver/Src/stm32l4xx_hal_pwr_ex.c **** #if defined(PWR_CR2_PVME1)
1372:Drivers/STM32L4xx_HAL_Driver/Src/stm32l4xx_hal_pwr_ex.c ****   if(__HAL_PWR_PVM1_EXTI_GET_FLAG() != 0x0U)
1373:Drivers/STM32L4xx_HAL_Driver/Src/stm32l4xx_hal_pwr_ex.c ****   {
1374:Drivers/STM32L4xx_HAL_Driver/Src/stm32l4xx_hal_pwr_ex.c ****     /* PWR PVM1 interrupt user callback */
