ARM GAS  C:\Users\gigig\AppData\Local\Temp\cc3V8I1v.s 			page 1


   1              		.cpu cortex-m4
   2              		.arch armv7e-m
   3              		.fpu fpv4-sp-d16
   4              		.eabi_attribute 27, 1
   5              		.eabi_attribute 28, 1
   6              		.eabi_attribute 20, 1
   7              		.eabi_attribute 21, 1
   8              		.eabi_attribute 23, 3
   9              		.eabi_attribute 24, 1
  10              		.eabi_attribute 25, 1
  11              		.eabi_attribute 26, 1
  12              		.eabi_attribute 30, 1
  13              		.eabi_attribute 34, 1
  14              		.eabi_attribute 18, 4
  15              		.file	"stm32l4xx_hal_gpio.c"
  16              		.text
  17              	.Ltext0:
  18              		.cfi_sections	.debug_frame
  19              		.file 1 "Drivers/STM32L4xx_HAL_Driver/Src/stm32l4xx_hal_gpio.c"
  20              		.section	.text.HAL_GPIO_Init,"ax",%progbits
  21              		.align	1
  22              		.global	HAL_GPIO_Init
  23              		.syntax unified
  24              		.thumb
  25              		.thumb_func
  27              	HAL_GPIO_Init:
  28              	.LVL0:
  29              	.LFB132:
   1:Drivers/STM32L4xx_HAL_Driver/Src/stm32l4xx_hal_gpio.c **** /**
   2:Drivers/STM32L4xx_HAL_Driver/Src/stm32l4xx_hal_gpio.c ****   ******************************************************************************
   3:Drivers/STM32L4xx_HAL_Driver/Src/stm32l4xx_hal_gpio.c ****   * @file    stm32l4xx_hal_gpio.c
   4:Drivers/STM32L4xx_HAL_Driver/Src/stm32l4xx_hal_gpio.c ****   * @author  MCD Application Team
   5:Drivers/STM32L4xx_HAL_Driver/Src/stm32l4xx_hal_gpio.c ****   * @brief   GPIO HAL module driver.
   6:Drivers/STM32L4xx_HAL_Driver/Src/stm32l4xx_hal_gpio.c ****   *          This file provides firmware functions to manage the following
   7:Drivers/STM32L4xx_HAL_Driver/Src/stm32l4xx_hal_gpio.c ****   *          functionalities of the General Purpose Input/Output (GPIO) peripheral:
   8:Drivers/STM32L4xx_HAL_Driver/Src/stm32l4xx_hal_gpio.c ****   *           + Initialization and de-initialization functions
   9:Drivers/STM32L4xx_HAL_Driver/Src/stm32l4xx_hal_gpio.c ****   *           + IO operation functions
  10:Drivers/STM32L4xx_HAL_Driver/Src/stm32l4xx_hal_gpio.c ****   *
  11:Drivers/STM32L4xx_HAL_Driver/Src/stm32l4xx_hal_gpio.c ****   ******************************************************************************
  12:Drivers/STM32L4xx_HAL_Driver/Src/stm32l4xx_hal_gpio.c ****   * @attention
  13:Drivers/STM32L4xx_HAL_Driver/Src/stm32l4xx_hal_gpio.c ****   *
  14:Drivers/STM32L4xx_HAL_Driver/Src/stm32l4xx_hal_gpio.c ****   * Copyright (c) 2017 STMicroelectronics.
  15:Drivers/STM32L4xx_HAL_Driver/Src/stm32l4xx_hal_gpio.c ****   * All rights reserved.
  16:Drivers/STM32L4xx_HAL_Driver/Src/stm32l4xx_hal_gpio.c ****   *
  17:Drivers/STM32L4xx_HAL_Driver/Src/stm32l4xx_hal_gpio.c ****   * This software is licensed under terms that can be found in the LICENSE file
  18:Drivers/STM32L4xx_HAL_Driver/Src/stm32l4xx_hal_gpio.c ****   * in the root directory of this software component.
  19:Drivers/STM32L4xx_HAL_Driver/Src/stm32l4xx_hal_gpio.c ****   * If no LICENSE file comes with this software, it is provided AS-IS.
  20:Drivers/STM32L4xx_HAL_Driver/Src/stm32l4xx_hal_gpio.c ****   *
  21:Drivers/STM32L4xx_HAL_Driver/Src/stm32l4xx_hal_gpio.c ****   ******************************************************************************
  22:Drivers/STM32L4xx_HAL_Driver/Src/stm32l4xx_hal_gpio.c ****   @verbatim
  23:Drivers/STM32L4xx_HAL_Driver/Src/stm32l4xx_hal_gpio.c ****   ==============================================================================
  24:Drivers/STM32L4xx_HAL_Driver/Src/stm32l4xx_hal_gpio.c ****                     ##### GPIO Peripheral features #####
  25:Drivers/STM32L4xx_HAL_Driver/Src/stm32l4xx_hal_gpio.c ****   ==============================================================================
  26:Drivers/STM32L4xx_HAL_Driver/Src/stm32l4xx_hal_gpio.c ****   [..]
  27:Drivers/STM32L4xx_HAL_Driver/Src/stm32l4xx_hal_gpio.c ****     (+) Each port bit of the general-purpose I/O (GPIO) ports can be individually
  28:Drivers/STM32L4xx_HAL_Driver/Src/stm32l4xx_hal_gpio.c ****         configured by software in several modes:
  29:Drivers/STM32L4xx_HAL_Driver/Src/stm32l4xx_hal_gpio.c ****         (++) Input mode
ARM GAS  C:\Users\gigig\AppData\Local\Temp\cc3V8I1v.s 			page 2


  30:Drivers/STM32L4xx_HAL_Driver/Src/stm32l4xx_hal_gpio.c ****         (++) Analog mode
  31:Drivers/STM32L4xx_HAL_Driver/Src/stm32l4xx_hal_gpio.c ****         (++) Output mode
  32:Drivers/STM32L4xx_HAL_Driver/Src/stm32l4xx_hal_gpio.c ****         (++) Alternate function mode
  33:Drivers/STM32L4xx_HAL_Driver/Src/stm32l4xx_hal_gpio.c ****         (++) External interrupt/event lines
  34:Drivers/STM32L4xx_HAL_Driver/Src/stm32l4xx_hal_gpio.c **** 
  35:Drivers/STM32L4xx_HAL_Driver/Src/stm32l4xx_hal_gpio.c ****     (+) During and just after reset, the alternate functions and external interrupt
  36:Drivers/STM32L4xx_HAL_Driver/Src/stm32l4xx_hal_gpio.c ****         lines are not active and the I/O ports are configured in input floating mode.
  37:Drivers/STM32L4xx_HAL_Driver/Src/stm32l4xx_hal_gpio.c **** 
  38:Drivers/STM32L4xx_HAL_Driver/Src/stm32l4xx_hal_gpio.c ****     (+) All GPIO pins have weak internal pull-up and pull-down resistors, which can be
  39:Drivers/STM32L4xx_HAL_Driver/Src/stm32l4xx_hal_gpio.c ****         activated or not.
  40:Drivers/STM32L4xx_HAL_Driver/Src/stm32l4xx_hal_gpio.c **** 
  41:Drivers/STM32L4xx_HAL_Driver/Src/stm32l4xx_hal_gpio.c ****     (+) In Output or Alternate mode, each IO can be configured on open-drain or push-pull
  42:Drivers/STM32L4xx_HAL_Driver/Src/stm32l4xx_hal_gpio.c ****         type and the IO speed can be selected depending on the VDD value.
  43:Drivers/STM32L4xx_HAL_Driver/Src/stm32l4xx_hal_gpio.c **** 
  44:Drivers/STM32L4xx_HAL_Driver/Src/stm32l4xx_hal_gpio.c ****     (+) The microcontroller IO pins are connected to onboard peripherals/modules through a
  45:Drivers/STM32L4xx_HAL_Driver/Src/stm32l4xx_hal_gpio.c ****         multiplexer that allows only one peripheral alternate function (AF) connected
  46:Drivers/STM32L4xx_HAL_Driver/Src/stm32l4xx_hal_gpio.c ****        to an IO pin at a time. In this way, there can be no conflict between peripherals
  47:Drivers/STM32L4xx_HAL_Driver/Src/stm32l4xx_hal_gpio.c ****        sharing the same IO pin.
  48:Drivers/STM32L4xx_HAL_Driver/Src/stm32l4xx_hal_gpio.c **** 
  49:Drivers/STM32L4xx_HAL_Driver/Src/stm32l4xx_hal_gpio.c ****     (+) All ports have external interrupt/event capability. To use external interrupt
  50:Drivers/STM32L4xx_HAL_Driver/Src/stm32l4xx_hal_gpio.c ****         lines, the port must be configured in input mode. All available GPIO pins are
  51:Drivers/STM32L4xx_HAL_Driver/Src/stm32l4xx_hal_gpio.c ****         connected to the 16 external interrupt/event lines from EXTI0 to EXTI15.
  52:Drivers/STM32L4xx_HAL_Driver/Src/stm32l4xx_hal_gpio.c **** 
  53:Drivers/STM32L4xx_HAL_Driver/Src/stm32l4xx_hal_gpio.c ****     (+) The external interrupt/event controller consists of up to 39 edge detectors
  54:Drivers/STM32L4xx_HAL_Driver/Src/stm32l4xx_hal_gpio.c ****         (16 lines are connected to GPIO) for generating event/interrupt requests (each
  55:Drivers/STM32L4xx_HAL_Driver/Src/stm32l4xx_hal_gpio.c ****         input line can be independently configured to select the type (interrupt or event)
  56:Drivers/STM32L4xx_HAL_Driver/Src/stm32l4xx_hal_gpio.c ****         and the corresponding trigger event (rising or falling or both). Each line can
  57:Drivers/STM32L4xx_HAL_Driver/Src/stm32l4xx_hal_gpio.c ****         also be masked independently.
  58:Drivers/STM32L4xx_HAL_Driver/Src/stm32l4xx_hal_gpio.c **** 
  59:Drivers/STM32L4xx_HAL_Driver/Src/stm32l4xx_hal_gpio.c ****                      ##### How to use this driver #####
  60:Drivers/STM32L4xx_HAL_Driver/Src/stm32l4xx_hal_gpio.c ****   ==============================================================================
  61:Drivers/STM32L4xx_HAL_Driver/Src/stm32l4xx_hal_gpio.c ****   [..]
  62:Drivers/STM32L4xx_HAL_Driver/Src/stm32l4xx_hal_gpio.c ****     (#) Enable the GPIO AHB clock using the following function: __HAL_RCC_GPIOx_CLK_ENABLE().
  63:Drivers/STM32L4xx_HAL_Driver/Src/stm32l4xx_hal_gpio.c **** 
  64:Drivers/STM32L4xx_HAL_Driver/Src/stm32l4xx_hal_gpio.c ****     (#) Configure the GPIO pin(s) using HAL_GPIO_Init().
  65:Drivers/STM32L4xx_HAL_Driver/Src/stm32l4xx_hal_gpio.c ****         (++) Configure the IO mode using "Mode" member from GPIO_InitTypeDef structure
  66:Drivers/STM32L4xx_HAL_Driver/Src/stm32l4xx_hal_gpio.c ****         (++) Activate Pull-up, Pull-down resistor using "Pull" member from GPIO_InitTypeDef
  67:Drivers/STM32L4xx_HAL_Driver/Src/stm32l4xx_hal_gpio.c ****              structure.
  68:Drivers/STM32L4xx_HAL_Driver/Src/stm32l4xx_hal_gpio.c ****         (++) In case of Output or alternate function mode selection: the speed is
  69:Drivers/STM32L4xx_HAL_Driver/Src/stm32l4xx_hal_gpio.c ****              configured through "Speed" member from GPIO_InitTypeDef structure.
  70:Drivers/STM32L4xx_HAL_Driver/Src/stm32l4xx_hal_gpio.c ****         (++) In alternate mode is selection, the alternate function connected to the IO
  71:Drivers/STM32L4xx_HAL_Driver/Src/stm32l4xx_hal_gpio.c ****              is configured through "Alternate" member from GPIO_InitTypeDef structure.
  72:Drivers/STM32L4xx_HAL_Driver/Src/stm32l4xx_hal_gpio.c ****         (++) Analog mode is required when a pin is to be used as ADC channel
  73:Drivers/STM32L4xx_HAL_Driver/Src/stm32l4xx_hal_gpio.c ****              or DAC output.
  74:Drivers/STM32L4xx_HAL_Driver/Src/stm32l4xx_hal_gpio.c ****         (++) In case of external interrupt/event selection the "Mode" member from
  75:Drivers/STM32L4xx_HAL_Driver/Src/stm32l4xx_hal_gpio.c ****              GPIO_InitTypeDef structure select the type (interrupt or event) and
  76:Drivers/STM32L4xx_HAL_Driver/Src/stm32l4xx_hal_gpio.c ****              the corresponding trigger event (rising or falling or both).
  77:Drivers/STM32L4xx_HAL_Driver/Src/stm32l4xx_hal_gpio.c **** 
  78:Drivers/STM32L4xx_HAL_Driver/Src/stm32l4xx_hal_gpio.c ****     (#) In case of external interrupt/event mode selection, configure NVIC IRQ priority
  79:Drivers/STM32L4xx_HAL_Driver/Src/stm32l4xx_hal_gpio.c ****         mapped to the EXTI line using HAL_NVIC_SetPriority() and enable it using
  80:Drivers/STM32L4xx_HAL_Driver/Src/stm32l4xx_hal_gpio.c ****         HAL_NVIC_EnableIRQ().
  81:Drivers/STM32L4xx_HAL_Driver/Src/stm32l4xx_hal_gpio.c **** 
  82:Drivers/STM32L4xx_HAL_Driver/Src/stm32l4xx_hal_gpio.c ****     (#) To get the level of a pin configured in input mode use HAL_GPIO_ReadPin().
  83:Drivers/STM32L4xx_HAL_Driver/Src/stm32l4xx_hal_gpio.c **** 
  84:Drivers/STM32L4xx_HAL_Driver/Src/stm32l4xx_hal_gpio.c ****     (#) To set/reset the level of a pin configured in output mode use
  85:Drivers/STM32L4xx_HAL_Driver/Src/stm32l4xx_hal_gpio.c ****         HAL_GPIO_WritePin()/HAL_GPIO_TogglePin().
  86:Drivers/STM32L4xx_HAL_Driver/Src/stm32l4xx_hal_gpio.c **** 
ARM GAS  C:\Users\gigig\AppData\Local\Temp\cc3V8I1v.s 			page 3


  87:Drivers/STM32L4xx_HAL_Driver/Src/stm32l4xx_hal_gpio.c ****    (#) To lock pin configuration until next reset use HAL_GPIO_LockPin().
  88:Drivers/STM32L4xx_HAL_Driver/Src/stm32l4xx_hal_gpio.c **** 
  89:Drivers/STM32L4xx_HAL_Driver/Src/stm32l4xx_hal_gpio.c ****     (#) During and just after reset, the alternate functions are not
  90:Drivers/STM32L4xx_HAL_Driver/Src/stm32l4xx_hal_gpio.c ****         active and the GPIO pins are configured in input floating mode (except JTAG
  91:Drivers/STM32L4xx_HAL_Driver/Src/stm32l4xx_hal_gpio.c ****         pins).
  92:Drivers/STM32L4xx_HAL_Driver/Src/stm32l4xx_hal_gpio.c **** 
  93:Drivers/STM32L4xx_HAL_Driver/Src/stm32l4xx_hal_gpio.c ****     (#) The LSE oscillator pins OSC32_IN and OSC32_OUT can be used as general purpose
  94:Drivers/STM32L4xx_HAL_Driver/Src/stm32l4xx_hal_gpio.c ****         (PC14 and PC15, respectively) when the LSE oscillator is off. The LSE has
  95:Drivers/STM32L4xx_HAL_Driver/Src/stm32l4xx_hal_gpio.c ****         priority over the GPIO function.
  96:Drivers/STM32L4xx_HAL_Driver/Src/stm32l4xx_hal_gpio.c **** 
  97:Drivers/STM32L4xx_HAL_Driver/Src/stm32l4xx_hal_gpio.c ****     (#) The HSE oscillator pins OSC_IN/OSC_OUT can be used as
  98:Drivers/STM32L4xx_HAL_Driver/Src/stm32l4xx_hal_gpio.c ****         general purpose PH0 and PH1, respectively, when the HSE oscillator is off.
  99:Drivers/STM32L4xx_HAL_Driver/Src/stm32l4xx_hal_gpio.c ****         The HSE has priority over the GPIO function.
 100:Drivers/STM32L4xx_HAL_Driver/Src/stm32l4xx_hal_gpio.c **** 
 101:Drivers/STM32L4xx_HAL_Driver/Src/stm32l4xx_hal_gpio.c ****   @endverbatim
 102:Drivers/STM32L4xx_HAL_Driver/Src/stm32l4xx_hal_gpio.c ****   ******************************************************************************
 103:Drivers/STM32L4xx_HAL_Driver/Src/stm32l4xx_hal_gpio.c ****   */
 104:Drivers/STM32L4xx_HAL_Driver/Src/stm32l4xx_hal_gpio.c **** 
 105:Drivers/STM32L4xx_HAL_Driver/Src/stm32l4xx_hal_gpio.c **** /* Includes ------------------------------------------------------------------*/
 106:Drivers/STM32L4xx_HAL_Driver/Src/stm32l4xx_hal_gpio.c **** #include "stm32l4xx_hal.h"
 107:Drivers/STM32L4xx_HAL_Driver/Src/stm32l4xx_hal_gpio.c **** 
 108:Drivers/STM32L4xx_HAL_Driver/Src/stm32l4xx_hal_gpio.c **** /** @addtogroup STM32L4xx_HAL_Driver
 109:Drivers/STM32L4xx_HAL_Driver/Src/stm32l4xx_hal_gpio.c ****   * @{
 110:Drivers/STM32L4xx_HAL_Driver/Src/stm32l4xx_hal_gpio.c ****   */
 111:Drivers/STM32L4xx_HAL_Driver/Src/stm32l4xx_hal_gpio.c **** 
 112:Drivers/STM32L4xx_HAL_Driver/Src/stm32l4xx_hal_gpio.c **** /** @defgroup GPIO GPIO
 113:Drivers/STM32L4xx_HAL_Driver/Src/stm32l4xx_hal_gpio.c ****   * @brief GPIO HAL module driver
 114:Drivers/STM32L4xx_HAL_Driver/Src/stm32l4xx_hal_gpio.c ****   * @{
 115:Drivers/STM32L4xx_HAL_Driver/Src/stm32l4xx_hal_gpio.c ****   */
 116:Drivers/STM32L4xx_HAL_Driver/Src/stm32l4xx_hal_gpio.c **** /** MISRA C:2012 deviation rule has been granted for following rules:
 117:Drivers/STM32L4xx_HAL_Driver/Src/stm32l4xx_hal_gpio.c ****   * Rule-12.2 - Medium: RHS argument is in interval [0,INF] which is out of
 118:Drivers/STM32L4xx_HAL_Driver/Src/stm32l4xx_hal_gpio.c ****   * range of the shift operator in following API :
 119:Drivers/STM32L4xx_HAL_Driver/Src/stm32l4xx_hal_gpio.c ****   * HAL_GPIO_Init
 120:Drivers/STM32L4xx_HAL_Driver/Src/stm32l4xx_hal_gpio.c ****   * HAL_GPIO_DeInit
 121:Drivers/STM32L4xx_HAL_Driver/Src/stm32l4xx_hal_gpio.c ****   */
 122:Drivers/STM32L4xx_HAL_Driver/Src/stm32l4xx_hal_gpio.c **** 
 123:Drivers/STM32L4xx_HAL_Driver/Src/stm32l4xx_hal_gpio.c **** #ifdef HAL_GPIO_MODULE_ENABLED
 124:Drivers/STM32L4xx_HAL_Driver/Src/stm32l4xx_hal_gpio.c **** 
 125:Drivers/STM32L4xx_HAL_Driver/Src/stm32l4xx_hal_gpio.c **** /* Private typedef -----------------------------------------------------------*/
 126:Drivers/STM32L4xx_HAL_Driver/Src/stm32l4xx_hal_gpio.c **** /* Private defines -----------------------------------------------------------*/
 127:Drivers/STM32L4xx_HAL_Driver/Src/stm32l4xx_hal_gpio.c **** /** @addtogroup GPIO_Private_Defines GPIO Private Defines
 128:Drivers/STM32L4xx_HAL_Driver/Src/stm32l4xx_hal_gpio.c ****   * @{
 129:Drivers/STM32L4xx_HAL_Driver/Src/stm32l4xx_hal_gpio.c ****   */
 130:Drivers/STM32L4xx_HAL_Driver/Src/stm32l4xx_hal_gpio.c **** #define GPIO_NUMBER           (16u)
 131:Drivers/STM32L4xx_HAL_Driver/Src/stm32l4xx_hal_gpio.c **** /**
 132:Drivers/STM32L4xx_HAL_Driver/Src/stm32l4xx_hal_gpio.c ****   * @}
 133:Drivers/STM32L4xx_HAL_Driver/Src/stm32l4xx_hal_gpio.c ****   */
 134:Drivers/STM32L4xx_HAL_Driver/Src/stm32l4xx_hal_gpio.c **** 
 135:Drivers/STM32L4xx_HAL_Driver/Src/stm32l4xx_hal_gpio.c **** /* Private macros ------------------------------------------------------------*/
 136:Drivers/STM32L4xx_HAL_Driver/Src/stm32l4xx_hal_gpio.c **** /* Private variables ---------------------------------------------------------*/
 137:Drivers/STM32L4xx_HAL_Driver/Src/stm32l4xx_hal_gpio.c **** /* Private function prototypes -----------------------------------------------*/
 138:Drivers/STM32L4xx_HAL_Driver/Src/stm32l4xx_hal_gpio.c **** /* Exported functions --------------------------------------------------------*/
 139:Drivers/STM32L4xx_HAL_Driver/Src/stm32l4xx_hal_gpio.c **** 
 140:Drivers/STM32L4xx_HAL_Driver/Src/stm32l4xx_hal_gpio.c **** /** @defgroup GPIO_Exported_Functions GPIO Exported Functions
 141:Drivers/STM32L4xx_HAL_Driver/Src/stm32l4xx_hal_gpio.c ****   * @{
 142:Drivers/STM32L4xx_HAL_Driver/Src/stm32l4xx_hal_gpio.c ****   */
 143:Drivers/STM32L4xx_HAL_Driver/Src/stm32l4xx_hal_gpio.c **** 
ARM GAS  C:\Users\gigig\AppData\Local\Temp\cc3V8I1v.s 			page 4


 144:Drivers/STM32L4xx_HAL_Driver/Src/stm32l4xx_hal_gpio.c **** /** @defgroup GPIO_Exported_Functions_Group1 Initialization/de-initialization functions
 145:Drivers/STM32L4xx_HAL_Driver/Src/stm32l4xx_hal_gpio.c ****  *  @brief    Initialization and Configuration functions
 146:Drivers/STM32L4xx_HAL_Driver/Src/stm32l4xx_hal_gpio.c ****  *
 147:Drivers/STM32L4xx_HAL_Driver/Src/stm32l4xx_hal_gpio.c **** @verbatim
 148:Drivers/STM32L4xx_HAL_Driver/Src/stm32l4xx_hal_gpio.c ****  ===============================================================================
 149:Drivers/STM32L4xx_HAL_Driver/Src/stm32l4xx_hal_gpio.c ****               ##### Initialization and de-initialization functions #####
 150:Drivers/STM32L4xx_HAL_Driver/Src/stm32l4xx_hal_gpio.c ****  ===============================================================================
 151:Drivers/STM32L4xx_HAL_Driver/Src/stm32l4xx_hal_gpio.c **** 
 152:Drivers/STM32L4xx_HAL_Driver/Src/stm32l4xx_hal_gpio.c **** @endverbatim
 153:Drivers/STM32L4xx_HAL_Driver/Src/stm32l4xx_hal_gpio.c ****   * @{
 154:Drivers/STM32L4xx_HAL_Driver/Src/stm32l4xx_hal_gpio.c ****   */
 155:Drivers/STM32L4xx_HAL_Driver/Src/stm32l4xx_hal_gpio.c **** 
 156:Drivers/STM32L4xx_HAL_Driver/Src/stm32l4xx_hal_gpio.c **** /**
 157:Drivers/STM32L4xx_HAL_Driver/Src/stm32l4xx_hal_gpio.c ****   * @brief  Initialize the GPIOx peripheral according to the specified parameters in the GPIO_Init.
 158:Drivers/STM32L4xx_HAL_Driver/Src/stm32l4xx_hal_gpio.c ****   * @param  GPIOx where x can be (A..H) to select the GPIO peripheral for STM32L4 family
 159:Drivers/STM32L4xx_HAL_Driver/Src/stm32l4xx_hal_gpio.c ****   * @param  GPIO_Init pointer to a GPIO_InitTypeDef structure that contains
 160:Drivers/STM32L4xx_HAL_Driver/Src/stm32l4xx_hal_gpio.c ****   *         the configuration information for the specified GPIO peripheral.
 161:Drivers/STM32L4xx_HAL_Driver/Src/stm32l4xx_hal_gpio.c ****   * @retval None
 162:Drivers/STM32L4xx_HAL_Driver/Src/stm32l4xx_hal_gpio.c ****   */
 163:Drivers/STM32L4xx_HAL_Driver/Src/stm32l4xx_hal_gpio.c **** void HAL_GPIO_Init(GPIO_TypeDef  *GPIOx, GPIO_InitTypeDef *GPIO_Init)
 164:Drivers/STM32L4xx_HAL_Driver/Src/stm32l4xx_hal_gpio.c **** {
  30              		.loc 1 164 1 view -0
  31              		.cfi_startproc
  32              		@ args = 0, pretend = 0, frame = 8
  33              		@ frame_needed = 0, uses_anonymous_args = 0
  34              		.loc 1 164 1 is_stmt 0 view .LVU1
  35 0000 F0B5     		push	{r4, r5, r6, r7, lr}
  36              		.cfi_def_cfa_offset 20
  37              		.cfi_offset 4, -20
  38              		.cfi_offset 5, -16
  39              		.cfi_offset 6, -12
  40              		.cfi_offset 7, -8
  41              		.cfi_offset 14, -4
  42 0002 83B0     		sub	sp, sp, #12
  43              		.cfi_def_cfa_offset 32
 165:Drivers/STM32L4xx_HAL_Driver/Src/stm32l4xx_hal_gpio.c ****   uint32_t position = 0x00u;
  44              		.loc 1 165 3 is_stmt 1 view .LVU2
  45              	.LVL1:
 166:Drivers/STM32L4xx_HAL_Driver/Src/stm32l4xx_hal_gpio.c ****   uint32_t iocurrent;
  46              		.loc 1 166 3 view .LVU3
 167:Drivers/STM32L4xx_HAL_Driver/Src/stm32l4xx_hal_gpio.c ****   uint32_t temp;
  47              		.loc 1 167 3 view .LVU4
 168:Drivers/STM32L4xx_HAL_Driver/Src/stm32l4xx_hal_gpio.c **** 
 169:Drivers/STM32L4xx_HAL_Driver/Src/stm32l4xx_hal_gpio.c ****   /* Check the parameters */
 170:Drivers/STM32L4xx_HAL_Driver/Src/stm32l4xx_hal_gpio.c ****   assert_param(IS_GPIO_ALL_INSTANCE(GPIOx));
  48              		.loc 1 170 3 view .LVU5
 171:Drivers/STM32L4xx_HAL_Driver/Src/stm32l4xx_hal_gpio.c ****   assert_param(IS_GPIO_PIN(GPIO_Init->Pin));
  49              		.loc 1 171 3 view .LVU6
 172:Drivers/STM32L4xx_HAL_Driver/Src/stm32l4xx_hal_gpio.c ****   assert_param(IS_GPIO_MODE(GPIO_Init->Mode));
  50              		.loc 1 172 3 view .LVU7
 173:Drivers/STM32L4xx_HAL_Driver/Src/stm32l4xx_hal_gpio.c **** 
 174:Drivers/STM32L4xx_HAL_Driver/Src/stm32l4xx_hal_gpio.c ****   /* Configure the port pins */
 175:Drivers/STM32L4xx_HAL_Driver/Src/stm32l4xx_hal_gpio.c ****   while (((GPIO_Init->Pin) >> position) != 0x00u)
  51              		.loc 1 175 3 view .LVU8
 165:Drivers/STM32L4xx_HAL_Driver/Src/stm32l4xx_hal_gpio.c ****   uint32_t iocurrent;
  52              		.loc 1 165 12 is_stmt 0 view .LVU9
  53 0004 0023     		movs	r3, #0
ARM GAS  C:\Users\gigig\AppData\Local\Temp\cc3V8I1v.s 			page 5


  54              		.loc 1 175 9 view .LVU10
  55 0006 62E0     		b	.L2
  56              	.LVL2:
  57              	.L23:
 176:Drivers/STM32L4xx_HAL_Driver/Src/stm32l4xx_hal_gpio.c ****   {
 177:Drivers/STM32L4xx_HAL_Driver/Src/stm32l4xx_hal_gpio.c ****     /* Get current io position */
 178:Drivers/STM32L4xx_HAL_Driver/Src/stm32l4xx_hal_gpio.c ****     iocurrent = (GPIO_Init->Pin) & (1uL << position);
 179:Drivers/STM32L4xx_HAL_Driver/Src/stm32l4xx_hal_gpio.c **** 
 180:Drivers/STM32L4xx_HAL_Driver/Src/stm32l4xx_hal_gpio.c ****     if (iocurrent != 0x00u)
 181:Drivers/STM32L4xx_HAL_Driver/Src/stm32l4xx_hal_gpio.c ****     {
 182:Drivers/STM32L4xx_HAL_Driver/Src/stm32l4xx_hal_gpio.c ****       /*--------------------- GPIO Mode Configuration ------------------------*/
 183:Drivers/STM32L4xx_HAL_Driver/Src/stm32l4xx_hal_gpio.c ****       /* In case of Output or Alternate function mode selection */
 184:Drivers/STM32L4xx_HAL_Driver/Src/stm32l4xx_hal_gpio.c ****       if (((GPIO_Init->Mode & GPIO_MODE) == MODE_OUTPUT) || ((GPIO_Init->Mode & GPIO_MODE) == MODE_
 185:Drivers/STM32L4xx_HAL_Driver/Src/stm32l4xx_hal_gpio.c ****       {
 186:Drivers/STM32L4xx_HAL_Driver/Src/stm32l4xx_hal_gpio.c ****         /* Check the Speed parameter */
 187:Drivers/STM32L4xx_HAL_Driver/Src/stm32l4xx_hal_gpio.c ****         assert_param(IS_GPIO_SPEED(GPIO_Init->Speed));
  58              		.loc 1 187 9 is_stmt 1 view .LVU11
 188:Drivers/STM32L4xx_HAL_Driver/Src/stm32l4xx_hal_gpio.c **** 
 189:Drivers/STM32L4xx_HAL_Driver/Src/stm32l4xx_hal_gpio.c ****         /* Configure the IO Speed */
 190:Drivers/STM32L4xx_HAL_Driver/Src/stm32l4xx_hal_gpio.c ****         temp = GPIOx->OSPEEDR;
  59              		.loc 1 190 9 view .LVU12
  60              		.loc 1 190 14 is_stmt 0 view .LVU13
  61 0008 8568     		ldr	r5, [r0, #8]
  62              	.LVL3:
 191:Drivers/STM32L4xx_HAL_Driver/Src/stm32l4xx_hal_gpio.c ****         temp &= ~(GPIO_OSPEEDR_OSPEED0 << (position * 2u));
  63              		.loc 1 191 9 is_stmt 1 view .LVU14
  64              		.loc 1 191 53 is_stmt 0 view .LVU15
  65 000a 5E00     		lsls	r6, r3, #1
  66              		.loc 1 191 40 view .LVU16
  67 000c 0324     		movs	r4, #3
  68 000e B440     		lsls	r4, r4, r6
  69              		.loc 1 191 14 view .LVU17
  70 0010 25EA0405 		bic	r5, r5, r4
  71              	.LVL4:
 192:Drivers/STM32L4xx_HAL_Driver/Src/stm32l4xx_hal_gpio.c ****         temp |= (GPIO_Init->Speed << (position * 2u));
  72              		.loc 1 192 9 is_stmt 1 view .LVU18
  73              		.loc 1 192 27 is_stmt 0 view .LVU19
  74 0014 CC68     		ldr	r4, [r1, #12]
  75              		.loc 1 192 35 view .LVU20
  76 0016 B440     		lsls	r4, r4, r6
  77              		.loc 1 192 14 view .LVU21
  78 0018 2C43     		orrs	r4, r4, r5
  79              	.LVL5:
 193:Drivers/STM32L4xx_HAL_Driver/Src/stm32l4xx_hal_gpio.c ****         GPIOx->OSPEEDR = temp;
  80              		.loc 1 193 9 is_stmt 1 view .LVU22
  81              		.loc 1 193 24 is_stmt 0 view .LVU23
  82 001a 8460     		str	r4, [r0, #8]
 194:Drivers/STM32L4xx_HAL_Driver/Src/stm32l4xx_hal_gpio.c **** 
 195:Drivers/STM32L4xx_HAL_Driver/Src/stm32l4xx_hal_gpio.c ****         /* Configure the IO Output Type */
 196:Drivers/STM32L4xx_HAL_Driver/Src/stm32l4xx_hal_gpio.c ****         temp = GPIOx->OTYPER;
  83              		.loc 1 196 9 is_stmt 1 view .LVU24
  84              		.loc 1 196 14 is_stmt 0 view .LVU25
  85 001c 4568     		ldr	r5, [r0, #4]
  86              	.LVL6:
 197:Drivers/STM32L4xx_HAL_Driver/Src/stm32l4xx_hal_gpio.c ****         temp &= ~(GPIO_OTYPER_OT0 << position) ;
  87              		.loc 1 197 9 is_stmt 1 view .LVU26
  88              		.loc 1 197 14 is_stmt 0 view .LVU27
ARM GAS  C:\Users\gigig\AppData\Local\Temp\cc3V8I1v.s 			page 6


  89 001e 25EA0C05 		bic	r5, r5, ip
  90              	.LVL7:
 198:Drivers/STM32L4xx_HAL_Driver/Src/stm32l4xx_hal_gpio.c ****         temp |= (((GPIO_Init->Mode & OUTPUT_TYPE) >> OUTPUT_TYPE_Pos) << position);
  91              		.loc 1 198 9 is_stmt 1 view .LVU28
  92              		.loc 1 198 29 is_stmt 0 view .LVU29
  93 0022 4C68     		ldr	r4, [r1, #4]
  94              		.loc 1 198 51 view .LVU30
  95 0024 C4F30014 		ubfx	r4, r4, #4, #1
  96              		.loc 1 198 71 view .LVU31
  97 0028 9C40     		lsls	r4, r4, r3
  98              		.loc 1 198 14 view .LVU32
  99 002a 2C43     		orrs	r4, r4, r5
 100              	.LVL8:
 199:Drivers/STM32L4xx_HAL_Driver/Src/stm32l4xx_hal_gpio.c ****         GPIOx->OTYPER = temp;
 101              		.loc 1 199 9 is_stmt 1 view .LVU33
 102              		.loc 1 199 23 is_stmt 0 view .LVU34
 103 002c 4460     		str	r4, [r0, #4]
 104 002e 60E0     		b	.L4
 105              	.LVL9:
 106              	.L24:
 200:Drivers/STM32L4xx_HAL_Driver/Src/stm32l4xx_hal_gpio.c ****       }
 201:Drivers/STM32L4xx_HAL_Driver/Src/stm32l4xx_hal_gpio.c **** 
 202:Drivers/STM32L4xx_HAL_Driver/Src/stm32l4xx_hal_gpio.c **** #if defined(STM32L471xx) || defined(STM32L475xx) || defined(STM32L476xx) || defined(STM32L485xx) ||
 203:Drivers/STM32L4xx_HAL_Driver/Src/stm32l4xx_hal_gpio.c **** 
 204:Drivers/STM32L4xx_HAL_Driver/Src/stm32l4xx_hal_gpio.c ****       /* In case of Analog mode, check if ADC control mode is selected */
 205:Drivers/STM32L4xx_HAL_Driver/Src/stm32l4xx_hal_gpio.c ****       if((GPIO_Init->Mode & GPIO_MODE_ANALOG) == GPIO_MODE_ANALOG)
 206:Drivers/STM32L4xx_HAL_Driver/Src/stm32l4xx_hal_gpio.c ****       {
 207:Drivers/STM32L4xx_HAL_Driver/Src/stm32l4xx_hal_gpio.c ****         /* Configure the IO Output Type */
 208:Drivers/STM32L4xx_HAL_Driver/Src/stm32l4xx_hal_gpio.c ****         temp = GPIOx->ASCR;
 209:Drivers/STM32L4xx_HAL_Driver/Src/stm32l4xx_hal_gpio.c ****         temp &= ~(GPIO_ASCR_ASC0 << position) ;
 210:Drivers/STM32L4xx_HAL_Driver/Src/stm32l4xx_hal_gpio.c ****         temp |= (((GPIO_Init->Mode & GPIO_MODE_ANALOG_ADC_CONTROL) >> 3) << position);
 211:Drivers/STM32L4xx_HAL_Driver/Src/stm32l4xx_hal_gpio.c ****         GPIOx->ASCR = temp;
 212:Drivers/STM32L4xx_HAL_Driver/Src/stm32l4xx_hal_gpio.c ****       }
 213:Drivers/STM32L4xx_HAL_Driver/Src/stm32l4xx_hal_gpio.c **** 
 214:Drivers/STM32L4xx_HAL_Driver/Src/stm32l4xx_hal_gpio.c **** #endif /* STM32L471xx || STM32L475xx || STM32L476xx || STM32L485xx || STM32L486xx */
 215:Drivers/STM32L4xx_HAL_Driver/Src/stm32l4xx_hal_gpio.c **** 
 216:Drivers/STM32L4xx_HAL_Driver/Src/stm32l4xx_hal_gpio.c ****       /* Activate the Pull-up or Pull down resistor for the current IO */
 217:Drivers/STM32L4xx_HAL_Driver/Src/stm32l4xx_hal_gpio.c ****       if ((GPIO_Init->Mode & GPIO_MODE) != MODE_ANALOG)
 218:Drivers/STM32L4xx_HAL_Driver/Src/stm32l4xx_hal_gpio.c ****       {
 219:Drivers/STM32L4xx_HAL_Driver/Src/stm32l4xx_hal_gpio.c ****         /* Check the Pull parameter */
 220:Drivers/STM32L4xx_HAL_Driver/Src/stm32l4xx_hal_gpio.c ****         assert_param(IS_GPIO_PULL(GPIO_Init->Pull));
 221:Drivers/STM32L4xx_HAL_Driver/Src/stm32l4xx_hal_gpio.c **** 
 222:Drivers/STM32L4xx_HAL_Driver/Src/stm32l4xx_hal_gpio.c ****         temp = GPIOx->PUPDR;
 223:Drivers/STM32L4xx_HAL_Driver/Src/stm32l4xx_hal_gpio.c ****         temp &= ~(GPIO_PUPDR_PUPD0 << (position * 2U));
 224:Drivers/STM32L4xx_HAL_Driver/Src/stm32l4xx_hal_gpio.c ****         temp |= ((GPIO_Init->Pull) << (position * 2U));
 225:Drivers/STM32L4xx_HAL_Driver/Src/stm32l4xx_hal_gpio.c ****         GPIOx->PUPDR = temp;
 226:Drivers/STM32L4xx_HAL_Driver/Src/stm32l4xx_hal_gpio.c ****       }
 227:Drivers/STM32L4xx_HAL_Driver/Src/stm32l4xx_hal_gpio.c **** 
 228:Drivers/STM32L4xx_HAL_Driver/Src/stm32l4xx_hal_gpio.c ****       /* In case of Alternate function mode selection */
 229:Drivers/STM32L4xx_HAL_Driver/Src/stm32l4xx_hal_gpio.c ****       if ((GPIO_Init->Mode & GPIO_MODE) == MODE_AF)
 230:Drivers/STM32L4xx_HAL_Driver/Src/stm32l4xx_hal_gpio.c ****       {
 231:Drivers/STM32L4xx_HAL_Driver/Src/stm32l4xx_hal_gpio.c ****         /* Check the Alternate function parameters */
 232:Drivers/STM32L4xx_HAL_Driver/Src/stm32l4xx_hal_gpio.c ****         assert_param(IS_GPIO_AF_INSTANCE(GPIOx));
 107              		.loc 1 232 9 is_stmt 1 view .LVU35
 233:Drivers/STM32L4xx_HAL_Driver/Src/stm32l4xx_hal_gpio.c ****         assert_param(IS_GPIO_AF(GPIO_Init->Alternate));
 108              		.loc 1 233 9 view .LVU36
 234:Drivers/STM32L4xx_HAL_Driver/Src/stm32l4xx_hal_gpio.c **** 
ARM GAS  C:\Users\gigig\AppData\Local\Temp\cc3V8I1v.s 			page 7


 235:Drivers/STM32L4xx_HAL_Driver/Src/stm32l4xx_hal_gpio.c ****         /* Configure Alternate function mapped with the current IO */
 236:Drivers/STM32L4xx_HAL_Driver/Src/stm32l4xx_hal_gpio.c ****         temp = GPIOx->AFR[position >> 3u];
 109              		.loc 1 236 9 view .LVU37
 110              		.loc 1 236 36 is_stmt 0 view .LVU38
 111 0030 DD08     		lsrs	r5, r3, #3
 112              		.loc 1 236 14 view .LVU39
 113 0032 0835     		adds	r5, r5, #8
 114 0034 50F82540 		ldr	r4, [r0, r5, lsl #2]
 115              	.LVL10:
 237:Drivers/STM32L4xx_HAL_Driver/Src/stm32l4xx_hal_gpio.c ****         temp &= ~(0xFu << ((position & 0x07u) * 4u));
 116              		.loc 1 237 9 is_stmt 1 view .LVU40
 117              		.loc 1 237 38 is_stmt 0 view .LVU41
 118 0038 03F0070C 		and	ip, r3, #7
 119              		.loc 1 237 47 view .LVU42
 120 003c 4FEA8C0C 		lsl	ip, ip, #2
 121              		.loc 1 237 24 view .LVU43
 122 0040 4FF00F0E 		mov	lr, #15
 123 0044 0EFA0CFE 		lsl	lr, lr, ip
 124              		.loc 1 237 14 view .LVU44
 125 0048 24EA0E0E 		bic	lr, r4, lr
 126              	.LVL11:
 238:Drivers/STM32L4xx_HAL_Driver/Src/stm32l4xx_hal_gpio.c ****         temp |= ((GPIO_Init->Alternate) << ((position & 0x07u) * 4u));
 127              		.loc 1 238 9 is_stmt 1 view .LVU45
 128              		.loc 1 238 28 is_stmt 0 view .LVU46
 129 004c 0C69     		ldr	r4, [r1, #16]
 130              		.loc 1 238 41 view .LVU47
 131 004e 04FA0CF4 		lsl	r4, r4, ip
 132              		.loc 1 238 14 view .LVU48
 133 0052 44EA0E04 		orr	r4, r4, lr
 134              	.LVL12:
 239:Drivers/STM32L4xx_HAL_Driver/Src/stm32l4xx_hal_gpio.c ****         GPIOx->AFR[position >> 3u] = temp;
 135              		.loc 1 239 9 is_stmt 1 view .LVU49
 136              		.loc 1 239 36 is_stmt 0 view .LVU50
 137 0056 40F82540 		str	r4, [r0, r5, lsl #2]
 138 005a 61E0     		b	.L6
 139              	.LVL13:
 140              	.L25:
 240:Drivers/STM32L4xx_HAL_Driver/Src/stm32l4xx_hal_gpio.c ****       }
 241:Drivers/STM32L4xx_HAL_Driver/Src/stm32l4xx_hal_gpio.c **** 
 242:Drivers/STM32L4xx_HAL_Driver/Src/stm32l4xx_hal_gpio.c ****       /* Configure IO Direction mode (Input, Output, Alternate or Analog) */
 243:Drivers/STM32L4xx_HAL_Driver/Src/stm32l4xx_hal_gpio.c ****       temp = GPIOx->MODER;
 244:Drivers/STM32L4xx_HAL_Driver/Src/stm32l4xx_hal_gpio.c ****       temp &= ~(GPIO_MODER_MODE0 << (position * 2u));
 245:Drivers/STM32L4xx_HAL_Driver/Src/stm32l4xx_hal_gpio.c ****       temp |= ((GPIO_Init->Mode & GPIO_MODE) << (position * 2u));
 246:Drivers/STM32L4xx_HAL_Driver/Src/stm32l4xx_hal_gpio.c ****       GPIOx->MODER = temp;
 247:Drivers/STM32L4xx_HAL_Driver/Src/stm32l4xx_hal_gpio.c **** 
 248:Drivers/STM32L4xx_HAL_Driver/Src/stm32l4xx_hal_gpio.c ****       /*--------------------- EXTI Mode Configuration ------------------------*/
 249:Drivers/STM32L4xx_HAL_Driver/Src/stm32l4xx_hal_gpio.c ****       /* Configure the External Interrupt or event for the current IO */
 250:Drivers/STM32L4xx_HAL_Driver/Src/stm32l4xx_hal_gpio.c ****       if ((GPIO_Init->Mode & EXTI_MODE) != 0x00u)
 251:Drivers/STM32L4xx_HAL_Driver/Src/stm32l4xx_hal_gpio.c ****       {
 252:Drivers/STM32L4xx_HAL_Driver/Src/stm32l4xx_hal_gpio.c ****         /* Enable SYSCFG Clock */
 253:Drivers/STM32L4xx_HAL_Driver/Src/stm32l4xx_hal_gpio.c ****         __HAL_RCC_SYSCFG_CLK_ENABLE();
 254:Drivers/STM32L4xx_HAL_Driver/Src/stm32l4xx_hal_gpio.c **** 
 255:Drivers/STM32L4xx_HAL_Driver/Src/stm32l4xx_hal_gpio.c ****         temp = SYSCFG->EXTICR[position >> 2u];
 256:Drivers/STM32L4xx_HAL_Driver/Src/stm32l4xx_hal_gpio.c ****         temp &= ~(0x0FuL << (4u * (position & 0x03u)));
 257:Drivers/STM32L4xx_HAL_Driver/Src/stm32l4xx_hal_gpio.c ****         temp |= (GPIO_GET_INDEX(GPIOx) << (4u * (position & 0x03u)));
 141              		.loc 1 257 18 discriminator 15 view .LVU51
 142 005c 0724     		movs	r4, #7
ARM GAS  C:\Users\gigig\AppData\Local\Temp\cc3V8I1v.s 			page 8


 143 005e 00E0     		b	.L7
 144              	.L13:
 145              		.loc 1 257 18 discriminator 2 view .LVU52
 146 0060 0024     		movs	r4, #0
 147              	.L7:
 148              		.loc 1 257 40 discriminator 32 view .LVU53
 149 0062 04FA0EF4 		lsl	r4, r4, lr
 150              		.loc 1 257 14 discriminator 32 view .LVU54
 151 0066 2C43     		orrs	r4, r4, r5
 152              	.LVL14:
 258:Drivers/STM32L4xx_HAL_Driver/Src/stm32l4xx_hal_gpio.c ****         SYSCFG->EXTICR[position >> 2u] = temp;
 153              		.loc 1 258 9 is_stmt 1 view .LVU55
 154              		.loc 1 258 40 is_stmt 0 view .LVU56
 155 0068 0CF1020C 		add	ip, ip, #2
 156 006c 5C4D     		ldr	r5, .L26
 157 006e 45F82C40 		str	r4, [r5, ip, lsl #2]
 259:Drivers/STM32L4xx_HAL_Driver/Src/stm32l4xx_hal_gpio.c **** 
 260:Drivers/STM32L4xx_HAL_Driver/Src/stm32l4xx_hal_gpio.c ****         /* Clear Rising Falling edge configuration */
 261:Drivers/STM32L4xx_HAL_Driver/Src/stm32l4xx_hal_gpio.c ****         temp = EXTI->RTSR1;
 158              		.loc 1 261 9 is_stmt 1 view .LVU57
 159              		.loc 1 261 14 is_stmt 0 view .LVU58
 160 0072 5C4C     		ldr	r4, .L26+4
 161              	.LVL15:
 162              		.loc 1 261 14 view .LVU59
 163 0074 A568     		ldr	r5, [r4, #8]
 164              	.LVL16:
 262:Drivers/STM32L4xx_HAL_Driver/Src/stm32l4xx_hal_gpio.c ****         temp &= ~(iocurrent);
 165              		.loc 1 262 9 is_stmt 1 view .LVU60
 166              		.loc 1 262 17 is_stmt 0 view .LVU61
 167 0076 D443     		mvns	r4, r2
 168              		.loc 1 262 14 view .LVU62
 169 0078 25EA0206 		bic	r6, r5, r2
 170              	.LVL17:
 263:Drivers/STM32L4xx_HAL_Driver/Src/stm32l4xx_hal_gpio.c ****         if ((GPIO_Init->Mode & TRIGGER_RISING) != 0x00u)
 171              		.loc 1 263 9 is_stmt 1 view .LVU63
 172              		.loc 1 263 12 is_stmt 0 view .LVU64
 173 007c 4F68     		ldr	r7, [r1, #4]
 174 007e 17F4801F 		tst	r7, #1048576
 175 0082 01D0     		beq	.L8
 264:Drivers/STM32L4xx_HAL_Driver/Src/stm32l4xx_hal_gpio.c ****         {
 265:Drivers/STM32L4xx_HAL_Driver/Src/stm32l4xx_hal_gpio.c ****           temp |= iocurrent;
 176              		.loc 1 265 11 is_stmt 1 view .LVU65
 177              		.loc 1 265 16 is_stmt 0 view .LVU66
 178 0084 42EA0506 		orr	r6, r2, r5
 179              	.LVL18:
 180              	.L8:
 266:Drivers/STM32L4xx_HAL_Driver/Src/stm32l4xx_hal_gpio.c ****         }
 267:Drivers/STM32L4xx_HAL_Driver/Src/stm32l4xx_hal_gpio.c ****         EXTI->RTSR1 = temp;
 181              		.loc 1 267 9 is_stmt 1 view .LVU67
 182              		.loc 1 267 21 is_stmt 0 view .LVU68
 183 0088 564D     		ldr	r5, .L26+4
 184 008a AE60     		str	r6, [r5, #8]
 268:Drivers/STM32L4xx_HAL_Driver/Src/stm32l4xx_hal_gpio.c **** 
 269:Drivers/STM32L4xx_HAL_Driver/Src/stm32l4xx_hal_gpio.c ****         temp = EXTI->FTSR1;
 185              		.loc 1 269 9 is_stmt 1 view .LVU69
 186              		.loc 1 269 14 is_stmt 0 view .LVU70
 187 008c ED68     		ldr	r5, [r5, #12]
ARM GAS  C:\Users\gigig\AppData\Local\Temp\cc3V8I1v.s 			page 9


 188              	.LVL19:
 270:Drivers/STM32L4xx_HAL_Driver/Src/stm32l4xx_hal_gpio.c ****         temp &= ~(iocurrent);
 189              		.loc 1 270 9 is_stmt 1 view .LVU71
 190              		.loc 1 270 14 is_stmt 0 view .LVU72
 191 008e 04EA0506 		and	r6, r4, r5
 192              	.LVL20:
 271:Drivers/STM32L4xx_HAL_Driver/Src/stm32l4xx_hal_gpio.c ****         if ((GPIO_Init->Mode & TRIGGER_FALLING) != 0x00u)
 193              		.loc 1 271 9 is_stmt 1 view .LVU73
 194              		.loc 1 271 12 is_stmt 0 view .LVU74
 195 0092 4F68     		ldr	r7, [r1, #4]
 196 0094 17F4001F 		tst	r7, #2097152
 197 0098 01D0     		beq	.L9
 272:Drivers/STM32L4xx_HAL_Driver/Src/stm32l4xx_hal_gpio.c ****         {
 273:Drivers/STM32L4xx_HAL_Driver/Src/stm32l4xx_hal_gpio.c ****           temp |= iocurrent;
 198              		.loc 1 273 11 is_stmt 1 view .LVU75
 199              		.loc 1 273 16 is_stmt 0 view .LVU76
 200 009a 42EA0506 		orr	r6, r2, r5
 201              	.LVL21:
 202              	.L9:
 274:Drivers/STM32L4xx_HAL_Driver/Src/stm32l4xx_hal_gpio.c ****         }
 275:Drivers/STM32L4xx_HAL_Driver/Src/stm32l4xx_hal_gpio.c ****         EXTI->FTSR1 = temp;
 203              		.loc 1 275 9 is_stmt 1 view .LVU77
 204              		.loc 1 275 21 is_stmt 0 view .LVU78
 205 009e 514D     		ldr	r5, .L26+4
 206 00a0 EE60     		str	r6, [r5, #12]
 276:Drivers/STM32L4xx_HAL_Driver/Src/stm32l4xx_hal_gpio.c **** 
 277:Drivers/STM32L4xx_HAL_Driver/Src/stm32l4xx_hal_gpio.c ****         /* Clear EXTI line configuration */
 278:Drivers/STM32L4xx_HAL_Driver/Src/stm32l4xx_hal_gpio.c ****         temp = EXTI->EMR1;
 207              		.loc 1 278 9 is_stmt 1 view .LVU79
 208              		.loc 1 278 14 is_stmt 0 view .LVU80
 209 00a2 6D68     		ldr	r5, [r5, #4]
 210              	.LVL22:
 279:Drivers/STM32L4xx_HAL_Driver/Src/stm32l4xx_hal_gpio.c ****         temp &= ~(iocurrent);
 211              		.loc 1 279 9 is_stmt 1 view .LVU81
 212              		.loc 1 279 14 is_stmt 0 view .LVU82
 213 00a4 04EA0506 		and	r6, r4, r5
 214              	.LVL23:
 280:Drivers/STM32L4xx_HAL_Driver/Src/stm32l4xx_hal_gpio.c ****         if ((GPIO_Init->Mode & EXTI_EVT) != 0x00u)
 215              		.loc 1 280 9 is_stmt 1 view .LVU83
 216              		.loc 1 280 12 is_stmt 0 view .LVU84
 217 00a8 4F68     		ldr	r7, [r1, #4]
 218 00aa 17F4003F 		tst	r7, #131072
 219 00ae 01D0     		beq	.L10
 281:Drivers/STM32L4xx_HAL_Driver/Src/stm32l4xx_hal_gpio.c ****         {
 282:Drivers/STM32L4xx_HAL_Driver/Src/stm32l4xx_hal_gpio.c ****           temp |= iocurrent;
 220              		.loc 1 282 11 is_stmt 1 view .LVU85
 221              		.loc 1 282 16 is_stmt 0 view .LVU86
 222 00b0 42EA0506 		orr	r6, r2, r5
 223              	.LVL24:
 224              	.L10:
 283:Drivers/STM32L4xx_HAL_Driver/Src/stm32l4xx_hal_gpio.c ****         }
 284:Drivers/STM32L4xx_HAL_Driver/Src/stm32l4xx_hal_gpio.c ****         EXTI->EMR1 = temp;
 225              		.loc 1 284 9 is_stmt 1 view .LVU87
 226              		.loc 1 284 20 is_stmt 0 view .LVU88
 227 00b4 4B4D     		ldr	r5, .L26+4
 228 00b6 6E60     		str	r6, [r5, #4]
 285:Drivers/STM32L4xx_HAL_Driver/Src/stm32l4xx_hal_gpio.c **** 
ARM GAS  C:\Users\gigig\AppData\Local\Temp\cc3V8I1v.s 			page 10


 286:Drivers/STM32L4xx_HAL_Driver/Src/stm32l4xx_hal_gpio.c ****         temp = EXTI->IMR1;
 229              		.loc 1 286 9 is_stmt 1 view .LVU89
 230              		.loc 1 286 14 is_stmt 0 view .LVU90
 231 00b8 2D68     		ldr	r5, [r5]
 232              	.LVL25:
 287:Drivers/STM32L4xx_HAL_Driver/Src/stm32l4xx_hal_gpio.c ****         temp &= ~(iocurrent);
 233              		.loc 1 287 9 is_stmt 1 view .LVU91
 234              		.loc 1 287 14 is_stmt 0 view .LVU92
 235 00ba 2C40     		ands	r4, r4, r5
 236              	.LVL26:
 288:Drivers/STM32L4xx_HAL_Driver/Src/stm32l4xx_hal_gpio.c ****         if ((GPIO_Init->Mode & EXTI_IT) != 0x00u)
 237              		.loc 1 288 9 is_stmt 1 view .LVU93
 238              		.loc 1 288 23 is_stmt 0 view .LVU94
 239 00bc 4E68     		ldr	r6, [r1, #4]
 240              		.loc 1 288 12 view .LVU95
 241 00be 16F4803F 		tst	r6, #65536
 242 00c2 01D0     		beq	.L11
 289:Drivers/STM32L4xx_HAL_Driver/Src/stm32l4xx_hal_gpio.c ****         {
 290:Drivers/STM32L4xx_HAL_Driver/Src/stm32l4xx_hal_gpio.c ****           temp |= iocurrent;
 243              		.loc 1 290 11 is_stmt 1 view .LVU96
 244              		.loc 1 290 16 is_stmt 0 view .LVU97
 245 00c4 42EA0504 		orr	r4, r2, r5
 246              	.LVL27:
 247              	.L11:
 291:Drivers/STM32L4xx_HAL_Driver/Src/stm32l4xx_hal_gpio.c ****         }
 292:Drivers/STM32L4xx_HAL_Driver/Src/stm32l4xx_hal_gpio.c ****         EXTI->IMR1 = temp;
 248              		.loc 1 292 9 is_stmt 1 view .LVU98
 249              		.loc 1 292 20 is_stmt 0 view .LVU99
 250 00c8 464A     		ldr	r2, .L26+4
 251              	.LVL28:
 252              		.loc 1 292 20 view .LVU100
 253 00ca 1460     		str	r4, [r2]
 254              	.LVL29:
 255              	.L3:
 293:Drivers/STM32L4xx_HAL_Driver/Src/stm32l4xx_hal_gpio.c ****       }
 294:Drivers/STM32L4xx_HAL_Driver/Src/stm32l4xx_hal_gpio.c ****     }
 295:Drivers/STM32L4xx_HAL_Driver/Src/stm32l4xx_hal_gpio.c **** 
 296:Drivers/STM32L4xx_HAL_Driver/Src/stm32l4xx_hal_gpio.c ****     position++;
 256              		.loc 1 296 5 is_stmt 1 view .LVU101
 257              		.loc 1 296 13 is_stmt 0 view .LVU102
 258 00cc 0133     		adds	r3, r3, #1
 259              	.LVL30:
 260              	.L2:
 175:Drivers/STM32L4xx_HAL_Driver/Src/stm32l4xx_hal_gpio.c ****   {
 261              		.loc 1 175 41 is_stmt 1 view .LVU103
 175:Drivers/STM32L4xx_HAL_Driver/Src/stm32l4xx_hal_gpio.c ****   {
 262              		.loc 1 175 21 is_stmt 0 view .LVU104
 263 00ce 0A68     		ldr	r2, [r1]
 175:Drivers/STM32L4xx_HAL_Driver/Src/stm32l4xx_hal_gpio.c ****   {
 264              		.loc 1 175 41 view .LVU105
 265 00d0 32FA03F4 		lsrs	r4, r2, r3
 266 00d4 00F08180 		beq	.L22
 178:Drivers/STM32L4xx_HAL_Driver/Src/stm32l4xx_hal_gpio.c **** 
 267              		.loc 1 178 5 is_stmt 1 view .LVU106
 178:Drivers/STM32L4xx_HAL_Driver/Src/stm32l4xx_hal_gpio.c **** 
 268              		.loc 1 178 41 is_stmt 0 view .LVU107
 269 00d8 4FF0010C 		mov	ip, #1
ARM GAS  C:\Users\gigig\AppData\Local\Temp\cc3V8I1v.s 			page 11


 270 00dc 0CFA03FC 		lsl	ip, ip, r3
 271              	.LVL31:
 180:Drivers/STM32L4xx_HAL_Driver/Src/stm32l4xx_hal_gpio.c ****     {
 272              		.loc 1 180 5 is_stmt 1 view .LVU108
 180:Drivers/STM32L4xx_HAL_Driver/Src/stm32l4xx_hal_gpio.c ****     {
 273              		.loc 1 180 8 is_stmt 0 view .LVU109
 274 00e0 1CEA0202 		ands	r2, ip, r2
 275              	.LVL32:
 180:Drivers/STM32L4xx_HAL_Driver/Src/stm32l4xx_hal_gpio.c ****     {
 276              		.loc 1 180 8 view .LVU110
 277 00e4 F2D0     		beq	.L3
 184:Drivers/STM32L4xx_HAL_Driver/Src/stm32l4xx_hal_gpio.c ****       {
 278              		.loc 1 184 7 is_stmt 1 view .LVU111
 184:Drivers/STM32L4xx_HAL_Driver/Src/stm32l4xx_hal_gpio.c ****       {
 279              		.loc 1 184 22 is_stmt 0 view .LVU112
 280 00e6 4C68     		ldr	r4, [r1, #4]
 184:Drivers/STM32L4xx_HAL_Driver/Src/stm32l4xx_hal_gpio.c ****       {
 281              		.loc 1 184 29 view .LVU113
 282 00e8 04F00304 		and	r4, r4, #3
 184:Drivers/STM32L4xx_HAL_Driver/Src/stm32l4xx_hal_gpio.c ****       {
 283              		.loc 1 184 58 view .LVU114
 284 00ec 013C     		subs	r4, r4, #1
 184:Drivers/STM32L4xx_HAL_Driver/Src/stm32l4xx_hal_gpio.c ****       {
 285              		.loc 1 184 10 view .LVU115
 286 00ee 012C     		cmp	r4, #1
 287 00f0 8AD9     		bls	.L23
 288              	.L4:
 217:Drivers/STM32L4xx_HAL_Driver/Src/stm32l4xx_hal_gpio.c ****       {
 289              		.loc 1 217 7 is_stmt 1 view .LVU116
 217:Drivers/STM32L4xx_HAL_Driver/Src/stm32l4xx_hal_gpio.c ****       {
 290              		.loc 1 217 21 is_stmt 0 view .LVU117
 291 00f2 4C68     		ldr	r4, [r1, #4]
 217:Drivers/STM32L4xx_HAL_Driver/Src/stm32l4xx_hal_gpio.c ****       {
 292              		.loc 1 217 28 view .LVU118
 293 00f4 04F00304 		and	r4, r4, #3
 217:Drivers/STM32L4xx_HAL_Driver/Src/stm32l4xx_hal_gpio.c ****       {
 294              		.loc 1 217 10 view .LVU119
 295 00f8 032C     		cmp	r4, #3
 296 00fa 0CD0     		beq	.L5
 220:Drivers/STM32L4xx_HAL_Driver/Src/stm32l4xx_hal_gpio.c **** 
 297              		.loc 1 220 9 is_stmt 1 view .LVU120
 222:Drivers/STM32L4xx_HAL_Driver/Src/stm32l4xx_hal_gpio.c ****         temp &= ~(GPIO_PUPDR_PUPD0 << (position * 2U));
 298              		.loc 1 222 9 view .LVU121
 222:Drivers/STM32L4xx_HAL_Driver/Src/stm32l4xx_hal_gpio.c ****         temp &= ~(GPIO_PUPDR_PUPD0 << (position * 2U));
 299              		.loc 1 222 14 is_stmt 0 view .LVU122
 300 00fc C468     		ldr	r4, [r0, #12]
 301              	.LVL33:
 223:Drivers/STM32L4xx_HAL_Driver/Src/stm32l4xx_hal_gpio.c ****         temp |= ((GPIO_Init->Pull) << (position * 2U));
 302              		.loc 1 223 9 is_stmt 1 view .LVU123
 223:Drivers/STM32L4xx_HAL_Driver/Src/stm32l4xx_hal_gpio.c ****         temp |= ((GPIO_Init->Pull) << (position * 2U));
 303              		.loc 1 223 49 is_stmt 0 view .LVU124
 304 00fe 5D00     		lsls	r5, r3, #1
 223:Drivers/STM32L4xx_HAL_Driver/Src/stm32l4xx_hal_gpio.c ****         temp |= ((GPIO_Init->Pull) << (position * 2U));
 305              		.loc 1 223 36 view .LVU125
 306 0100 4FF0030C 		mov	ip, #3
 307 0104 0CFA05FC 		lsl	ip, ip, r5
 223:Drivers/STM32L4xx_HAL_Driver/Src/stm32l4xx_hal_gpio.c ****         temp |= ((GPIO_Init->Pull) << (position * 2U));
ARM GAS  C:\Users\gigig\AppData\Local\Temp\cc3V8I1v.s 			page 12


 308              		.loc 1 223 14 view .LVU126
 309 0108 24EA0C0C 		bic	ip, r4, ip
 310              	.LVL34:
 224:Drivers/STM32L4xx_HAL_Driver/Src/stm32l4xx_hal_gpio.c ****         GPIOx->PUPDR = temp;
 311              		.loc 1 224 9 is_stmt 1 view .LVU127
 224:Drivers/STM32L4xx_HAL_Driver/Src/stm32l4xx_hal_gpio.c ****         GPIOx->PUPDR = temp;
 312              		.loc 1 224 28 is_stmt 0 view .LVU128
 313 010c 8C68     		ldr	r4, [r1, #8]
 224:Drivers/STM32L4xx_HAL_Driver/Src/stm32l4xx_hal_gpio.c ****         GPIOx->PUPDR = temp;
 314              		.loc 1 224 36 view .LVU129
 315 010e AC40     		lsls	r4, r4, r5
 224:Drivers/STM32L4xx_HAL_Driver/Src/stm32l4xx_hal_gpio.c ****         GPIOx->PUPDR = temp;
 316              		.loc 1 224 14 view .LVU130
 317 0110 44EA0C04 		orr	r4, r4, ip
 318              	.LVL35:
 225:Drivers/STM32L4xx_HAL_Driver/Src/stm32l4xx_hal_gpio.c ****       }
 319              		.loc 1 225 9 is_stmt 1 view .LVU131
 225:Drivers/STM32L4xx_HAL_Driver/Src/stm32l4xx_hal_gpio.c ****       }
 320              		.loc 1 225 22 is_stmt 0 view .LVU132
 321 0114 C460     		str	r4, [r0, #12]
 322              	.LVL36:
 323              	.L5:
 229:Drivers/STM32L4xx_HAL_Driver/Src/stm32l4xx_hal_gpio.c ****       {
 324              		.loc 1 229 7 is_stmt 1 view .LVU133
 229:Drivers/STM32L4xx_HAL_Driver/Src/stm32l4xx_hal_gpio.c ****       {
 325              		.loc 1 229 21 is_stmt 0 view .LVU134
 326 0116 4C68     		ldr	r4, [r1, #4]
 229:Drivers/STM32L4xx_HAL_Driver/Src/stm32l4xx_hal_gpio.c ****       {
 327              		.loc 1 229 28 view .LVU135
 328 0118 04F00304 		and	r4, r4, #3
 229:Drivers/STM32L4xx_HAL_Driver/Src/stm32l4xx_hal_gpio.c ****       {
 329              		.loc 1 229 10 view .LVU136
 330 011c 022C     		cmp	r4, #2
 331 011e 87D0     		beq	.L24
 332              	.L6:
 243:Drivers/STM32L4xx_HAL_Driver/Src/stm32l4xx_hal_gpio.c ****       temp &= ~(GPIO_MODER_MODE0 << (position * 2u));
 333              		.loc 1 243 7 is_stmt 1 view .LVU137
 243:Drivers/STM32L4xx_HAL_Driver/Src/stm32l4xx_hal_gpio.c ****       temp &= ~(GPIO_MODER_MODE0 << (position * 2u));
 334              		.loc 1 243 12 is_stmt 0 view .LVU138
 335 0120 0468     		ldr	r4, [r0]
 336              	.LVL37:
 244:Drivers/STM32L4xx_HAL_Driver/Src/stm32l4xx_hal_gpio.c ****       temp |= ((GPIO_Init->Mode & GPIO_MODE) << (position * 2u));
 337              		.loc 1 244 7 is_stmt 1 view .LVU139
 244:Drivers/STM32L4xx_HAL_Driver/Src/stm32l4xx_hal_gpio.c ****       temp |= ((GPIO_Init->Mode & GPIO_MODE) << (position * 2u));
 338              		.loc 1 244 47 is_stmt 0 view .LVU140
 339 0122 4FEA430E 		lsl	lr, r3, #1
 244:Drivers/STM32L4xx_HAL_Driver/Src/stm32l4xx_hal_gpio.c ****       temp |= ((GPIO_Init->Mode & GPIO_MODE) << (position * 2u));
 340              		.loc 1 244 34 view .LVU141
 341 0126 4FF0030C 		mov	ip, #3
 342 012a 0CFA0EFC 		lsl	ip, ip, lr
 244:Drivers/STM32L4xx_HAL_Driver/Src/stm32l4xx_hal_gpio.c ****       temp |= ((GPIO_Init->Mode & GPIO_MODE) << (position * 2u));
 343              		.loc 1 244 12 view .LVU142
 344 012e 24EA0C0C 		bic	ip, r4, ip
 345              	.LVL38:
 245:Drivers/STM32L4xx_HAL_Driver/Src/stm32l4xx_hal_gpio.c ****       GPIOx->MODER = temp;
 346              		.loc 1 245 7 is_stmt 1 view .LVU143
 245:Drivers/STM32L4xx_HAL_Driver/Src/stm32l4xx_hal_gpio.c ****       GPIOx->MODER = temp;
ARM GAS  C:\Users\gigig\AppData\Local\Temp\cc3V8I1v.s 			page 13


 347              		.loc 1 245 26 is_stmt 0 view .LVU144
 348 0132 4C68     		ldr	r4, [r1, #4]
 245:Drivers/STM32L4xx_HAL_Driver/Src/stm32l4xx_hal_gpio.c ****       GPIOx->MODER = temp;
 349              		.loc 1 245 33 view .LVU145
 350 0134 04F00304 		and	r4, r4, #3
 245:Drivers/STM32L4xx_HAL_Driver/Src/stm32l4xx_hal_gpio.c ****       GPIOx->MODER = temp;
 351              		.loc 1 245 46 view .LVU146
 352 0138 04FA0EF4 		lsl	r4, r4, lr
 245:Drivers/STM32L4xx_HAL_Driver/Src/stm32l4xx_hal_gpio.c ****       GPIOx->MODER = temp;
 353              		.loc 1 245 12 view .LVU147
 354 013c 44EA0C04 		orr	r4, r4, ip
 355              	.LVL39:
 246:Drivers/STM32L4xx_HAL_Driver/Src/stm32l4xx_hal_gpio.c **** 
 356              		.loc 1 246 7 is_stmt 1 view .LVU148
 246:Drivers/STM32L4xx_HAL_Driver/Src/stm32l4xx_hal_gpio.c **** 
 357              		.loc 1 246 20 is_stmt 0 view .LVU149
 358 0140 0460     		str	r4, [r0]
 250:Drivers/STM32L4xx_HAL_Driver/Src/stm32l4xx_hal_gpio.c ****       {
 359              		.loc 1 250 7 is_stmt 1 view .LVU150
 250:Drivers/STM32L4xx_HAL_Driver/Src/stm32l4xx_hal_gpio.c ****       {
 360              		.loc 1 250 21 is_stmt 0 view .LVU151
 361 0142 4C68     		ldr	r4, [r1, #4]
 362              	.LVL40:
 250:Drivers/STM32L4xx_HAL_Driver/Src/stm32l4xx_hal_gpio.c ****       {
 363              		.loc 1 250 10 view .LVU152
 364 0144 14F4403F 		tst	r4, #196608
 365 0148 C0D0     		beq	.L3
 253:Drivers/STM32L4xx_HAL_Driver/Src/stm32l4xx_hal_gpio.c **** 
 366              		.loc 1 253 9 is_stmt 1 view .LVU153
 367              	.LBB2:
 253:Drivers/STM32L4xx_HAL_Driver/Src/stm32l4xx_hal_gpio.c **** 
 368              		.loc 1 253 9 view .LVU154
 253:Drivers/STM32L4xx_HAL_Driver/Src/stm32l4xx_hal_gpio.c **** 
 369              		.loc 1 253 9 view .LVU155
 370 014a 274C     		ldr	r4, .L26+8
 371 014c 256E     		ldr	r5, [r4, #96]
 372 014e 45F00105 		orr	r5, r5, #1
 373 0152 2566     		str	r5, [r4, #96]
 374              	.LVL41:
 253:Drivers/STM32L4xx_HAL_Driver/Src/stm32l4xx_hal_gpio.c **** 
 375              		.loc 1 253 9 view .LVU156
 376 0154 246E     		ldr	r4, [r4, #96]
 377 0156 04F00104 		and	r4, r4, #1
 378 015a 0194     		str	r4, [sp, #4]
 253:Drivers/STM32L4xx_HAL_Driver/Src/stm32l4xx_hal_gpio.c **** 
 379              		.loc 1 253 9 view .LVU157
 380 015c 019C     		ldr	r4, [sp, #4]
 381              	.LBE2:
 253:Drivers/STM32L4xx_HAL_Driver/Src/stm32l4xx_hal_gpio.c **** 
 382              		.loc 1 253 9 view .LVU158
 255:Drivers/STM32L4xx_HAL_Driver/Src/stm32l4xx_hal_gpio.c ****         temp &= ~(0x0FuL << (4u * (position & 0x03u)));
 383              		.loc 1 255 9 view .LVU159
 255:Drivers/STM32L4xx_HAL_Driver/Src/stm32l4xx_hal_gpio.c ****         temp &= ~(0x0FuL << (4u * (position & 0x03u)));
 384              		.loc 1 255 40 is_stmt 0 view .LVU160
 385 015e 4FEA930C 		lsr	ip, r3, #2
 255:Drivers/STM32L4xx_HAL_Driver/Src/stm32l4xx_hal_gpio.c ****         temp &= ~(0x0FuL << (4u * (position & 0x03u)));
 386              		.loc 1 255 14 view .LVU161
ARM GAS  C:\Users\gigig\AppData\Local\Temp\cc3V8I1v.s 			page 14


 387 0162 0CF10205 		add	r5, ip, #2
 388 0166 1E4C     		ldr	r4, .L26
 389 0168 54F82550 		ldr	r5, [r4, r5, lsl #2]
 390              	.LVL42:
 256:Drivers/STM32L4xx_HAL_Driver/Src/stm32l4xx_hal_gpio.c ****         temp |= (GPIO_GET_INDEX(GPIOx) << (4u * (position & 0x03u)));
 391              		.loc 1 256 9 is_stmt 1 view .LVU162
 256:Drivers/STM32L4xx_HAL_Driver/Src/stm32l4xx_hal_gpio.c ****         temp |= (GPIO_GET_INDEX(GPIOx) << (4u * (position & 0x03u)));
 392              		.loc 1 256 45 is_stmt 0 view .LVU163
 393 016c 03F0030E 		and	lr, r3, #3
 256:Drivers/STM32L4xx_HAL_Driver/Src/stm32l4xx_hal_gpio.c ****         temp |= (GPIO_GET_INDEX(GPIOx) << (4u * (position & 0x03u)));
 394              		.loc 1 256 33 view .LVU164
 395 0170 4FEA8E0E 		lsl	lr, lr, #2
 256:Drivers/STM32L4xx_HAL_Driver/Src/stm32l4xx_hal_gpio.c ****         temp |= (GPIO_GET_INDEX(GPIOx) << (4u * (position & 0x03u)));
 396              		.loc 1 256 26 view .LVU165
 397 0174 0F24     		movs	r4, #15
 398 0176 04FA0EF4 		lsl	r4, r4, lr
 256:Drivers/STM32L4xx_HAL_Driver/Src/stm32l4xx_hal_gpio.c ****         temp |= (GPIO_GET_INDEX(GPIOx) << (4u * (position & 0x03u)));
 399              		.loc 1 256 14 view .LVU166
 400 017a 25EA0405 		bic	r5, r5, r4
 401              	.LVL43:
 257:Drivers/STM32L4xx_HAL_Driver/Src/stm32l4xx_hal_gpio.c ****         SYSCFG->EXTICR[position >> 2u] = temp;
 402              		.loc 1 257 9 is_stmt 1 view .LVU167
 257:Drivers/STM32L4xx_HAL_Driver/Src/stm32l4xx_hal_gpio.c ****         SYSCFG->EXTICR[position >> 2u] = temp;
 403              		.loc 1 257 18 is_stmt 0 view .LVU168
 404 017e B0F1904F 		cmp	r0, #1207959552
 405 0182 3FF46DAF 		beq	.L13
 257:Drivers/STM32L4xx_HAL_Driver/Src/stm32l4xx_hal_gpio.c ****         SYSCFG->EXTICR[position >> 2u] = temp;
 406              		.loc 1 257 18 discriminator 1 view .LVU169
 407 0186 194C     		ldr	r4, .L26+12
 408 0188 A042     		cmp	r0, r4
 409 018a 1AD0     		beq	.L14
 257:Drivers/STM32L4xx_HAL_Driver/Src/stm32l4xx_hal_gpio.c ****         SYSCFG->EXTICR[position >> 2u] = temp;
 410              		.loc 1 257 18 discriminator 3 view .LVU170
 411 018c 04F58064 		add	r4, r4, #1024
 412 0190 A042     		cmp	r0, r4
 413 0192 18D0     		beq	.L15
 257:Drivers/STM32L4xx_HAL_Driver/Src/stm32l4xx_hal_gpio.c ****         SYSCFG->EXTICR[position >> 2u] = temp;
 414              		.loc 1 257 18 discriminator 5 view .LVU171
 415 0194 04F58064 		add	r4, r4, #1024
 416 0198 A042     		cmp	r0, r4
 417 019a 16D0     		beq	.L16
 257:Drivers/STM32L4xx_HAL_Driver/Src/stm32l4xx_hal_gpio.c ****         SYSCFG->EXTICR[position >> 2u] = temp;
 418              		.loc 1 257 18 discriminator 7 view .LVU172
 419 019c 04F58064 		add	r4, r4, #1024
 420 01a0 A042     		cmp	r0, r4
 421 01a2 14D0     		beq	.L17
 257:Drivers/STM32L4xx_HAL_Driver/Src/stm32l4xx_hal_gpio.c ****         SYSCFG->EXTICR[position >> 2u] = temp;
 422              		.loc 1 257 18 discriminator 9 view .LVU173
 423 01a4 04F58064 		add	r4, r4, #1024
 424 01a8 A042     		cmp	r0, r4
 425 01aa 12D0     		beq	.L18
 257:Drivers/STM32L4xx_HAL_Driver/Src/stm32l4xx_hal_gpio.c ****         SYSCFG->EXTICR[position >> 2u] = temp;
 426              		.loc 1 257 18 discriminator 11 view .LVU174
 427 01ac 04F58064 		add	r4, r4, #1024
 428 01b0 A042     		cmp	r0, r4
 429 01b2 10D0     		beq	.L19
 257:Drivers/STM32L4xx_HAL_Driver/Src/stm32l4xx_hal_gpio.c ****         SYSCFG->EXTICR[position >> 2u] = temp;
ARM GAS  C:\Users\gigig\AppData\Local\Temp\cc3V8I1v.s 			page 15


 430              		.loc 1 257 18 discriminator 13 view .LVU175
 431 01b4 04F58064 		add	r4, r4, #1024
 432 01b8 A042     		cmp	r0, r4
 433 01ba 3FF44FAF 		beq	.L25
 257:Drivers/STM32L4xx_HAL_Driver/Src/stm32l4xx_hal_gpio.c ****         SYSCFG->EXTICR[position >> 2u] = temp;
 434              		.loc 1 257 18 discriminator 16 view .LVU176
 435 01be 0824     		movs	r4, #8
 436 01c0 4FE7     		b	.L7
 437              	.L14:
 257:Drivers/STM32L4xx_HAL_Driver/Src/stm32l4xx_hal_gpio.c ****         SYSCFG->EXTICR[position >> 2u] = temp;
 438              		.loc 1 257 18 discriminator 4 view .LVU177
 439 01c2 0124     		movs	r4, #1
 440 01c4 4DE7     		b	.L7
 441              	.L15:
 257:Drivers/STM32L4xx_HAL_Driver/Src/stm32l4xx_hal_gpio.c ****         SYSCFG->EXTICR[position >> 2u] = temp;
 442              		.loc 1 257 18 discriminator 6 view .LVU178
 443 01c6 0224     		movs	r4, #2
 444 01c8 4BE7     		b	.L7
 445              	.L16:
 257:Drivers/STM32L4xx_HAL_Driver/Src/stm32l4xx_hal_gpio.c ****         SYSCFG->EXTICR[position >> 2u] = temp;
 446              		.loc 1 257 18 discriminator 8 view .LVU179
 447 01ca 0324     		movs	r4, #3
 448 01cc 49E7     		b	.L7
 449              	.L17:
 257:Drivers/STM32L4xx_HAL_Driver/Src/stm32l4xx_hal_gpio.c ****         SYSCFG->EXTICR[position >> 2u] = temp;
 450              		.loc 1 257 18 discriminator 10 view .LVU180
 451 01ce 0424     		movs	r4, #4
 452 01d0 47E7     		b	.L7
 453              	.L18:
 257:Drivers/STM32L4xx_HAL_Driver/Src/stm32l4xx_hal_gpio.c ****         SYSCFG->EXTICR[position >> 2u] = temp;
 454              		.loc 1 257 18 discriminator 12 view .LVU181
 455 01d2 0524     		movs	r4, #5
 456 01d4 45E7     		b	.L7
 457              	.L19:
 257:Drivers/STM32L4xx_HAL_Driver/Src/stm32l4xx_hal_gpio.c ****         SYSCFG->EXTICR[position >> 2u] = temp;
 458              		.loc 1 257 18 discriminator 14 view .LVU182
 459 01d6 0624     		movs	r4, #6
 460 01d8 43E7     		b	.L7
 461              	.LVL44:
 462              	.L22:
 297:Drivers/STM32L4xx_HAL_Driver/Src/stm32l4xx_hal_gpio.c ****   }
 298:Drivers/STM32L4xx_HAL_Driver/Src/stm32l4xx_hal_gpio.c **** }
 463              		.loc 1 298 1 view .LVU183
 464 01da 03B0     		add	sp, sp, #12
 465              		.cfi_def_cfa_offset 20
 466              		@ sp needed
 467 01dc F0BD     		pop	{r4, r5, r6, r7, pc}
 468              	.L27:
 469 01de 00BF     		.align	2
 470              	.L26:
 471 01e0 00000140 		.word	1073807360
 472 01e4 00040140 		.word	1073808384
 473 01e8 00100240 		.word	1073876992
 474 01ec 00040048 		.word	1207960576
 475              		.cfi_endproc
 476              	.LFE132:
 478              		.section	.text.HAL_GPIO_DeInit,"ax",%progbits
ARM GAS  C:\Users\gigig\AppData\Local\Temp\cc3V8I1v.s 			page 16


 479              		.align	1
 480              		.global	HAL_GPIO_DeInit
 481              		.syntax unified
 482              		.thumb
 483              		.thumb_func
 485              	HAL_GPIO_DeInit:
 486              	.LVL45:
 487              	.LFB133:
 299:Drivers/STM32L4xx_HAL_Driver/Src/stm32l4xx_hal_gpio.c **** 
 300:Drivers/STM32L4xx_HAL_Driver/Src/stm32l4xx_hal_gpio.c **** /**
 301:Drivers/STM32L4xx_HAL_Driver/Src/stm32l4xx_hal_gpio.c ****   * @brief  De-initialize the GPIOx peripheral registers to their default reset values.
 302:Drivers/STM32L4xx_HAL_Driver/Src/stm32l4xx_hal_gpio.c ****   * @param  GPIOx where x can be (A..H) to select the GPIO peripheral for STM32L4 family
 303:Drivers/STM32L4xx_HAL_Driver/Src/stm32l4xx_hal_gpio.c ****   * @param  GPIO_Pin specifies the port bit to be written.
 304:Drivers/STM32L4xx_HAL_Driver/Src/stm32l4xx_hal_gpio.c ****   *         This parameter can be any combination of GPIO_Pin_x where x can be (0..15).
 305:Drivers/STM32L4xx_HAL_Driver/Src/stm32l4xx_hal_gpio.c ****   * @retval None
 306:Drivers/STM32L4xx_HAL_Driver/Src/stm32l4xx_hal_gpio.c ****   */
 307:Drivers/STM32L4xx_HAL_Driver/Src/stm32l4xx_hal_gpio.c **** void HAL_GPIO_DeInit(GPIO_TypeDef  *GPIOx, uint32_t GPIO_Pin)
 308:Drivers/STM32L4xx_HAL_Driver/Src/stm32l4xx_hal_gpio.c **** {
 488              		.loc 1 308 1 is_stmt 1 view -0
 489              		.cfi_startproc
 490              		@ args = 0, pretend = 0, frame = 0
 491              		@ frame_needed = 0, uses_anonymous_args = 0
 309:Drivers/STM32L4xx_HAL_Driver/Src/stm32l4xx_hal_gpio.c ****   uint32_t position = 0x00u;
 492              		.loc 1 309 3 view .LVU185
 310:Drivers/STM32L4xx_HAL_Driver/Src/stm32l4xx_hal_gpio.c ****   uint32_t iocurrent;
 493              		.loc 1 310 3 view .LVU186
 311:Drivers/STM32L4xx_HAL_Driver/Src/stm32l4xx_hal_gpio.c ****   uint32_t tmp;
 494              		.loc 1 311 3 view .LVU187
 312:Drivers/STM32L4xx_HAL_Driver/Src/stm32l4xx_hal_gpio.c **** 
 313:Drivers/STM32L4xx_HAL_Driver/Src/stm32l4xx_hal_gpio.c ****   /* Check the parameters */
 314:Drivers/STM32L4xx_HAL_Driver/Src/stm32l4xx_hal_gpio.c ****   assert_param(IS_GPIO_ALL_INSTANCE(GPIOx));
 495              		.loc 1 314 3 view .LVU188
 315:Drivers/STM32L4xx_HAL_Driver/Src/stm32l4xx_hal_gpio.c ****   assert_param(IS_GPIO_PIN(GPIO_Pin));
 496              		.loc 1 315 3 view .LVU189
 316:Drivers/STM32L4xx_HAL_Driver/Src/stm32l4xx_hal_gpio.c **** 
 317:Drivers/STM32L4xx_HAL_Driver/Src/stm32l4xx_hal_gpio.c ****   /* Configure the port pins */
 318:Drivers/STM32L4xx_HAL_Driver/Src/stm32l4xx_hal_gpio.c ****   while ((GPIO_Pin >> position) != 0x00u)
 497              		.loc 1 318 3 view .LVU190
 309:Drivers/STM32L4xx_HAL_Driver/Src/stm32l4xx_hal_gpio.c ****   uint32_t iocurrent;
 498              		.loc 1 309 12 is_stmt 0 view .LVU191
 499 0000 0023     		movs	r3, #0
 500              	.LVL46:
 501              		.loc 1 318 33 is_stmt 1 view .LVU192
 502 0002 31FA03F2 		lsrs	r2, r1, r3
 503 0006 00F08D80 		beq	.L45
 308:Drivers/STM32L4xx_HAL_Driver/Src/stm32l4xx_hal_gpio.c ****   uint32_t position = 0x00u;
 504              		.loc 1 308 1 is_stmt 0 view .LVU193
 505 000a F0B5     		push	{r4, r5, r6, r7, lr}
 506              		.cfi_def_cfa_offset 20
 507              		.cfi_offset 4, -20
 508              		.cfi_offset 5, -16
 509              		.cfi_offset 6, -12
 510              		.cfi_offset 7, -8
 511              		.cfi_offset 14, -4
 512 000c 2EE0     		b	.L33
 513              	.LVL47:
 514              	.L48:
ARM GAS  C:\Users\gigig\AppData\Local\Temp\cc3V8I1v.s 			page 17


 319:Drivers/STM32L4xx_HAL_Driver/Src/stm32l4xx_hal_gpio.c ****   {
 320:Drivers/STM32L4xx_HAL_Driver/Src/stm32l4xx_hal_gpio.c ****     /* Get current io position */
 321:Drivers/STM32L4xx_HAL_Driver/Src/stm32l4xx_hal_gpio.c ****     iocurrent = (GPIO_Pin) & (1uL << position);
 322:Drivers/STM32L4xx_HAL_Driver/Src/stm32l4xx_hal_gpio.c **** 
 323:Drivers/STM32L4xx_HAL_Driver/Src/stm32l4xx_hal_gpio.c ****     if (iocurrent != 0x00u)
 324:Drivers/STM32L4xx_HAL_Driver/Src/stm32l4xx_hal_gpio.c ****     {
 325:Drivers/STM32L4xx_HAL_Driver/Src/stm32l4xx_hal_gpio.c ****       /*------------------------- EXTI Mode Configuration --------------------*/
 326:Drivers/STM32L4xx_HAL_Driver/Src/stm32l4xx_hal_gpio.c ****       /* Clear the External Interrupt or Event for the current IO */
 327:Drivers/STM32L4xx_HAL_Driver/Src/stm32l4xx_hal_gpio.c **** 
 328:Drivers/STM32L4xx_HAL_Driver/Src/stm32l4xx_hal_gpio.c ****       tmp = SYSCFG->EXTICR[position >> 2u];
 329:Drivers/STM32L4xx_HAL_Driver/Src/stm32l4xx_hal_gpio.c ****       tmp &= (0x0FuL << (4u * (position & 0x03u)));
 330:Drivers/STM32L4xx_HAL_Driver/Src/stm32l4xx_hal_gpio.c ****       if (tmp == (GPIO_GET_INDEX(GPIOx) << (4u * (position & 0x03u))))
 515              		.loc 1 330 19 discriminator 15 view .LVU194
 516 000e 0725     		movs	r5, #7
 517 0010 00E0     		b	.L31
 518              	.L34:
 519              		.loc 1 330 19 discriminator 2 view .LVU195
 520 0012 0025     		movs	r5, #0
 521              	.L31:
 522              		.loc 1 330 41 discriminator 32 view .LVU196
 523 0014 05FA0CF5 		lsl	r5, r5, ip
 524              		.loc 1 330 10 discriminator 32 view .LVU197
 525 0018 A542     		cmp	r5, r4
 526 001a 67D0     		beq	.L46
 527              	.LVL48:
 528              	.L32:
 331:Drivers/STM32L4xx_HAL_Driver/Src/stm32l4xx_hal_gpio.c ****       {
 332:Drivers/STM32L4xx_HAL_Driver/Src/stm32l4xx_hal_gpio.c ****         /* Clear EXTI line configuration */
 333:Drivers/STM32L4xx_HAL_Driver/Src/stm32l4xx_hal_gpio.c ****         EXTI->IMR1 &= ~(iocurrent);
 334:Drivers/STM32L4xx_HAL_Driver/Src/stm32l4xx_hal_gpio.c ****         EXTI->EMR1 &= ~(iocurrent);
 335:Drivers/STM32L4xx_HAL_Driver/Src/stm32l4xx_hal_gpio.c **** 
 336:Drivers/STM32L4xx_HAL_Driver/Src/stm32l4xx_hal_gpio.c ****         /* Clear Rising Falling edge configuration */
 337:Drivers/STM32L4xx_HAL_Driver/Src/stm32l4xx_hal_gpio.c ****         EXTI->FTSR1 &= ~(iocurrent);
 338:Drivers/STM32L4xx_HAL_Driver/Src/stm32l4xx_hal_gpio.c ****         EXTI->RTSR1 &= ~(iocurrent);
 339:Drivers/STM32L4xx_HAL_Driver/Src/stm32l4xx_hal_gpio.c **** 
 340:Drivers/STM32L4xx_HAL_Driver/Src/stm32l4xx_hal_gpio.c ****         tmp = 0x0FuL << (4u * (position & 0x03u));
 341:Drivers/STM32L4xx_HAL_Driver/Src/stm32l4xx_hal_gpio.c ****         SYSCFG->EXTICR[position >> 2u] &= ~tmp;
 342:Drivers/STM32L4xx_HAL_Driver/Src/stm32l4xx_hal_gpio.c ****       }
 343:Drivers/STM32L4xx_HAL_Driver/Src/stm32l4xx_hal_gpio.c **** 
 344:Drivers/STM32L4xx_HAL_Driver/Src/stm32l4xx_hal_gpio.c ****       /*------------------------- GPIO Mode Configuration --------------------*/
 345:Drivers/STM32L4xx_HAL_Driver/Src/stm32l4xx_hal_gpio.c ****       /* Configure IO in Analog Mode */
 346:Drivers/STM32L4xx_HAL_Driver/Src/stm32l4xx_hal_gpio.c ****       GPIOx->MODER |= (GPIO_MODER_MODE0 << (position * 2u));
 529              		.loc 1 346 7 is_stmt 1 view .LVU198
 530              		.loc 1 346 12 is_stmt 0 view .LVU199
 531 001c 0468     		ldr	r4, [r0]
 532              		.loc 1 346 54 view .LVU200
 533 001e 5D00     		lsls	r5, r3, #1
 534              		.loc 1 346 41 view .LVU201
 535 0020 4FF0030C 		mov	ip, #3
 536 0024 0CFA05FC 		lsl	ip, ip, r5
 537              		.loc 1 346 20 view .LVU202
 538 0028 44EA0C04 		orr	r4, r4, ip
 539 002c 0460     		str	r4, [r0]
 347:Drivers/STM32L4xx_HAL_Driver/Src/stm32l4xx_hal_gpio.c **** 
 348:Drivers/STM32L4xx_HAL_Driver/Src/stm32l4xx_hal_gpio.c ****       /* Configure the default Alternate Function in current IO */
 349:Drivers/STM32L4xx_HAL_Driver/Src/stm32l4xx_hal_gpio.c ****       GPIOx->AFR[position >> 3u] &= ~(0xFu << ((position & 0x07u) * 4u)) ;
 540              		.loc 1 349 7 is_stmt 1 view .LVU203
ARM GAS  C:\Users\gigig\AppData\Local\Temp\cc3V8I1v.s 			page 18


 541              		.loc 1 349 17 is_stmt 0 view .LVU204
 542 002e 4FEAD30E 		lsr	lr, r3, #3
 543 0032 0EF1080E 		add	lr, lr, #8
 544 0036 50F82E40 		ldr	r4, [r0, lr, lsl #2]
 545              		.loc 1 349 58 view .LVU205
 546 003a 03F00706 		and	r6, r3, #7
 547              		.loc 1 349 67 view .LVU206
 548 003e B600     		lsls	r6, r6, #2
 549              		.loc 1 349 44 view .LVU207
 550 0040 0F25     		movs	r5, #15
 551 0042 B540     		lsls	r5, r5, r6
 552              		.loc 1 349 34 view .LVU208
 553 0044 24EA0504 		bic	r4, r4, r5
 554 0048 40F82E40 		str	r4, [r0, lr, lsl #2]
 350:Drivers/STM32L4xx_HAL_Driver/Src/stm32l4xx_hal_gpio.c **** 
 351:Drivers/STM32L4xx_HAL_Driver/Src/stm32l4xx_hal_gpio.c ****       /* Configure the default value for IO Speed */
 352:Drivers/STM32L4xx_HAL_Driver/Src/stm32l4xx_hal_gpio.c ****       GPIOx->OSPEEDR &= ~(GPIO_OSPEEDR_OSPEED0 << (position * 2u));
 555              		.loc 1 352 7 is_stmt 1 view .LVU209
 556              		.loc 1 352 12 is_stmt 0 view .LVU210
 557 004c 8468     		ldr	r4, [r0, #8]
 558              		.loc 1 352 22 view .LVU211
 559 004e 24EA0C04 		bic	r4, r4, ip
 560 0052 8460     		str	r4, [r0, #8]
 353:Drivers/STM32L4xx_HAL_Driver/Src/stm32l4xx_hal_gpio.c **** 
 354:Drivers/STM32L4xx_HAL_Driver/Src/stm32l4xx_hal_gpio.c ****       /* Configure the default value IO Output Type */
 355:Drivers/STM32L4xx_HAL_Driver/Src/stm32l4xx_hal_gpio.c ****       GPIOx->OTYPER  &= ~(GPIO_OTYPER_OT0 << position) ;
 561              		.loc 1 355 7 is_stmt 1 view .LVU212
 562              		.loc 1 355 12 is_stmt 0 view .LVU213
 563 0054 4468     		ldr	r4, [r0, #4]
 564              		.loc 1 355 22 view .LVU214
 565 0056 24EA0202 		bic	r2, r4, r2
 566              	.LVL49:
 567              		.loc 1 355 22 view .LVU215
 568 005a 4260     		str	r2, [r0, #4]
 356:Drivers/STM32L4xx_HAL_Driver/Src/stm32l4xx_hal_gpio.c **** 
 357:Drivers/STM32L4xx_HAL_Driver/Src/stm32l4xx_hal_gpio.c ****       /* Deactivate the Pull-up and Pull-down resistor for the current IO */
 358:Drivers/STM32L4xx_HAL_Driver/Src/stm32l4xx_hal_gpio.c ****       GPIOx->PUPDR &= ~(GPIO_PUPDR_PUPD0 << (position * 2u));
 569              		.loc 1 358 7 is_stmt 1 view .LVU216
 570              		.loc 1 358 12 is_stmt 0 view .LVU217
 571 005c C268     		ldr	r2, [r0, #12]
 572              		.loc 1 358 20 view .LVU218
 573 005e 22EA0C02 		bic	r2, r2, ip
 574 0062 C260     		str	r2, [r0, #12]
 575              	.L30:
 359:Drivers/STM32L4xx_HAL_Driver/Src/stm32l4xx_hal_gpio.c **** 
 360:Drivers/STM32L4xx_HAL_Driver/Src/stm32l4xx_hal_gpio.c **** #if defined(STM32L471xx) || defined(STM32L475xx) || defined(STM32L476xx) || defined(STM32L485xx) ||
 361:Drivers/STM32L4xx_HAL_Driver/Src/stm32l4xx_hal_gpio.c ****       /* Deactivate the Control bit of Analog mode for the current IO */
 362:Drivers/STM32L4xx_HAL_Driver/Src/stm32l4xx_hal_gpio.c ****       GPIOx->ASCR &= ~(GPIO_ASCR_ASC0<< position);
 363:Drivers/STM32L4xx_HAL_Driver/Src/stm32l4xx_hal_gpio.c **** #endif /* STM32L471xx || STM32L475xx || STM32L476xx || STM32L485xx || STM32L486xx */
 364:Drivers/STM32L4xx_HAL_Driver/Src/stm32l4xx_hal_gpio.c ****     }
 365:Drivers/STM32L4xx_HAL_Driver/Src/stm32l4xx_hal_gpio.c **** 
 366:Drivers/STM32L4xx_HAL_Driver/Src/stm32l4xx_hal_gpio.c ****     position++;
 576              		.loc 1 366 5 is_stmt 1 view .LVU219
 577              		.loc 1 366 13 is_stmt 0 view .LVU220
 578 0064 0133     		adds	r3, r3, #1
 579              	.LVL50:
 318:Drivers/STM32L4xx_HAL_Driver/Src/stm32l4xx_hal_gpio.c ****   {
ARM GAS  C:\Users\gigig\AppData\Local\Temp\cc3V8I1v.s 			page 19


 580              		.loc 1 318 33 is_stmt 1 view .LVU221
 581 0066 31FA03F2 		lsrs	r2, r1, r3
 582 006a 5AD0     		beq	.L47
 583              	.LVL51:
 584              	.L33:
 321:Drivers/STM32L4xx_HAL_Driver/Src/stm32l4xx_hal_gpio.c **** 
 585              		.loc 1 321 5 view .LVU222
 321:Drivers/STM32L4xx_HAL_Driver/Src/stm32l4xx_hal_gpio.c **** 
 586              		.loc 1 321 35 is_stmt 0 view .LVU223
 587 006c 0122     		movs	r2, #1
 588 006e 9A40     		lsls	r2, r2, r3
 589              	.LVL52:
 323:Drivers/STM32L4xx_HAL_Driver/Src/stm32l4xx_hal_gpio.c ****     {
 590              		.loc 1 323 5 is_stmt 1 view .LVU224
 323:Drivers/STM32L4xx_HAL_Driver/Src/stm32l4xx_hal_gpio.c ****     {
 591              		.loc 1 323 8 is_stmt 0 view .LVU225
 592 0070 12EA0107 		ands	r7, r2, r1
 593              	.LVL53:
 323:Drivers/STM32L4xx_HAL_Driver/Src/stm32l4xx_hal_gpio.c ****     {
 594              		.loc 1 323 8 view .LVU226
 595 0074 F6D0     		beq	.L30
 328:Drivers/STM32L4xx_HAL_Driver/Src/stm32l4xx_hal_gpio.c ****       tmp &= (0x0FuL << (4u * (position & 0x03u)));
 596              		.loc 1 328 7 is_stmt 1 view .LVU227
 328:Drivers/STM32L4xx_HAL_Driver/Src/stm32l4xx_hal_gpio.c ****       tmp &= (0x0FuL << (4u * (position & 0x03u)));
 597              		.loc 1 328 37 is_stmt 0 view .LVU228
 598 0076 4FEA930E 		lsr	lr, r3, #2
 328:Drivers/STM32L4xx_HAL_Driver/Src/stm32l4xx_hal_gpio.c ****       tmp &= (0x0FuL << (4u * (position & 0x03u)));
 599              		.loc 1 328 11 view .LVU229
 600 007a 0EF10205 		add	r5, lr, #2
 601 007e 2A4C     		ldr	r4, .L49
 602 0080 54F82540 		ldr	r4, [r4, r5, lsl #2]
 603              	.LVL54:
 329:Drivers/STM32L4xx_HAL_Driver/Src/stm32l4xx_hal_gpio.c ****       if (tmp == (GPIO_GET_INDEX(GPIOx) << (4u * (position & 0x03u))))
 604              		.loc 1 329 7 is_stmt 1 view .LVU230
 329:Drivers/STM32L4xx_HAL_Driver/Src/stm32l4xx_hal_gpio.c ****       if (tmp == (GPIO_GET_INDEX(GPIOx) << (4u * (position & 0x03u))))
 605              		.loc 1 329 41 is_stmt 0 view .LVU231
 606 0084 03F0030C 		and	ip, r3, #3
 329:Drivers/STM32L4xx_HAL_Driver/Src/stm32l4xx_hal_gpio.c ****       if (tmp == (GPIO_GET_INDEX(GPIOx) << (4u * (position & 0x03u))))
 607              		.loc 1 329 29 view .LVU232
 608 0088 4FEA8C0C 		lsl	ip, ip, #2
 329:Drivers/STM32L4xx_HAL_Driver/Src/stm32l4xx_hal_gpio.c ****       if (tmp == (GPIO_GET_INDEX(GPIOx) << (4u * (position & 0x03u))))
 609              		.loc 1 329 22 view .LVU233
 610 008c 0F25     		movs	r5, #15
 611 008e 05FA0CF6 		lsl	r6, r5, ip
 329:Drivers/STM32L4xx_HAL_Driver/Src/stm32l4xx_hal_gpio.c ****       if (tmp == (GPIO_GET_INDEX(GPIOx) << (4u * (position & 0x03u))))
 612              		.loc 1 329 11 view .LVU234
 613 0092 3440     		ands	r4, r4, r6
 614              	.LVL55:
 330:Drivers/STM32L4xx_HAL_Driver/Src/stm32l4xx_hal_gpio.c ****       {
 615              		.loc 1 330 7 is_stmt 1 view .LVU235
 330:Drivers/STM32L4xx_HAL_Driver/Src/stm32l4xx_hal_gpio.c ****       {
 616              		.loc 1 330 19 is_stmt 0 view .LVU236
 617 0094 B0F1904F 		cmp	r0, #1207959552
 618 0098 BBD0     		beq	.L34
 330:Drivers/STM32L4xx_HAL_Driver/Src/stm32l4xx_hal_gpio.c ****       {
 619              		.loc 1 330 19 discriminator 1 view .LVU237
 620 009a 244D     		ldr	r5, .L49+4
ARM GAS  C:\Users\gigig\AppData\Local\Temp\cc3V8I1v.s 			page 20


 621 009c A842     		cmp	r0, r5
 622 009e 19D0     		beq	.L35
 330:Drivers/STM32L4xx_HAL_Driver/Src/stm32l4xx_hal_gpio.c ****       {
 623              		.loc 1 330 19 discriminator 3 view .LVU238
 624 00a0 05F58065 		add	r5, r5, #1024
 625 00a4 A842     		cmp	r0, r5
 626 00a6 17D0     		beq	.L36
 330:Drivers/STM32L4xx_HAL_Driver/Src/stm32l4xx_hal_gpio.c ****       {
 627              		.loc 1 330 19 discriminator 5 view .LVU239
 628 00a8 05F58065 		add	r5, r5, #1024
 629 00ac A842     		cmp	r0, r5
 630 00ae 15D0     		beq	.L37
 330:Drivers/STM32L4xx_HAL_Driver/Src/stm32l4xx_hal_gpio.c ****       {
 631              		.loc 1 330 19 discriminator 7 view .LVU240
 632 00b0 05F58065 		add	r5, r5, #1024
 633 00b4 A842     		cmp	r0, r5
 634 00b6 13D0     		beq	.L38
 330:Drivers/STM32L4xx_HAL_Driver/Src/stm32l4xx_hal_gpio.c ****       {
 635              		.loc 1 330 19 discriminator 9 view .LVU241
 636 00b8 05F58065 		add	r5, r5, #1024
 637 00bc A842     		cmp	r0, r5
 638 00be 11D0     		beq	.L39
 330:Drivers/STM32L4xx_HAL_Driver/Src/stm32l4xx_hal_gpio.c ****       {
 639              		.loc 1 330 19 discriminator 11 view .LVU242
 640 00c0 05F58065 		add	r5, r5, #1024
 641 00c4 A842     		cmp	r0, r5
 642 00c6 0FD0     		beq	.L40
 330:Drivers/STM32L4xx_HAL_Driver/Src/stm32l4xx_hal_gpio.c ****       {
 643              		.loc 1 330 19 discriminator 13 view .LVU243
 644 00c8 05F58065 		add	r5, r5, #1024
 645 00cc A842     		cmp	r0, r5
 646 00ce 9ED0     		beq	.L48
 330:Drivers/STM32L4xx_HAL_Driver/Src/stm32l4xx_hal_gpio.c ****       {
 647              		.loc 1 330 19 discriminator 16 view .LVU244
 648 00d0 0825     		movs	r5, #8
 649 00d2 9FE7     		b	.L31
 650              	.L35:
 330:Drivers/STM32L4xx_HAL_Driver/Src/stm32l4xx_hal_gpio.c ****       {
 651              		.loc 1 330 19 discriminator 4 view .LVU245
 652 00d4 0125     		movs	r5, #1
 653 00d6 9DE7     		b	.L31
 654              	.L36:
 330:Drivers/STM32L4xx_HAL_Driver/Src/stm32l4xx_hal_gpio.c ****       {
 655              		.loc 1 330 19 discriminator 6 view .LVU246
 656 00d8 0225     		movs	r5, #2
 657 00da 9BE7     		b	.L31
 658              	.L37:
 330:Drivers/STM32L4xx_HAL_Driver/Src/stm32l4xx_hal_gpio.c ****       {
 659              		.loc 1 330 19 discriminator 8 view .LVU247
 660 00dc 0325     		movs	r5, #3
 661 00de 99E7     		b	.L31
 662              	.L38:
 330:Drivers/STM32L4xx_HAL_Driver/Src/stm32l4xx_hal_gpio.c ****       {
 663              		.loc 1 330 19 discriminator 10 view .LVU248
 664 00e0 0425     		movs	r5, #4
 665 00e2 97E7     		b	.L31
 666              	.L39:
ARM GAS  C:\Users\gigig\AppData\Local\Temp\cc3V8I1v.s 			page 21


 330:Drivers/STM32L4xx_HAL_Driver/Src/stm32l4xx_hal_gpio.c ****       {
 667              		.loc 1 330 19 discriminator 12 view .LVU249
 668 00e4 0525     		movs	r5, #5
 669 00e6 95E7     		b	.L31
 670              	.L40:
 330:Drivers/STM32L4xx_HAL_Driver/Src/stm32l4xx_hal_gpio.c ****       {
 671              		.loc 1 330 19 discriminator 14 view .LVU250
 672 00e8 0625     		movs	r5, #6
 673 00ea 93E7     		b	.L31
 674              	.L46:
 333:Drivers/STM32L4xx_HAL_Driver/Src/stm32l4xx_hal_gpio.c ****         EXTI->EMR1 &= ~(iocurrent);
 675              		.loc 1 333 9 is_stmt 1 view .LVU251
 333:Drivers/STM32L4xx_HAL_Driver/Src/stm32l4xx_hal_gpio.c ****         EXTI->EMR1 &= ~(iocurrent);
 676              		.loc 1 333 13 is_stmt 0 view .LVU252
 677 00ec 104C     		ldr	r4, .L49+8
 678              	.LVL56:
 333:Drivers/STM32L4xx_HAL_Driver/Src/stm32l4xx_hal_gpio.c ****         EXTI->EMR1 &= ~(iocurrent);
 679              		.loc 1 333 13 view .LVU253
 680 00ee 2568     		ldr	r5, [r4]
 333:Drivers/STM32L4xx_HAL_Driver/Src/stm32l4xx_hal_gpio.c ****         EXTI->EMR1 &= ~(iocurrent);
 681              		.loc 1 333 20 view .LVU254
 682 00f0 25EA0705 		bic	r5, r5, r7
 683 00f4 2560     		str	r5, [r4]
 334:Drivers/STM32L4xx_HAL_Driver/Src/stm32l4xx_hal_gpio.c **** 
 684              		.loc 1 334 9 is_stmt 1 view .LVU255
 334:Drivers/STM32L4xx_HAL_Driver/Src/stm32l4xx_hal_gpio.c **** 
 685              		.loc 1 334 13 is_stmt 0 view .LVU256
 686 00f6 6568     		ldr	r5, [r4, #4]
 334:Drivers/STM32L4xx_HAL_Driver/Src/stm32l4xx_hal_gpio.c **** 
 687              		.loc 1 334 20 view .LVU257
 688 00f8 25EA0705 		bic	r5, r5, r7
 689 00fc 6560     		str	r5, [r4, #4]
 337:Drivers/STM32L4xx_HAL_Driver/Src/stm32l4xx_hal_gpio.c ****         EXTI->RTSR1 &= ~(iocurrent);
 690              		.loc 1 337 9 is_stmt 1 view .LVU258
 337:Drivers/STM32L4xx_HAL_Driver/Src/stm32l4xx_hal_gpio.c ****         EXTI->RTSR1 &= ~(iocurrent);
 691              		.loc 1 337 13 is_stmt 0 view .LVU259
 692 00fe E568     		ldr	r5, [r4, #12]
 337:Drivers/STM32L4xx_HAL_Driver/Src/stm32l4xx_hal_gpio.c ****         EXTI->RTSR1 &= ~(iocurrent);
 693              		.loc 1 337 21 view .LVU260
 694 0100 25EA0705 		bic	r5, r5, r7
 695 0104 E560     		str	r5, [r4, #12]
 338:Drivers/STM32L4xx_HAL_Driver/Src/stm32l4xx_hal_gpio.c **** 
 696              		.loc 1 338 9 is_stmt 1 view .LVU261
 338:Drivers/STM32L4xx_HAL_Driver/Src/stm32l4xx_hal_gpio.c **** 
 697              		.loc 1 338 13 is_stmt 0 view .LVU262
 698 0106 A568     		ldr	r5, [r4, #8]
 338:Drivers/STM32L4xx_HAL_Driver/Src/stm32l4xx_hal_gpio.c **** 
 699              		.loc 1 338 21 view .LVU263
 700 0108 25EA0705 		bic	r5, r5, r7
 701 010c A560     		str	r5, [r4, #8]
 340:Drivers/STM32L4xx_HAL_Driver/Src/stm32l4xx_hal_gpio.c ****         SYSCFG->EXTICR[position >> 2u] &= ~tmp;
 702              		.loc 1 340 9 is_stmt 1 view .LVU264
 703              	.LVL57:
 341:Drivers/STM32L4xx_HAL_Driver/Src/stm32l4xx_hal_gpio.c ****       }
 704              		.loc 1 341 9 view .LVU265
 341:Drivers/STM32L4xx_HAL_Driver/Src/stm32l4xx_hal_gpio.c ****       }
 705              		.loc 1 341 23 is_stmt 0 view .LVU266
ARM GAS  C:\Users\gigig\AppData\Local\Temp\cc3V8I1v.s 			page 22


 706 010e 064F     		ldr	r7, .L49
 707              	.LVL58:
 341:Drivers/STM32L4xx_HAL_Driver/Src/stm32l4xx_hal_gpio.c ****       }
 708              		.loc 1 341 23 view .LVU267
 709 0110 0EF10204 		add	r4, lr, #2
 710 0114 57F82450 		ldr	r5, [r7, r4, lsl #2]
 341:Drivers/STM32L4xx_HAL_Driver/Src/stm32l4xx_hal_gpio.c ****       }
 711              		.loc 1 341 40 view .LVU268
 712 0118 25EA0605 		bic	r5, r5, r6
 713 011c 47F82450 		str	r5, [r7, r4, lsl #2]
 714 0120 7CE7     		b	.L32
 715              	.LVL59:
 716              	.L47:
 367:Drivers/STM32L4xx_HAL_Driver/Src/stm32l4xx_hal_gpio.c ****   }
 368:Drivers/STM32L4xx_HAL_Driver/Src/stm32l4xx_hal_gpio.c **** }
 717              		.loc 1 368 1 view .LVU269
 718 0122 F0BD     		pop	{r4, r5, r6, r7, pc}
 719              	.LVL60:
 720              	.L45:
 721              		.cfi_def_cfa_offset 0
 722              		.cfi_restore 4
 723              		.cfi_restore 5
 724              		.cfi_restore 6
 725              		.cfi_restore 7
 726              		.cfi_restore 14
 727              		.loc 1 368 1 view .LVU270
 728 0124 7047     		bx	lr
 729              	.L50:
 730 0126 00BF     		.align	2
 731              	.L49:
 732 0128 00000140 		.word	1073807360
 733 012c 00040048 		.word	1207960576
 734 0130 00040140 		.word	1073808384
 735              		.cfi_endproc
 736              	.LFE133:
 738              		.section	.text.HAL_GPIO_ReadPin,"ax",%progbits
 739              		.align	1
 740              		.global	HAL_GPIO_ReadPin
 741              		.syntax unified
 742              		.thumb
 743              		.thumb_func
 745              	HAL_GPIO_ReadPin:
 746              	.LVL61:
 747              	.LFB134:
 369:Drivers/STM32L4xx_HAL_Driver/Src/stm32l4xx_hal_gpio.c **** 
 370:Drivers/STM32L4xx_HAL_Driver/Src/stm32l4xx_hal_gpio.c **** /**
 371:Drivers/STM32L4xx_HAL_Driver/Src/stm32l4xx_hal_gpio.c ****   * @}
 372:Drivers/STM32L4xx_HAL_Driver/Src/stm32l4xx_hal_gpio.c ****   */
 373:Drivers/STM32L4xx_HAL_Driver/Src/stm32l4xx_hal_gpio.c **** 
 374:Drivers/STM32L4xx_HAL_Driver/Src/stm32l4xx_hal_gpio.c **** /** @defgroup GPIO_Exported_Functions_Group2 IO operation functions
 375:Drivers/STM32L4xx_HAL_Driver/Src/stm32l4xx_hal_gpio.c ****  *  @brief GPIO Read, Write, Toggle, Lock and EXTI management functions.
 376:Drivers/STM32L4xx_HAL_Driver/Src/stm32l4xx_hal_gpio.c ****  *
 377:Drivers/STM32L4xx_HAL_Driver/Src/stm32l4xx_hal_gpio.c **** @verbatim
 378:Drivers/STM32L4xx_HAL_Driver/Src/stm32l4xx_hal_gpio.c ****  ===============================================================================
 379:Drivers/STM32L4xx_HAL_Driver/Src/stm32l4xx_hal_gpio.c ****                        ##### IO operation functions #####
 380:Drivers/STM32L4xx_HAL_Driver/Src/stm32l4xx_hal_gpio.c ****  ===============================================================================
 381:Drivers/STM32L4xx_HAL_Driver/Src/stm32l4xx_hal_gpio.c **** 
ARM GAS  C:\Users\gigig\AppData\Local\Temp\cc3V8I1v.s 			page 23


 382:Drivers/STM32L4xx_HAL_Driver/Src/stm32l4xx_hal_gpio.c **** @endverbatim
 383:Drivers/STM32L4xx_HAL_Driver/Src/stm32l4xx_hal_gpio.c ****   * @{
 384:Drivers/STM32L4xx_HAL_Driver/Src/stm32l4xx_hal_gpio.c ****   */
 385:Drivers/STM32L4xx_HAL_Driver/Src/stm32l4xx_hal_gpio.c **** 
 386:Drivers/STM32L4xx_HAL_Driver/Src/stm32l4xx_hal_gpio.c **** /**
 387:Drivers/STM32L4xx_HAL_Driver/Src/stm32l4xx_hal_gpio.c ****   * @brief  Read the specified input port pin.
 388:Drivers/STM32L4xx_HAL_Driver/Src/stm32l4xx_hal_gpio.c ****   * @param  GPIOx where x can be (A..H) to select the GPIO peripheral for STM32L4 family
 389:Drivers/STM32L4xx_HAL_Driver/Src/stm32l4xx_hal_gpio.c ****   * @param  GPIO_Pin specifies the port bit to read.
 390:Drivers/STM32L4xx_HAL_Driver/Src/stm32l4xx_hal_gpio.c ****   *         This parameter can be any combination of GPIO_Pin_x where x can be (0..15).
 391:Drivers/STM32L4xx_HAL_Driver/Src/stm32l4xx_hal_gpio.c ****   * @retval The input port pin value.
 392:Drivers/STM32L4xx_HAL_Driver/Src/stm32l4xx_hal_gpio.c ****   */
 393:Drivers/STM32L4xx_HAL_Driver/Src/stm32l4xx_hal_gpio.c **** GPIO_PinState HAL_GPIO_ReadPin(GPIO_TypeDef* GPIOx, uint16_t GPIO_Pin)
 394:Drivers/STM32L4xx_HAL_Driver/Src/stm32l4xx_hal_gpio.c **** {
 748              		.loc 1 394 1 is_stmt 1 view -0
 749              		.cfi_startproc
 750              		@ args = 0, pretend = 0, frame = 0
 751              		@ frame_needed = 0, uses_anonymous_args = 0
 752              		@ link register save eliminated.
 395:Drivers/STM32L4xx_HAL_Driver/Src/stm32l4xx_hal_gpio.c ****   GPIO_PinState bitstatus;
 753              		.loc 1 395 3 view .LVU272
 396:Drivers/STM32L4xx_HAL_Driver/Src/stm32l4xx_hal_gpio.c **** 
 397:Drivers/STM32L4xx_HAL_Driver/Src/stm32l4xx_hal_gpio.c ****   /* Check the parameters */
 398:Drivers/STM32L4xx_HAL_Driver/Src/stm32l4xx_hal_gpio.c ****   assert_param(IS_GPIO_PIN(GPIO_Pin));
 754              		.loc 1 398 3 view .LVU273
 399:Drivers/STM32L4xx_HAL_Driver/Src/stm32l4xx_hal_gpio.c **** 
 400:Drivers/STM32L4xx_HAL_Driver/Src/stm32l4xx_hal_gpio.c ****   if ((GPIOx->IDR & GPIO_Pin) != 0x00u)
 755              		.loc 1 400 3 view .LVU274
 756              		.loc 1 400 13 is_stmt 0 view .LVU275
 757 0000 0369     		ldr	r3, [r0, #16]
 758              		.loc 1 400 6 view .LVU276
 759 0002 1942     		tst	r1, r3
 760 0004 01D0     		beq	.L53
 401:Drivers/STM32L4xx_HAL_Driver/Src/stm32l4xx_hal_gpio.c ****   {
 402:Drivers/STM32L4xx_HAL_Driver/Src/stm32l4xx_hal_gpio.c ****     bitstatus = GPIO_PIN_SET;
 761              		.loc 1 402 15 view .LVU277
 762 0006 0120     		movs	r0, #1
 763              	.LVL62:
 764              		.loc 1 402 15 view .LVU278
 765 0008 7047     		bx	lr
 766              	.LVL63:
 767              	.L53:
 403:Drivers/STM32L4xx_HAL_Driver/Src/stm32l4xx_hal_gpio.c ****   }
 404:Drivers/STM32L4xx_HAL_Driver/Src/stm32l4xx_hal_gpio.c ****   else
 405:Drivers/STM32L4xx_HAL_Driver/Src/stm32l4xx_hal_gpio.c ****   {
 406:Drivers/STM32L4xx_HAL_Driver/Src/stm32l4xx_hal_gpio.c ****     bitstatus = GPIO_PIN_RESET;
 768              		.loc 1 406 15 view .LVU279
 769 000a 0020     		movs	r0, #0
 770              	.LVL64:
 407:Drivers/STM32L4xx_HAL_Driver/Src/stm32l4xx_hal_gpio.c ****   }
 408:Drivers/STM32L4xx_HAL_Driver/Src/stm32l4xx_hal_gpio.c ****   return bitstatus;
 771              		.loc 1 408 3 is_stmt 1 view .LVU280
 409:Drivers/STM32L4xx_HAL_Driver/Src/stm32l4xx_hal_gpio.c **** }
 772              		.loc 1 409 1 is_stmt 0 view .LVU281
 773 000c 7047     		bx	lr
 774              		.cfi_endproc
 775              	.LFE134:
 777              		.section	.text.HAL_GPIO_WritePin,"ax",%progbits
ARM GAS  C:\Users\gigig\AppData\Local\Temp\cc3V8I1v.s 			page 24


 778              		.align	1
 779              		.global	HAL_GPIO_WritePin
 780              		.syntax unified
 781              		.thumb
 782              		.thumb_func
 784              	HAL_GPIO_WritePin:
 785              	.LVL65:
 786              	.LFB135:
 410:Drivers/STM32L4xx_HAL_Driver/Src/stm32l4xx_hal_gpio.c **** 
 411:Drivers/STM32L4xx_HAL_Driver/Src/stm32l4xx_hal_gpio.c **** /**
 412:Drivers/STM32L4xx_HAL_Driver/Src/stm32l4xx_hal_gpio.c ****   * @brief  Set or clear the selected data port bit.
 413:Drivers/STM32L4xx_HAL_Driver/Src/stm32l4xx_hal_gpio.c ****   *
 414:Drivers/STM32L4xx_HAL_Driver/Src/stm32l4xx_hal_gpio.c ****   * @note   This function uses GPIOx_BSRR and GPIOx_BRR registers to allow atomic read/modify
 415:Drivers/STM32L4xx_HAL_Driver/Src/stm32l4xx_hal_gpio.c ****   *         accesses. In this way, there is no risk of an IRQ occurring between
 416:Drivers/STM32L4xx_HAL_Driver/Src/stm32l4xx_hal_gpio.c ****   *         the read and the modify access.
 417:Drivers/STM32L4xx_HAL_Driver/Src/stm32l4xx_hal_gpio.c ****   *
 418:Drivers/STM32L4xx_HAL_Driver/Src/stm32l4xx_hal_gpio.c ****   * @param  GPIOx where x can be (A..H) to select the GPIO peripheral for STM32L4 family
 419:Drivers/STM32L4xx_HAL_Driver/Src/stm32l4xx_hal_gpio.c ****   * @param  GPIO_Pin specifies the port bit to be written.
 420:Drivers/STM32L4xx_HAL_Driver/Src/stm32l4xx_hal_gpio.c ****   *         This parameter can be any combination of GPIO_Pin_x where x can be (0..15).
 421:Drivers/STM32L4xx_HAL_Driver/Src/stm32l4xx_hal_gpio.c ****   * @param  PinState specifies the value to be written to the selected bit.
 422:Drivers/STM32L4xx_HAL_Driver/Src/stm32l4xx_hal_gpio.c ****   *         This parameter can be one of the GPIO_PinState enum values:
 423:Drivers/STM32L4xx_HAL_Driver/Src/stm32l4xx_hal_gpio.c ****   *            @arg GPIO_PIN_RESET: to clear the port pin
 424:Drivers/STM32L4xx_HAL_Driver/Src/stm32l4xx_hal_gpio.c ****   *            @arg GPIO_PIN_SET: to set the port pin
 425:Drivers/STM32L4xx_HAL_Driver/Src/stm32l4xx_hal_gpio.c ****   * @retval None
 426:Drivers/STM32L4xx_HAL_Driver/Src/stm32l4xx_hal_gpio.c ****   */
 427:Drivers/STM32L4xx_HAL_Driver/Src/stm32l4xx_hal_gpio.c **** void HAL_GPIO_WritePin(GPIO_TypeDef* GPIOx, uint16_t GPIO_Pin, GPIO_PinState PinState)
 428:Drivers/STM32L4xx_HAL_Driver/Src/stm32l4xx_hal_gpio.c **** {
 787              		.loc 1 428 1 is_stmt 1 view -0
 788              		.cfi_startproc
 789              		@ args = 0, pretend = 0, frame = 0
 790              		@ frame_needed = 0, uses_anonymous_args = 0
 791              		@ link register save eliminated.
 429:Drivers/STM32L4xx_HAL_Driver/Src/stm32l4xx_hal_gpio.c ****   /* Check the parameters */
 430:Drivers/STM32L4xx_HAL_Driver/Src/stm32l4xx_hal_gpio.c ****   assert_param(IS_GPIO_PIN(GPIO_Pin));
 792              		.loc 1 430 3 view .LVU283
 431:Drivers/STM32L4xx_HAL_Driver/Src/stm32l4xx_hal_gpio.c ****   assert_param(IS_GPIO_PIN_ACTION(PinState));
 793              		.loc 1 431 3 view .LVU284
 432:Drivers/STM32L4xx_HAL_Driver/Src/stm32l4xx_hal_gpio.c **** 
 433:Drivers/STM32L4xx_HAL_Driver/Src/stm32l4xx_hal_gpio.c ****   if(PinState != GPIO_PIN_RESET)
 794              		.loc 1 433 3 view .LVU285
 795              		.loc 1 433 5 is_stmt 0 view .LVU286
 796 0000 0AB1     		cbz	r2, .L55
 434:Drivers/STM32L4xx_HAL_Driver/Src/stm32l4xx_hal_gpio.c ****   {
 435:Drivers/STM32L4xx_HAL_Driver/Src/stm32l4xx_hal_gpio.c ****     GPIOx->BSRR = (uint32_t)GPIO_Pin;
 797              		.loc 1 435 5 is_stmt 1 view .LVU287
 798              		.loc 1 435 17 is_stmt 0 view .LVU288
 799 0002 8161     		str	r1, [r0, #24]
 800 0004 7047     		bx	lr
 801              	.L55:
 436:Drivers/STM32L4xx_HAL_Driver/Src/stm32l4xx_hal_gpio.c ****   }
 437:Drivers/STM32L4xx_HAL_Driver/Src/stm32l4xx_hal_gpio.c ****   else
 438:Drivers/STM32L4xx_HAL_Driver/Src/stm32l4xx_hal_gpio.c ****   {
 439:Drivers/STM32L4xx_HAL_Driver/Src/stm32l4xx_hal_gpio.c ****     GPIOx->BRR = (uint32_t)GPIO_Pin;
 802              		.loc 1 439 5 is_stmt 1 view .LVU289
 803              		.loc 1 439 16 is_stmt 0 view .LVU290
 804 0006 8162     		str	r1, [r0, #40]
 440:Drivers/STM32L4xx_HAL_Driver/Src/stm32l4xx_hal_gpio.c ****   }
ARM GAS  C:\Users\gigig\AppData\Local\Temp\cc3V8I1v.s 			page 25


 441:Drivers/STM32L4xx_HAL_Driver/Src/stm32l4xx_hal_gpio.c **** }
 805              		.loc 1 441 1 view .LVU291
 806 0008 7047     		bx	lr
 807              		.cfi_endproc
 808              	.LFE135:
 810              		.section	.text.HAL_GPIO_TogglePin,"ax",%progbits
 811              		.align	1
 812              		.global	HAL_GPIO_TogglePin
 813              		.syntax unified
 814              		.thumb
 815              		.thumb_func
 817              	HAL_GPIO_TogglePin:
 818              	.LVL66:
 819              	.LFB136:
 442:Drivers/STM32L4xx_HAL_Driver/Src/stm32l4xx_hal_gpio.c **** 
 443:Drivers/STM32L4xx_HAL_Driver/Src/stm32l4xx_hal_gpio.c **** /**
 444:Drivers/STM32L4xx_HAL_Driver/Src/stm32l4xx_hal_gpio.c ****   * @brief  Toggle the specified GPIO pin.
 445:Drivers/STM32L4xx_HAL_Driver/Src/stm32l4xx_hal_gpio.c ****   * @param  GPIOx where x can be (A..H) to select the GPIO peripheral for STM32L4 family
 446:Drivers/STM32L4xx_HAL_Driver/Src/stm32l4xx_hal_gpio.c ****   * @param  GPIO_Pin specifies the pin to be toggled.
 447:Drivers/STM32L4xx_HAL_Driver/Src/stm32l4xx_hal_gpio.c ****   * @retval None
 448:Drivers/STM32L4xx_HAL_Driver/Src/stm32l4xx_hal_gpio.c ****   */
 449:Drivers/STM32L4xx_HAL_Driver/Src/stm32l4xx_hal_gpio.c **** void HAL_GPIO_TogglePin(GPIO_TypeDef* GPIOx, uint16_t GPIO_Pin)
 450:Drivers/STM32L4xx_HAL_Driver/Src/stm32l4xx_hal_gpio.c **** {
 820              		.loc 1 450 1 is_stmt 1 view -0
 821              		.cfi_startproc
 822              		@ args = 0, pretend = 0, frame = 0
 823              		@ frame_needed = 0, uses_anonymous_args = 0
 824              		@ link register save eliminated.
 451:Drivers/STM32L4xx_HAL_Driver/Src/stm32l4xx_hal_gpio.c ****   uint32_t odr;
 825              		.loc 1 451 3 view .LVU293
 452:Drivers/STM32L4xx_HAL_Driver/Src/stm32l4xx_hal_gpio.c **** 
 453:Drivers/STM32L4xx_HAL_Driver/Src/stm32l4xx_hal_gpio.c ****   /* Check the parameters */
 454:Drivers/STM32L4xx_HAL_Driver/Src/stm32l4xx_hal_gpio.c ****   assert_param(IS_GPIO_PIN(GPIO_Pin));
 826              		.loc 1 454 3 view .LVU294
 455:Drivers/STM32L4xx_HAL_Driver/Src/stm32l4xx_hal_gpio.c **** 
 456:Drivers/STM32L4xx_HAL_Driver/Src/stm32l4xx_hal_gpio.c ****   /* get current Output Data Register value */
 457:Drivers/STM32L4xx_HAL_Driver/Src/stm32l4xx_hal_gpio.c ****   odr = GPIOx->ODR;
 827              		.loc 1 457 3 view .LVU295
 828              		.loc 1 457 7 is_stmt 0 view .LVU296
 829 0000 4369     		ldr	r3, [r0, #20]
 830              	.LVL67:
 458:Drivers/STM32L4xx_HAL_Driver/Src/stm32l4xx_hal_gpio.c **** 
 459:Drivers/STM32L4xx_HAL_Driver/Src/stm32l4xx_hal_gpio.c ****   /* Set selected pins that were at low level, and reset ones that were high */
 460:Drivers/STM32L4xx_HAL_Driver/Src/stm32l4xx_hal_gpio.c ****   GPIOx->BSRR = ((odr & GPIO_Pin) << GPIO_NUMBER) | (~odr & GPIO_Pin);
 831              		.loc 1 460 3 is_stmt 1 view .LVU297
 832              		.loc 1 460 23 is_stmt 0 view .LVU298
 833 0002 01EA0302 		and	r2, r1, r3
 834              		.loc 1 460 59 view .LVU299
 835 0006 21EA0301 		bic	r1, r1, r3
 836              	.LVL68:
 837              		.loc 1 460 51 view .LVU300
 838 000a 41EA0241 		orr	r1, r1, r2, lsl #16
 839              		.loc 1 460 15 view .LVU301
 840 000e 8161     		str	r1, [r0, #24]
 461:Drivers/STM32L4xx_HAL_Driver/Src/stm32l4xx_hal_gpio.c **** }
 841              		.loc 1 461 1 view .LVU302
 842 0010 7047     		bx	lr
ARM GAS  C:\Users\gigig\AppData\Local\Temp\cc3V8I1v.s 			page 26


 843              		.cfi_endproc
 844              	.LFE136:
 846              		.section	.text.HAL_GPIO_LockPin,"ax",%progbits
 847              		.align	1
 848              		.global	HAL_GPIO_LockPin
 849              		.syntax unified
 850              		.thumb
 851              		.thumb_func
 853              	HAL_GPIO_LockPin:
 854              	.LVL69:
 855              	.LFB137:
 462:Drivers/STM32L4xx_HAL_Driver/Src/stm32l4xx_hal_gpio.c **** 
 463:Drivers/STM32L4xx_HAL_Driver/Src/stm32l4xx_hal_gpio.c **** /**
 464:Drivers/STM32L4xx_HAL_Driver/Src/stm32l4xx_hal_gpio.c **** * @brief  Lock GPIO Pins configuration registers.
 465:Drivers/STM32L4xx_HAL_Driver/Src/stm32l4xx_hal_gpio.c ****   * @note   The locked registers are GPIOx_MODER, GPIOx_OTYPER, GPIOx_OSPEEDR,
 466:Drivers/STM32L4xx_HAL_Driver/Src/stm32l4xx_hal_gpio.c ****   *         GPIOx_PUPDR, GPIOx_AFRL and GPIOx_AFRH.
 467:Drivers/STM32L4xx_HAL_Driver/Src/stm32l4xx_hal_gpio.c ****   * @note   The configuration of the locked GPIO pins can no longer be modified
 468:Drivers/STM32L4xx_HAL_Driver/Src/stm32l4xx_hal_gpio.c ****   *         until the next reset.
 469:Drivers/STM32L4xx_HAL_Driver/Src/stm32l4xx_hal_gpio.c ****   * @param  GPIOx where x can be (A..H) to select the GPIO peripheral for STM32L4 family
 470:Drivers/STM32L4xx_HAL_Driver/Src/stm32l4xx_hal_gpio.c ****   * @param  GPIO_Pin specifies the port bits to be locked.
 471:Drivers/STM32L4xx_HAL_Driver/Src/stm32l4xx_hal_gpio.c ****   *         This parameter can be any combination of GPIO_Pin_x where x can be (0..15).
 472:Drivers/STM32L4xx_HAL_Driver/Src/stm32l4xx_hal_gpio.c ****   * @retval None
 473:Drivers/STM32L4xx_HAL_Driver/Src/stm32l4xx_hal_gpio.c ****   */
 474:Drivers/STM32L4xx_HAL_Driver/Src/stm32l4xx_hal_gpio.c **** HAL_StatusTypeDef HAL_GPIO_LockPin(GPIO_TypeDef* GPIOx, uint16_t GPIO_Pin)
 475:Drivers/STM32L4xx_HAL_Driver/Src/stm32l4xx_hal_gpio.c **** {
 856              		.loc 1 475 1 is_stmt 1 view -0
 857              		.cfi_startproc
 858              		@ args = 0, pretend = 0, frame = 8
 859              		@ frame_needed = 0, uses_anonymous_args = 0
 860              		@ link register save eliminated.
 861              		.loc 1 475 1 is_stmt 0 view .LVU304
 862 0000 82B0     		sub	sp, sp, #8
 863              		.cfi_def_cfa_offset 8
 476:Drivers/STM32L4xx_HAL_Driver/Src/stm32l4xx_hal_gpio.c ****   __IO uint32_t tmp = GPIO_LCKR_LCKK;
 864              		.loc 1 476 3 is_stmt 1 view .LVU305
 865              		.loc 1 476 17 is_stmt 0 view .LVU306
 866 0002 4FF48033 		mov	r3, #65536
 867 0006 0193     		str	r3, [sp, #4]
 477:Drivers/STM32L4xx_HAL_Driver/Src/stm32l4xx_hal_gpio.c **** 
 478:Drivers/STM32L4xx_HAL_Driver/Src/stm32l4xx_hal_gpio.c ****   /* Check the parameters */
 479:Drivers/STM32L4xx_HAL_Driver/Src/stm32l4xx_hal_gpio.c ****   assert_param(IS_GPIO_LOCK_INSTANCE(GPIOx));
 868              		.loc 1 479 3 is_stmt 1 view .LVU307
 480:Drivers/STM32L4xx_HAL_Driver/Src/stm32l4xx_hal_gpio.c ****   assert_param(IS_GPIO_PIN(GPIO_Pin));
 869              		.loc 1 480 3 view .LVU308
 481:Drivers/STM32L4xx_HAL_Driver/Src/stm32l4xx_hal_gpio.c **** 
 482:Drivers/STM32L4xx_HAL_Driver/Src/stm32l4xx_hal_gpio.c ****   /* Apply lock key write sequence */
 483:Drivers/STM32L4xx_HAL_Driver/Src/stm32l4xx_hal_gpio.c ****   tmp |= GPIO_Pin;
 870              		.loc 1 483 3 view .LVU309
 871              		.loc 1 483 7 is_stmt 0 view .LVU310
 872 0008 019B     		ldr	r3, [sp, #4]
 873 000a 0B43     		orrs	r3, r3, r1
 874 000c 0193     		str	r3, [sp, #4]
 484:Drivers/STM32L4xx_HAL_Driver/Src/stm32l4xx_hal_gpio.c ****   /* Set LCKx bit(s): LCKK='1' + LCK[15-0] */
 485:Drivers/STM32L4xx_HAL_Driver/Src/stm32l4xx_hal_gpio.c ****   GPIOx->LCKR = tmp;
 875              		.loc 1 485 3 is_stmt 1 view .LVU311
 876              		.loc 1 485 15 is_stmt 0 view .LVU312
 877 000e 019B     		ldr	r3, [sp, #4]
ARM GAS  C:\Users\gigig\AppData\Local\Temp\cc3V8I1v.s 			page 27


 878 0010 C361     		str	r3, [r0, #28]
 486:Drivers/STM32L4xx_HAL_Driver/Src/stm32l4xx_hal_gpio.c ****   /* Reset LCKx bit(s): LCKK='0' + LCK[15-0] */
 487:Drivers/STM32L4xx_HAL_Driver/Src/stm32l4xx_hal_gpio.c ****   GPIOx->LCKR = GPIO_Pin;
 879              		.loc 1 487 3 is_stmt 1 view .LVU313
 880              		.loc 1 487 15 is_stmt 0 view .LVU314
 881 0012 C161     		str	r1, [r0, #28]
 488:Drivers/STM32L4xx_HAL_Driver/Src/stm32l4xx_hal_gpio.c ****   /* Set LCKx bit(s): LCKK='1' + LCK[15-0] */
 489:Drivers/STM32L4xx_HAL_Driver/Src/stm32l4xx_hal_gpio.c ****   GPIOx->LCKR = tmp;
 882              		.loc 1 489 3 is_stmt 1 view .LVU315
 883              		.loc 1 489 15 is_stmt 0 view .LVU316
 884 0014 019B     		ldr	r3, [sp, #4]
 885 0016 C361     		str	r3, [r0, #28]
 490:Drivers/STM32L4xx_HAL_Driver/Src/stm32l4xx_hal_gpio.c ****   /* Read LCKK register. This read is mandatory to complete key lock sequence */
 491:Drivers/STM32L4xx_HAL_Driver/Src/stm32l4xx_hal_gpio.c ****   tmp = GPIOx->LCKR;
 886              		.loc 1 491 3 is_stmt 1 view .LVU317
 887              		.loc 1 491 14 is_stmt 0 view .LVU318
 888 0018 C369     		ldr	r3, [r0, #28]
 889              		.loc 1 491 7 view .LVU319
 890 001a 0193     		str	r3, [sp, #4]
 492:Drivers/STM32L4xx_HAL_Driver/Src/stm32l4xx_hal_gpio.c **** 
 493:Drivers/STM32L4xx_HAL_Driver/Src/stm32l4xx_hal_gpio.c ****   /* Read again in order to confirm lock is active */
 494:Drivers/STM32L4xx_HAL_Driver/Src/stm32l4xx_hal_gpio.c ****   if ((GPIOx->LCKR & GPIO_LCKR_LCKK) != 0x00u)
 891              		.loc 1 494 3 is_stmt 1 view .LVU320
 892              		.loc 1 494 13 is_stmt 0 view .LVU321
 893 001c C369     		ldr	r3, [r0, #28]
 894              		.loc 1 494 6 view .LVU322
 895 001e 13F4803F 		tst	r3, #65536
 896 0022 02D0     		beq	.L60
 495:Drivers/STM32L4xx_HAL_Driver/Src/stm32l4xx_hal_gpio.c ****   {
 496:Drivers/STM32L4xx_HAL_Driver/Src/stm32l4xx_hal_gpio.c ****     return HAL_OK;
 897              		.loc 1 496 12 view .LVU323
 898 0024 0020     		movs	r0, #0
 899              	.LVL70:
 900              	.L59:
 497:Drivers/STM32L4xx_HAL_Driver/Src/stm32l4xx_hal_gpio.c ****   }
 498:Drivers/STM32L4xx_HAL_Driver/Src/stm32l4xx_hal_gpio.c ****   else
 499:Drivers/STM32L4xx_HAL_Driver/Src/stm32l4xx_hal_gpio.c ****   {
 500:Drivers/STM32L4xx_HAL_Driver/Src/stm32l4xx_hal_gpio.c ****     return HAL_ERROR;
 501:Drivers/STM32L4xx_HAL_Driver/Src/stm32l4xx_hal_gpio.c ****   }
 502:Drivers/STM32L4xx_HAL_Driver/Src/stm32l4xx_hal_gpio.c **** }
 901              		.loc 1 502 1 view .LVU324
 902 0026 02B0     		add	sp, sp, #8
 903              		.cfi_remember_state
 904              		.cfi_def_cfa_offset 0
 905              		@ sp needed
 906 0028 7047     		bx	lr
 907              	.LVL71:
 908              	.L60:
 909              		.cfi_restore_state
 500:Drivers/STM32L4xx_HAL_Driver/Src/stm32l4xx_hal_gpio.c ****   }
 910              		.loc 1 500 12 view .LVU325
 911 002a 0120     		movs	r0, #1
 912              	.LVL72:
 500:Drivers/STM32L4xx_HAL_Driver/Src/stm32l4xx_hal_gpio.c ****   }
 913              		.loc 1 500 12 view .LVU326
 914 002c FBE7     		b	.L59
 915              		.cfi_endproc
ARM GAS  C:\Users\gigig\AppData\Local\Temp\cc3V8I1v.s 			page 28


 916              	.LFE137:
 918              		.section	.text.HAL_GPIO_EXTI_Callback,"ax",%progbits
 919              		.align	1
 920              		.weak	HAL_GPIO_EXTI_Callback
 921              		.syntax unified
 922              		.thumb
 923              		.thumb_func
 925              	HAL_GPIO_EXTI_Callback:
 926              	.LVL73:
 927              	.LFB139:
 503:Drivers/STM32L4xx_HAL_Driver/Src/stm32l4xx_hal_gpio.c **** 
 504:Drivers/STM32L4xx_HAL_Driver/Src/stm32l4xx_hal_gpio.c **** /**
 505:Drivers/STM32L4xx_HAL_Driver/Src/stm32l4xx_hal_gpio.c ****   * @brief  Handle EXTI interrupt request.
 506:Drivers/STM32L4xx_HAL_Driver/Src/stm32l4xx_hal_gpio.c ****   * @param  GPIO_Pin Specifies the port pin connected to corresponding EXTI line.
 507:Drivers/STM32L4xx_HAL_Driver/Src/stm32l4xx_hal_gpio.c ****   * @retval None
 508:Drivers/STM32L4xx_HAL_Driver/Src/stm32l4xx_hal_gpio.c ****   */
 509:Drivers/STM32L4xx_HAL_Driver/Src/stm32l4xx_hal_gpio.c **** void HAL_GPIO_EXTI_IRQHandler(uint16_t GPIO_Pin)
 510:Drivers/STM32L4xx_HAL_Driver/Src/stm32l4xx_hal_gpio.c **** {
 511:Drivers/STM32L4xx_HAL_Driver/Src/stm32l4xx_hal_gpio.c ****   /* EXTI line interrupt detected */
 512:Drivers/STM32L4xx_HAL_Driver/Src/stm32l4xx_hal_gpio.c ****   if(__HAL_GPIO_EXTI_GET_IT(GPIO_Pin) != 0x00u)
 513:Drivers/STM32L4xx_HAL_Driver/Src/stm32l4xx_hal_gpio.c ****   {
 514:Drivers/STM32L4xx_HAL_Driver/Src/stm32l4xx_hal_gpio.c ****     __HAL_GPIO_EXTI_CLEAR_IT(GPIO_Pin);
 515:Drivers/STM32L4xx_HAL_Driver/Src/stm32l4xx_hal_gpio.c ****     HAL_GPIO_EXTI_Callback(GPIO_Pin);
 516:Drivers/STM32L4xx_HAL_Driver/Src/stm32l4xx_hal_gpio.c ****   }
 517:Drivers/STM32L4xx_HAL_Driver/Src/stm32l4xx_hal_gpio.c **** }
 518:Drivers/STM32L4xx_HAL_Driver/Src/stm32l4xx_hal_gpio.c **** 
 519:Drivers/STM32L4xx_HAL_Driver/Src/stm32l4xx_hal_gpio.c **** /**
 520:Drivers/STM32L4xx_HAL_Driver/Src/stm32l4xx_hal_gpio.c ****   * @brief  EXTI line detection callback.
 521:Drivers/STM32L4xx_HAL_Driver/Src/stm32l4xx_hal_gpio.c ****   * @param  GPIO_Pin Specifies the port pin connected to corresponding EXTI line.
 522:Drivers/STM32L4xx_HAL_Driver/Src/stm32l4xx_hal_gpio.c ****   * @retval None
 523:Drivers/STM32L4xx_HAL_Driver/Src/stm32l4xx_hal_gpio.c ****   */
 524:Drivers/STM32L4xx_HAL_Driver/Src/stm32l4xx_hal_gpio.c **** __weak void HAL_GPIO_EXTI_Callback(uint16_t GPIO_Pin)
 525:Drivers/STM32L4xx_HAL_Driver/Src/stm32l4xx_hal_gpio.c **** {
 928              		.loc 1 525 1 is_stmt 1 view -0
 929              		.cfi_startproc
 930              		@ args = 0, pretend = 0, frame = 0
 931              		@ frame_needed = 0, uses_anonymous_args = 0
 932              		@ link register save eliminated.
 526:Drivers/STM32L4xx_HAL_Driver/Src/stm32l4xx_hal_gpio.c ****   /* Prevent unused argument(s) compilation warning */
 527:Drivers/STM32L4xx_HAL_Driver/Src/stm32l4xx_hal_gpio.c ****   UNUSED(GPIO_Pin);
 933              		.loc 1 527 3 view .LVU328
 528:Drivers/STM32L4xx_HAL_Driver/Src/stm32l4xx_hal_gpio.c **** 
 529:Drivers/STM32L4xx_HAL_Driver/Src/stm32l4xx_hal_gpio.c ****   /* NOTE: This function should not be modified, when the callback is needed,
 530:Drivers/STM32L4xx_HAL_Driver/Src/stm32l4xx_hal_gpio.c ****            the HAL_GPIO_EXTI_Callback could be implemented in the user file
 531:Drivers/STM32L4xx_HAL_Driver/Src/stm32l4xx_hal_gpio.c ****    */
 532:Drivers/STM32L4xx_HAL_Driver/Src/stm32l4xx_hal_gpio.c **** }
 934              		.loc 1 532 1 is_stmt 0 view .LVU329
 935 0000 7047     		bx	lr
 936              		.cfi_endproc
 937              	.LFE139:
 939              		.section	.text.HAL_GPIO_EXTI_IRQHandler,"ax",%progbits
 940              		.align	1
 941              		.global	HAL_GPIO_EXTI_IRQHandler
 942              		.syntax unified
 943              		.thumb
 944              		.thumb_func
 946              	HAL_GPIO_EXTI_IRQHandler:
ARM GAS  C:\Users\gigig\AppData\Local\Temp\cc3V8I1v.s 			page 29


 947              	.LVL74:
 948              	.LFB138:
 510:Drivers/STM32L4xx_HAL_Driver/Src/stm32l4xx_hal_gpio.c ****   /* EXTI line interrupt detected */
 949              		.loc 1 510 1 is_stmt 1 view -0
 950              		.cfi_startproc
 951              		@ args = 0, pretend = 0, frame = 0
 952              		@ frame_needed = 0, uses_anonymous_args = 0
 510:Drivers/STM32L4xx_HAL_Driver/Src/stm32l4xx_hal_gpio.c ****   /* EXTI line interrupt detected */
 953              		.loc 1 510 1 is_stmt 0 view .LVU331
 954 0000 08B5     		push	{r3, lr}
 955              		.cfi_def_cfa_offset 8
 956              		.cfi_offset 3, -8
 957              		.cfi_offset 14, -4
 512:Drivers/STM32L4xx_HAL_Driver/Src/stm32l4xx_hal_gpio.c ****   {
 958              		.loc 1 512 3 is_stmt 1 view .LVU332
 512:Drivers/STM32L4xx_HAL_Driver/Src/stm32l4xx_hal_gpio.c ****   {
 959              		.loc 1 512 6 is_stmt 0 view .LVU333
 960 0002 054B     		ldr	r3, .L67
 961 0004 5B69     		ldr	r3, [r3, #20]
 512:Drivers/STM32L4xx_HAL_Driver/Src/stm32l4xx_hal_gpio.c ****   {
 962              		.loc 1 512 5 view .LVU334
 963 0006 0342     		tst	r3, r0
 964 0008 00D1     		bne	.L66
 965              	.LVL75:
 966              	.L63:
 517:Drivers/STM32L4xx_HAL_Driver/Src/stm32l4xx_hal_gpio.c **** 
 967              		.loc 1 517 1 view .LVU335
 968 000a 08BD     		pop	{r3, pc}
 969              	.LVL76:
 970              	.L66:
 514:Drivers/STM32L4xx_HAL_Driver/Src/stm32l4xx_hal_gpio.c ****     HAL_GPIO_EXTI_Callback(GPIO_Pin);
 971              		.loc 1 514 5 is_stmt 1 view .LVU336
 972 000c 024B     		ldr	r3, .L67
 973 000e 5861     		str	r0, [r3, #20]
 515:Drivers/STM32L4xx_HAL_Driver/Src/stm32l4xx_hal_gpio.c ****   }
 974              		.loc 1 515 5 view .LVU337
 975 0010 FFF7FEFF 		bl	HAL_GPIO_EXTI_Callback
 976              	.LVL77:
 517:Drivers/STM32L4xx_HAL_Driver/Src/stm32l4xx_hal_gpio.c **** 
 977              		.loc 1 517 1 is_stmt 0 view .LVU338
 978 0014 F9E7     		b	.L63
 979              	.L68:
 980 0016 00BF     		.align	2
 981              	.L67:
 982 0018 00040140 		.word	1073808384
 983              		.cfi_endproc
 984              	.LFE138:
 986              		.text
 987              	.Letext0:
 988              		.file 2 "C:/Users/gigig/AppData/Roaming/Code/User/globalStorage/bmd.stm32-for-vscode/@xpack-dev-to
 989              		.file 3 "C:/Users/gigig/AppData/Roaming/Code/User/globalStorage/bmd.stm32-for-vscode/@xpack-dev-to
 990              		.file 4 "Drivers/CMSIS/Device/ST/STM32L4xx/Include/stm32l4r5xx.h"
 991              		.file 5 "Drivers/STM32L4xx_HAL_Driver/Inc/stm32l4xx_hal_def.h"
 992              		.file 6 "Drivers/STM32L4xx_HAL_Driver/Inc/stm32l4xx_hal_gpio.h"
ARM GAS  C:\Users\gigig\AppData\Local\Temp\cc3V8I1v.s 			page 30

