ARM GAS  C:\Users\gigig\AppData\Local\Temp\cc64rzRb.s 			page 1


   1              		.cpu cortex-m7
   2              		.arch armv7e-m
   3              		.fpu fpv4-sp-d16
   4              		.eabi_attribute 27, 1
   5              		.eabi_attribute 28, 1
   6              		.eabi_attribute 20, 1
   7              		.eabi_attribute 21, 1
   8              		.eabi_attribute 23, 3
   9              		.eabi_attribute 24, 1
  10              		.eabi_attribute 25, 1
  11              		.eabi_attribute 26, 1
  12              		.eabi_attribute 30, 1
  13              		.eabi_attribute 34, 1
  14              		.eabi_attribute 18, 4
  15              		.file	"stm32h7xx_hal.c"
  16              		.text
  17              	.Ltext0:
  18              		.cfi_sections	.debug_frame
  19              		.file 1 "../../Drivers/STM32H7xx_HAL_Driver/Src/stm32h7xx_hal.c"
  20              		.section	.text.HAL_MspInit,"ax",%progbits
  21              		.align	1
  22              		.weak	HAL_MspInit
  23              		.syntax unified
  24              		.thumb
  25              		.thumb_func
  27              	HAL_MspInit:
  28              	.LFB134:
   1:../../Drivers/STM32H7xx_HAL_Driver/Src/stm32h7xx_hal.c **** /**
   2:../../Drivers/STM32H7xx_HAL_Driver/Src/stm32h7xx_hal.c ****   ******************************************************************************
   3:../../Drivers/STM32H7xx_HAL_Driver/Src/stm32h7xx_hal.c ****   * @file    stm32h7xx_hal.c
   4:../../Drivers/STM32H7xx_HAL_Driver/Src/stm32h7xx_hal.c ****   * @author  MCD Application Team
   5:../../Drivers/STM32H7xx_HAL_Driver/Src/stm32h7xx_hal.c ****   * @brief   HAL module driver.
   6:../../Drivers/STM32H7xx_HAL_Driver/Src/stm32h7xx_hal.c ****   *          This is the common part of the HAL initialization
   7:../../Drivers/STM32H7xx_HAL_Driver/Src/stm32h7xx_hal.c ****   *
   8:../../Drivers/STM32H7xx_HAL_Driver/Src/stm32h7xx_hal.c ****   ******************************************************************************
   9:../../Drivers/STM32H7xx_HAL_Driver/Src/stm32h7xx_hal.c ****   * @attention
  10:../../Drivers/STM32H7xx_HAL_Driver/Src/stm32h7xx_hal.c ****   *
  11:../../Drivers/STM32H7xx_HAL_Driver/Src/stm32h7xx_hal.c ****   * Copyright (c) 2017 STMicroelectronics.
  12:../../Drivers/STM32H7xx_HAL_Driver/Src/stm32h7xx_hal.c ****   * All rights reserved.
  13:../../Drivers/STM32H7xx_HAL_Driver/Src/stm32h7xx_hal.c ****   *
  14:../../Drivers/STM32H7xx_HAL_Driver/Src/stm32h7xx_hal.c ****   * This software is licensed under terms that can be found in the LICENSE file
  15:../../Drivers/STM32H7xx_HAL_Driver/Src/stm32h7xx_hal.c ****   * in the root directory of this software component.
  16:../../Drivers/STM32H7xx_HAL_Driver/Src/stm32h7xx_hal.c ****   * If no LICENSE file comes with this software, it is provided AS-IS.
  17:../../Drivers/STM32H7xx_HAL_Driver/Src/stm32h7xx_hal.c ****   *
  18:../../Drivers/STM32H7xx_HAL_Driver/Src/stm32h7xx_hal.c ****   ******************************************************************************
  19:../../Drivers/STM32H7xx_HAL_Driver/Src/stm32h7xx_hal.c ****   @verbatim
  20:../../Drivers/STM32H7xx_HAL_Driver/Src/stm32h7xx_hal.c ****   ==============================================================================
  21:../../Drivers/STM32H7xx_HAL_Driver/Src/stm32h7xx_hal.c ****                      ##### How to use this driver #####
  22:../../Drivers/STM32H7xx_HAL_Driver/Src/stm32h7xx_hal.c ****   ==============================================================================
  23:../../Drivers/STM32H7xx_HAL_Driver/Src/stm32h7xx_hal.c ****     [..]
  24:../../Drivers/STM32H7xx_HAL_Driver/Src/stm32h7xx_hal.c ****     The common HAL driver contains a set of generic and common APIs that can be
  25:../../Drivers/STM32H7xx_HAL_Driver/Src/stm32h7xx_hal.c ****     used by the PPP peripheral drivers and the user to start using the HAL.
  26:../../Drivers/STM32H7xx_HAL_Driver/Src/stm32h7xx_hal.c ****     [..]
  27:../../Drivers/STM32H7xx_HAL_Driver/Src/stm32h7xx_hal.c ****     The HAL contains two APIs' categories:
  28:../../Drivers/STM32H7xx_HAL_Driver/Src/stm32h7xx_hal.c ****          (+) Common HAL APIs
  29:../../Drivers/STM32H7xx_HAL_Driver/Src/stm32h7xx_hal.c ****          (+) Services HAL APIs
  30:../../Drivers/STM32H7xx_HAL_Driver/Src/stm32h7xx_hal.c **** 
ARM GAS  C:\Users\gigig\AppData\Local\Temp\cc64rzRb.s 			page 2


  31:../../Drivers/STM32H7xx_HAL_Driver/Src/stm32h7xx_hal.c ****   @endverbatim
  32:../../Drivers/STM32H7xx_HAL_Driver/Src/stm32h7xx_hal.c ****   ******************************************************************************
  33:../../Drivers/STM32H7xx_HAL_Driver/Src/stm32h7xx_hal.c ****   */
  34:../../Drivers/STM32H7xx_HAL_Driver/Src/stm32h7xx_hal.c **** 
  35:../../Drivers/STM32H7xx_HAL_Driver/Src/stm32h7xx_hal.c **** /* Includes ------------------------------------------------------------------*/
  36:../../Drivers/STM32H7xx_HAL_Driver/Src/stm32h7xx_hal.c **** #include "stm32h7xx_hal.h"
  37:../../Drivers/STM32H7xx_HAL_Driver/Src/stm32h7xx_hal.c **** 
  38:../../Drivers/STM32H7xx_HAL_Driver/Src/stm32h7xx_hal.c **** /** @addtogroup STM32H7xx_HAL_Driver
  39:../../Drivers/STM32H7xx_HAL_Driver/Src/stm32h7xx_hal.c ****   * @{
  40:../../Drivers/STM32H7xx_HAL_Driver/Src/stm32h7xx_hal.c ****   */
  41:../../Drivers/STM32H7xx_HAL_Driver/Src/stm32h7xx_hal.c **** 
  42:../../Drivers/STM32H7xx_HAL_Driver/Src/stm32h7xx_hal.c **** /** @defgroup HAL  HAL
  43:../../Drivers/STM32H7xx_HAL_Driver/Src/stm32h7xx_hal.c ****   * @brief HAL module driver.
  44:../../Drivers/STM32H7xx_HAL_Driver/Src/stm32h7xx_hal.c ****   * @{
  45:../../Drivers/STM32H7xx_HAL_Driver/Src/stm32h7xx_hal.c ****   */
  46:../../Drivers/STM32H7xx_HAL_Driver/Src/stm32h7xx_hal.c **** 
  47:../../Drivers/STM32H7xx_HAL_Driver/Src/stm32h7xx_hal.c **** /* Private typedef -----------------------------------------------------------*/
  48:../../Drivers/STM32H7xx_HAL_Driver/Src/stm32h7xx_hal.c **** /* Private define ------------------------------------------------------------*/
  49:../../Drivers/STM32H7xx_HAL_Driver/Src/stm32h7xx_hal.c **** /**
  50:../../Drivers/STM32H7xx_HAL_Driver/Src/stm32h7xx_hal.c ****  * @brief STM32H7xx HAL Driver version number V1.11.1
  51:../../Drivers/STM32H7xx_HAL_Driver/Src/stm32h7xx_hal.c ****    */
  52:../../Drivers/STM32H7xx_HAL_Driver/Src/stm32h7xx_hal.c **** #define __STM32H7xx_HAL_VERSION_MAIN   (0x01UL) /*!< [31:24] main version */
  53:../../Drivers/STM32H7xx_HAL_Driver/Src/stm32h7xx_hal.c **** #define __STM32H7xx_HAL_VERSION_SUB1   (0x0BUL) /*!< [23:16] sub1 version */
  54:../../Drivers/STM32H7xx_HAL_Driver/Src/stm32h7xx_hal.c **** #define __STM32H7xx_HAL_VERSION_SUB2   (0x01UL) /*!< [15:8]  sub2 version */
  55:../../Drivers/STM32H7xx_HAL_Driver/Src/stm32h7xx_hal.c **** #define __STM32H7xx_HAL_VERSION_RC     (0x00UL) /*!< [7:0]  release candidate */
  56:../../Drivers/STM32H7xx_HAL_Driver/Src/stm32h7xx_hal.c **** #define __STM32H7xx_HAL_VERSION         ((__STM32H7xx_HAL_VERSION_MAIN << 24)\
  57:../../Drivers/STM32H7xx_HAL_Driver/Src/stm32h7xx_hal.c ****                                         |(__STM32H7xx_HAL_VERSION_SUB1 << 16)\
  58:../../Drivers/STM32H7xx_HAL_Driver/Src/stm32h7xx_hal.c ****                                         |(__STM32H7xx_HAL_VERSION_SUB2 << 8 )\
  59:../../Drivers/STM32H7xx_HAL_Driver/Src/stm32h7xx_hal.c ****                                         |(__STM32H7xx_HAL_VERSION_RC))
  60:../../Drivers/STM32H7xx_HAL_Driver/Src/stm32h7xx_hal.c **** 
  61:../../Drivers/STM32H7xx_HAL_Driver/Src/stm32h7xx_hal.c **** #define IDCODE_DEVID_MASK    ((uint32_t)0x00000FFF)
  62:../../Drivers/STM32H7xx_HAL_Driver/Src/stm32h7xx_hal.c **** #define VREFBUF_TIMEOUT_VALUE     (uint32_t)10   /* 10 ms  */
  63:../../Drivers/STM32H7xx_HAL_Driver/Src/stm32h7xx_hal.c **** 
  64:../../Drivers/STM32H7xx_HAL_Driver/Src/stm32h7xx_hal.c **** /* Private macro -------------------------------------------------------------*/
  65:../../Drivers/STM32H7xx_HAL_Driver/Src/stm32h7xx_hal.c **** /* Private variables ---------------------------------------------------------*/
  66:../../Drivers/STM32H7xx_HAL_Driver/Src/stm32h7xx_hal.c **** /* Exported variables --------------------------------------------------------*/
  67:../../Drivers/STM32H7xx_HAL_Driver/Src/stm32h7xx_hal.c **** 
  68:../../Drivers/STM32H7xx_HAL_Driver/Src/stm32h7xx_hal.c **** /** @defgroup HAL_Exported_Variables HAL Exported Variables
  69:../../Drivers/STM32H7xx_HAL_Driver/Src/stm32h7xx_hal.c ****   * @{
  70:../../Drivers/STM32H7xx_HAL_Driver/Src/stm32h7xx_hal.c ****   */
  71:../../Drivers/STM32H7xx_HAL_Driver/Src/stm32h7xx_hal.c **** __IO uint32_t uwTick;
  72:../../Drivers/STM32H7xx_HAL_Driver/Src/stm32h7xx_hal.c **** uint32_t uwTickPrio   = (1UL << __NVIC_PRIO_BITS); /* Invalid PRIO */
  73:../../Drivers/STM32H7xx_HAL_Driver/Src/stm32h7xx_hal.c **** HAL_TickFreqTypeDef uwTickFreq = HAL_TICK_FREQ_DEFAULT;  /* 1KHz */
  74:../../Drivers/STM32H7xx_HAL_Driver/Src/stm32h7xx_hal.c **** /**
  75:../../Drivers/STM32H7xx_HAL_Driver/Src/stm32h7xx_hal.c ****   * @}
  76:../../Drivers/STM32H7xx_HAL_Driver/Src/stm32h7xx_hal.c ****   */
  77:../../Drivers/STM32H7xx_HAL_Driver/Src/stm32h7xx_hal.c **** 
  78:../../Drivers/STM32H7xx_HAL_Driver/Src/stm32h7xx_hal.c **** /* Private function prototypes -----------------------------------------------*/
  79:../../Drivers/STM32H7xx_HAL_Driver/Src/stm32h7xx_hal.c **** /* Private functions ---------------------------------------------------------*/
  80:../../Drivers/STM32H7xx_HAL_Driver/Src/stm32h7xx_hal.c **** 
  81:../../Drivers/STM32H7xx_HAL_Driver/Src/stm32h7xx_hal.c **** /** @addtogroup HAL_Exported_Functions
  82:../../Drivers/STM32H7xx_HAL_Driver/Src/stm32h7xx_hal.c ****   * @{
  83:../../Drivers/STM32H7xx_HAL_Driver/Src/stm32h7xx_hal.c ****   */
  84:../../Drivers/STM32H7xx_HAL_Driver/Src/stm32h7xx_hal.c **** 
  85:../../Drivers/STM32H7xx_HAL_Driver/Src/stm32h7xx_hal.c **** /** @addtogroup HAL_Group1
  86:../../Drivers/STM32H7xx_HAL_Driver/Src/stm32h7xx_hal.c ****  *  @brief    Initialization and de-initialization functions
  87:../../Drivers/STM32H7xx_HAL_Driver/Src/stm32h7xx_hal.c ****  *
ARM GAS  C:\Users\gigig\AppData\Local\Temp\cc64rzRb.s 			page 3


  88:../../Drivers/STM32H7xx_HAL_Driver/Src/stm32h7xx_hal.c **** @verbatim
  89:../../Drivers/STM32H7xx_HAL_Driver/Src/stm32h7xx_hal.c ****  ===============================================================================
  90:../../Drivers/STM32H7xx_HAL_Driver/Src/stm32h7xx_hal.c ****               ##### Initialization and de-initialization functions #####
  91:../../Drivers/STM32H7xx_HAL_Driver/Src/stm32h7xx_hal.c ****  ===============================================================================
  92:../../Drivers/STM32H7xx_HAL_Driver/Src/stm32h7xx_hal.c ****     [..]  This section provides functions allowing to:
  93:../../Drivers/STM32H7xx_HAL_Driver/Src/stm32h7xx_hal.c ****       (+) Initializes the Flash interface the NVIC allocation and initial clock
  94:../../Drivers/STM32H7xx_HAL_Driver/Src/stm32h7xx_hal.c ****           configuration. It initializes the systick also when timeout is needed
  95:../../Drivers/STM32H7xx_HAL_Driver/Src/stm32h7xx_hal.c ****           and the backup domain when enabled.
  96:../../Drivers/STM32H7xx_HAL_Driver/Src/stm32h7xx_hal.c ****       (+) De-Initializes common part of the HAL.
  97:../../Drivers/STM32H7xx_HAL_Driver/Src/stm32h7xx_hal.c ****       (+) Configure The time base source to have 1ms time base with a dedicated
  98:../../Drivers/STM32H7xx_HAL_Driver/Src/stm32h7xx_hal.c ****           Tick interrupt priority.
  99:../../Drivers/STM32H7xx_HAL_Driver/Src/stm32h7xx_hal.c ****         (++) SysTick timer is used by default as source of time base, but user
 100:../../Drivers/STM32H7xx_HAL_Driver/Src/stm32h7xx_hal.c ****              can eventually implement his proper time base source (a general purpose
 101:../../Drivers/STM32H7xx_HAL_Driver/Src/stm32h7xx_hal.c ****              timer for example or other time source), keeping in mind that Time base
 102:../../Drivers/STM32H7xx_HAL_Driver/Src/stm32h7xx_hal.c ****              duration should be kept 1ms since PPP_TIMEOUT_VALUEs are defined and
 103:../../Drivers/STM32H7xx_HAL_Driver/Src/stm32h7xx_hal.c ****              handled in milliseconds basis.
 104:../../Drivers/STM32H7xx_HAL_Driver/Src/stm32h7xx_hal.c ****         (++) Time base configuration function (HAL_InitTick ()) is called automatically
 105:../../Drivers/STM32H7xx_HAL_Driver/Src/stm32h7xx_hal.c ****              at the beginning of the program after reset by HAL_Init() or at any time
 106:../../Drivers/STM32H7xx_HAL_Driver/Src/stm32h7xx_hal.c ****              when clock is configured, by HAL_RCC_ClockConfig().
 107:../../Drivers/STM32H7xx_HAL_Driver/Src/stm32h7xx_hal.c ****         (++) Source of time base is configured  to generate interrupts at regular
 108:../../Drivers/STM32H7xx_HAL_Driver/Src/stm32h7xx_hal.c ****              time intervals. Care must be taken if HAL_Delay() is called from a
 109:../../Drivers/STM32H7xx_HAL_Driver/Src/stm32h7xx_hal.c ****              peripheral ISR process, the Tick interrupt line must have higher priority
 110:../../Drivers/STM32H7xx_HAL_Driver/Src/stm32h7xx_hal.c ****             (numerically lower) than the peripheral interrupt. Otherwise the caller
 111:../../Drivers/STM32H7xx_HAL_Driver/Src/stm32h7xx_hal.c ****             ISR process will be blocked.
 112:../../Drivers/STM32H7xx_HAL_Driver/Src/stm32h7xx_hal.c ****        (++) functions affecting time base configurations are declared as __weak
 113:../../Drivers/STM32H7xx_HAL_Driver/Src/stm32h7xx_hal.c ****              to make  override possible  in case of other  implementations in user file.
 114:../../Drivers/STM32H7xx_HAL_Driver/Src/stm32h7xx_hal.c **** @endverbatim
 115:../../Drivers/STM32H7xx_HAL_Driver/Src/stm32h7xx_hal.c ****   * @{
 116:../../Drivers/STM32H7xx_HAL_Driver/Src/stm32h7xx_hal.c ****   */
 117:../../Drivers/STM32H7xx_HAL_Driver/Src/stm32h7xx_hal.c **** 
 118:../../Drivers/STM32H7xx_HAL_Driver/Src/stm32h7xx_hal.c **** /**
 119:../../Drivers/STM32H7xx_HAL_Driver/Src/stm32h7xx_hal.c ****   * @brief  This function is used to initialize the HAL Library; it must be the first
 120:../../Drivers/STM32H7xx_HAL_Driver/Src/stm32h7xx_hal.c ****   *         instruction to be executed in the main program (before to call any other
 121:../../Drivers/STM32H7xx_HAL_Driver/Src/stm32h7xx_hal.c ****   *         HAL function), it performs the following:
 122:../../Drivers/STM32H7xx_HAL_Driver/Src/stm32h7xx_hal.c ****   *           Configures the SysTick to generate an interrupt each 1 millisecond,
 123:../../Drivers/STM32H7xx_HAL_Driver/Src/stm32h7xx_hal.c ****   *           which is clocked by the HSI (at this stage, the clock is not yet
 124:../../Drivers/STM32H7xx_HAL_Driver/Src/stm32h7xx_hal.c ****   *           configured and thus the system is running from the internal HSI at 16 MHz).
 125:../../Drivers/STM32H7xx_HAL_Driver/Src/stm32h7xx_hal.c ****   *           Set NVIC Group Priority to 4.
 126:../../Drivers/STM32H7xx_HAL_Driver/Src/stm32h7xx_hal.c ****   *           Calls the HAL_MspInit() callback function defined in user file
 127:../../Drivers/STM32H7xx_HAL_Driver/Src/stm32h7xx_hal.c ****   *           "stm32h7xx_hal_msp.c" to do the global low level hardware initialization
 128:../../Drivers/STM32H7xx_HAL_Driver/Src/stm32h7xx_hal.c ****   *
 129:../../Drivers/STM32H7xx_HAL_Driver/Src/stm32h7xx_hal.c ****   * @note   SysTick is used as time base for the HAL_Delay() function, the application
 130:../../Drivers/STM32H7xx_HAL_Driver/Src/stm32h7xx_hal.c ****   *         need to ensure that the SysTick time base is always set to 1 millisecond
 131:../../Drivers/STM32H7xx_HAL_Driver/Src/stm32h7xx_hal.c ****   *         to have correct HAL operation.
 132:../../Drivers/STM32H7xx_HAL_Driver/Src/stm32h7xx_hal.c ****   * @retval HAL status
 133:../../Drivers/STM32H7xx_HAL_Driver/Src/stm32h7xx_hal.c ****   */
 134:../../Drivers/STM32H7xx_HAL_Driver/Src/stm32h7xx_hal.c **** HAL_StatusTypeDef HAL_Init(void)
 135:../../Drivers/STM32H7xx_HAL_Driver/Src/stm32h7xx_hal.c **** {
 136:../../Drivers/STM32H7xx_HAL_Driver/Src/stm32h7xx_hal.c **** 
 137:../../Drivers/STM32H7xx_HAL_Driver/Src/stm32h7xx_hal.c **** uint32_t common_system_clock;
 138:../../Drivers/STM32H7xx_HAL_Driver/Src/stm32h7xx_hal.c **** 
 139:../../Drivers/STM32H7xx_HAL_Driver/Src/stm32h7xx_hal.c **** #if defined(DUAL_CORE) && defined(CORE_CM4)
 140:../../Drivers/STM32H7xx_HAL_Driver/Src/stm32h7xx_hal.c ****    /* Configure Cortex-M4 Instruction cache through ART accelerator */
 141:../../Drivers/STM32H7xx_HAL_Driver/Src/stm32h7xx_hal.c ****    __HAL_RCC_ART_CLK_ENABLE();                   /* Enable the Cortex-M4 ART Clock */
 142:../../Drivers/STM32H7xx_HAL_Driver/Src/stm32h7xx_hal.c ****    __HAL_ART_CONFIG_BASE_ADDRESS(0x08100000UL);  /* Configure the Cortex-M4 ART Base address to the
 143:../../Drivers/STM32H7xx_HAL_Driver/Src/stm32h7xx_hal.c ****    __HAL_ART_ENABLE();                           /* Enable the Cortex-M4 ART */
 144:../../Drivers/STM32H7xx_HAL_Driver/Src/stm32h7xx_hal.c **** #endif /* DUAL_CORE &&  CORE_CM4 */
ARM GAS  C:\Users\gigig\AppData\Local\Temp\cc64rzRb.s 			page 4


 145:../../Drivers/STM32H7xx_HAL_Driver/Src/stm32h7xx_hal.c **** 
 146:../../Drivers/STM32H7xx_HAL_Driver/Src/stm32h7xx_hal.c ****   /* Set Interrupt Group Priority */
 147:../../Drivers/STM32H7xx_HAL_Driver/Src/stm32h7xx_hal.c ****   HAL_NVIC_SetPriorityGrouping(NVIC_PRIORITYGROUP_4);
 148:../../Drivers/STM32H7xx_HAL_Driver/Src/stm32h7xx_hal.c **** 
 149:../../Drivers/STM32H7xx_HAL_Driver/Src/stm32h7xx_hal.c ****   /* Update the SystemCoreClock global variable */
 150:../../Drivers/STM32H7xx_HAL_Driver/Src/stm32h7xx_hal.c **** #if defined(RCC_D1CFGR_D1CPRE)
 151:../../Drivers/STM32H7xx_HAL_Driver/Src/stm32h7xx_hal.c ****   common_system_clock = HAL_RCC_GetSysClockFreq() >> ((D1CorePrescTable[(RCC->D1CFGR & RCC_D1CFGR_D
 152:../../Drivers/STM32H7xx_HAL_Driver/Src/stm32h7xx_hal.c **** #else
 153:../../Drivers/STM32H7xx_HAL_Driver/Src/stm32h7xx_hal.c ****   common_system_clock = HAL_RCC_GetSysClockFreq() >> ((D1CorePrescTable[(RCC->CDCFGR1 & RCC_CDCFGR1
 154:../../Drivers/STM32H7xx_HAL_Driver/Src/stm32h7xx_hal.c **** #endif
 155:../../Drivers/STM32H7xx_HAL_Driver/Src/stm32h7xx_hal.c **** 
 156:../../Drivers/STM32H7xx_HAL_Driver/Src/stm32h7xx_hal.c ****   /* Update the SystemD2Clock global variable */
 157:../../Drivers/STM32H7xx_HAL_Driver/Src/stm32h7xx_hal.c **** #if defined(RCC_D1CFGR_HPRE)
 158:../../Drivers/STM32H7xx_HAL_Driver/Src/stm32h7xx_hal.c ****   SystemD2Clock = (common_system_clock >> ((D1CorePrescTable[(RCC->D1CFGR & RCC_D1CFGR_HPRE)>> RCC_
 159:../../Drivers/STM32H7xx_HAL_Driver/Src/stm32h7xx_hal.c **** #else
 160:../../Drivers/STM32H7xx_HAL_Driver/Src/stm32h7xx_hal.c ****   SystemD2Clock = (common_system_clock >> ((D1CorePrescTable[(RCC->CDCFGR1 & RCC_CDCFGR1_HPRE)>> RC
 161:../../Drivers/STM32H7xx_HAL_Driver/Src/stm32h7xx_hal.c **** #endif
 162:../../Drivers/STM32H7xx_HAL_Driver/Src/stm32h7xx_hal.c **** 
 163:../../Drivers/STM32H7xx_HAL_Driver/Src/stm32h7xx_hal.c **** #if defined(DUAL_CORE) && defined(CORE_CM4)
 164:../../Drivers/STM32H7xx_HAL_Driver/Src/stm32h7xx_hal.c ****   SystemCoreClock = SystemD2Clock;
 165:../../Drivers/STM32H7xx_HAL_Driver/Src/stm32h7xx_hal.c **** #else
 166:../../Drivers/STM32H7xx_HAL_Driver/Src/stm32h7xx_hal.c ****   SystemCoreClock = common_system_clock;
 167:../../Drivers/STM32H7xx_HAL_Driver/Src/stm32h7xx_hal.c **** #endif /* DUAL_CORE && CORE_CM4 */
 168:../../Drivers/STM32H7xx_HAL_Driver/Src/stm32h7xx_hal.c **** 
 169:../../Drivers/STM32H7xx_HAL_Driver/Src/stm32h7xx_hal.c ****   /* Use systick as time base source and configure 1ms tick (default clock after Reset is HSI) */
 170:../../Drivers/STM32H7xx_HAL_Driver/Src/stm32h7xx_hal.c ****   if(HAL_InitTick(TICK_INT_PRIORITY) != HAL_OK)
 171:../../Drivers/STM32H7xx_HAL_Driver/Src/stm32h7xx_hal.c ****   {
 172:../../Drivers/STM32H7xx_HAL_Driver/Src/stm32h7xx_hal.c ****     return HAL_ERROR;
 173:../../Drivers/STM32H7xx_HAL_Driver/Src/stm32h7xx_hal.c ****   }
 174:../../Drivers/STM32H7xx_HAL_Driver/Src/stm32h7xx_hal.c **** 
 175:../../Drivers/STM32H7xx_HAL_Driver/Src/stm32h7xx_hal.c ****   /* Init the low level hardware */
 176:../../Drivers/STM32H7xx_HAL_Driver/Src/stm32h7xx_hal.c ****   HAL_MspInit();
 177:../../Drivers/STM32H7xx_HAL_Driver/Src/stm32h7xx_hal.c **** 
 178:../../Drivers/STM32H7xx_HAL_Driver/Src/stm32h7xx_hal.c ****   /* Return function status */
 179:../../Drivers/STM32H7xx_HAL_Driver/Src/stm32h7xx_hal.c ****   return HAL_OK;
 180:../../Drivers/STM32H7xx_HAL_Driver/Src/stm32h7xx_hal.c **** }
 181:../../Drivers/STM32H7xx_HAL_Driver/Src/stm32h7xx_hal.c **** 
 182:../../Drivers/STM32H7xx_HAL_Driver/Src/stm32h7xx_hal.c **** /**
 183:../../Drivers/STM32H7xx_HAL_Driver/Src/stm32h7xx_hal.c ****   * @brief  This function de-Initializes common part of the HAL and stops the systick.
 184:../../Drivers/STM32H7xx_HAL_Driver/Src/stm32h7xx_hal.c ****   *         This function is optional.
 185:../../Drivers/STM32H7xx_HAL_Driver/Src/stm32h7xx_hal.c ****   * @retval HAL status
 186:../../Drivers/STM32H7xx_HAL_Driver/Src/stm32h7xx_hal.c ****   */
 187:../../Drivers/STM32H7xx_HAL_Driver/Src/stm32h7xx_hal.c **** HAL_StatusTypeDef HAL_DeInit(void)
 188:../../Drivers/STM32H7xx_HAL_Driver/Src/stm32h7xx_hal.c **** {
 189:../../Drivers/STM32H7xx_HAL_Driver/Src/stm32h7xx_hal.c ****   /* Reset of all peripherals */
 190:../../Drivers/STM32H7xx_HAL_Driver/Src/stm32h7xx_hal.c ****   __HAL_RCC_AHB3_FORCE_RESET();
 191:../../Drivers/STM32H7xx_HAL_Driver/Src/stm32h7xx_hal.c ****   __HAL_RCC_AHB3_RELEASE_RESET();
 192:../../Drivers/STM32H7xx_HAL_Driver/Src/stm32h7xx_hal.c **** 
 193:../../Drivers/STM32H7xx_HAL_Driver/Src/stm32h7xx_hal.c ****   __HAL_RCC_AHB1_FORCE_RESET();
 194:../../Drivers/STM32H7xx_HAL_Driver/Src/stm32h7xx_hal.c ****   __HAL_RCC_AHB1_RELEASE_RESET();
 195:../../Drivers/STM32H7xx_HAL_Driver/Src/stm32h7xx_hal.c **** 
 196:../../Drivers/STM32H7xx_HAL_Driver/Src/stm32h7xx_hal.c ****   __HAL_RCC_AHB2_FORCE_RESET();
 197:../../Drivers/STM32H7xx_HAL_Driver/Src/stm32h7xx_hal.c ****   __HAL_RCC_AHB2_RELEASE_RESET();
 198:../../Drivers/STM32H7xx_HAL_Driver/Src/stm32h7xx_hal.c **** 
 199:../../Drivers/STM32H7xx_HAL_Driver/Src/stm32h7xx_hal.c ****   __HAL_RCC_AHB4_FORCE_RESET();
 200:../../Drivers/STM32H7xx_HAL_Driver/Src/stm32h7xx_hal.c ****  __HAL_RCC_AHB4_RELEASE_RESET();
 201:../../Drivers/STM32H7xx_HAL_Driver/Src/stm32h7xx_hal.c **** 
ARM GAS  C:\Users\gigig\AppData\Local\Temp\cc64rzRb.s 			page 5


 202:../../Drivers/STM32H7xx_HAL_Driver/Src/stm32h7xx_hal.c ****   __HAL_RCC_APB3_FORCE_RESET();
 203:../../Drivers/STM32H7xx_HAL_Driver/Src/stm32h7xx_hal.c ****   __HAL_RCC_APB3_RELEASE_RESET();
 204:../../Drivers/STM32H7xx_HAL_Driver/Src/stm32h7xx_hal.c **** 
 205:../../Drivers/STM32H7xx_HAL_Driver/Src/stm32h7xx_hal.c ****   __HAL_RCC_APB1L_FORCE_RESET();
 206:../../Drivers/STM32H7xx_HAL_Driver/Src/stm32h7xx_hal.c ****   __HAL_RCC_APB1L_RELEASE_RESET();
 207:../../Drivers/STM32H7xx_HAL_Driver/Src/stm32h7xx_hal.c **** 
 208:../../Drivers/STM32H7xx_HAL_Driver/Src/stm32h7xx_hal.c ****   __HAL_RCC_APB1H_FORCE_RESET();
 209:../../Drivers/STM32H7xx_HAL_Driver/Src/stm32h7xx_hal.c ****   __HAL_RCC_APB1H_RELEASE_RESET();
 210:../../Drivers/STM32H7xx_HAL_Driver/Src/stm32h7xx_hal.c **** 
 211:../../Drivers/STM32H7xx_HAL_Driver/Src/stm32h7xx_hal.c ****    __HAL_RCC_APB2_FORCE_RESET();
 212:../../Drivers/STM32H7xx_HAL_Driver/Src/stm32h7xx_hal.c ****    __HAL_RCC_APB2_RELEASE_RESET();
 213:../../Drivers/STM32H7xx_HAL_Driver/Src/stm32h7xx_hal.c **** 
 214:../../Drivers/STM32H7xx_HAL_Driver/Src/stm32h7xx_hal.c ****   __HAL_RCC_APB4_FORCE_RESET();
 215:../../Drivers/STM32H7xx_HAL_Driver/Src/stm32h7xx_hal.c ****   __HAL_RCC_APB4_RELEASE_RESET();
 216:../../Drivers/STM32H7xx_HAL_Driver/Src/stm32h7xx_hal.c **** 
 217:../../Drivers/STM32H7xx_HAL_Driver/Src/stm32h7xx_hal.c ****   /* De-Init the low level hardware */
 218:../../Drivers/STM32H7xx_HAL_Driver/Src/stm32h7xx_hal.c ****   HAL_MspDeInit();
 219:../../Drivers/STM32H7xx_HAL_Driver/Src/stm32h7xx_hal.c **** 
 220:../../Drivers/STM32H7xx_HAL_Driver/Src/stm32h7xx_hal.c ****   /* Return function status */
 221:../../Drivers/STM32H7xx_HAL_Driver/Src/stm32h7xx_hal.c ****   return HAL_OK;
 222:../../Drivers/STM32H7xx_HAL_Driver/Src/stm32h7xx_hal.c **** }
 223:../../Drivers/STM32H7xx_HAL_Driver/Src/stm32h7xx_hal.c **** 
 224:../../Drivers/STM32H7xx_HAL_Driver/Src/stm32h7xx_hal.c **** /**
 225:../../Drivers/STM32H7xx_HAL_Driver/Src/stm32h7xx_hal.c ****   * @brief  Initializes the MSP.
 226:../../Drivers/STM32H7xx_HAL_Driver/Src/stm32h7xx_hal.c ****   * @retval None
 227:../../Drivers/STM32H7xx_HAL_Driver/Src/stm32h7xx_hal.c ****   */
 228:../../Drivers/STM32H7xx_HAL_Driver/Src/stm32h7xx_hal.c **** __weak void HAL_MspInit(void)
 229:../../Drivers/STM32H7xx_HAL_Driver/Src/stm32h7xx_hal.c **** {
  29              		.loc 1 229 1 view -0
  30              		.cfi_startproc
  31              		@ args = 0, pretend = 0, frame = 0
  32              		@ frame_needed = 0, uses_anonymous_args = 0
  33              		@ link register save eliminated.
 230:../../Drivers/STM32H7xx_HAL_Driver/Src/stm32h7xx_hal.c ****   /* NOTE : This function Should not be modified, when the callback is needed,
 231:../../Drivers/STM32H7xx_HAL_Driver/Src/stm32h7xx_hal.c ****             the HAL_MspInit could be implemented in the user file
 232:../../Drivers/STM32H7xx_HAL_Driver/Src/stm32h7xx_hal.c ****    */
 233:../../Drivers/STM32H7xx_HAL_Driver/Src/stm32h7xx_hal.c **** }
  34              		.loc 1 233 1 view .LVU1
  35 0000 7047     		bx	lr
  36              		.cfi_endproc
  37              	.LFE134:
  39              		.section	.text.HAL_MspDeInit,"ax",%progbits
  40              		.align	1
  41              		.weak	HAL_MspDeInit
  42              		.syntax unified
  43              		.thumb
  44              		.thumb_func
  46              	HAL_MspDeInit:
  47              	.LFB135:
 234:../../Drivers/STM32H7xx_HAL_Driver/Src/stm32h7xx_hal.c **** 
 235:../../Drivers/STM32H7xx_HAL_Driver/Src/stm32h7xx_hal.c **** /**
 236:../../Drivers/STM32H7xx_HAL_Driver/Src/stm32h7xx_hal.c ****   * @brief  DeInitializes the MSP.
 237:../../Drivers/STM32H7xx_HAL_Driver/Src/stm32h7xx_hal.c ****   * @retval None
 238:../../Drivers/STM32H7xx_HAL_Driver/Src/stm32h7xx_hal.c ****   */
 239:../../Drivers/STM32H7xx_HAL_Driver/Src/stm32h7xx_hal.c **** __weak void HAL_MspDeInit(void)
 240:../../Drivers/STM32H7xx_HAL_Driver/Src/stm32h7xx_hal.c **** {
  48              		.loc 1 240 1 view -0
ARM GAS  C:\Users\gigig\AppData\Local\Temp\cc64rzRb.s 			page 6


  49              		.cfi_startproc
  50              		@ args = 0, pretend = 0, frame = 0
  51              		@ frame_needed = 0, uses_anonymous_args = 0
  52              		@ link register save eliminated.
 241:../../Drivers/STM32H7xx_HAL_Driver/Src/stm32h7xx_hal.c ****   /* NOTE : This function Should not be modified, when the callback is needed,
 242:../../Drivers/STM32H7xx_HAL_Driver/Src/stm32h7xx_hal.c ****             the HAL_MspDeInit could be implemented in the user file
 243:../../Drivers/STM32H7xx_HAL_Driver/Src/stm32h7xx_hal.c ****    */
 244:../../Drivers/STM32H7xx_HAL_Driver/Src/stm32h7xx_hal.c **** }
  53              		.loc 1 244 1 view .LVU3
  54 0000 7047     		bx	lr
  55              		.cfi_endproc
  56              	.LFE135:
  58              		.section	.text.HAL_DeInit,"ax",%progbits
  59              		.align	1
  60              		.global	HAL_DeInit
  61              		.syntax unified
  62              		.thumb
  63              		.thumb_func
  65              	HAL_DeInit:
  66              	.LFB133:
 188:../../Drivers/STM32H7xx_HAL_Driver/Src/stm32h7xx_hal.c ****   /* Reset of all peripherals */
  67              		.loc 1 188 1 view -0
  68              		.cfi_startproc
  69              		@ args = 0, pretend = 0, frame = 0
  70              		@ frame_needed = 0, uses_anonymous_args = 0
  71 0000 10B5     		push	{r4, lr}
  72              	.LCFI0:
  73              		.cfi_def_cfa_offset 8
  74              		.cfi_offset 4, -8
  75              		.cfi_offset 14, -4
 190:../../Drivers/STM32H7xx_HAL_Driver/Src/stm32h7xx_hal.c ****   __HAL_RCC_AHB3_RELEASE_RESET();
  76              		.loc 1 190 3 view .LVU5
  77 0002 194B     		ldr	r3, .L5
  78 0004 194A     		ldr	r2, .L5+4
  79 0006 DA67     		str	r2, [r3, #124]
 191:../../Drivers/STM32H7xx_HAL_Driver/Src/stm32h7xx_hal.c **** 
  80              		.loc 1 191 3 view .LVU6
  81 0008 0024     		movs	r4, #0
  82 000a DC67     		str	r4, [r3, #124]
 193:../../Drivers/STM32H7xx_HAL_Driver/Src/stm32h7xx_hal.c ****   __HAL_RCC_AHB1_RELEASE_RESET();
  83              		.loc 1 193 3 view .LVU7
  84 000c 184A     		ldr	r2, .L5+8
  85 000e C3F88020 		str	r2, [r3, #128]
 194:../../Drivers/STM32H7xx_HAL_Driver/Src/stm32h7xx_hal.c **** 
  86              		.loc 1 194 3 view .LVU8
  87 0012 C3F88040 		str	r4, [r3, #128]
 196:../../Drivers/STM32H7xx_HAL_Driver/Src/stm32h7xx_hal.c ****   __HAL_RCC_AHB2_RELEASE_RESET();
  88              		.loc 1 196 3 view .LVU9
  89 0016 40F27122 		movw	r2, #625
  90 001a C3F88420 		str	r2, [r3, #132]
 197:../../Drivers/STM32H7xx_HAL_Driver/Src/stm32h7xx_hal.c **** 
  91              		.loc 1 197 3 view .LVU10
  92 001e C3F88440 		str	r4, [r3, #132]
 199:../../Drivers/STM32H7xx_HAL_Driver/Src/stm32h7xx_hal.c ****  __HAL_RCC_AHB4_RELEASE_RESET();
  93              		.loc 1 199 3 view .LVU11
  94 0022 144A     		ldr	r2, .L5+12
  95 0024 C3F88820 		str	r2, [r3, #136]
ARM GAS  C:\Users\gigig\AppData\Local\Temp\cc64rzRb.s 			page 7


 200:../../Drivers/STM32H7xx_HAL_Driver/Src/stm32h7xx_hal.c **** 
  96              		.loc 1 200 2 view .LVU12
  97 0028 C3F88840 		str	r4, [r3, #136]
 202:../../Drivers/STM32H7xx_HAL_Driver/Src/stm32h7xx_hal.c ****   __HAL_RCC_APB3_RELEASE_RESET();
  98              		.loc 1 202 3 view .LVU13
  99 002c 1822     		movs	r2, #24
 100 002e C3F88C20 		str	r2, [r3, #140]
 203:../../Drivers/STM32H7xx_HAL_Driver/Src/stm32h7xx_hal.c **** 
 101              		.loc 1 203 3 view .LVU14
 102 0032 C3F88C40 		str	r4, [r3, #140]
 205:../../Drivers/STM32H7xx_HAL_Driver/Src/stm32h7xx_hal.c ****   __HAL_RCC_APB1L_RELEASE_RESET();
 103              		.loc 1 205 3 view .LVU15
 104 0036 104A     		ldr	r2, .L5+16
 105 0038 C3F89020 		str	r2, [r3, #144]
 206:../../Drivers/STM32H7xx_HAL_Driver/Src/stm32h7xx_hal.c **** 
 106              		.loc 1 206 3 view .LVU16
 107 003c C3F89040 		str	r4, [r3, #144]
 208:../../Drivers/STM32H7xx_HAL_Driver/Src/stm32h7xx_hal.c ****   __HAL_RCC_APB1H_RELEASE_RESET();
 108              		.loc 1 208 3 view .LVU17
 109 0040 4FF49B72 		mov	r2, #310
 110 0044 C3F89420 		str	r2, [r3, #148]
 209:../../Drivers/STM32H7xx_HAL_Driver/Src/stm32h7xx_hal.c **** 
 111              		.loc 1 209 3 view .LVU18
 112 0048 C3F89440 		str	r4, [r3, #148]
 211:../../Drivers/STM32H7xx_HAL_Driver/Src/stm32h7xx_hal.c ****    __HAL_RCC_APB2_RELEASE_RESET();
 113              		.loc 1 211 4 view .LVU19
 114 004c 0B4A     		ldr	r2, .L5+20
 115 004e C3F89820 		str	r2, [r3, #152]
 212:../../Drivers/STM32H7xx_HAL_Driver/Src/stm32h7xx_hal.c **** 
 116              		.loc 1 212 4 view .LVU20
 117 0052 C3F89840 		str	r4, [r3, #152]
 214:../../Drivers/STM32H7xx_HAL_Driver/Src/stm32h7xx_hal.c ****   __HAL_RCC_APB4_RELEASE_RESET();
 118              		.loc 1 214 3 view .LVU21
 119 0056 0A4A     		ldr	r2, .L5+24
 120 0058 C3F89C20 		str	r2, [r3, #156]
 215:../../Drivers/STM32H7xx_HAL_Driver/Src/stm32h7xx_hal.c **** 
 121              		.loc 1 215 3 view .LVU22
 122 005c C3F89C40 		str	r4, [r3, #156]
 218:../../Drivers/STM32H7xx_HAL_Driver/Src/stm32h7xx_hal.c **** 
 123              		.loc 1 218 3 view .LVU23
 124 0060 FFF7FEFF 		bl	HAL_MspDeInit
 125              	.LVL0:
 221:../../Drivers/STM32H7xx_HAL_Driver/Src/stm32h7xx_hal.c **** }
 126              		.loc 1 221 3 view .LVU24
 222:../../Drivers/STM32H7xx_HAL_Driver/Src/stm32h7xx_hal.c **** 
 127              		.loc 1 222 1 is_stmt 0 view .LVU25
 128 0064 2046     		mov	r0, r4
 129 0066 10BD     		pop	{r4, pc}
 130              	.L6:
 131              		.align	2
 132              	.L5:
 133 0068 00440258 		.word	1476543488
 134 006c 31500100 		.word	86065
 135 0070 23C0000A 		.word	167821347
 136 0074 FF072803 		.word	52955135
 137 0078 FFC3FFE8 		.word	-385891329
 138 007c 3330D731 		.word	836186163
ARM GAS  C:\Users\gigig\AppData\Local\Temp\cc64rzRb.s 			page 8


 139 0080 AADE2000 		.word	2154154
 140              		.cfi_endproc
 141              	.LFE133:
 143              		.section	.text.HAL_InitTick,"ax",%progbits
 144              		.align	1
 145              		.weak	HAL_InitTick
 146              		.syntax unified
 147              		.thumb
 148              		.thumb_func
 150              	HAL_InitTick:
 151              	.LVL1:
 152              	.LFB136:
 245:../../Drivers/STM32H7xx_HAL_Driver/Src/stm32h7xx_hal.c **** 
 246:../../Drivers/STM32H7xx_HAL_Driver/Src/stm32h7xx_hal.c **** /**
 247:../../Drivers/STM32H7xx_HAL_Driver/Src/stm32h7xx_hal.c ****   * @brief This function configures the source of the time base.
 248:../../Drivers/STM32H7xx_HAL_Driver/Src/stm32h7xx_hal.c ****   *        The time source is configured  to have 1ms time base with a dedicated
 249:../../Drivers/STM32H7xx_HAL_Driver/Src/stm32h7xx_hal.c ****   *        Tick interrupt priority.
 250:../../Drivers/STM32H7xx_HAL_Driver/Src/stm32h7xx_hal.c ****   * @note This function is called  automatically at the beginning of program after
 251:../../Drivers/STM32H7xx_HAL_Driver/Src/stm32h7xx_hal.c ****   *       reset by HAL_Init() or at any time when clock is reconfigured  by HAL_RCC_ClockConfig().
 252:../../Drivers/STM32H7xx_HAL_Driver/Src/stm32h7xx_hal.c ****   * @note In the default implementation, SysTick timer is the source of time base.
 253:../../Drivers/STM32H7xx_HAL_Driver/Src/stm32h7xx_hal.c ****   *       It is used to generate interrupts at regular time intervals.
 254:../../Drivers/STM32H7xx_HAL_Driver/Src/stm32h7xx_hal.c ****   *       Care must be taken if HAL_Delay() is called from a peripheral ISR process,
 255:../../Drivers/STM32H7xx_HAL_Driver/Src/stm32h7xx_hal.c ****   *       the SysTick interrupt must have higher priority (numerically lower)
 256:../../Drivers/STM32H7xx_HAL_Driver/Src/stm32h7xx_hal.c ****   *       than the peripheral interrupt. Otherwise the caller ISR process will be blocked.
 257:../../Drivers/STM32H7xx_HAL_Driver/Src/stm32h7xx_hal.c ****   *       The function is declared as __weak  to be overwritten  in case of other
 258:../../Drivers/STM32H7xx_HAL_Driver/Src/stm32h7xx_hal.c ****   *       implementation  in user file.
 259:../../Drivers/STM32H7xx_HAL_Driver/Src/stm32h7xx_hal.c ****   * @param TickPriority: Tick interrupt priority.
 260:../../Drivers/STM32H7xx_HAL_Driver/Src/stm32h7xx_hal.c ****   * @retval HAL status
 261:../../Drivers/STM32H7xx_HAL_Driver/Src/stm32h7xx_hal.c ****   */
 262:../../Drivers/STM32H7xx_HAL_Driver/Src/stm32h7xx_hal.c **** __weak HAL_StatusTypeDef HAL_InitTick(uint32_t TickPriority)
 263:../../Drivers/STM32H7xx_HAL_Driver/Src/stm32h7xx_hal.c **** {
 153              		.loc 1 263 1 is_stmt 1 view -0
 154              		.cfi_startproc
 155              		@ args = 0, pretend = 0, frame = 0
 156              		@ frame_needed = 0, uses_anonymous_args = 0
 264:../../Drivers/STM32H7xx_HAL_Driver/Src/stm32h7xx_hal.c ****   /* Check uwTickFreq for MisraC 2012 (even if uwTickFreq is a enum type that don't take the value 
 265:../../Drivers/STM32H7xx_HAL_Driver/Src/stm32h7xx_hal.c ****   if((uint32_t)uwTickFreq == 0UL)
 157              		.loc 1 265 3 view .LVU27
 158              		.loc 1 265 27 is_stmt 0 view .LVU28
 159 0000 104B     		ldr	r3, .L18
 160 0002 1B78     		ldrb	r3, [r3]	@ zero_extendqisi2
 161              		.loc 1 265 5 view .LVU29
 162 0004 0BB9     		cbnz	r3, .L16
 266:../../Drivers/STM32H7xx_HAL_Driver/Src/stm32h7xx_hal.c ****   {
 267:../../Drivers/STM32H7xx_HAL_Driver/Src/stm32h7xx_hal.c ****     return HAL_ERROR;
 163              		.loc 1 267 12 view .LVU30
 164 0006 0120     		movs	r0, #1
 165              	.LVL2:
 268:../../Drivers/STM32H7xx_HAL_Driver/Src/stm32h7xx_hal.c ****   }
 269:../../Drivers/STM32H7xx_HAL_Driver/Src/stm32h7xx_hal.c **** 
 270:../../Drivers/STM32H7xx_HAL_Driver/Src/stm32h7xx_hal.c ****     /* Configure the SysTick to have interrupt in 1ms time basis*/
 271:../../Drivers/STM32H7xx_HAL_Driver/Src/stm32h7xx_hal.c ****     if (HAL_SYSTICK_Config(SystemCoreClock / (1000UL / (uint32_t)uwTickFreq)) > 0U)
 272:../../Drivers/STM32H7xx_HAL_Driver/Src/stm32h7xx_hal.c ****     {
 273:../../Drivers/STM32H7xx_HAL_Driver/Src/stm32h7xx_hal.c ****       return HAL_ERROR;
 274:../../Drivers/STM32H7xx_HAL_Driver/Src/stm32h7xx_hal.c ****     }
 275:../../Drivers/STM32H7xx_HAL_Driver/Src/stm32h7xx_hal.c **** 
 276:../../Drivers/STM32H7xx_HAL_Driver/Src/stm32h7xx_hal.c ****   /* Configure the SysTick IRQ priority */
ARM GAS  C:\Users\gigig\AppData\Local\Temp\cc64rzRb.s 			page 9


 277:../../Drivers/STM32H7xx_HAL_Driver/Src/stm32h7xx_hal.c ****   if (TickPriority < (1UL << __NVIC_PRIO_BITS))
 278:../../Drivers/STM32H7xx_HAL_Driver/Src/stm32h7xx_hal.c ****   {
 279:../../Drivers/STM32H7xx_HAL_Driver/Src/stm32h7xx_hal.c ****     HAL_NVIC_SetPriority(SysTick_IRQn, TickPriority, 0U);
 280:../../Drivers/STM32H7xx_HAL_Driver/Src/stm32h7xx_hal.c ****     uwTickPrio = TickPriority;
 281:../../Drivers/STM32H7xx_HAL_Driver/Src/stm32h7xx_hal.c ****   }
 282:../../Drivers/STM32H7xx_HAL_Driver/Src/stm32h7xx_hal.c ****   else
 283:../../Drivers/STM32H7xx_HAL_Driver/Src/stm32h7xx_hal.c ****   {
 284:../../Drivers/STM32H7xx_HAL_Driver/Src/stm32h7xx_hal.c ****     return HAL_ERROR;
 285:../../Drivers/STM32H7xx_HAL_Driver/Src/stm32h7xx_hal.c ****   }
 286:../../Drivers/STM32H7xx_HAL_Driver/Src/stm32h7xx_hal.c **** 
 287:../../Drivers/STM32H7xx_HAL_Driver/Src/stm32h7xx_hal.c ****   /* Return function status */
 288:../../Drivers/STM32H7xx_HAL_Driver/Src/stm32h7xx_hal.c ****   return HAL_OK;
 289:../../Drivers/STM32H7xx_HAL_Driver/Src/stm32h7xx_hal.c **** }
 166              		.loc 1 289 1 view .LVU31
 167 0008 7047     		bx	lr
 168              	.LVL3:
 169              	.L16:
 263:../../Drivers/STM32H7xx_HAL_Driver/Src/stm32h7xx_hal.c ****   /* Check uwTickFreq for MisraC 2012 (even if uwTickFreq is a enum type that don't take the value 
 170              		.loc 1 263 1 view .LVU32
 171 000a 10B5     		push	{r4, lr}
 172              	.LCFI1:
 173              		.cfi_def_cfa_offset 8
 174              		.cfi_offset 4, -8
 175              		.cfi_offset 14, -4
 176 000c 0446     		mov	r4, r0
 271:../../Drivers/STM32H7xx_HAL_Driver/Src/stm32h7xx_hal.c ****     {
 177              		.loc 1 271 5 is_stmt 1 view .LVU33
 271:../../Drivers/STM32H7xx_HAL_Driver/Src/stm32h7xx_hal.c ****     {
 178              		.loc 1 271 54 is_stmt 0 view .LVU34
 179 000e 4FF47A70 		mov	r0, #1000
 180              	.LVL4:
 271:../../Drivers/STM32H7xx_HAL_Driver/Src/stm32h7xx_hal.c ****     {
 181              		.loc 1 271 54 view .LVU35
 182 0012 B0FBF3F3 		udiv	r3, r0, r3
 271:../../Drivers/STM32H7xx_HAL_Driver/Src/stm32h7xx_hal.c ****     {
 183              		.loc 1 271 9 view .LVU36
 184 0016 0C4A     		ldr	r2, .L18+4
 185 0018 1068     		ldr	r0, [r2]
 186 001a B0FBF3F0 		udiv	r0, r0, r3
 187 001e FFF7FEFF 		bl	HAL_SYSTICK_Config
 188              	.LVL5:
 271:../../Drivers/STM32H7xx_HAL_Driver/Src/stm32h7xx_hal.c ****     {
 189              		.loc 1 271 8 view .LVU37
 190 0022 68B9     		cbnz	r0, .L10
 277:../../Drivers/STM32H7xx_HAL_Driver/Src/stm32h7xx_hal.c ****   {
 191              		.loc 1 277 3 is_stmt 1 view .LVU38
 277:../../Drivers/STM32H7xx_HAL_Driver/Src/stm32h7xx_hal.c ****   {
 192              		.loc 1 277 6 is_stmt 0 view .LVU39
 193 0024 0F2C     		cmp	r4, #15
 194 0026 01D9     		bls	.L17
 284:../../Drivers/STM32H7xx_HAL_Driver/Src/stm32h7xx_hal.c ****   }
 195              		.loc 1 284 12 view .LVU40
 196 0028 0120     		movs	r0, #1
 197 002a 0AE0     		b	.L8
 198              	.L17:
 279:../../Drivers/STM32H7xx_HAL_Driver/Src/stm32h7xx_hal.c ****     uwTickPrio = TickPriority;
 199              		.loc 1 279 5 is_stmt 1 view .LVU41
ARM GAS  C:\Users\gigig\AppData\Local\Temp\cc64rzRb.s 			page 10


 200 002c 0022     		movs	r2, #0
 201 002e 2146     		mov	r1, r4
 202 0030 4FF0FF30 		mov	r0, #-1
 203 0034 FFF7FEFF 		bl	HAL_NVIC_SetPriority
 204              	.LVL6:
 280:../../Drivers/STM32H7xx_HAL_Driver/Src/stm32h7xx_hal.c ****   }
 205              		.loc 1 280 5 view .LVU42
 280:../../Drivers/STM32H7xx_HAL_Driver/Src/stm32h7xx_hal.c ****   }
 206              		.loc 1 280 16 is_stmt 0 view .LVU43
 207 0038 044B     		ldr	r3, .L18+8
 208 003a 1C60     		str	r4, [r3]
 288:../../Drivers/STM32H7xx_HAL_Driver/Src/stm32h7xx_hal.c **** }
 209              		.loc 1 288 3 is_stmt 1 view .LVU44
 288:../../Drivers/STM32H7xx_HAL_Driver/Src/stm32h7xx_hal.c **** }
 210              		.loc 1 288 10 is_stmt 0 view .LVU45
 211 003c 0020     		movs	r0, #0
 212 003e 00E0     		b	.L8
 213              	.L10:
 273:../../Drivers/STM32H7xx_HAL_Driver/Src/stm32h7xx_hal.c ****     }
 214              		.loc 1 273 14 view .LVU46
 215 0040 0120     		movs	r0, #1
 216              	.L8:
 217              		.loc 1 289 1 view .LVU47
 218 0042 10BD     		pop	{r4, pc}
 219              	.LVL7:
 220              	.L19:
 221              		.loc 1 289 1 view .LVU48
 222              		.align	2
 223              	.L18:
 224 0044 00000000 		.word	uwTickFreq
 225 0048 00000000 		.word	SystemCoreClock
 226 004c 00000000 		.word	uwTickPrio
 227              		.cfi_endproc
 228              	.LFE136:
 230              		.section	.text.HAL_Init,"ax",%progbits
 231              		.align	1
 232              		.global	HAL_Init
 233              		.syntax unified
 234              		.thumb
 235              		.thumb_func
 237              	HAL_Init:
 238              	.LFB132:
 135:../../Drivers/STM32H7xx_HAL_Driver/Src/stm32h7xx_hal.c **** 
 239              		.loc 1 135 1 is_stmt 1 view -0
 240              		.cfi_startproc
 241              		@ args = 0, pretend = 0, frame = 8
 242              		@ frame_needed = 0, uses_anonymous_args = 0
 243 0000 10B5     		push	{r4, lr}
 244              	.LCFI2:
 245              		.cfi_def_cfa_offset 8
 246              		.cfi_offset 4, -8
 247              		.cfi_offset 14, -4
 248 0002 82B0     		sub	sp, sp, #8
 249              	.LCFI3:
 250              		.cfi_def_cfa_offset 16
 137:../../Drivers/STM32H7xx_HAL_Driver/Src/stm32h7xx_hal.c **** 
 251              		.loc 1 137 1 view .LVU50
ARM GAS  C:\Users\gigig\AppData\Local\Temp\cc64rzRb.s 			page 11


 141:../../Drivers/STM32H7xx_HAL_Driver/Src/stm32h7xx_hal.c ****    __HAL_ART_CONFIG_BASE_ADDRESS(0x08100000UL);  /* Configure the Cortex-M4 ART Base address to the
 252              		.loc 1 141 4 view .LVU51
 253              	.LBB2:
 141:../../Drivers/STM32H7xx_HAL_Driver/Src/stm32h7xx_hal.c ****    __HAL_ART_CONFIG_BASE_ADDRESS(0x08100000UL);  /* Configure the Cortex-M4 ART Base address to the
 254              		.loc 1 141 4 view .LVU52
 141:../../Drivers/STM32H7xx_HAL_Driver/Src/stm32h7xx_hal.c ****    __HAL_ART_CONFIG_BASE_ADDRESS(0x08100000UL);  /* Configure the Cortex-M4 ART Base address to the
 255              		.loc 1 141 4 view .LVU53
 256 0004 1F4C     		ldr	r4, .L25
 257 0006 D4F8D830 		ldr	r3, [r4, #216]
 258 000a 43F48043 		orr	r3, r3, #16384
 259 000e C4F8D830 		str	r3, [r4, #216]
 141:../../Drivers/STM32H7xx_HAL_Driver/Src/stm32h7xx_hal.c ****    __HAL_ART_CONFIG_BASE_ADDRESS(0x08100000UL);  /* Configure the Cortex-M4 ART Base address to the
 260              		.loc 1 141 4 view .LVU54
 261 0012 D4F8D830 		ldr	r3, [r4, #216]
 262 0016 03F48043 		and	r3, r3, #16384
 263 001a 0193     		str	r3, [sp, #4]
 141:../../Drivers/STM32H7xx_HAL_Driver/Src/stm32h7xx_hal.c ****    __HAL_ART_CONFIG_BASE_ADDRESS(0x08100000UL);  /* Configure the Cortex-M4 ART Base address to the
 264              		.loc 1 141 4 view .LVU55
 265 001c 019B     		ldr	r3, [sp, #4]
 266              	.LBE2:
 141:../../Drivers/STM32H7xx_HAL_Driver/Src/stm32h7xx_hal.c ****    __HAL_ART_CONFIG_BASE_ADDRESS(0x08100000UL);  /* Configure the Cortex-M4 ART Base address to the
 267              		.loc 1 141 4 view .LVU56
 142:../../Drivers/STM32H7xx_HAL_Driver/Src/stm32h7xx_hal.c ****    __HAL_ART_ENABLE();                           /* Enable the Cortex-M4 ART */
 268              		.loc 1 142 4 view .LVU57
 269 001e 1A4A     		ldr	r2, .L25+4
 270 0020 D2F80014 		ldr	r1, [r2, #1024]
 271 0024 194B     		ldr	r3, .L25+8
 272 0026 0B40     		ands	r3, r3, r1
 273 0028 43F40143 		orr	r3, r3, #33024
 274 002c C2F80034 		str	r3, [r2, #1024]
 143:../../Drivers/STM32H7xx_HAL_Driver/Src/stm32h7xx_hal.c **** #endif /* DUAL_CORE &&  CORE_CM4 */
 275              		.loc 1 143 4 view .LVU58
 276 0030 D2F80034 		ldr	r3, [r2, #1024]
 277 0034 43F00103 		orr	r3, r3, #1
 278 0038 C2F80034 		str	r3, [r2, #1024]
 147:../../Drivers/STM32H7xx_HAL_Driver/Src/stm32h7xx_hal.c **** 
 279              		.loc 1 147 3 view .LVU59
 280 003c 0320     		movs	r0, #3
 281 003e FFF7FEFF 		bl	HAL_NVIC_SetPriorityGrouping
 282              	.LVL8:
 151:../../Drivers/STM32H7xx_HAL_Driver/Src/stm32h7xx_hal.c **** #else
 283              		.loc 1 151 3 view .LVU60
 151:../../Drivers/STM32H7xx_HAL_Driver/Src/stm32h7xx_hal.c **** #else
 284              		.loc 1 151 25 is_stmt 0 view .LVU61
 285 0042 FFF7FEFF 		bl	HAL_RCC_GetSysClockFreq
 286              	.LVL9:
 151:../../Drivers/STM32H7xx_HAL_Driver/Src/stm32h7xx_hal.c **** #else
 287              		.loc 1 151 77 view .LVU62
 288 0046 A369     		ldr	r3, [r4, #24]
 151:../../Drivers/STM32H7xx_HAL_Driver/Src/stm32h7xx_hal.c **** #else
 289              		.loc 1 151 106 view .LVU63
 290 0048 C3F30323 		ubfx	r3, r3, #8, #4
 151:../../Drivers/STM32H7xx_HAL_Driver/Src/stm32h7xx_hal.c **** #else
 291              		.loc 1 151 72 view .LVU64
 292 004c 104A     		ldr	r2, .L25+12
 293 004e D35C     		ldrb	r3, [r2, r3]	@ zero_extendqisi2
 151:../../Drivers/STM32H7xx_HAL_Driver/Src/stm32h7xx_hal.c **** #else
ARM GAS  C:\Users\gigig\AppData\Local\Temp\cc64rzRb.s 			page 12


 294              		.loc 1 151 133 view .LVU65
 295 0050 03F01F03 		and	r3, r3, #31
 151:../../Drivers/STM32H7xx_HAL_Driver/Src/stm32h7xx_hal.c **** #else
 296              		.loc 1 151 23 view .LVU66
 297 0054 D840     		lsrs	r0, r0, r3
 298              	.LVL10:
 158:../../Drivers/STM32H7xx_HAL_Driver/Src/stm32h7xx_hal.c **** #else
 299              		.loc 1 158 3 is_stmt 1 view .LVU67
 158:../../Drivers/STM32H7xx_HAL_Driver/Src/stm32h7xx_hal.c **** #else
 300              		.loc 1 158 66 is_stmt 0 view .LVU68
 301 0056 A369     		ldr	r3, [r4, #24]
 158:../../Drivers/STM32H7xx_HAL_Driver/Src/stm32h7xx_hal.c **** #else
 302              		.loc 1 158 93 view .LVU69
 303 0058 03F00F03 		and	r3, r3, #15
 158:../../Drivers/STM32H7xx_HAL_Driver/Src/stm32h7xx_hal.c **** #else
 304              		.loc 1 158 61 view .LVU70
 305 005c D35C     		ldrb	r3, [r2, r3]	@ zero_extendqisi2
 158:../../Drivers/STM32H7xx_HAL_Driver/Src/stm32h7xx_hal.c **** #else
 306              		.loc 1 158 118 view .LVU71
 307 005e 03F01F03 		and	r3, r3, #31
 158:../../Drivers/STM32H7xx_HAL_Driver/Src/stm32h7xx_hal.c **** #else
 308              		.loc 1 158 40 view .LVU72
 309 0062 D840     		lsrs	r0, r0, r3
 310              	.LVL11:
 158:../../Drivers/STM32H7xx_HAL_Driver/Src/stm32h7xx_hal.c **** #else
 311              		.loc 1 158 17 view .LVU73
 312 0064 0B4B     		ldr	r3, .L25+16
 313 0066 1860     		str	r0, [r3]
 164:../../Drivers/STM32H7xx_HAL_Driver/Src/stm32h7xx_hal.c **** #else
 314              		.loc 1 164 3 is_stmt 1 view .LVU74
 164:../../Drivers/STM32H7xx_HAL_Driver/Src/stm32h7xx_hal.c **** #else
 315              		.loc 1 164 19 is_stmt 0 view .LVU75
 316 0068 0B4B     		ldr	r3, .L25+20
 317 006a 1860     		str	r0, [r3]
 170:../../Drivers/STM32H7xx_HAL_Driver/Src/stm32h7xx_hal.c ****   {
 318              		.loc 1 170 3 is_stmt 1 view .LVU76
 170:../../Drivers/STM32H7xx_HAL_Driver/Src/stm32h7xx_hal.c ****   {
 319              		.loc 1 170 6 is_stmt 0 view .LVU77
 320 006c 0F20     		movs	r0, #15
 321 006e FFF7FEFF 		bl	HAL_InitTick
 322              	.LVL12:
 170:../../Drivers/STM32H7xx_HAL_Driver/Src/stm32h7xx_hal.c ****   {
 323              		.loc 1 170 5 view .LVU78
 324 0072 18B1     		cbz	r0, .L24
 172:../../Drivers/STM32H7xx_HAL_Driver/Src/stm32h7xx_hal.c ****   }
 325              		.loc 1 172 12 view .LVU79
 326 0074 0124     		movs	r4, #1
 327              	.L21:
 180:../../Drivers/STM32H7xx_HAL_Driver/Src/stm32h7xx_hal.c **** 
 328              		.loc 1 180 1 view .LVU80
 329 0076 2046     		mov	r0, r4
 330 0078 02B0     		add	sp, sp, #8
 331              	.LCFI4:
 332              		.cfi_remember_state
 333              		.cfi_def_cfa_offset 8
 334              		@ sp needed
 335 007a 10BD     		pop	{r4, pc}
ARM GAS  C:\Users\gigig\AppData\Local\Temp\cc64rzRb.s 			page 13


 336              	.L24:
 337              	.LCFI5:
 338              		.cfi_restore_state
 339 007c 0446     		mov	r4, r0
 176:../../Drivers/STM32H7xx_HAL_Driver/Src/stm32h7xx_hal.c **** 
 340              		.loc 1 176 3 is_stmt 1 view .LVU81
 341 007e FFF7FEFF 		bl	HAL_MspInit
 342              	.LVL13:
 179:../../Drivers/STM32H7xx_HAL_Driver/Src/stm32h7xx_hal.c **** }
 343              		.loc 1 179 3 view .LVU82
 179:../../Drivers/STM32H7xx_HAL_Driver/Src/stm32h7xx_hal.c **** }
 344              		.loc 1 179 10 is_stmt 0 view .LVU83
 345 0082 F8E7     		b	.L21
 346              	.L26:
 347              		.align	2
 348              	.L25:
 349 0084 00440258 		.word	1476543488
 350 0088 00400240 		.word	1073889280
 351 008c FF00F0FF 		.word	-1048321
 352 0090 00000000 		.word	D1CorePrescTable
 353 0094 00000000 		.word	SystemD2Clock
 354 0098 00000000 		.word	SystemCoreClock
 355              		.cfi_endproc
 356              	.LFE132:
 358              		.section	.text.HAL_IncTick,"ax",%progbits
 359              		.align	1
 360              		.weak	HAL_IncTick
 361              		.syntax unified
 362              		.thumb
 363              		.thumb_func
 365              	HAL_IncTick:
 366              	.LFB137:
 290:../../Drivers/STM32H7xx_HAL_Driver/Src/stm32h7xx_hal.c **** 
 291:../../Drivers/STM32H7xx_HAL_Driver/Src/stm32h7xx_hal.c **** /**
 292:../../Drivers/STM32H7xx_HAL_Driver/Src/stm32h7xx_hal.c ****   * @}
 293:../../Drivers/STM32H7xx_HAL_Driver/Src/stm32h7xx_hal.c ****   */
 294:../../Drivers/STM32H7xx_HAL_Driver/Src/stm32h7xx_hal.c **** 
 295:../../Drivers/STM32H7xx_HAL_Driver/Src/stm32h7xx_hal.c **** /** @addtogroup HAL_Group2
 296:../../Drivers/STM32H7xx_HAL_Driver/Src/stm32h7xx_hal.c ****  *  @brief    HAL Control functions
 297:../../Drivers/STM32H7xx_HAL_Driver/Src/stm32h7xx_hal.c ****  *
 298:../../Drivers/STM32H7xx_HAL_Driver/Src/stm32h7xx_hal.c **** @verbatim
 299:../../Drivers/STM32H7xx_HAL_Driver/Src/stm32h7xx_hal.c ****  ===============================================================================
 300:../../Drivers/STM32H7xx_HAL_Driver/Src/stm32h7xx_hal.c ****                       ##### HAL Control functions #####
 301:../../Drivers/STM32H7xx_HAL_Driver/Src/stm32h7xx_hal.c ****  ===============================================================================
 302:../../Drivers/STM32H7xx_HAL_Driver/Src/stm32h7xx_hal.c ****     [..]  This section provides functions allowing to:
 303:../../Drivers/STM32H7xx_HAL_Driver/Src/stm32h7xx_hal.c ****       (+) Provide a tick value in millisecond
 304:../../Drivers/STM32H7xx_HAL_Driver/Src/stm32h7xx_hal.c ****       (+) Provide a blocking delay in millisecond
 305:../../Drivers/STM32H7xx_HAL_Driver/Src/stm32h7xx_hal.c ****       (+) Suspend the time base source interrupt
 306:../../Drivers/STM32H7xx_HAL_Driver/Src/stm32h7xx_hal.c ****       (+) Resume the time base source interrupt
 307:../../Drivers/STM32H7xx_HAL_Driver/Src/stm32h7xx_hal.c ****       (+) Get the HAL API driver version
 308:../../Drivers/STM32H7xx_HAL_Driver/Src/stm32h7xx_hal.c ****       (+) Get the device identifier
 309:../../Drivers/STM32H7xx_HAL_Driver/Src/stm32h7xx_hal.c ****       (+) Get the device revision identifier
 310:../../Drivers/STM32H7xx_HAL_Driver/Src/stm32h7xx_hal.c ****       (+) Enable/Disable Debug module during SLEEP mode
 311:../../Drivers/STM32H7xx_HAL_Driver/Src/stm32h7xx_hal.c ****       (+) Enable/Disable Debug module during STOP mode
 312:../../Drivers/STM32H7xx_HAL_Driver/Src/stm32h7xx_hal.c ****       (+) Enable/Disable Debug module during STANDBY mode
 313:../../Drivers/STM32H7xx_HAL_Driver/Src/stm32h7xx_hal.c **** 
 314:../../Drivers/STM32H7xx_HAL_Driver/Src/stm32h7xx_hal.c **** @endverbatim
ARM GAS  C:\Users\gigig\AppData\Local\Temp\cc64rzRb.s 			page 14


 315:../../Drivers/STM32H7xx_HAL_Driver/Src/stm32h7xx_hal.c ****   * @{
 316:../../Drivers/STM32H7xx_HAL_Driver/Src/stm32h7xx_hal.c ****   */
 317:../../Drivers/STM32H7xx_HAL_Driver/Src/stm32h7xx_hal.c **** 
 318:../../Drivers/STM32H7xx_HAL_Driver/Src/stm32h7xx_hal.c **** /**
 319:../../Drivers/STM32H7xx_HAL_Driver/Src/stm32h7xx_hal.c ****   * @brief This function is called to increment  a global variable "uwTick"
 320:../../Drivers/STM32H7xx_HAL_Driver/Src/stm32h7xx_hal.c ****   *        used as application time base.
 321:../../Drivers/STM32H7xx_HAL_Driver/Src/stm32h7xx_hal.c ****   * @note In the default implementation, this variable is incremented each 1ms
 322:../../Drivers/STM32H7xx_HAL_Driver/Src/stm32h7xx_hal.c ****   *       in Systick ISR.
 323:../../Drivers/STM32H7xx_HAL_Driver/Src/stm32h7xx_hal.c ****  * @note This function is declared as __weak to be overwritten in case of other
 324:../../Drivers/STM32H7xx_HAL_Driver/Src/stm32h7xx_hal.c ****   *      implementations in user file.
 325:../../Drivers/STM32H7xx_HAL_Driver/Src/stm32h7xx_hal.c ****   * @retval None
 326:../../Drivers/STM32H7xx_HAL_Driver/Src/stm32h7xx_hal.c ****   */
 327:../../Drivers/STM32H7xx_HAL_Driver/Src/stm32h7xx_hal.c **** __weak void HAL_IncTick(void)
 328:../../Drivers/STM32H7xx_HAL_Driver/Src/stm32h7xx_hal.c **** {
 367              		.loc 1 328 1 is_stmt 1 view -0
 368              		.cfi_startproc
 369              		@ args = 0, pretend = 0, frame = 0
 370              		@ frame_needed = 0, uses_anonymous_args = 0
 371              		@ link register save eliminated.
 329:../../Drivers/STM32H7xx_HAL_Driver/Src/stm32h7xx_hal.c ****   uwTick += (uint32_t)uwTickFreq;
 372              		.loc 1 329 3 view .LVU85
 373              		.loc 1 329 13 is_stmt 0 view .LVU86
 374 0000 034B     		ldr	r3, .L28
 375 0002 1B78     		ldrb	r3, [r3]	@ zero_extendqisi2
 376              		.loc 1 329 10 view .LVU87
 377 0004 034A     		ldr	r2, .L28+4
 378 0006 1168     		ldr	r1, [r2]
 379 0008 0B44     		add	r3, r3, r1
 380 000a 1360     		str	r3, [r2]
 330:../../Drivers/STM32H7xx_HAL_Driver/Src/stm32h7xx_hal.c **** }
 381              		.loc 1 330 1 view .LVU88
 382 000c 7047     		bx	lr
 383              	.L29:
 384 000e 00BF     		.align	2
 385              	.L28:
 386 0010 00000000 		.word	uwTickFreq
 387 0014 00000000 		.word	uwTick
 388              		.cfi_endproc
 389              	.LFE137:
 391              		.section	.text.HAL_GetTick,"ax",%progbits
 392              		.align	1
 393              		.weak	HAL_GetTick
 394              		.syntax unified
 395              		.thumb
 396              		.thumb_func
 398              	HAL_GetTick:
 399              	.LFB138:
 331:../../Drivers/STM32H7xx_HAL_Driver/Src/stm32h7xx_hal.c **** 
 332:../../Drivers/STM32H7xx_HAL_Driver/Src/stm32h7xx_hal.c **** /**
 333:../../Drivers/STM32H7xx_HAL_Driver/Src/stm32h7xx_hal.c ****   * @brief Provides a tick value in millisecond.
 334:../../Drivers/STM32H7xx_HAL_Driver/Src/stm32h7xx_hal.c ****   * @note This function is declared as __weak to be overwritten in case of other
 335:../../Drivers/STM32H7xx_HAL_Driver/Src/stm32h7xx_hal.c ****   *       implementations in user file.
 336:../../Drivers/STM32H7xx_HAL_Driver/Src/stm32h7xx_hal.c ****   * @retval tick value
 337:../../Drivers/STM32H7xx_HAL_Driver/Src/stm32h7xx_hal.c ****   */
 338:../../Drivers/STM32H7xx_HAL_Driver/Src/stm32h7xx_hal.c **** __weak uint32_t HAL_GetTick(void)
 339:../../Drivers/STM32H7xx_HAL_Driver/Src/stm32h7xx_hal.c **** {
 400              		.loc 1 339 1 is_stmt 1 view -0
ARM GAS  C:\Users\gigig\AppData\Local\Temp\cc64rzRb.s 			page 15


 401              		.cfi_startproc
 402              		@ args = 0, pretend = 0, frame = 0
 403              		@ frame_needed = 0, uses_anonymous_args = 0
 404              		@ link register save eliminated.
 340:../../Drivers/STM32H7xx_HAL_Driver/Src/stm32h7xx_hal.c ****   return uwTick;
 405              		.loc 1 340 3 view .LVU90
 406              		.loc 1 340 10 is_stmt 0 view .LVU91
 407 0000 014B     		ldr	r3, .L31
 408 0002 1868     		ldr	r0, [r3]
 341:../../Drivers/STM32H7xx_HAL_Driver/Src/stm32h7xx_hal.c **** }
 409              		.loc 1 341 1 view .LVU92
 410 0004 7047     		bx	lr
 411              	.L32:
 412 0006 00BF     		.align	2
 413              	.L31:
 414 0008 00000000 		.word	uwTick
 415              		.cfi_endproc
 416              	.LFE138:
 418              		.section	.text.HAL_GetTickPrio,"ax",%progbits
 419              		.align	1
 420              		.global	HAL_GetTickPrio
 421              		.syntax unified
 422              		.thumb
 423              		.thumb_func
 425              	HAL_GetTickPrio:
 426              	.LFB139:
 342:../../Drivers/STM32H7xx_HAL_Driver/Src/stm32h7xx_hal.c **** 
 343:../../Drivers/STM32H7xx_HAL_Driver/Src/stm32h7xx_hal.c **** /**
 344:../../Drivers/STM32H7xx_HAL_Driver/Src/stm32h7xx_hal.c ****   * @brief This function returns a tick priority.
 345:../../Drivers/STM32H7xx_HAL_Driver/Src/stm32h7xx_hal.c ****   * @retval tick priority
 346:../../Drivers/STM32H7xx_HAL_Driver/Src/stm32h7xx_hal.c ****   */
 347:../../Drivers/STM32H7xx_HAL_Driver/Src/stm32h7xx_hal.c **** uint32_t HAL_GetTickPrio(void)
 348:../../Drivers/STM32H7xx_HAL_Driver/Src/stm32h7xx_hal.c **** {
 427              		.loc 1 348 1 is_stmt 1 view -0
 428              		.cfi_startproc
 429              		@ args = 0, pretend = 0, frame = 0
 430              		@ frame_needed = 0, uses_anonymous_args = 0
 431              		@ link register save eliminated.
 349:../../Drivers/STM32H7xx_HAL_Driver/Src/stm32h7xx_hal.c ****   return uwTickPrio;
 432              		.loc 1 349 3 view .LVU94
 350:../../Drivers/STM32H7xx_HAL_Driver/Src/stm32h7xx_hal.c **** }
 433              		.loc 1 350 1 is_stmt 0 view .LVU95
 434 0000 014B     		ldr	r3, .L34
 435 0002 1868     		ldr	r0, [r3]
 436 0004 7047     		bx	lr
 437              	.L35:
 438 0006 00BF     		.align	2
 439              	.L34:
 440 0008 00000000 		.word	uwTickPrio
 441              		.cfi_endproc
 442              	.LFE139:
 444              		.section	.text.HAL_SetTickFreq,"ax",%progbits
 445              		.align	1
 446              		.global	HAL_SetTickFreq
 447              		.syntax unified
 448              		.thumb
 449              		.thumb_func
ARM GAS  C:\Users\gigig\AppData\Local\Temp\cc64rzRb.s 			page 16


 451              	HAL_SetTickFreq:
 452              	.LVL14:
 453              	.LFB140:
 351:../../Drivers/STM32H7xx_HAL_Driver/Src/stm32h7xx_hal.c **** 
 352:../../Drivers/STM32H7xx_HAL_Driver/Src/stm32h7xx_hal.c **** /**
 353:../../Drivers/STM32H7xx_HAL_Driver/Src/stm32h7xx_hal.c ****   * @brief Set new tick Freq.
 354:../../Drivers/STM32H7xx_HAL_Driver/Src/stm32h7xx_hal.c ****   * @retval Status
 355:../../Drivers/STM32H7xx_HAL_Driver/Src/stm32h7xx_hal.c ****   */
 356:../../Drivers/STM32H7xx_HAL_Driver/Src/stm32h7xx_hal.c **** HAL_StatusTypeDef HAL_SetTickFreq(HAL_TickFreqTypeDef Freq)
 357:../../Drivers/STM32H7xx_HAL_Driver/Src/stm32h7xx_hal.c **** {
 454              		.loc 1 357 1 is_stmt 1 view -0
 455              		.cfi_startproc
 456              		@ args = 0, pretend = 0, frame = 0
 457              		@ frame_needed = 0, uses_anonymous_args = 0
 458              		.loc 1 357 1 is_stmt 0 view .LVU97
 459 0000 10B5     		push	{r4, lr}
 460              	.LCFI6:
 461              		.cfi_def_cfa_offset 8
 462              		.cfi_offset 4, -8
 463              		.cfi_offset 14, -4
 358:../../Drivers/STM32H7xx_HAL_Driver/Src/stm32h7xx_hal.c ****   HAL_StatusTypeDef status  = HAL_OK;
 464              		.loc 1 358 3 is_stmt 1 view .LVU98
 465              	.LVL15:
 359:../../Drivers/STM32H7xx_HAL_Driver/Src/stm32h7xx_hal.c ****   HAL_TickFreqTypeDef prevTickFreq;
 466              		.loc 1 359 3 view .LVU99
 360:../../Drivers/STM32H7xx_HAL_Driver/Src/stm32h7xx_hal.c **** 
 361:../../Drivers/STM32H7xx_HAL_Driver/Src/stm32h7xx_hal.c ****   assert_param(IS_TICKFREQ(Freq));
 467              		.loc 1 361 3 view .LVU100
 362:../../Drivers/STM32H7xx_HAL_Driver/Src/stm32h7xx_hal.c **** 
 363:../../Drivers/STM32H7xx_HAL_Driver/Src/stm32h7xx_hal.c ****   if (uwTickFreq != Freq)
 468              		.loc 1 363 3 view .LVU101
 469              		.loc 1 363 18 is_stmt 0 view .LVU102
 470 0002 084B     		ldr	r3, .L41
 471 0004 1C78     		ldrb	r4, [r3]	@ zero_extendqisi2
 472              		.loc 1 363 6 view .LVU103
 473 0006 8442     		cmp	r4, r0
 474 0008 01D1     		bne	.L40
 358:../../Drivers/STM32H7xx_HAL_Driver/Src/stm32h7xx_hal.c ****   HAL_TickFreqTypeDef prevTickFreq;
 475              		.loc 1 358 21 view .LVU104
 476 000a 0020     		movs	r0, #0
 477              	.LVL16:
 478              	.L37:
 364:../../Drivers/STM32H7xx_HAL_Driver/Src/stm32h7xx_hal.c ****   {
 365:../../Drivers/STM32H7xx_HAL_Driver/Src/stm32h7xx_hal.c **** 
 366:../../Drivers/STM32H7xx_HAL_Driver/Src/stm32h7xx_hal.c ****     /* Back up uwTickFreq frequency */
 367:../../Drivers/STM32H7xx_HAL_Driver/Src/stm32h7xx_hal.c ****     prevTickFreq = uwTickFreq;
 368:../../Drivers/STM32H7xx_HAL_Driver/Src/stm32h7xx_hal.c **** 
 369:../../Drivers/STM32H7xx_HAL_Driver/Src/stm32h7xx_hal.c ****     /* Update uwTickFreq global variable used by HAL_InitTick() */
 370:../../Drivers/STM32H7xx_HAL_Driver/Src/stm32h7xx_hal.c ****     uwTickFreq = Freq;
 371:../../Drivers/STM32H7xx_HAL_Driver/Src/stm32h7xx_hal.c **** 
 372:../../Drivers/STM32H7xx_HAL_Driver/Src/stm32h7xx_hal.c ****     /* Apply the new tick Freq  */
 373:../../Drivers/STM32H7xx_HAL_Driver/Src/stm32h7xx_hal.c ****     status = HAL_InitTick(uwTickPrio);
 374:../../Drivers/STM32H7xx_HAL_Driver/Src/stm32h7xx_hal.c ****     if (status != HAL_OK)
 375:../../Drivers/STM32H7xx_HAL_Driver/Src/stm32h7xx_hal.c ****     {
 376:../../Drivers/STM32H7xx_HAL_Driver/Src/stm32h7xx_hal.c ****       /* Restore previous tick frequency */
 377:../../Drivers/STM32H7xx_HAL_Driver/Src/stm32h7xx_hal.c ****       uwTickFreq = prevTickFreq;
 378:../../Drivers/STM32H7xx_HAL_Driver/Src/stm32h7xx_hal.c ****     }
ARM GAS  C:\Users\gigig\AppData\Local\Temp\cc64rzRb.s 			page 17


 379:../../Drivers/STM32H7xx_HAL_Driver/Src/stm32h7xx_hal.c ****   }
 380:../../Drivers/STM32H7xx_HAL_Driver/Src/stm32h7xx_hal.c **** 
 381:../../Drivers/STM32H7xx_HAL_Driver/Src/stm32h7xx_hal.c ****   return status;
 479              		.loc 1 381 3 is_stmt 1 view .LVU105
 382:../../Drivers/STM32H7xx_HAL_Driver/Src/stm32h7xx_hal.c **** }
 480              		.loc 1 382 1 is_stmt 0 view .LVU106
 481 000c 10BD     		pop	{r4, pc}
 482              	.LVL17:
 483              	.L40:
 367:../../Drivers/STM32H7xx_HAL_Driver/Src/stm32h7xx_hal.c **** 
 484              		.loc 1 367 5 is_stmt 1 view .LVU107
 370:../../Drivers/STM32H7xx_HAL_Driver/Src/stm32h7xx_hal.c **** 
 485              		.loc 1 370 5 view .LVU108
 370:../../Drivers/STM32H7xx_HAL_Driver/Src/stm32h7xx_hal.c **** 
 486              		.loc 1 370 16 is_stmt 0 view .LVU109
 487 000e 1870     		strb	r0, [r3]
 373:../../Drivers/STM32H7xx_HAL_Driver/Src/stm32h7xx_hal.c ****     if (status != HAL_OK)
 488              		.loc 1 373 5 is_stmt 1 view .LVU110
 373:../../Drivers/STM32H7xx_HAL_Driver/Src/stm32h7xx_hal.c ****     if (status != HAL_OK)
 489              		.loc 1 373 14 is_stmt 0 view .LVU111
 490 0010 054B     		ldr	r3, .L41+4
 491 0012 1868     		ldr	r0, [r3]
 492              	.LVL18:
 373:../../Drivers/STM32H7xx_HAL_Driver/Src/stm32h7xx_hal.c ****     if (status != HAL_OK)
 493              		.loc 1 373 14 view .LVU112
 494 0014 FFF7FEFF 		bl	HAL_InitTick
 495              	.LVL19:
 374:../../Drivers/STM32H7xx_HAL_Driver/Src/stm32h7xx_hal.c ****     {
 496              		.loc 1 374 5 is_stmt 1 view .LVU113
 374:../../Drivers/STM32H7xx_HAL_Driver/Src/stm32h7xx_hal.c ****     {
 497              		.loc 1 374 8 is_stmt 0 view .LVU114
 498 0018 0028     		cmp	r0, #0
 499 001a F7D0     		beq	.L37
 377:../../Drivers/STM32H7xx_HAL_Driver/Src/stm32h7xx_hal.c ****     }
 500              		.loc 1 377 7 is_stmt 1 view .LVU115
 377:../../Drivers/STM32H7xx_HAL_Driver/Src/stm32h7xx_hal.c ****     }
 501              		.loc 1 377 18 is_stmt 0 view .LVU116
 502 001c 014B     		ldr	r3, .L41
 503 001e 1C70     		strb	r4, [r3]
 504 0020 F4E7     		b	.L37
 505              	.L42:
 506 0022 00BF     		.align	2
 507              	.L41:
 508 0024 00000000 		.word	uwTickFreq
 509 0028 00000000 		.word	uwTickPrio
 510              		.cfi_endproc
 511              	.LFE140:
 513              		.section	.text.HAL_GetTickFreq,"ax",%progbits
 514              		.align	1
 515              		.global	HAL_GetTickFreq
 516              		.syntax unified
 517              		.thumb
 518              		.thumb_func
 520              	HAL_GetTickFreq:
 521              	.LFB141:
 383:../../Drivers/STM32H7xx_HAL_Driver/Src/stm32h7xx_hal.c **** 
 384:../../Drivers/STM32H7xx_HAL_Driver/Src/stm32h7xx_hal.c **** /**
ARM GAS  C:\Users\gigig\AppData\Local\Temp\cc64rzRb.s 			page 18


 385:../../Drivers/STM32H7xx_HAL_Driver/Src/stm32h7xx_hal.c ****   * @brief Return tick frequency.
 386:../../Drivers/STM32H7xx_HAL_Driver/Src/stm32h7xx_hal.c ****   * @retval tick period in Hz
 387:../../Drivers/STM32H7xx_HAL_Driver/Src/stm32h7xx_hal.c ****   */
 388:../../Drivers/STM32H7xx_HAL_Driver/Src/stm32h7xx_hal.c **** HAL_TickFreqTypeDef HAL_GetTickFreq(void)
 389:../../Drivers/STM32H7xx_HAL_Driver/Src/stm32h7xx_hal.c **** {
 522              		.loc 1 389 1 is_stmt 1 view -0
 523              		.cfi_startproc
 524              		@ args = 0, pretend = 0, frame = 0
 525              		@ frame_needed = 0, uses_anonymous_args = 0
 526              		@ link register save eliminated.
 390:../../Drivers/STM32H7xx_HAL_Driver/Src/stm32h7xx_hal.c ****   return uwTickFreq;
 527              		.loc 1 390 3 view .LVU118
 391:../../Drivers/STM32H7xx_HAL_Driver/Src/stm32h7xx_hal.c **** }
 528              		.loc 1 391 1 is_stmt 0 view .LVU119
 529 0000 014B     		ldr	r3, .L44
 530 0002 1878     		ldrb	r0, [r3]	@ zero_extendqisi2
 531 0004 7047     		bx	lr
 532              	.L45:
 533 0006 00BF     		.align	2
 534              	.L44:
 535 0008 00000000 		.word	uwTickFreq
 536              		.cfi_endproc
 537              	.LFE141:
 539              		.section	.text.HAL_Delay,"ax",%progbits
 540              		.align	1
 541              		.weak	HAL_Delay
 542              		.syntax unified
 543              		.thumb
 544              		.thumb_func
 546              	HAL_Delay:
 547              	.LVL20:
 548              	.LFB142:
 392:../../Drivers/STM32H7xx_HAL_Driver/Src/stm32h7xx_hal.c **** 
 393:../../Drivers/STM32H7xx_HAL_Driver/Src/stm32h7xx_hal.c **** /**
 394:../../Drivers/STM32H7xx_HAL_Driver/Src/stm32h7xx_hal.c ****   * @brief This function provides minimum delay (in milliseconds) based
 395:../../Drivers/STM32H7xx_HAL_Driver/Src/stm32h7xx_hal.c ****   *        on variable incremented.
 396:../../Drivers/STM32H7xx_HAL_Driver/Src/stm32h7xx_hal.c ****   * @note In the default implementation , SysTick timer is the source of time base.
 397:../../Drivers/STM32H7xx_HAL_Driver/Src/stm32h7xx_hal.c ****   *       It is used to generate interrupts at regular time intervals where uwTick
 398:../../Drivers/STM32H7xx_HAL_Driver/Src/stm32h7xx_hal.c ****   *       is incremented.
 399:../../Drivers/STM32H7xx_HAL_Driver/Src/stm32h7xx_hal.c ****   * @note This function is declared as __weak to be overwritten in case of other
 400:../../Drivers/STM32H7xx_HAL_Driver/Src/stm32h7xx_hal.c ****   *       implementations in user file.
 401:../../Drivers/STM32H7xx_HAL_Driver/Src/stm32h7xx_hal.c ****   * @param Delay  specifies the delay time length, in milliseconds.
 402:../../Drivers/STM32H7xx_HAL_Driver/Src/stm32h7xx_hal.c ****   * @retval None
 403:../../Drivers/STM32H7xx_HAL_Driver/Src/stm32h7xx_hal.c ****   */
 404:../../Drivers/STM32H7xx_HAL_Driver/Src/stm32h7xx_hal.c **** __weak void HAL_Delay(uint32_t Delay)
 405:../../Drivers/STM32H7xx_HAL_Driver/Src/stm32h7xx_hal.c **** {
 549              		.loc 1 405 1 is_stmt 1 view -0
 550              		.cfi_startproc
 551              		@ args = 0, pretend = 0, frame = 0
 552              		@ frame_needed = 0, uses_anonymous_args = 0
 553              		.loc 1 405 1 is_stmt 0 view .LVU121
 554 0000 38B5     		push	{r3, r4, r5, lr}
 555              	.LCFI7:
 556              		.cfi_def_cfa_offset 16
 557              		.cfi_offset 3, -16
 558              		.cfi_offset 4, -12
 559              		.cfi_offset 5, -8
ARM GAS  C:\Users\gigig\AppData\Local\Temp\cc64rzRb.s 			page 19


 560              		.cfi_offset 14, -4
 561 0002 0446     		mov	r4, r0
 406:../../Drivers/STM32H7xx_HAL_Driver/Src/stm32h7xx_hal.c ****   uint32_t tickstart = HAL_GetTick();
 562              		.loc 1 406 3 is_stmt 1 view .LVU122
 563              		.loc 1 406 24 is_stmt 0 view .LVU123
 564 0004 FFF7FEFF 		bl	HAL_GetTick
 565              	.LVL21:
 566              		.loc 1 406 24 view .LVU124
 567 0008 0546     		mov	r5, r0
 568              	.LVL22:
 407:../../Drivers/STM32H7xx_HAL_Driver/Src/stm32h7xx_hal.c ****   uint32_t wait = Delay;
 569              		.loc 1 407 3 is_stmt 1 view .LVU125
 408:../../Drivers/STM32H7xx_HAL_Driver/Src/stm32h7xx_hal.c **** 
 409:../../Drivers/STM32H7xx_HAL_Driver/Src/stm32h7xx_hal.c ****   /* Add a freq to guarantee minimum wait */
 410:../../Drivers/STM32H7xx_HAL_Driver/Src/stm32h7xx_hal.c ****   if (wait < HAL_MAX_DELAY)
 570              		.loc 1 410 3 view .LVU126
 571              		.loc 1 410 6 is_stmt 0 view .LVU127
 572 000a B4F1FF3F 		cmp	r4, #-1
 573 000e 02D0     		beq	.L48
 411:../../Drivers/STM32H7xx_HAL_Driver/Src/stm32h7xx_hal.c ****   {
 412:../../Drivers/STM32H7xx_HAL_Driver/Src/stm32h7xx_hal.c ****     wait += (uint32_t)(uwTickFreq);
 574              		.loc 1 412 5 is_stmt 1 view .LVU128
 575              		.loc 1 412 13 is_stmt 0 view .LVU129
 576 0010 044B     		ldr	r3, .L50
 577 0012 1B78     		ldrb	r3, [r3]	@ zero_extendqisi2
 578              		.loc 1 412 10 view .LVU130
 579 0014 1C44     		add	r4, r4, r3
 580              	.LVL23:
 581              	.L48:
 413:../../Drivers/STM32H7xx_HAL_Driver/Src/stm32h7xx_hal.c ****   }
 414:../../Drivers/STM32H7xx_HAL_Driver/Src/stm32h7xx_hal.c **** 
 415:../../Drivers/STM32H7xx_HAL_Driver/Src/stm32h7xx_hal.c ****   while ((HAL_GetTick() - tickstart) < wait)
 416:../../Drivers/STM32H7xx_HAL_Driver/Src/stm32h7xx_hal.c ****   {
 417:../../Drivers/STM32H7xx_HAL_Driver/Src/stm32h7xx_hal.c ****   }
 582              		.loc 1 417 3 is_stmt 1 discriminator 1 view .LVU131
 415:../../Drivers/STM32H7xx_HAL_Driver/Src/stm32h7xx_hal.c ****   {
 583              		.loc 1 415 38 discriminator 1 view .LVU132
 415:../../Drivers/STM32H7xx_HAL_Driver/Src/stm32h7xx_hal.c ****   {
 584              		.loc 1 415 11 is_stmt 0 discriminator 1 view .LVU133
 585 0016 FFF7FEFF 		bl	HAL_GetTick
 586              	.LVL24:
 415:../../Drivers/STM32H7xx_HAL_Driver/Src/stm32h7xx_hal.c ****   {
 587              		.loc 1 415 25 discriminator 1 view .LVU134
 588 001a 401B     		subs	r0, r0, r5
 415:../../Drivers/STM32H7xx_HAL_Driver/Src/stm32h7xx_hal.c ****   {
 589              		.loc 1 415 38 discriminator 1 view .LVU135
 590 001c A042     		cmp	r0, r4
 591 001e FAD3     		bcc	.L48
 418:../../Drivers/STM32H7xx_HAL_Driver/Src/stm32h7xx_hal.c **** }
 592              		.loc 1 418 1 view .LVU136
 593 0020 38BD     		pop	{r3, r4, r5, pc}
 594              	.LVL25:
 595              	.L51:
 596              		.loc 1 418 1 view .LVU137
 597 0022 00BF     		.align	2
 598              	.L50:
 599 0024 00000000 		.word	uwTickFreq
ARM GAS  C:\Users\gigig\AppData\Local\Temp\cc64rzRb.s 			page 20


 600              		.cfi_endproc
 601              	.LFE142:
 603              		.section	.text.HAL_SuspendTick,"ax",%progbits
 604              		.align	1
 605              		.weak	HAL_SuspendTick
 606              		.syntax unified
 607              		.thumb
 608              		.thumb_func
 610              	HAL_SuspendTick:
 611              	.LFB143:
 419:../../Drivers/STM32H7xx_HAL_Driver/Src/stm32h7xx_hal.c **** 
 420:../../Drivers/STM32H7xx_HAL_Driver/Src/stm32h7xx_hal.c **** /**
 421:../../Drivers/STM32H7xx_HAL_Driver/Src/stm32h7xx_hal.c ****   * @brief Suspend Tick increment.
 422:../../Drivers/STM32H7xx_HAL_Driver/Src/stm32h7xx_hal.c ****   * @note In the default implementation , SysTick timer is the source of time base. It is
 423:../../Drivers/STM32H7xx_HAL_Driver/Src/stm32h7xx_hal.c ****   *       used to generate interrupts at regular time intervals. Once HAL_SuspendTick()
 424:../../Drivers/STM32H7xx_HAL_Driver/Src/stm32h7xx_hal.c ****   *       is called, the SysTick interrupt will be disabled and so Tick increment
 425:../../Drivers/STM32H7xx_HAL_Driver/Src/stm32h7xx_hal.c ****   *       is suspended.
 426:../../Drivers/STM32H7xx_HAL_Driver/Src/stm32h7xx_hal.c ****   * @note This function is declared as __weak to be overwritten in case of other
 427:../../Drivers/STM32H7xx_HAL_Driver/Src/stm32h7xx_hal.c ****   *       implementations in user file.
 428:../../Drivers/STM32H7xx_HAL_Driver/Src/stm32h7xx_hal.c ****   * @retval None
 429:../../Drivers/STM32H7xx_HAL_Driver/Src/stm32h7xx_hal.c ****   */
 430:../../Drivers/STM32H7xx_HAL_Driver/Src/stm32h7xx_hal.c **** __weak void HAL_SuspendTick(void)
 431:../../Drivers/STM32H7xx_HAL_Driver/Src/stm32h7xx_hal.c **** {
 612              		.loc 1 431 1 is_stmt 1 view -0
 613              		.cfi_startproc
 614              		@ args = 0, pretend = 0, frame = 0
 615              		@ frame_needed = 0, uses_anonymous_args = 0
 616              		@ link register save eliminated.
 432:../../Drivers/STM32H7xx_HAL_Driver/Src/stm32h7xx_hal.c ****   /* Disable SysTick Interrupt */
 433:../../Drivers/STM32H7xx_HAL_Driver/Src/stm32h7xx_hal.c ****   SysTick->CTRL &= ~SysTick_CTRL_TICKINT_Msk;
 617              		.loc 1 433 3 view .LVU139
 618              		.loc 1 433 10 is_stmt 0 view .LVU140
 619 0000 4FF0E022 		mov	r2, #-536813568
 620 0004 1369     		ldr	r3, [r2, #16]
 621              		.loc 1 433 17 view .LVU141
 622 0006 23F00203 		bic	r3, r3, #2
 623 000a 1361     		str	r3, [r2, #16]
 434:../../Drivers/STM32H7xx_HAL_Driver/Src/stm32h7xx_hal.c **** }
 624              		.loc 1 434 1 view .LVU142
 625 000c 7047     		bx	lr
 626              		.cfi_endproc
 627              	.LFE143:
 629              		.section	.text.HAL_ResumeTick,"ax",%progbits
 630              		.align	1
 631              		.weak	HAL_ResumeTick
 632              		.syntax unified
 633              		.thumb
 634              		.thumb_func
 636              	HAL_ResumeTick:
 637              	.LFB144:
 435:../../Drivers/STM32H7xx_HAL_Driver/Src/stm32h7xx_hal.c **** 
 436:../../Drivers/STM32H7xx_HAL_Driver/Src/stm32h7xx_hal.c **** /**
 437:../../Drivers/STM32H7xx_HAL_Driver/Src/stm32h7xx_hal.c ****   * @brief Resume Tick increment.
 438:../../Drivers/STM32H7xx_HAL_Driver/Src/stm32h7xx_hal.c ****   * @note In the default implementation , SysTick timer is the source of time base. It is
 439:../../Drivers/STM32H7xx_HAL_Driver/Src/stm32h7xx_hal.c ****   *       used to generate interrupts at regular time intervals. Once HAL_ResumeTick()
 440:../../Drivers/STM32H7xx_HAL_Driver/Src/stm32h7xx_hal.c ****   *       is called, the SysTick interrupt will be enabled and so Tick increment
 441:../../Drivers/STM32H7xx_HAL_Driver/Src/stm32h7xx_hal.c ****   *       is resumed.
ARM GAS  C:\Users\gigig\AppData\Local\Temp\cc64rzRb.s 			page 21


 442:../../Drivers/STM32H7xx_HAL_Driver/Src/stm32h7xx_hal.c ****   * @note This function is declared as __weak to be overwritten in case of other
 443:../../Drivers/STM32H7xx_HAL_Driver/Src/stm32h7xx_hal.c ****   *       implementations in user file.
 444:../../Drivers/STM32H7xx_HAL_Driver/Src/stm32h7xx_hal.c ****   * @retval None
 445:../../Drivers/STM32H7xx_HAL_Driver/Src/stm32h7xx_hal.c ****   */
 446:../../Drivers/STM32H7xx_HAL_Driver/Src/stm32h7xx_hal.c **** __weak void HAL_ResumeTick(void)
 447:../../Drivers/STM32H7xx_HAL_Driver/Src/stm32h7xx_hal.c **** {
 638              		.loc 1 447 1 is_stmt 1 view -0
 639              		.cfi_startproc
 640              		@ args = 0, pretend = 0, frame = 0
 641              		@ frame_needed = 0, uses_anonymous_args = 0
 642              		@ link register save eliminated.
 448:../../Drivers/STM32H7xx_HAL_Driver/Src/stm32h7xx_hal.c ****   /* Enable SysTick Interrupt */
 449:../../Drivers/STM32H7xx_HAL_Driver/Src/stm32h7xx_hal.c ****   SysTick->CTRL  |= SysTick_CTRL_TICKINT_Msk;
 643              		.loc 1 449 3 view .LVU144
 644              		.loc 1 449 10 is_stmt 0 view .LVU145
 645 0000 4FF0E022 		mov	r2, #-536813568
 646 0004 1369     		ldr	r3, [r2, #16]
 647              		.loc 1 449 18 view .LVU146
 648 0006 43F00203 		orr	r3, r3, #2
 649 000a 1361     		str	r3, [r2, #16]
 450:../../Drivers/STM32H7xx_HAL_Driver/Src/stm32h7xx_hal.c **** }
 650              		.loc 1 450 1 view .LVU147
 651 000c 7047     		bx	lr
 652              		.cfi_endproc
 653              	.LFE144:
 655              		.section	.text.HAL_GetHalVersion,"ax",%progbits
 656              		.align	1
 657              		.global	HAL_GetHalVersion
 658              		.syntax unified
 659              		.thumb
 660              		.thumb_func
 662              	HAL_GetHalVersion:
 663              	.LFB145:
 451:../../Drivers/STM32H7xx_HAL_Driver/Src/stm32h7xx_hal.c **** 
 452:../../Drivers/STM32H7xx_HAL_Driver/Src/stm32h7xx_hal.c **** /**
 453:../../Drivers/STM32H7xx_HAL_Driver/Src/stm32h7xx_hal.c ****   * @brief  Returns the HAL revision
 454:../../Drivers/STM32H7xx_HAL_Driver/Src/stm32h7xx_hal.c ****   * @retval version : 0xXYZR (8bits for each decimal, R for RC)
 455:../../Drivers/STM32H7xx_HAL_Driver/Src/stm32h7xx_hal.c ****   */
 456:../../Drivers/STM32H7xx_HAL_Driver/Src/stm32h7xx_hal.c **** uint32_t HAL_GetHalVersion(void)
 457:../../Drivers/STM32H7xx_HAL_Driver/Src/stm32h7xx_hal.c **** {
 664              		.loc 1 457 1 is_stmt 1 view -0
 665              		.cfi_startproc
 666              		@ args = 0, pretend = 0, frame = 0
 667              		@ frame_needed = 0, uses_anonymous_args = 0
 668              		@ link register save eliminated.
 458:../../Drivers/STM32H7xx_HAL_Driver/Src/stm32h7xx_hal.c ****  return __STM32H7xx_HAL_VERSION;
 669              		.loc 1 458 2 view .LVU149
 459:../../Drivers/STM32H7xx_HAL_Driver/Src/stm32h7xx_hal.c **** }
 670              		.loc 1 459 1 is_stmt 0 view .LVU150
 671 0000 0048     		ldr	r0, .L55
 672 0002 7047     		bx	lr
 673              	.L56:
 674              		.align	2
 675              	.L55:
 676 0004 00010B01 		.word	17498368
 677              		.cfi_endproc
 678              	.LFE145:
ARM GAS  C:\Users\gigig\AppData\Local\Temp\cc64rzRb.s 			page 22


 680              		.section	.text.HAL_GetREVID,"ax",%progbits
 681              		.align	1
 682              		.global	HAL_GetREVID
 683              		.syntax unified
 684              		.thumb
 685              		.thumb_func
 687              	HAL_GetREVID:
 688              	.LFB146:
 460:../../Drivers/STM32H7xx_HAL_Driver/Src/stm32h7xx_hal.c **** 
 461:../../Drivers/STM32H7xx_HAL_Driver/Src/stm32h7xx_hal.c **** /**
 462:../../Drivers/STM32H7xx_HAL_Driver/Src/stm32h7xx_hal.c ****   * @brief  Returns the device revision identifier.
 463:../../Drivers/STM32H7xx_HAL_Driver/Src/stm32h7xx_hal.c ****   * @retval Device revision identifier
 464:../../Drivers/STM32H7xx_HAL_Driver/Src/stm32h7xx_hal.c ****   */
 465:../../Drivers/STM32H7xx_HAL_Driver/Src/stm32h7xx_hal.c **** uint32_t HAL_GetREVID(void)
 466:../../Drivers/STM32H7xx_HAL_Driver/Src/stm32h7xx_hal.c **** {
 689              		.loc 1 466 1 is_stmt 1 view -0
 690              		.cfi_startproc
 691              		@ args = 0, pretend = 0, frame = 0
 692              		@ frame_needed = 0, uses_anonymous_args = 0
 693              		@ link register save eliminated.
 467:../../Drivers/STM32H7xx_HAL_Driver/Src/stm32h7xx_hal.c ****    return((DBGMCU->IDCODE) >> 16);
 694              		.loc 1 467 4 view .LVU152
 695              		.loc 1 467 18 is_stmt 0 view .LVU153
 696 0000 014B     		ldr	r3, .L58
 697 0002 1868     		ldr	r0, [r3]
 468:../../Drivers/STM32H7xx_HAL_Driver/Src/stm32h7xx_hal.c **** }
 698              		.loc 1 468 1 view .LVU154
 699 0004 000C     		lsrs	r0, r0, #16
 700 0006 7047     		bx	lr
 701              	.L59:
 702              		.align	2
 703              	.L58:
 704 0008 0010005C 		.word	1543507968
 705              		.cfi_endproc
 706              	.LFE146:
 708              		.section	.text.HAL_GetDEVID,"ax",%progbits
 709              		.align	1
 710              		.global	HAL_GetDEVID
 711              		.syntax unified
 712              		.thumb
 713              		.thumb_func
 715              	HAL_GetDEVID:
 716              	.LFB147:
 469:../../Drivers/STM32H7xx_HAL_Driver/Src/stm32h7xx_hal.c **** 
 470:../../Drivers/STM32H7xx_HAL_Driver/Src/stm32h7xx_hal.c **** /**
 471:../../Drivers/STM32H7xx_HAL_Driver/Src/stm32h7xx_hal.c ****   * @brief  Returns the device identifier.
 472:../../Drivers/STM32H7xx_HAL_Driver/Src/stm32h7xx_hal.c ****   * @retval Device identifier
 473:../../Drivers/STM32H7xx_HAL_Driver/Src/stm32h7xx_hal.c ****   */
 474:../../Drivers/STM32H7xx_HAL_Driver/Src/stm32h7xx_hal.c **** uint32_t HAL_GetDEVID(void)
 475:../../Drivers/STM32H7xx_HAL_Driver/Src/stm32h7xx_hal.c **** {
 717              		.loc 1 475 1 is_stmt 1 view -0
 718              		.cfi_startproc
 719              		@ args = 0, pretend = 0, frame = 0
 720              		@ frame_needed = 0, uses_anonymous_args = 0
 721              		@ link register save eliminated.
 476:../../Drivers/STM32H7xx_HAL_Driver/Src/stm32h7xx_hal.c ****    return((DBGMCU->IDCODE) & IDCODE_DEVID_MASK);
 722              		.loc 1 476 4 view .LVU156
ARM GAS  C:\Users\gigig\AppData\Local\Temp\cc64rzRb.s 			page 23


 723              		.loc 1 476 18 is_stmt 0 view .LVU157
 724 0000 024B     		ldr	r3, .L61
 725 0002 1868     		ldr	r0, [r3]
 477:../../Drivers/STM32H7xx_HAL_Driver/Src/stm32h7xx_hal.c **** }
 726              		.loc 1 477 1 view .LVU158
 727 0004 C0F30B00 		ubfx	r0, r0, #0, #12
 728 0008 7047     		bx	lr
 729              	.L62:
 730 000a 00BF     		.align	2
 731              	.L61:
 732 000c 0010005C 		.word	1543507968
 733              		.cfi_endproc
 734              	.LFE147:
 736              		.section	.text.HAL_GetUIDw0,"ax",%progbits
 737              		.align	1
 738              		.global	HAL_GetUIDw0
 739              		.syntax unified
 740              		.thumb
 741              		.thumb_func
 743              	HAL_GetUIDw0:
 744              	.LFB148:
 478:../../Drivers/STM32H7xx_HAL_Driver/Src/stm32h7xx_hal.c **** 
 479:../../Drivers/STM32H7xx_HAL_Driver/Src/stm32h7xx_hal.c **** /**
 480:../../Drivers/STM32H7xx_HAL_Driver/Src/stm32h7xx_hal.c ****   * @brief  Return the first word of the unique device identifier (UID based on 96 bits)
 481:../../Drivers/STM32H7xx_HAL_Driver/Src/stm32h7xx_hal.c ****   * @retval Device identifier
 482:../../Drivers/STM32H7xx_HAL_Driver/Src/stm32h7xx_hal.c ****   */
 483:../../Drivers/STM32H7xx_HAL_Driver/Src/stm32h7xx_hal.c **** uint32_t HAL_GetUIDw0(void)
 484:../../Drivers/STM32H7xx_HAL_Driver/Src/stm32h7xx_hal.c **** {
 745              		.loc 1 484 1 is_stmt 1 view -0
 746              		.cfi_startproc
 747              		@ args = 0, pretend = 0, frame = 0
 748              		@ frame_needed = 0, uses_anonymous_args = 0
 749              		@ link register save eliminated.
 485:../../Drivers/STM32H7xx_HAL_Driver/Src/stm32h7xx_hal.c ****   return(READ_REG(*((uint32_t *)UID_BASE)));
 750              		.loc 1 485 3 view .LVU160
 486:../../Drivers/STM32H7xx_HAL_Driver/Src/stm32h7xx_hal.c **** }
 751              		.loc 1 486 1 is_stmt 0 view .LVU161
 752 0000 014B     		ldr	r3, .L64
 753 0002 D3F80008 		ldr	r0, [r3, #2048]
 754 0006 7047     		bx	lr
 755              	.L65:
 756              		.align	2
 757              	.L64:
 758 0008 00E0F11F 		.word	535945216
 759              		.cfi_endproc
 760              	.LFE148:
 762              		.section	.text.HAL_GetUIDw1,"ax",%progbits
 763              		.align	1
 764              		.global	HAL_GetUIDw1
 765              		.syntax unified
 766              		.thumb
 767              		.thumb_func
 769              	HAL_GetUIDw1:
 770              	.LFB149:
 487:../../Drivers/STM32H7xx_HAL_Driver/Src/stm32h7xx_hal.c **** 
 488:../../Drivers/STM32H7xx_HAL_Driver/Src/stm32h7xx_hal.c **** /**
 489:../../Drivers/STM32H7xx_HAL_Driver/Src/stm32h7xx_hal.c ****   * @brief  Return the second word of the unique device identifier (UID based on 96 bits)
ARM GAS  C:\Users\gigig\AppData\Local\Temp\cc64rzRb.s 			page 24


 490:../../Drivers/STM32H7xx_HAL_Driver/Src/stm32h7xx_hal.c ****   * @retval Device identifier
 491:../../Drivers/STM32H7xx_HAL_Driver/Src/stm32h7xx_hal.c ****   */
 492:../../Drivers/STM32H7xx_HAL_Driver/Src/stm32h7xx_hal.c **** uint32_t HAL_GetUIDw1(void)
 493:../../Drivers/STM32H7xx_HAL_Driver/Src/stm32h7xx_hal.c **** {
 771              		.loc 1 493 1 is_stmt 1 view -0
 772              		.cfi_startproc
 773              		@ args = 0, pretend = 0, frame = 0
 774              		@ frame_needed = 0, uses_anonymous_args = 0
 775              		@ link register save eliminated.
 494:../../Drivers/STM32H7xx_HAL_Driver/Src/stm32h7xx_hal.c ****   return(READ_REG(*((uint32_t *)(UID_BASE + 4U))));
 776              		.loc 1 494 3 view .LVU163
 495:../../Drivers/STM32H7xx_HAL_Driver/Src/stm32h7xx_hal.c **** }
 777              		.loc 1 495 1 is_stmt 0 view .LVU164
 778 0000 014B     		ldr	r3, .L67
 779 0002 D3F80408 		ldr	r0, [r3, #2052]
 780 0006 7047     		bx	lr
 781              	.L68:
 782              		.align	2
 783              	.L67:
 784 0008 00E0F11F 		.word	535945216
 785              		.cfi_endproc
 786              	.LFE149:
 788              		.section	.text.HAL_GetUIDw2,"ax",%progbits
 789              		.align	1
 790              		.global	HAL_GetUIDw2
 791              		.syntax unified
 792              		.thumb
 793              		.thumb_func
 795              	HAL_GetUIDw2:
 796              	.LFB150:
 496:../../Drivers/STM32H7xx_HAL_Driver/Src/stm32h7xx_hal.c **** 
 497:../../Drivers/STM32H7xx_HAL_Driver/Src/stm32h7xx_hal.c **** /**
 498:../../Drivers/STM32H7xx_HAL_Driver/Src/stm32h7xx_hal.c ****   * @brief  Return the third word of the unique device identifier (UID based on 96 bits)
 499:../../Drivers/STM32H7xx_HAL_Driver/Src/stm32h7xx_hal.c ****   * @retval Device identifier
 500:../../Drivers/STM32H7xx_HAL_Driver/Src/stm32h7xx_hal.c ****   */
 501:../../Drivers/STM32H7xx_HAL_Driver/Src/stm32h7xx_hal.c **** uint32_t HAL_GetUIDw2(void)
 502:../../Drivers/STM32H7xx_HAL_Driver/Src/stm32h7xx_hal.c **** {
 797              		.loc 1 502 1 is_stmt 1 view -0
 798              		.cfi_startproc
 799              		@ args = 0, pretend = 0, frame = 0
 800              		@ frame_needed = 0, uses_anonymous_args = 0
 801              		@ link register save eliminated.
 503:../../Drivers/STM32H7xx_HAL_Driver/Src/stm32h7xx_hal.c ****   return(READ_REG(*((uint32_t *)(UID_BASE + 8U))));
 802              		.loc 1 503 3 view .LVU166
 504:../../Drivers/STM32H7xx_HAL_Driver/Src/stm32h7xx_hal.c **** }
 803              		.loc 1 504 1 is_stmt 0 view .LVU167
 804 0000 014B     		ldr	r3, .L70
 805 0002 D3F80808 		ldr	r0, [r3, #2056]
 806 0006 7047     		bx	lr
 807              	.L71:
 808              		.align	2
 809              	.L70:
 810 0008 00E0F11F 		.word	535945216
 811              		.cfi_endproc
 812              	.LFE150:
 814              		.section	.text.HAL_SYSCFG_VREFBUF_VoltageScalingConfig,"ax",%progbits
 815              		.align	1
ARM GAS  C:\Users\gigig\AppData\Local\Temp\cc64rzRb.s 			page 25


 816              		.global	HAL_SYSCFG_VREFBUF_VoltageScalingConfig
 817              		.syntax unified
 818              		.thumb
 819              		.thumb_func
 821              	HAL_SYSCFG_VREFBUF_VoltageScalingConfig:
 822              	.LVL26:
 823              	.LFB151:
 505:../../Drivers/STM32H7xx_HAL_Driver/Src/stm32h7xx_hal.c **** 
 506:../../Drivers/STM32H7xx_HAL_Driver/Src/stm32h7xx_hal.c **** /**
 507:../../Drivers/STM32H7xx_HAL_Driver/Src/stm32h7xx_hal.c ****   * @brief Configure the internal voltage reference buffer voltage scale.
 508:../../Drivers/STM32H7xx_HAL_Driver/Src/stm32h7xx_hal.c ****   * @param VoltageScaling  specifies the output voltage to achieve
 509:../../Drivers/STM32H7xx_HAL_Driver/Src/stm32h7xx_hal.c ****   *          This parameter can be one of the following values:
 510:../../Drivers/STM32H7xx_HAL_Driver/Src/stm32h7xx_hal.c ****   *            @arg SYSCFG_VREFBUF_VOLTAGE_SCALE0: VREF_OUT1 around 2.5 V.
 511:../../Drivers/STM32H7xx_HAL_Driver/Src/stm32h7xx_hal.c ****   *                                                This requires VDDA equal to or higher than 2.8 V
 512:../../Drivers/STM32H7xx_HAL_Driver/Src/stm32h7xx_hal.c ****   *            @arg SYSCFG_VREFBUF_VOLTAGE_SCALE1: VREF_OUT2 around 2.048 V.
 513:../../Drivers/STM32H7xx_HAL_Driver/Src/stm32h7xx_hal.c ****   *                                                This requires VDDA equal to or higher than 2.4 V
 514:../../Drivers/STM32H7xx_HAL_Driver/Src/stm32h7xx_hal.c ****   *            @arg SYSCFG_VREFBUF_VOLTAGE_SCALE2: VREF_OUT3 around 1.8 V.
 515:../../Drivers/STM32H7xx_HAL_Driver/Src/stm32h7xx_hal.c ****   *                                                This requires VDDA equal to or higher than 2.1 V
 516:../../Drivers/STM32H7xx_HAL_Driver/Src/stm32h7xx_hal.c ****   *            @arg SYSCFG_VREFBUF_VOLTAGE_SCALE3: VREF_OUT4 around 1.5 V.
 517:../../Drivers/STM32H7xx_HAL_Driver/Src/stm32h7xx_hal.c ****   *                                                This requires VDDA equal to or higher than 1.8 V
 518:../../Drivers/STM32H7xx_HAL_Driver/Src/stm32h7xx_hal.c ****   * @retval None
 519:../../Drivers/STM32H7xx_HAL_Driver/Src/stm32h7xx_hal.c ****   */
 520:../../Drivers/STM32H7xx_HAL_Driver/Src/stm32h7xx_hal.c **** void HAL_SYSCFG_VREFBUF_VoltageScalingConfig(uint32_t VoltageScaling)
 521:../../Drivers/STM32H7xx_HAL_Driver/Src/stm32h7xx_hal.c **** {
 824              		.loc 1 521 1 is_stmt 1 view -0
 825              		.cfi_startproc
 826              		@ args = 0, pretend = 0, frame = 0
 827              		@ frame_needed = 0, uses_anonymous_args = 0
 828              		@ link register save eliminated.
 522:../../Drivers/STM32H7xx_HAL_Driver/Src/stm32h7xx_hal.c ****   /* Check the parameters */
 523:../../Drivers/STM32H7xx_HAL_Driver/Src/stm32h7xx_hal.c ****   assert_param(IS_SYSCFG_VREFBUF_VOLTAGE_SCALE(VoltageScaling));
 829              		.loc 1 523 3 view .LVU169
 524:../../Drivers/STM32H7xx_HAL_Driver/Src/stm32h7xx_hal.c **** 
 525:../../Drivers/STM32H7xx_HAL_Driver/Src/stm32h7xx_hal.c ****   MODIFY_REG(VREFBUF->CSR, VREFBUF_CSR_VRS, VoltageScaling);
 830              		.loc 1 525 3 view .LVU170
 831 0000 034A     		ldr	r2, .L73
 832 0002 1368     		ldr	r3, [r2]
 833 0004 23F07003 		bic	r3, r3, #112
 834 0008 0343     		orrs	r3, r3, r0
 835 000a 1360     		str	r3, [r2]
 526:../../Drivers/STM32H7xx_HAL_Driver/Src/stm32h7xx_hal.c **** }
 836              		.loc 1 526 1 is_stmt 0 view .LVU171
 837 000c 7047     		bx	lr
 838              	.L74:
 839 000e 00BF     		.align	2
 840              	.L73:
 841 0010 003C0058 		.word	1476410368
 842              		.cfi_endproc
 843              	.LFE151:
 845              		.section	.text.HAL_SYSCFG_VREFBUF_HighImpedanceConfig,"ax",%progbits
 846              		.align	1
 847              		.global	HAL_SYSCFG_VREFBUF_HighImpedanceConfig
 848              		.syntax unified
 849              		.thumb
 850              		.thumb_func
 852              	HAL_SYSCFG_VREFBUF_HighImpedanceConfig:
 853              	.LVL27:
ARM GAS  C:\Users\gigig\AppData\Local\Temp\cc64rzRb.s 			page 26


 854              	.LFB152:
 527:../../Drivers/STM32H7xx_HAL_Driver/Src/stm32h7xx_hal.c **** 
 528:../../Drivers/STM32H7xx_HAL_Driver/Src/stm32h7xx_hal.c **** /**
 529:../../Drivers/STM32H7xx_HAL_Driver/Src/stm32h7xx_hal.c ****   * @brief Configure the internal voltage reference buffer high impedance mode.
 530:../../Drivers/STM32H7xx_HAL_Driver/Src/stm32h7xx_hal.c ****   * @param Mode  specifies the high impedance mode
 531:../../Drivers/STM32H7xx_HAL_Driver/Src/stm32h7xx_hal.c ****   *          This parameter can be one of the following values:
 532:../../Drivers/STM32H7xx_HAL_Driver/Src/stm32h7xx_hal.c ****   *            @arg SYSCFG_VREFBUF_HIGH_IMPEDANCE_DISABLE: VREF+ pin is internally connect to VREFI
 533:../../Drivers/STM32H7xx_HAL_Driver/Src/stm32h7xx_hal.c ****   *            @arg SYSCFG_VREFBUF_HIGH_IMPEDANCE_ENABLE: VREF+ pin is high impedance.
 534:../../Drivers/STM32H7xx_HAL_Driver/Src/stm32h7xx_hal.c ****   * @retval None
 535:../../Drivers/STM32H7xx_HAL_Driver/Src/stm32h7xx_hal.c ****   */
 536:../../Drivers/STM32H7xx_HAL_Driver/Src/stm32h7xx_hal.c **** void HAL_SYSCFG_VREFBUF_HighImpedanceConfig(uint32_t Mode)
 537:../../Drivers/STM32H7xx_HAL_Driver/Src/stm32h7xx_hal.c **** {
 855              		.loc 1 537 1 is_stmt 1 view -0
 856              		.cfi_startproc
 857              		@ args = 0, pretend = 0, frame = 0
 858              		@ frame_needed = 0, uses_anonymous_args = 0
 859              		@ link register save eliminated.
 538:../../Drivers/STM32H7xx_HAL_Driver/Src/stm32h7xx_hal.c ****   /* Check the parameters */
 539:../../Drivers/STM32H7xx_HAL_Driver/Src/stm32h7xx_hal.c ****   assert_param(IS_SYSCFG_VREFBUF_HIGH_IMPEDANCE(Mode));
 860              		.loc 1 539 3 view .LVU173
 540:../../Drivers/STM32H7xx_HAL_Driver/Src/stm32h7xx_hal.c **** 
 541:../../Drivers/STM32H7xx_HAL_Driver/Src/stm32h7xx_hal.c ****   MODIFY_REG(VREFBUF->CSR, VREFBUF_CSR_HIZ, Mode);
 861              		.loc 1 541 3 view .LVU174
 862 0000 034A     		ldr	r2, .L76
 863 0002 1368     		ldr	r3, [r2]
 864 0004 23F00203 		bic	r3, r3, #2
 865 0008 0343     		orrs	r3, r3, r0
 866 000a 1360     		str	r3, [r2]
 542:../../Drivers/STM32H7xx_HAL_Driver/Src/stm32h7xx_hal.c **** }
 867              		.loc 1 542 1 is_stmt 0 view .LVU175
 868 000c 7047     		bx	lr
 869              	.L77:
 870 000e 00BF     		.align	2
 871              	.L76:
 872 0010 003C0058 		.word	1476410368
 873              		.cfi_endproc
 874              	.LFE152:
 876              		.section	.text.HAL_SYSCFG_VREFBUF_TrimmingConfig,"ax",%progbits
 877              		.align	1
 878              		.global	HAL_SYSCFG_VREFBUF_TrimmingConfig
 879              		.syntax unified
 880              		.thumb
 881              		.thumb_func
 883              	HAL_SYSCFG_VREFBUF_TrimmingConfig:
 884              	.LVL28:
 885              	.LFB153:
 543:../../Drivers/STM32H7xx_HAL_Driver/Src/stm32h7xx_hal.c **** 
 544:../../Drivers/STM32H7xx_HAL_Driver/Src/stm32h7xx_hal.c **** /**
 545:../../Drivers/STM32H7xx_HAL_Driver/Src/stm32h7xx_hal.c ****   * @brief  Tune the Internal Voltage Reference buffer (VREFBUF).
 546:../../Drivers/STM32H7xx_HAL_Driver/Src/stm32h7xx_hal.c ****   * @retval None
 547:../../Drivers/STM32H7xx_HAL_Driver/Src/stm32h7xx_hal.c ****   */
 548:../../Drivers/STM32H7xx_HAL_Driver/Src/stm32h7xx_hal.c **** void HAL_SYSCFG_VREFBUF_TrimmingConfig(uint32_t TrimmingValue)
 549:../../Drivers/STM32H7xx_HAL_Driver/Src/stm32h7xx_hal.c **** {
 886              		.loc 1 549 1 is_stmt 1 view -0
 887              		.cfi_startproc
 888              		@ args = 0, pretend = 0, frame = 0
 889              		@ frame_needed = 0, uses_anonymous_args = 0
ARM GAS  C:\Users\gigig\AppData\Local\Temp\cc64rzRb.s 			page 27


 890              		@ link register save eliminated.
 550:../../Drivers/STM32H7xx_HAL_Driver/Src/stm32h7xx_hal.c ****   /* Check the parameters */
 551:../../Drivers/STM32H7xx_HAL_Driver/Src/stm32h7xx_hal.c ****   assert_param(IS_SYSCFG_VREFBUF_TRIMMING(TrimmingValue));
 891              		.loc 1 551 3 view .LVU177
 552:../../Drivers/STM32H7xx_HAL_Driver/Src/stm32h7xx_hal.c **** 
 553:../../Drivers/STM32H7xx_HAL_Driver/Src/stm32h7xx_hal.c ****   MODIFY_REG(VREFBUF->CCR, VREFBUF_CCR_TRIM, TrimmingValue);
 892              		.loc 1 553 3 view .LVU178
 893 0000 034A     		ldr	r2, .L79
 894 0002 5368     		ldr	r3, [r2, #4]
 895 0004 23F03F03 		bic	r3, r3, #63
 896 0008 0343     		orrs	r3, r3, r0
 897 000a 5360     		str	r3, [r2, #4]
 554:../../Drivers/STM32H7xx_HAL_Driver/Src/stm32h7xx_hal.c **** }
 898              		.loc 1 554 1 is_stmt 0 view .LVU179
 899 000c 7047     		bx	lr
 900              	.L80:
 901 000e 00BF     		.align	2
 902              	.L79:
 903 0010 003C0058 		.word	1476410368
 904              		.cfi_endproc
 905              	.LFE153:
 907              		.section	.text.HAL_SYSCFG_EnableVREFBUF,"ax",%progbits
 908              		.align	1
 909              		.global	HAL_SYSCFG_EnableVREFBUF
 910              		.syntax unified
 911              		.thumb
 912              		.thumb_func
 914              	HAL_SYSCFG_EnableVREFBUF:
 915              	.LFB154:
 555:../../Drivers/STM32H7xx_HAL_Driver/Src/stm32h7xx_hal.c **** 
 556:../../Drivers/STM32H7xx_HAL_Driver/Src/stm32h7xx_hal.c **** /**
 557:../../Drivers/STM32H7xx_HAL_Driver/Src/stm32h7xx_hal.c ****   * @brief  Enable the Internal Voltage Reference buffer (VREFBUF).
 558:../../Drivers/STM32H7xx_HAL_Driver/Src/stm32h7xx_hal.c ****   * @retval HAL_OK/HAL_TIMEOUT
 559:../../Drivers/STM32H7xx_HAL_Driver/Src/stm32h7xx_hal.c ****   */
 560:../../Drivers/STM32H7xx_HAL_Driver/Src/stm32h7xx_hal.c **** HAL_StatusTypeDef HAL_SYSCFG_EnableVREFBUF(void)
 561:../../Drivers/STM32H7xx_HAL_Driver/Src/stm32h7xx_hal.c **** {
 916              		.loc 1 561 1 is_stmt 1 view -0
 917              		.cfi_startproc
 918              		@ args = 0, pretend = 0, frame = 0
 919              		@ frame_needed = 0, uses_anonymous_args = 0
 920 0000 10B5     		push	{r4, lr}
 921              	.LCFI8:
 922              		.cfi_def_cfa_offset 8
 923              		.cfi_offset 4, -8
 924              		.cfi_offset 14, -4
 562:../../Drivers/STM32H7xx_HAL_Driver/Src/stm32h7xx_hal.c ****   uint32_t  tickstart;
 925              		.loc 1 562 3 view .LVU181
 563:../../Drivers/STM32H7xx_HAL_Driver/Src/stm32h7xx_hal.c **** 
 564:../../Drivers/STM32H7xx_HAL_Driver/Src/stm32h7xx_hal.c ****   SET_BIT(VREFBUF->CSR, VREFBUF_CSR_ENVR);
 926              		.loc 1 564 3 view .LVU182
 927 0002 0B4A     		ldr	r2, .L88
 928 0004 1368     		ldr	r3, [r2]
 929 0006 43F00103 		orr	r3, r3, #1
 930 000a 1360     		str	r3, [r2]
 565:../../Drivers/STM32H7xx_HAL_Driver/Src/stm32h7xx_hal.c **** 
 566:../../Drivers/STM32H7xx_HAL_Driver/Src/stm32h7xx_hal.c ****   /* Get Start Tick*/
 567:../../Drivers/STM32H7xx_HAL_Driver/Src/stm32h7xx_hal.c ****   tickstart = HAL_GetTick();
ARM GAS  C:\Users\gigig\AppData\Local\Temp\cc64rzRb.s 			page 28


 931              		.loc 1 567 3 view .LVU183
 932              		.loc 1 567 15 is_stmt 0 view .LVU184
 933 000c FFF7FEFF 		bl	HAL_GetTick
 934              	.LVL29:
 935 0010 0446     		mov	r4, r0
 936              	.LVL30:
 568:../../Drivers/STM32H7xx_HAL_Driver/Src/stm32h7xx_hal.c **** 
 569:../../Drivers/STM32H7xx_HAL_Driver/Src/stm32h7xx_hal.c ****   /* Wait for VRR bit  */
 570:../../Drivers/STM32H7xx_HAL_Driver/Src/stm32h7xx_hal.c ****   while(READ_BIT(VREFBUF->CSR, VREFBUF_CSR_VRR) == 0UL)
 937              		.loc 1 570 3 is_stmt 1 view .LVU185
 938              	.L82:
 939              		.loc 1 570 49 view .LVU186
 940              		.loc 1 570 9 is_stmt 0 view .LVU187
 941 0012 074B     		ldr	r3, .L88
 942 0014 1B68     		ldr	r3, [r3]
 943              		.loc 1 570 49 view .LVU188
 944 0016 13F0080F 		tst	r3, #8
 945 001a 06D1     		bne	.L87
 571:../../Drivers/STM32H7xx_HAL_Driver/Src/stm32h7xx_hal.c ****   {
 572:../../Drivers/STM32H7xx_HAL_Driver/Src/stm32h7xx_hal.c ****     if((HAL_GetTick() - tickstart) > VREFBUF_TIMEOUT_VALUE)
 946              		.loc 1 572 5 is_stmt 1 view .LVU189
 947              		.loc 1 572 9 is_stmt 0 view .LVU190
 948 001c FFF7FEFF 		bl	HAL_GetTick
 949              	.LVL31:
 950              		.loc 1 572 23 view .LVU191
 951 0020 001B     		subs	r0, r0, r4
 952              		.loc 1 572 7 view .LVU192
 953 0022 0A28     		cmp	r0, #10
 954 0024 F5D9     		bls	.L82
 573:../../Drivers/STM32H7xx_HAL_Driver/Src/stm32h7xx_hal.c ****     {
 574:../../Drivers/STM32H7xx_HAL_Driver/Src/stm32h7xx_hal.c ****       return HAL_TIMEOUT;
 955              		.loc 1 574 14 view .LVU193
 956 0026 0320     		movs	r0, #3
 957 0028 00E0     		b	.L83
 958              	.L87:
 575:../../Drivers/STM32H7xx_HAL_Driver/Src/stm32h7xx_hal.c ****     }
 576:../../Drivers/STM32H7xx_HAL_Driver/Src/stm32h7xx_hal.c ****   }
 577:../../Drivers/STM32H7xx_HAL_Driver/Src/stm32h7xx_hal.c **** 
 578:../../Drivers/STM32H7xx_HAL_Driver/Src/stm32h7xx_hal.c ****   return HAL_OK;
 959              		.loc 1 578 10 view .LVU194
 960 002a 0020     		movs	r0, #0
 961              	.L83:
 579:../../Drivers/STM32H7xx_HAL_Driver/Src/stm32h7xx_hal.c **** }
 962              		.loc 1 579 1 view .LVU195
 963 002c 10BD     		pop	{r4, pc}
 964              	.LVL32:
 965              	.L89:
 966              		.loc 1 579 1 view .LVU196
 967 002e 00BF     		.align	2
 968              	.L88:
 969 0030 003C0058 		.word	1476410368
 970              		.cfi_endproc
 971              	.LFE154:
 973              		.section	.text.HAL_SYSCFG_DisableVREFBUF,"ax",%progbits
 974              		.align	1
 975              		.global	HAL_SYSCFG_DisableVREFBUF
 976              		.syntax unified
ARM GAS  C:\Users\gigig\AppData\Local\Temp\cc64rzRb.s 			page 29


 977              		.thumb
 978              		.thumb_func
 980              	HAL_SYSCFG_DisableVREFBUF:
 981              	.LFB155:
 580:../../Drivers/STM32H7xx_HAL_Driver/Src/stm32h7xx_hal.c **** 
 581:../../Drivers/STM32H7xx_HAL_Driver/Src/stm32h7xx_hal.c **** /**
 582:../../Drivers/STM32H7xx_HAL_Driver/Src/stm32h7xx_hal.c ****   * @brief  Disable the Internal Voltage Reference buffer (VREFBUF).
 583:../../Drivers/STM32H7xx_HAL_Driver/Src/stm32h7xx_hal.c ****   *
 584:../../Drivers/STM32H7xx_HAL_Driver/Src/stm32h7xx_hal.c ****   * @retval None
 585:../../Drivers/STM32H7xx_HAL_Driver/Src/stm32h7xx_hal.c ****   */
 586:../../Drivers/STM32H7xx_HAL_Driver/Src/stm32h7xx_hal.c **** void HAL_SYSCFG_DisableVREFBUF(void)
 587:../../Drivers/STM32H7xx_HAL_Driver/Src/stm32h7xx_hal.c **** {
 982              		.loc 1 587 1 is_stmt 1 view -0
 983              		.cfi_startproc
 984              		@ args = 0, pretend = 0, frame = 0
 985              		@ frame_needed = 0, uses_anonymous_args = 0
 986              		@ link register save eliminated.
 588:../../Drivers/STM32H7xx_HAL_Driver/Src/stm32h7xx_hal.c ****   CLEAR_BIT(VREFBUF->CSR, VREFBUF_CSR_ENVR);
 987              		.loc 1 588 3 view .LVU198
 988 0000 024A     		ldr	r2, .L91
 989 0002 1368     		ldr	r3, [r2]
 990 0004 23F00103 		bic	r3, r3, #1
 991 0008 1360     		str	r3, [r2]
 589:../../Drivers/STM32H7xx_HAL_Driver/Src/stm32h7xx_hal.c **** }
 992              		.loc 1 589 1 is_stmt 0 view .LVU199
 993 000a 7047     		bx	lr
 994              	.L92:
 995              		.align	2
 996              	.L91:
 997 000c 003C0058 		.word	1476410368
 998              		.cfi_endproc
 999              	.LFE155:
 1001              		.section	.text.HAL_SYSCFG_ETHInterfaceSelect,"ax",%progbits
 1002              		.align	1
 1003              		.global	HAL_SYSCFG_ETHInterfaceSelect
 1004              		.syntax unified
 1005              		.thumb
 1006              		.thumb_func
 1008              	HAL_SYSCFG_ETHInterfaceSelect:
 1009              	.LVL33:
 1010              	.LFB156:
 590:../../Drivers/STM32H7xx_HAL_Driver/Src/stm32h7xx_hal.c **** 
 591:../../Drivers/STM32H7xx_HAL_Driver/Src/stm32h7xx_hal.c **** #if defined(SYSCFG_PMCR_EPIS_SEL)
 592:../../Drivers/STM32H7xx_HAL_Driver/Src/stm32h7xx_hal.c **** /**
 593:../../Drivers/STM32H7xx_HAL_Driver/Src/stm32h7xx_hal.c ****   * @brief  Ethernet PHY Interface Selection either MII or RMII
 594:../../Drivers/STM32H7xx_HAL_Driver/Src/stm32h7xx_hal.c ****   * @param  SYSCFG_ETHInterface: Selects the Ethernet PHY interface
 595:../../Drivers/STM32H7xx_HAL_Driver/Src/stm32h7xx_hal.c ****   *   This parameter can be one of the following values:
 596:../../Drivers/STM32H7xx_HAL_Driver/Src/stm32h7xx_hal.c ****   *   @arg SYSCFG_ETH_MII : Select the Media Independent Interface
 597:../../Drivers/STM32H7xx_HAL_Driver/Src/stm32h7xx_hal.c ****   *   @arg SYSCFG_ETH_RMII: Select the Reduced Media Independent Interface
 598:../../Drivers/STM32H7xx_HAL_Driver/Src/stm32h7xx_hal.c ****   * @retval None
 599:../../Drivers/STM32H7xx_HAL_Driver/Src/stm32h7xx_hal.c ****   */
 600:../../Drivers/STM32H7xx_HAL_Driver/Src/stm32h7xx_hal.c **** void HAL_SYSCFG_ETHInterfaceSelect(uint32_t SYSCFG_ETHInterface)
 601:../../Drivers/STM32H7xx_HAL_Driver/Src/stm32h7xx_hal.c **** {
 1011              		.loc 1 601 1 is_stmt 1 view -0
 1012              		.cfi_startproc
 1013              		@ args = 0, pretend = 0, frame = 0
 1014              		@ frame_needed = 0, uses_anonymous_args = 0
ARM GAS  C:\Users\gigig\AppData\Local\Temp\cc64rzRb.s 			page 30


 1015              		@ link register save eliminated.
 602:../../Drivers/STM32H7xx_HAL_Driver/Src/stm32h7xx_hal.c ****   /* Check the parameter */
 603:../../Drivers/STM32H7xx_HAL_Driver/Src/stm32h7xx_hal.c ****   assert_param(IS_SYSCFG_ETHERNET_CONFIG(SYSCFG_ETHInterface));
 1016              		.loc 1 603 3 view .LVU201
 604:../../Drivers/STM32H7xx_HAL_Driver/Src/stm32h7xx_hal.c **** 
 605:../../Drivers/STM32H7xx_HAL_Driver/Src/stm32h7xx_hal.c ****   MODIFY_REG(SYSCFG->PMCR, SYSCFG_PMCR_EPIS_SEL, (uint32_t)(SYSCFG_ETHInterface));
 1017              		.loc 1 605 3 view .LVU202
 1018 0000 034A     		ldr	r2, .L94
 1019 0002 5368     		ldr	r3, [r2, #4]
 1020 0004 23F46003 		bic	r3, r3, #14680064
 1021 0008 0343     		orrs	r3, r3, r0
 1022 000a 5360     		str	r3, [r2, #4]
 606:../../Drivers/STM32H7xx_HAL_Driver/Src/stm32h7xx_hal.c **** }
 1023              		.loc 1 606 1 is_stmt 0 view .LVU203
 1024 000c 7047     		bx	lr
 1025              	.L95:
 1026 000e 00BF     		.align	2
 1027              	.L94:
 1028 0010 00040058 		.word	1476396032
 1029              		.cfi_endproc
 1030              	.LFE156:
 1032              		.section	.text.HAL_SYSCFG_AnalogSwitchConfig,"ax",%progbits
 1033              		.align	1
 1034              		.global	HAL_SYSCFG_AnalogSwitchConfig
 1035              		.syntax unified
 1036              		.thumb
 1037              		.thumb_func
 1039              	HAL_SYSCFG_AnalogSwitchConfig:
 1040              	.LVL34:
 1041              	.LFB157:
 607:../../Drivers/STM32H7xx_HAL_Driver/Src/stm32h7xx_hal.c **** #endif /* SYSCFG_PMCR_EPIS_SEL */
 608:../../Drivers/STM32H7xx_HAL_Driver/Src/stm32h7xx_hal.c **** 
 609:../../Drivers/STM32H7xx_HAL_Driver/Src/stm32h7xx_hal.c **** /**
 610:../../Drivers/STM32H7xx_HAL_Driver/Src/stm32h7xx_hal.c ****   * @brief  Analog Switch control for dual analog pads.
 611:../../Drivers/STM32H7xx_HAL_Driver/Src/stm32h7xx_hal.c ****   * @param  SYSCFG_AnalogSwitch: Selects the analog pad
 612:../../Drivers/STM32H7xx_HAL_Driver/Src/stm32h7xx_hal.c ****   *   This parameter can be one or a combination of the following values:
 613:../../Drivers/STM32H7xx_HAL_Driver/Src/stm32h7xx_hal.c ****   *   @arg SYSCFG_SWITCH_PA0 : Select PA0 analog switch
 614:../../Drivers/STM32H7xx_HAL_Driver/Src/stm32h7xx_hal.c ****   *   @arg SYSCFG_SWITCH_PA1:  Select PA1 analog switch
 615:../../Drivers/STM32H7xx_HAL_Driver/Src/stm32h7xx_hal.c ****   *   @arg SYSCFG_SWITCH_PC2 : Select PC2 analog switch
 616:../../Drivers/STM32H7xx_HAL_Driver/Src/stm32h7xx_hal.c ****   *   @arg SYSCFG_SWITCH_PC3:  Select PC3 analog switch
 617:../../Drivers/STM32H7xx_HAL_Driver/Src/stm32h7xx_hal.c ****   * @param  SYSCFG_SwitchState: Open or Close the analog switch between dual pads (PXn and PXn_C)
 618:../../Drivers/STM32H7xx_HAL_Driver/Src/stm32h7xx_hal.c ****   *   This parameter can be one or a combination of the following values:
 619:../../Drivers/STM32H7xx_HAL_Driver/Src/stm32h7xx_hal.c ****   *   @arg SYSCFG_SWITCH_PA0_OPEN
 620:../../Drivers/STM32H7xx_HAL_Driver/Src/stm32h7xx_hal.c ****   *   @arg SYSCFG_SWITCH_PA0_CLOSE
 621:../../Drivers/STM32H7xx_HAL_Driver/Src/stm32h7xx_hal.c ****   *   @arg SYSCFG_SWITCH_PA1_OPEN
 622:../../Drivers/STM32H7xx_HAL_Driver/Src/stm32h7xx_hal.c ****   *   @arg SYSCFG_SWITCH_PA1_CLOSE
 623:../../Drivers/STM32H7xx_HAL_Driver/Src/stm32h7xx_hal.c ****   *   @arg SYSCFG_SWITCH_PC2_OPEN
 624:../../Drivers/STM32H7xx_HAL_Driver/Src/stm32h7xx_hal.c ****   *   @arg SYSCFG_SWITCH_PC2_CLOSE
 625:../../Drivers/STM32H7xx_HAL_Driver/Src/stm32h7xx_hal.c ****   *   @arg SYSCFG_SWITCH_PC3_OPEN
 626:../../Drivers/STM32H7xx_HAL_Driver/Src/stm32h7xx_hal.c ****   *   @arg SYSCFG_SWITCH_PC3_CLOSE
 627:../../Drivers/STM32H7xx_HAL_Driver/Src/stm32h7xx_hal.c ****   * @retval None
 628:../../Drivers/STM32H7xx_HAL_Driver/Src/stm32h7xx_hal.c ****   */
 629:../../Drivers/STM32H7xx_HAL_Driver/Src/stm32h7xx_hal.c **** 
 630:../../Drivers/STM32H7xx_HAL_Driver/Src/stm32h7xx_hal.c **** void HAL_SYSCFG_AnalogSwitchConfig(uint32_t SYSCFG_AnalogSwitch , uint32_t SYSCFG_SwitchState )
 631:../../Drivers/STM32H7xx_HAL_Driver/Src/stm32h7xx_hal.c **** {
 1042              		.loc 1 631 1 is_stmt 1 view -0
 1043              		.cfi_startproc
ARM GAS  C:\Users\gigig\AppData\Local\Temp\cc64rzRb.s 			page 31


 1044              		@ args = 0, pretend = 0, frame = 0
 1045              		@ frame_needed = 0, uses_anonymous_args = 0
 1046              		@ link register save eliminated.
 632:../../Drivers/STM32H7xx_HAL_Driver/Src/stm32h7xx_hal.c ****   /* Check the parameter */
 633:../../Drivers/STM32H7xx_HAL_Driver/Src/stm32h7xx_hal.c ****   assert_param(IS_SYSCFG_ANALOG_SWITCH(SYSCFG_AnalogSwitch));
 1047              		.loc 1 633 3 view .LVU205
 634:../../Drivers/STM32H7xx_HAL_Driver/Src/stm32h7xx_hal.c ****   assert_param(IS_SYSCFG_SWITCH_STATE(SYSCFG_SwitchState));
 1048              		.loc 1 634 3 view .LVU206
 635:../../Drivers/STM32H7xx_HAL_Driver/Src/stm32h7xx_hal.c **** 
 636:../../Drivers/STM32H7xx_HAL_Driver/Src/stm32h7xx_hal.c ****   MODIFY_REG(SYSCFG->PMCR, (uint32_t) SYSCFG_AnalogSwitch, (uint32_t)(SYSCFG_SwitchState));
 1049              		.loc 1 636 3 view .LVU207
 1050 0000 034A     		ldr	r2, .L97
 1051 0002 5368     		ldr	r3, [r2, #4]
 1052 0004 23EA0003 		bic	r3, r3, r0
 1053 0008 0B43     		orrs	r3, r3, r1
 1054 000a 5360     		str	r3, [r2, #4]
 637:../../Drivers/STM32H7xx_HAL_Driver/Src/stm32h7xx_hal.c **** }
 1055              		.loc 1 637 1 is_stmt 0 view .LVU208
 1056 000c 7047     		bx	lr
 1057              	.L98:
 1058 000e 00BF     		.align	2
 1059              	.L97:
 1060 0010 00040058 		.word	1476396032
 1061              		.cfi_endproc
 1062              	.LFE157:
 1064              		.section	.text.HAL_SYSCFG_EnableBOOST,"ax",%progbits
 1065              		.align	1
 1066              		.global	HAL_SYSCFG_EnableBOOST
 1067              		.syntax unified
 1068              		.thumb
 1069              		.thumb_func
 1071              	HAL_SYSCFG_EnableBOOST:
 1072              	.LFB158:
 638:../../Drivers/STM32H7xx_HAL_Driver/Src/stm32h7xx_hal.c **** 
 639:../../Drivers/STM32H7xx_HAL_Driver/Src/stm32h7xx_hal.c **** #if defined(SYSCFG_PMCR_BOOSTEN)
 640:../../Drivers/STM32H7xx_HAL_Driver/Src/stm32h7xx_hal.c **** /**
 641:../../Drivers/STM32H7xx_HAL_Driver/Src/stm32h7xx_hal.c ****   * @brief  Enables the booster to reduce the total harmonic distortion of the analog
 642:../../Drivers/STM32H7xx_HAL_Driver/Src/stm32h7xx_hal.c ****   *         switch when the supply voltage is lower than 2.7 V.
 643:../../Drivers/STM32H7xx_HAL_Driver/Src/stm32h7xx_hal.c ****   * @note   Activating the booster allows to guaranty the analog switch AC performance
 644:../../Drivers/STM32H7xx_HAL_Driver/Src/stm32h7xx_hal.c ****   *         when the supply voltage is below 2.7 V: in this case, the analog switch
 645:../../Drivers/STM32H7xx_HAL_Driver/Src/stm32h7xx_hal.c ****   *         performance is the same on the full voltage range
 646:../../Drivers/STM32H7xx_HAL_Driver/Src/stm32h7xx_hal.c ****   * @retval None
 647:../../Drivers/STM32H7xx_HAL_Driver/Src/stm32h7xx_hal.c ****   */
 648:../../Drivers/STM32H7xx_HAL_Driver/Src/stm32h7xx_hal.c **** void HAL_SYSCFG_EnableBOOST(void)
 649:../../Drivers/STM32H7xx_HAL_Driver/Src/stm32h7xx_hal.c **** {
 1073              		.loc 1 649 1 is_stmt 1 view -0
 1074              		.cfi_startproc
 1075              		@ args = 0, pretend = 0, frame = 0
 1076              		@ frame_needed = 0, uses_anonymous_args = 0
 1077              		@ link register save eliminated.
 650:../../Drivers/STM32H7xx_HAL_Driver/Src/stm32h7xx_hal.c ****  SET_BIT(SYSCFG->PMCR, SYSCFG_PMCR_BOOSTEN) ;
 1078              		.loc 1 650 2 view .LVU210
 1079 0000 024A     		ldr	r2, .L100
 1080 0002 5368     		ldr	r3, [r2, #4]
 1081 0004 43F48073 		orr	r3, r3, #256
 1082 0008 5360     		str	r3, [r2, #4]
 651:../../Drivers/STM32H7xx_HAL_Driver/Src/stm32h7xx_hal.c **** }
ARM GAS  C:\Users\gigig\AppData\Local\Temp\cc64rzRb.s 			page 32


 1083              		.loc 1 651 1 is_stmt 0 view .LVU211
 1084 000a 7047     		bx	lr
 1085              	.L101:
 1086              		.align	2
 1087              	.L100:
 1088 000c 00040058 		.word	1476396032
 1089              		.cfi_endproc
 1090              	.LFE158:
 1092              		.section	.text.HAL_SYSCFG_DisableBOOST,"ax",%progbits
 1093              		.align	1
 1094              		.global	HAL_SYSCFG_DisableBOOST
 1095              		.syntax unified
 1096              		.thumb
 1097              		.thumb_func
 1099              	HAL_SYSCFG_DisableBOOST:
 1100              	.LFB159:
 652:../../Drivers/STM32H7xx_HAL_Driver/Src/stm32h7xx_hal.c **** 
 653:../../Drivers/STM32H7xx_HAL_Driver/Src/stm32h7xx_hal.c **** /**
 654:../../Drivers/STM32H7xx_HAL_Driver/Src/stm32h7xx_hal.c ****   * @brief  Disables the booster
 655:../../Drivers/STM32H7xx_HAL_Driver/Src/stm32h7xx_hal.c ****   * @note   Activating the booster allows to guaranty the analog switch AC performance
 656:../../Drivers/STM32H7xx_HAL_Driver/Src/stm32h7xx_hal.c ****   *         when the supply voltage is below 2.7 V: in this case, the analog switch
 657:../../Drivers/STM32H7xx_HAL_Driver/Src/stm32h7xx_hal.c ****   *         performance is the same on the full voltage range
 658:../../Drivers/STM32H7xx_HAL_Driver/Src/stm32h7xx_hal.c ****   * @retval None
 659:../../Drivers/STM32H7xx_HAL_Driver/Src/stm32h7xx_hal.c ****   */
 660:../../Drivers/STM32H7xx_HAL_Driver/Src/stm32h7xx_hal.c **** void HAL_SYSCFG_DisableBOOST(void)
 661:../../Drivers/STM32H7xx_HAL_Driver/Src/stm32h7xx_hal.c **** {
 1101              		.loc 1 661 1 is_stmt 1 view -0
 1102              		.cfi_startproc
 1103              		@ args = 0, pretend = 0, frame = 0
 1104              		@ frame_needed = 0, uses_anonymous_args = 0
 1105              		@ link register save eliminated.
 662:../../Drivers/STM32H7xx_HAL_Driver/Src/stm32h7xx_hal.c ****  CLEAR_BIT(SYSCFG->PMCR, SYSCFG_PMCR_BOOSTEN) ;
 1106              		.loc 1 662 2 view .LVU213
 1107 0000 024A     		ldr	r2, .L103
 1108 0002 5368     		ldr	r3, [r2, #4]
 1109 0004 23F48073 		bic	r3, r3, #256
 1110 0008 5360     		str	r3, [r2, #4]
 663:../../Drivers/STM32H7xx_HAL_Driver/Src/stm32h7xx_hal.c **** }
 1111              		.loc 1 663 1 is_stmt 0 view .LVU214
 1112 000a 7047     		bx	lr
 1113              	.L104:
 1114              		.align	2
 1115              	.L103:
 1116 000c 00040058 		.word	1476396032
 1117              		.cfi_endproc
 1118              	.LFE159:
 1120              		.section	.text.HAL_SYSCFG_CM7BootAddConfig,"ax",%progbits
 1121              		.align	1
 1122              		.global	HAL_SYSCFG_CM7BootAddConfig
 1123              		.syntax unified
 1124              		.thumb
 1125              		.thumb_func
 1127              	HAL_SYSCFG_CM7BootAddConfig:
 1128              	.LVL35:
 1129              	.LFB160:
 664:../../Drivers/STM32H7xx_HAL_Driver/Src/stm32h7xx_hal.c **** #endif /* SYSCFG_PMCR_BOOSTEN */
 665:../../Drivers/STM32H7xx_HAL_Driver/Src/stm32h7xx_hal.c **** 
ARM GAS  C:\Users\gigig\AppData\Local\Temp\cc64rzRb.s 			page 33


 666:../../Drivers/STM32H7xx_HAL_Driver/Src/stm32h7xx_hal.c **** #if defined (SYSCFG_UR2_BOOT_ADD0) ||  defined (SYSCFG_UR2_BCM7_ADD0)
 667:../../Drivers/STM32H7xx_HAL_Driver/Src/stm32h7xx_hal.c **** /**
 668:../../Drivers/STM32H7xx_HAL_Driver/Src/stm32h7xx_hal.c ****   * @brief  BootCM7 address 0 configuration
 669:../../Drivers/STM32H7xx_HAL_Driver/Src/stm32h7xx_hal.c ****   * @param  BootRegister :Specifies the Boot Address register (Address0 or Address1)
 670:../../Drivers/STM32H7xx_HAL_Driver/Src/stm32h7xx_hal.c ****   *   This parameter can be one of the following values:
 671:../../Drivers/STM32H7xx_HAL_Driver/Src/stm32h7xx_hal.c ****   *   @arg SYSCFG_BOOT_ADDR0 : Select the boot address0
 672:../../Drivers/STM32H7xx_HAL_Driver/Src/stm32h7xx_hal.c ****   *   @arg SYSCFG_BOOT_ADDR1:  Select the boot address1
 673:../../Drivers/STM32H7xx_HAL_Driver/Src/stm32h7xx_hal.c ****   * @param  BootAddress :Specifies the CM7 Boot Address to be loaded in Address0 or Address1
 674:../../Drivers/STM32H7xx_HAL_Driver/Src/stm32h7xx_hal.c ****   * @retval None
 675:../../Drivers/STM32H7xx_HAL_Driver/Src/stm32h7xx_hal.c ****   */
 676:../../Drivers/STM32H7xx_HAL_Driver/Src/stm32h7xx_hal.c **** void HAL_SYSCFG_CM7BootAddConfig(uint32_t BootRegister, uint32_t BootAddress)
 677:../../Drivers/STM32H7xx_HAL_Driver/Src/stm32h7xx_hal.c **** {
 1130              		.loc 1 677 1 is_stmt 1 view -0
 1131              		.cfi_startproc
 1132              		@ args = 0, pretend = 0, frame = 0
 1133              		@ frame_needed = 0, uses_anonymous_args = 0
 1134              		@ link register save eliminated.
 678:../../Drivers/STM32H7xx_HAL_Driver/Src/stm32h7xx_hal.c ****   /* Check the parameters */
 679:../../Drivers/STM32H7xx_HAL_Driver/Src/stm32h7xx_hal.c ****   assert_param(IS_SYSCFG_BOOT_REGISTER(BootRegister));
 1135              		.loc 1 679 3 view .LVU216
 680:../../Drivers/STM32H7xx_HAL_Driver/Src/stm32h7xx_hal.c ****   assert_param(IS_SYSCFG_BOOT_ADDRESS(BootAddress));
 1136              		.loc 1 680 3 view .LVU217
 681:../../Drivers/STM32H7xx_HAL_Driver/Src/stm32h7xx_hal.c ****   if ( BootRegister == SYSCFG_BOOT_ADDR0 )
 1137              		.loc 1 681 3 view .LVU218
 1138              		.loc 1 681 6 is_stmt 0 view .LVU219
 1139 0000 48B9     		cbnz	r0, .L106
 682:../../Drivers/STM32H7xx_HAL_Driver/Src/stm32h7xx_hal.c ****   {
 683:../../Drivers/STM32H7xx_HAL_Driver/Src/stm32h7xx_hal.c ****     /* Configure CM7 BOOT ADD0 */
 684:../../Drivers/STM32H7xx_HAL_Driver/Src/stm32h7xx_hal.c **** #if defined(DUAL_CORE)
 685:../../Drivers/STM32H7xx_HAL_Driver/Src/stm32h7xx_hal.c ****     MODIFY_REG(SYSCFG->UR2, SYSCFG_UR2_BCM7_ADD0, ((BootAddress >> 16) << SYSCFG_UR2_BCM7_ADD0_Pos)
 1140              		.loc 1 685 5 is_stmt 1 view .LVU220
 1141 0002 0A48     		ldr	r0, .L108
 1142              	.LVL36:
 1143              		.loc 1 685 5 is_stmt 0 view .LVU221
 1144 0004 D0F80833 		ldr	r3, [r0, #776]
 1145 0008 9BB2     		uxth	r3, r3
 1146 000a 094A     		ldr	r2, .L108+4
 1147 000c 0A40     		ands	r2, r2, r1
 1148 000e 1343     		orrs	r3, r3, r2
 1149 0010 C0F80833 		str	r3, [r0, #776]
 1150 0014 7047     		bx	lr
 1151              	.LVL37:
 1152              	.L106:
 686:../../Drivers/STM32H7xx_HAL_Driver/Src/stm32h7xx_hal.c **** #else
 687:../../Drivers/STM32H7xx_HAL_Driver/Src/stm32h7xx_hal.c ****     MODIFY_REG(SYSCFG->UR2, SYSCFG_UR2_BOOT_ADD0, ((BootAddress >> 16) << SYSCFG_UR2_BOOT_ADD0_Pos)
 688:../../Drivers/STM32H7xx_HAL_Driver/Src/stm32h7xx_hal.c **** #endif /*DUAL_CORE*/
 689:../../Drivers/STM32H7xx_HAL_Driver/Src/stm32h7xx_hal.c ****   }
 690:../../Drivers/STM32H7xx_HAL_Driver/Src/stm32h7xx_hal.c ****   else
 691:../../Drivers/STM32H7xx_HAL_Driver/Src/stm32h7xx_hal.c ****   {
 692:../../Drivers/STM32H7xx_HAL_Driver/Src/stm32h7xx_hal.c ****     /* Configure CM7 BOOT ADD1 */
 693:../../Drivers/STM32H7xx_HAL_Driver/Src/stm32h7xx_hal.c **** #if defined(DUAL_CORE)
 694:../../Drivers/STM32H7xx_HAL_Driver/Src/stm32h7xx_hal.c ****     MODIFY_REG(SYSCFG->UR3, SYSCFG_UR3_BCM7_ADD1, (BootAddress >> 16));
 1153              		.loc 1 694 5 is_stmt 1 view .LVU222
 1154 0016 054A     		ldr	r2, .L108
 1155 0018 D2F80C03 		ldr	r0, [r2, #780]
 1156              	.LVL38:
 1157              		.loc 1 694 5 is_stmt 0 view .LVU223
ARM GAS  C:\Users\gigig\AppData\Local\Temp\cc64rzRb.s 			page 34


 1158 001c 044B     		ldr	r3, .L108+4
 1159 001e 0340     		ands	r3, r3, r0
 1160 0020 43EA1143 		orr	r3, r3, r1, lsr #16
 1161 0024 C2F80C33 		str	r3, [r2, #780]
 695:../../Drivers/STM32H7xx_HAL_Driver/Src/stm32h7xx_hal.c **** #else
 696:../../Drivers/STM32H7xx_HAL_Driver/Src/stm32h7xx_hal.c ****     MODIFY_REG(SYSCFG->UR3, SYSCFG_UR3_BOOT_ADD1, (BootAddress >> 16));
 697:../../Drivers/STM32H7xx_HAL_Driver/Src/stm32h7xx_hal.c **** #endif /*DUAL_CORE*/
 698:../../Drivers/STM32H7xx_HAL_Driver/Src/stm32h7xx_hal.c ****   }
 699:../../Drivers/STM32H7xx_HAL_Driver/Src/stm32h7xx_hal.c **** }
 1162              		.loc 1 699 1 view .LVU224
 1163 0028 7047     		bx	lr
 1164              	.L109:
 1165 002a 00BF     		.align	2
 1166              	.L108:
 1167 002c 00040058 		.word	1476396032
 1168 0030 0000FFFF 		.word	-65536
 1169              		.cfi_endproc
 1170              	.LFE160:
 1172              		.section	.text.HAL_SYSCFG_CM4BootAddConfig,"ax",%progbits
 1173              		.align	1
 1174              		.global	HAL_SYSCFG_CM4BootAddConfig
 1175              		.syntax unified
 1176              		.thumb
 1177              		.thumb_func
 1179              	HAL_SYSCFG_CM4BootAddConfig:
 1180              	.LVL39:
 1181              	.LFB161:
 700:../../Drivers/STM32H7xx_HAL_Driver/Src/stm32h7xx_hal.c **** #endif /* SYSCFG_UR2_BOOT_ADD0 || SYSCFG_UR2_BCM7_ADD0 */
 701:../../Drivers/STM32H7xx_HAL_Driver/Src/stm32h7xx_hal.c **** 
 702:../../Drivers/STM32H7xx_HAL_Driver/Src/stm32h7xx_hal.c **** #if defined(DUAL_CORE)
 703:../../Drivers/STM32H7xx_HAL_Driver/Src/stm32h7xx_hal.c **** /**
 704:../../Drivers/STM32H7xx_HAL_Driver/Src/stm32h7xx_hal.c ****   * @brief  BootCM4 address 0 configuration
 705:../../Drivers/STM32H7xx_HAL_Driver/Src/stm32h7xx_hal.c ****   * @param  BootRegister :Specifies the Boot Address register (Address0 or Address1)
 706:../../Drivers/STM32H7xx_HAL_Driver/Src/stm32h7xx_hal.c ****   *   This parameter can be one of the following values:
 707:../../Drivers/STM32H7xx_HAL_Driver/Src/stm32h7xx_hal.c ****   *   @arg SYSCFG_BOOT_ADDR0 : Select the boot address0
 708:../../Drivers/STM32H7xx_HAL_Driver/Src/stm32h7xx_hal.c ****   *   @arg SYSCFG_BOOT_ADDR1:  Select the boot address1
 709:../../Drivers/STM32H7xx_HAL_Driver/Src/stm32h7xx_hal.c ****   * @param  BootAddress :Specifies the CM4 Boot Address to be loaded in Address0 or Address1
 710:../../Drivers/STM32H7xx_HAL_Driver/Src/stm32h7xx_hal.c ****   * @retval None
 711:../../Drivers/STM32H7xx_HAL_Driver/Src/stm32h7xx_hal.c ****   */
 712:../../Drivers/STM32H7xx_HAL_Driver/Src/stm32h7xx_hal.c **** void HAL_SYSCFG_CM4BootAddConfig(uint32_t BootRegister, uint32_t BootAddress)
 713:../../Drivers/STM32H7xx_HAL_Driver/Src/stm32h7xx_hal.c **** {
 1182              		.loc 1 713 1 is_stmt 1 view -0
 1183              		.cfi_startproc
 1184              		@ args = 0, pretend = 0, frame = 0
 1185              		@ frame_needed = 0, uses_anonymous_args = 0
 1186              		@ link register save eliminated.
 714:../../Drivers/STM32H7xx_HAL_Driver/Src/stm32h7xx_hal.c ****   /* Check the parameters */
 715:../../Drivers/STM32H7xx_HAL_Driver/Src/stm32h7xx_hal.c ****   assert_param(IS_SYSCFG_BOOT_REGISTER(BootRegister));
 1187              		.loc 1 715 3 view .LVU226
 716:../../Drivers/STM32H7xx_HAL_Driver/Src/stm32h7xx_hal.c ****   assert_param(IS_SYSCFG_BOOT_ADDRESS(BootAddress));
 1188              		.loc 1 716 3 view .LVU227
 717:../../Drivers/STM32H7xx_HAL_Driver/Src/stm32h7xx_hal.c **** 
 718:../../Drivers/STM32H7xx_HAL_Driver/Src/stm32h7xx_hal.c ****   if ( BootRegister == SYSCFG_BOOT_ADDR0 )
 1189              		.loc 1 718 3 view .LVU228
 1190              		.loc 1 718 6 is_stmt 0 view .LVU229
 1191 0000 48B9     		cbnz	r0, .L111
 719:../../Drivers/STM32H7xx_HAL_Driver/Src/stm32h7xx_hal.c ****   {
ARM GAS  C:\Users\gigig\AppData\Local\Temp\cc64rzRb.s 			page 35


 720:../../Drivers/STM32H7xx_HAL_Driver/Src/stm32h7xx_hal.c ****     /* Configure CM4 BOOT ADD0 */
 721:../../Drivers/STM32H7xx_HAL_Driver/Src/stm32h7xx_hal.c ****     MODIFY_REG(SYSCFG->UR3, SYSCFG_UR3_BCM4_ADD0, ((BootAddress >> 16)<< SYSCFG_UR3_BCM4_ADD0_Pos))
 1192              		.loc 1 721 5 is_stmt 1 view .LVU230
 1193 0002 0A48     		ldr	r0, .L113
 1194              	.LVL40:
 1195              		.loc 1 721 5 is_stmt 0 view .LVU231
 1196 0004 D0F80C33 		ldr	r3, [r0, #780]
 1197 0008 9BB2     		uxth	r3, r3
 1198 000a 094A     		ldr	r2, .L113+4
 1199 000c 0A40     		ands	r2, r2, r1
 1200 000e 1343     		orrs	r3, r3, r2
 1201 0010 C0F80C33 		str	r3, [r0, #780]
 1202 0014 7047     		bx	lr
 1203              	.LVL41:
 1204              	.L111:
 722:../../Drivers/STM32H7xx_HAL_Driver/Src/stm32h7xx_hal.c ****   }
 723:../../Drivers/STM32H7xx_HAL_Driver/Src/stm32h7xx_hal.c **** 
 724:../../Drivers/STM32H7xx_HAL_Driver/Src/stm32h7xx_hal.c ****   else
 725:../../Drivers/STM32H7xx_HAL_Driver/Src/stm32h7xx_hal.c ****   {
 726:../../Drivers/STM32H7xx_HAL_Driver/Src/stm32h7xx_hal.c ****     /* Configure CM4 BOOT ADD1 */
 727:../../Drivers/STM32H7xx_HAL_Driver/Src/stm32h7xx_hal.c ****     MODIFY_REG(SYSCFG->UR4, SYSCFG_UR4_BCM4_ADD1, (BootAddress >> 16));
 1205              		.loc 1 727 5 is_stmt 1 view .LVU232
 1206 0016 054A     		ldr	r2, .L113
 1207 0018 D2F81003 		ldr	r0, [r2, #784]
 1208              	.LVL42:
 1209              		.loc 1 727 5 is_stmt 0 view .LVU233
 1210 001c 044B     		ldr	r3, .L113+4
 1211 001e 0340     		ands	r3, r3, r0
 1212 0020 43EA1143 		orr	r3, r3, r1, lsr #16
 1213 0024 C2F81033 		str	r3, [r2, #784]
 728:../../Drivers/STM32H7xx_HAL_Driver/Src/stm32h7xx_hal.c ****   }
 729:../../Drivers/STM32H7xx_HAL_Driver/Src/stm32h7xx_hal.c **** }
 1214              		.loc 1 729 1 view .LVU234
 1215 0028 7047     		bx	lr
 1216              	.L114:
 1217 002a 00BF     		.align	2
 1218              	.L113:
 1219 002c 00040058 		.word	1476396032
 1220 0030 0000FFFF 		.word	-65536
 1221              		.cfi_endproc
 1222              	.LFE161:
 1224              		.section	.text.HAL_SYSCFG_EnableCM7BOOT,"ax",%progbits
 1225              		.align	1
 1226              		.global	HAL_SYSCFG_EnableCM7BOOT
 1227              		.syntax unified
 1228              		.thumb
 1229              		.thumb_func
 1231              	HAL_SYSCFG_EnableCM7BOOT:
 1232              	.LFB162:
 730:../../Drivers/STM32H7xx_HAL_Driver/Src/stm32h7xx_hal.c **** 
 731:../../Drivers/STM32H7xx_HAL_Driver/Src/stm32h7xx_hal.c **** /**
 732:../../Drivers/STM32H7xx_HAL_Driver/Src/stm32h7xx_hal.c ****   * @brief  Enables the Cortex-M7 boot
 733:../../Drivers/STM32H7xx_HAL_Driver/Src/stm32h7xx_hal.c ****   * @retval None
 734:../../Drivers/STM32H7xx_HAL_Driver/Src/stm32h7xx_hal.c ****   */
 735:../../Drivers/STM32H7xx_HAL_Driver/Src/stm32h7xx_hal.c **** void HAL_SYSCFG_EnableCM7BOOT(void)
 736:../../Drivers/STM32H7xx_HAL_Driver/Src/stm32h7xx_hal.c **** {
 1233              		.loc 1 736 1 is_stmt 1 view -0
ARM GAS  C:\Users\gigig\AppData\Local\Temp\cc64rzRb.s 			page 36


 1234              		.cfi_startproc
 1235              		@ args = 0, pretend = 0, frame = 0
 1236              		@ frame_needed = 0, uses_anonymous_args = 0
 1237              		@ link register save eliminated.
 737:../../Drivers/STM32H7xx_HAL_Driver/Src/stm32h7xx_hal.c ****  SET_BIT(SYSCFG->UR1, SYSCFG_UR1_BCM7);
 1238              		.loc 1 737 2 view .LVU236
 1239 0000 034A     		ldr	r2, .L116
 1240 0002 D2F80433 		ldr	r3, [r2, #772]
 1241 0006 43F48033 		orr	r3, r3, #65536
 1242 000a C2F80433 		str	r3, [r2, #772]
 738:../../Drivers/STM32H7xx_HAL_Driver/Src/stm32h7xx_hal.c **** }
 1243              		.loc 1 738 1 is_stmt 0 view .LVU237
 1244 000e 7047     		bx	lr
 1245              	.L117:
 1246              		.align	2
 1247              	.L116:
 1248 0010 00040058 		.word	1476396032
 1249              		.cfi_endproc
 1250              	.LFE162:
 1252              		.section	.text.HAL_SYSCFG_DisableCM7BOOT,"ax",%progbits
 1253              		.align	1
 1254              		.global	HAL_SYSCFG_DisableCM7BOOT
 1255              		.syntax unified
 1256              		.thumb
 1257              		.thumb_func
 1259              	HAL_SYSCFG_DisableCM7BOOT:
 1260              	.LFB163:
 739:../../Drivers/STM32H7xx_HAL_Driver/Src/stm32h7xx_hal.c **** 
 740:../../Drivers/STM32H7xx_HAL_Driver/Src/stm32h7xx_hal.c **** /**
 741:../../Drivers/STM32H7xx_HAL_Driver/Src/stm32h7xx_hal.c ****   * @brief  Disables the Cortex-M7 boot
 742:../../Drivers/STM32H7xx_HAL_Driver/Src/stm32h7xx_hal.c ****   * @note   Disabling the boot will gate the CPU clock
 743:../../Drivers/STM32H7xx_HAL_Driver/Src/stm32h7xx_hal.c ****   * @retval None
 744:../../Drivers/STM32H7xx_HAL_Driver/Src/stm32h7xx_hal.c ****   */
 745:../../Drivers/STM32H7xx_HAL_Driver/Src/stm32h7xx_hal.c **** void HAL_SYSCFG_DisableCM7BOOT(void)
 746:../../Drivers/STM32H7xx_HAL_Driver/Src/stm32h7xx_hal.c **** {
 1261              		.loc 1 746 1 is_stmt 1 view -0
 1262              		.cfi_startproc
 1263              		@ args = 0, pretend = 0, frame = 0
 1264              		@ frame_needed = 0, uses_anonymous_args = 0
 1265              		@ link register save eliminated.
 747:../../Drivers/STM32H7xx_HAL_Driver/Src/stm32h7xx_hal.c ****  CLEAR_BIT(SYSCFG->UR1, SYSCFG_UR1_BCM7) ;
 1266              		.loc 1 747 2 view .LVU239
 1267 0000 034A     		ldr	r2, .L119
 1268 0002 D2F80433 		ldr	r3, [r2, #772]
 1269 0006 23F48033 		bic	r3, r3, #65536
 1270 000a C2F80433 		str	r3, [r2, #772]
 748:../../Drivers/STM32H7xx_HAL_Driver/Src/stm32h7xx_hal.c **** }
 1271              		.loc 1 748 1 is_stmt 0 view .LVU240
 1272 000e 7047     		bx	lr
 1273              	.L120:
 1274              		.align	2
 1275              	.L119:
 1276 0010 00040058 		.word	1476396032
 1277              		.cfi_endproc
 1278              	.LFE163:
 1280              		.section	.text.HAL_SYSCFG_EnableCM4BOOT,"ax",%progbits
 1281              		.align	1
ARM GAS  C:\Users\gigig\AppData\Local\Temp\cc64rzRb.s 			page 37


 1282              		.global	HAL_SYSCFG_EnableCM4BOOT
 1283              		.syntax unified
 1284              		.thumb
 1285              		.thumb_func
 1287              	HAL_SYSCFG_EnableCM4BOOT:
 1288              	.LFB164:
 749:../../Drivers/STM32H7xx_HAL_Driver/Src/stm32h7xx_hal.c **** 
 750:../../Drivers/STM32H7xx_HAL_Driver/Src/stm32h7xx_hal.c **** /**
 751:../../Drivers/STM32H7xx_HAL_Driver/Src/stm32h7xx_hal.c ****   * @brief  Enables the Cortex-M4 boot
 752:../../Drivers/STM32H7xx_HAL_Driver/Src/stm32h7xx_hal.c ****   * @retval None
 753:../../Drivers/STM32H7xx_HAL_Driver/Src/stm32h7xx_hal.c ****   */
 754:../../Drivers/STM32H7xx_HAL_Driver/Src/stm32h7xx_hal.c **** void HAL_SYSCFG_EnableCM4BOOT(void)
 755:../../Drivers/STM32H7xx_HAL_Driver/Src/stm32h7xx_hal.c **** {
 1289              		.loc 1 755 1 is_stmt 1 view -0
 1290              		.cfi_startproc
 1291              		@ args = 0, pretend = 0, frame = 0
 1292              		@ frame_needed = 0, uses_anonymous_args = 0
 1293              		@ link register save eliminated.
 756:../../Drivers/STM32H7xx_HAL_Driver/Src/stm32h7xx_hal.c ****  SET_BIT(SYSCFG->UR1, SYSCFG_UR1_BCM4);
 1294              		.loc 1 756 2 view .LVU242
 1295 0000 034A     		ldr	r2, .L122
 1296 0002 D2F80433 		ldr	r3, [r2, #772]
 1297 0006 43F00103 		orr	r3, r3, #1
 1298 000a C2F80433 		str	r3, [r2, #772]
 757:../../Drivers/STM32H7xx_HAL_Driver/Src/stm32h7xx_hal.c **** }
 1299              		.loc 1 757 1 is_stmt 0 view .LVU243
 1300 000e 7047     		bx	lr
 1301              	.L123:
 1302              		.align	2
 1303              	.L122:
 1304 0010 00040058 		.word	1476396032
 1305              		.cfi_endproc
 1306              	.LFE164:
 1308              		.section	.text.HAL_SYSCFG_DisableCM4BOOT,"ax",%progbits
 1309              		.align	1
 1310              		.global	HAL_SYSCFG_DisableCM4BOOT
 1311              		.syntax unified
 1312              		.thumb
 1313              		.thumb_func
 1315              	HAL_SYSCFG_DisableCM4BOOT:
 1316              	.LFB165:
 758:../../Drivers/STM32H7xx_HAL_Driver/Src/stm32h7xx_hal.c **** 
 759:../../Drivers/STM32H7xx_HAL_Driver/Src/stm32h7xx_hal.c **** /**
 760:../../Drivers/STM32H7xx_HAL_Driver/Src/stm32h7xx_hal.c ****   * @brief  Disables the Cortex-M4 boot
 761:../../Drivers/STM32H7xx_HAL_Driver/Src/stm32h7xx_hal.c ****   * @note   Disabling the boot will gate the CPU clock
 762:../../Drivers/STM32H7xx_HAL_Driver/Src/stm32h7xx_hal.c ****   * @retval None
 763:../../Drivers/STM32H7xx_HAL_Driver/Src/stm32h7xx_hal.c ****   */
 764:../../Drivers/STM32H7xx_HAL_Driver/Src/stm32h7xx_hal.c **** void HAL_SYSCFG_DisableCM4BOOT(void)
 765:../../Drivers/STM32H7xx_HAL_Driver/Src/stm32h7xx_hal.c **** {
 1317              		.loc 1 765 1 is_stmt 1 view -0
 1318              		.cfi_startproc
 1319              		@ args = 0, pretend = 0, frame = 0
 1320              		@ frame_needed = 0, uses_anonymous_args = 0
 1321              		@ link register save eliminated.
 766:../../Drivers/STM32H7xx_HAL_Driver/Src/stm32h7xx_hal.c ****   CLEAR_BIT(SYSCFG->UR1, SYSCFG_UR1_BCM4);
 1322              		.loc 1 766 3 view .LVU245
 1323 0000 034A     		ldr	r2, .L125
ARM GAS  C:\Users\gigig\AppData\Local\Temp\cc64rzRb.s 			page 38


 1324 0002 D2F80433 		ldr	r3, [r2, #772]
 1325 0006 23F00103 		bic	r3, r3, #1
 1326 000a C2F80433 		str	r3, [r2, #772]
 767:../../Drivers/STM32H7xx_HAL_Driver/Src/stm32h7xx_hal.c **** }
 1327              		.loc 1 767 1 is_stmt 0 view .LVU246
 1328 000e 7047     		bx	lr
 1329              	.L126:
 1330              		.align	2
 1331              	.L125:
 1332 0010 00040058 		.word	1476396032
 1333              		.cfi_endproc
 1334              	.LFE165:
 1336              		.section	.text.HAL_EnableCompensationCell,"ax",%progbits
 1337              		.align	1
 1338              		.global	HAL_EnableCompensationCell
 1339              		.syntax unified
 1340              		.thumb
 1341              		.thumb_func
 1343              	HAL_EnableCompensationCell:
 1344              	.LFB166:
 768:../../Drivers/STM32H7xx_HAL_Driver/Src/stm32h7xx_hal.c **** #endif /*DUAL_CORE*/
 769:../../Drivers/STM32H7xx_HAL_Driver/Src/stm32h7xx_hal.c **** /**
 770:../../Drivers/STM32H7xx_HAL_Driver/Src/stm32h7xx_hal.c ****   * @brief  Enables the I/O Compensation Cell.
 771:../../Drivers/STM32H7xx_HAL_Driver/Src/stm32h7xx_hal.c ****   * @note   The I/O compensation cell can be used only when the device supply
 772:../../Drivers/STM32H7xx_HAL_Driver/Src/stm32h7xx_hal.c ****   *         voltage ranges from 1.62 to 2.0 V and from 2.7 to 3.6 V.
 773:../../Drivers/STM32H7xx_HAL_Driver/Src/stm32h7xx_hal.c ****   * @retval None
 774:../../Drivers/STM32H7xx_HAL_Driver/Src/stm32h7xx_hal.c ****   */
 775:../../Drivers/STM32H7xx_HAL_Driver/Src/stm32h7xx_hal.c **** void HAL_EnableCompensationCell(void)
 776:../../Drivers/STM32H7xx_HAL_Driver/Src/stm32h7xx_hal.c **** {
 1345              		.loc 1 776 1 is_stmt 1 view -0
 1346              		.cfi_startproc
 1347              		@ args = 0, pretend = 0, frame = 0
 1348              		@ frame_needed = 0, uses_anonymous_args = 0
 1349              		@ link register save eliminated.
 777:../../Drivers/STM32H7xx_HAL_Driver/Src/stm32h7xx_hal.c ****   SET_BIT(SYSCFG->CCCSR, SYSCFG_CCCSR_EN) ;
 1350              		.loc 1 777 3 view .LVU248
 1351 0000 024A     		ldr	r2, .L128
 1352 0002 136A     		ldr	r3, [r2, #32]
 1353 0004 43F00103 		orr	r3, r3, #1
 1354 0008 1362     		str	r3, [r2, #32]
 778:../../Drivers/STM32H7xx_HAL_Driver/Src/stm32h7xx_hal.c **** }
 1355              		.loc 1 778 1 is_stmt 0 view .LVU249
 1356 000a 7047     		bx	lr
 1357              	.L129:
 1358              		.align	2
 1359              	.L128:
 1360 000c 00040058 		.word	1476396032
 1361              		.cfi_endproc
 1362              	.LFE166:
 1364              		.section	.text.HAL_DisableCompensationCell,"ax",%progbits
 1365              		.align	1
 1366              		.global	HAL_DisableCompensationCell
 1367              		.syntax unified
 1368              		.thumb
 1369              		.thumb_func
 1371              	HAL_DisableCompensationCell:
 1372              	.LFB167:
ARM GAS  C:\Users\gigig\AppData\Local\Temp\cc64rzRb.s 			page 39


 779:../../Drivers/STM32H7xx_HAL_Driver/Src/stm32h7xx_hal.c **** 
 780:../../Drivers/STM32H7xx_HAL_Driver/Src/stm32h7xx_hal.c **** /**
 781:../../Drivers/STM32H7xx_HAL_Driver/Src/stm32h7xx_hal.c ****   * @brief  Power-down the I/O Compensation Cell.
 782:../../Drivers/STM32H7xx_HAL_Driver/Src/stm32h7xx_hal.c ****   * @note   The I/O compensation cell can be used only when the device supply
 783:../../Drivers/STM32H7xx_HAL_Driver/Src/stm32h7xx_hal.c ****   *         voltage ranges from 1.62 to 2.0 V and from 2.7 to 3.6 V.
 784:../../Drivers/STM32H7xx_HAL_Driver/Src/stm32h7xx_hal.c ****   * @retval None
 785:../../Drivers/STM32H7xx_HAL_Driver/Src/stm32h7xx_hal.c ****   */
 786:../../Drivers/STM32H7xx_HAL_Driver/Src/stm32h7xx_hal.c **** void HAL_DisableCompensationCell(void)
 787:../../Drivers/STM32H7xx_HAL_Driver/Src/stm32h7xx_hal.c **** {
 1373              		.loc 1 787 1 is_stmt 1 view -0
 1374              		.cfi_startproc
 1375              		@ args = 0, pretend = 0, frame = 0
 1376              		@ frame_needed = 0, uses_anonymous_args = 0
 1377              		@ link register save eliminated.
 788:../../Drivers/STM32H7xx_HAL_Driver/Src/stm32h7xx_hal.c ****   CLEAR_BIT(SYSCFG->CCCSR, SYSCFG_CCCSR_EN);
 1378              		.loc 1 788 3 view .LVU251
 1379 0000 024A     		ldr	r2, .L131
 1380 0002 136A     		ldr	r3, [r2, #32]
 1381 0004 23F00103 		bic	r3, r3, #1
 1382 0008 1362     		str	r3, [r2, #32]
 789:../../Drivers/STM32H7xx_HAL_Driver/Src/stm32h7xx_hal.c **** }
 1383              		.loc 1 789 1 is_stmt 0 view .LVU252
 1384 000a 7047     		bx	lr
 1385              	.L132:
 1386              		.align	2
 1387              	.L131:
 1388 000c 00040058 		.word	1476396032
 1389              		.cfi_endproc
 1390              	.LFE167:
 1392              		.section	.text.HAL_SYSCFG_EnableIOSpeedOptimize,"ax",%progbits
 1393              		.align	1
 1394              		.global	HAL_SYSCFG_EnableIOSpeedOptimize
 1395              		.syntax unified
 1396              		.thumb
 1397              		.thumb_func
 1399              	HAL_SYSCFG_EnableIOSpeedOptimize:
 1400              	.LFB168:
 790:../../Drivers/STM32H7xx_HAL_Driver/Src/stm32h7xx_hal.c **** 
 791:../../Drivers/STM32H7xx_HAL_Driver/Src/stm32h7xx_hal.c **** 
 792:../../Drivers/STM32H7xx_HAL_Driver/Src/stm32h7xx_hal.c **** /**
 793:../../Drivers/STM32H7xx_HAL_Driver/Src/stm32h7xx_hal.c ****   * @brief  To Enable optimize the I/O speed when the product voltage is low.
 794:../../Drivers/STM32H7xx_HAL_Driver/Src/stm32h7xx_hal.c ****   * @note   This bit is active only if PRODUCT_BELOW_25V user option bit is set. It must be
 795:../../Drivers/STM32H7xx_HAL_Driver/Src/stm32h7xx_hal.c ****   *         used only if the product supply voltage is below 2.5 V. Setting this bit when VDD is
 796:../../Drivers/STM32H7xx_HAL_Driver/Src/stm32h7xx_hal.c ****   *         higher than 2.5 V might be destructive.
 797:../../Drivers/STM32H7xx_HAL_Driver/Src/stm32h7xx_hal.c ****   * @retval None
 798:../../Drivers/STM32H7xx_HAL_Driver/Src/stm32h7xx_hal.c ****   */
 799:../../Drivers/STM32H7xx_HAL_Driver/Src/stm32h7xx_hal.c **** void HAL_SYSCFG_EnableIOSpeedOptimize(void)
 800:../../Drivers/STM32H7xx_HAL_Driver/Src/stm32h7xx_hal.c **** {
 1401              		.loc 1 800 1 is_stmt 1 view -0
 1402              		.cfi_startproc
 1403              		@ args = 0, pretend = 0, frame = 0
 1404              		@ frame_needed = 0, uses_anonymous_args = 0
 1405              		@ link register save eliminated.
 801:../../Drivers/STM32H7xx_HAL_Driver/Src/stm32h7xx_hal.c **** #if defined(SYSCFG_CCCSR_HSLV)
 802:../../Drivers/STM32H7xx_HAL_Driver/Src/stm32h7xx_hal.c ****   SET_BIT(SYSCFG->CCCSR, SYSCFG_CCCSR_HSLV);
 1406              		.loc 1 802 3 view .LVU254
 1407 0000 024A     		ldr	r2, .L134
ARM GAS  C:\Users\gigig\AppData\Local\Temp\cc64rzRb.s 			page 40


 1408 0002 136A     		ldr	r3, [r2, #32]
 1409 0004 43F48033 		orr	r3, r3, #65536
 1410 0008 1362     		str	r3, [r2, #32]
 803:../../Drivers/STM32H7xx_HAL_Driver/Src/stm32h7xx_hal.c **** #else
 804:../../Drivers/STM32H7xx_HAL_Driver/Src/stm32h7xx_hal.c ****   SET_BIT(SYSCFG->CCCSR, (SYSCFG_CCCSR_HSLV0| SYSCFG_CCCSR_HSLV1 | SYSCFG_CCCSR_HSLV2  | SYSCFG_CCC
 805:../../Drivers/STM32H7xx_HAL_Driver/Src/stm32h7xx_hal.c **** #endif   /* SYSCFG_CCCSR_HSLV */
 806:../../Drivers/STM32H7xx_HAL_Driver/Src/stm32h7xx_hal.c **** }
 1411              		.loc 1 806 1 is_stmt 0 view .LVU255
 1412 000a 7047     		bx	lr
 1413              	.L135:
 1414              		.align	2
 1415              	.L134:
 1416 000c 00040058 		.word	1476396032
 1417              		.cfi_endproc
 1418              	.LFE168:
 1420              		.section	.text.HAL_SYSCFG_DisableIOSpeedOptimize,"ax",%progbits
 1421              		.align	1
 1422              		.global	HAL_SYSCFG_DisableIOSpeedOptimize
 1423              		.syntax unified
 1424              		.thumb
 1425              		.thumb_func
 1427              	HAL_SYSCFG_DisableIOSpeedOptimize:
 1428              	.LFB169:
 807:../../Drivers/STM32H7xx_HAL_Driver/Src/stm32h7xx_hal.c **** 
 808:../../Drivers/STM32H7xx_HAL_Driver/Src/stm32h7xx_hal.c **** /**
 809:../../Drivers/STM32H7xx_HAL_Driver/Src/stm32h7xx_hal.c ****   * @brief  To Disable optimize the I/O speed when the product voltage is low.
 810:../../Drivers/STM32H7xx_HAL_Driver/Src/stm32h7xx_hal.c ****   * @note   This bit is active only if PRODUCT_BELOW_25V user option bit is set. It must be
 811:../../Drivers/STM32H7xx_HAL_Driver/Src/stm32h7xx_hal.c ****   *         used only if the product supply voltage is below 2.5 V. Setting this bit when VDD is
 812:../../Drivers/STM32H7xx_HAL_Driver/Src/stm32h7xx_hal.c ****   *         higher than 2.5 V might be destructive.
 813:../../Drivers/STM32H7xx_HAL_Driver/Src/stm32h7xx_hal.c ****   * @retval None
 814:../../Drivers/STM32H7xx_HAL_Driver/Src/stm32h7xx_hal.c ****   */
 815:../../Drivers/STM32H7xx_HAL_Driver/Src/stm32h7xx_hal.c **** void HAL_SYSCFG_DisableIOSpeedOptimize(void)
 816:../../Drivers/STM32H7xx_HAL_Driver/Src/stm32h7xx_hal.c **** {
 1429              		.loc 1 816 1 is_stmt 1 view -0
 1430              		.cfi_startproc
 1431              		@ args = 0, pretend = 0, frame = 0
 1432              		@ frame_needed = 0, uses_anonymous_args = 0
 1433              		@ link register save eliminated.
 817:../../Drivers/STM32H7xx_HAL_Driver/Src/stm32h7xx_hal.c **** #if defined(SYSCFG_CCCSR_HSLV)
 818:../../Drivers/STM32H7xx_HAL_Driver/Src/stm32h7xx_hal.c ****   CLEAR_BIT(SYSCFG->CCCSR, SYSCFG_CCCSR_HSLV);
 1434              		.loc 1 818 3 view .LVU257
 1435 0000 024A     		ldr	r2, .L137
 1436 0002 136A     		ldr	r3, [r2, #32]
 1437 0004 23F48033 		bic	r3, r3, #65536
 1438 0008 1362     		str	r3, [r2, #32]
 819:../../Drivers/STM32H7xx_HAL_Driver/Src/stm32h7xx_hal.c **** #else
 820:../../Drivers/STM32H7xx_HAL_Driver/Src/stm32h7xx_hal.c ****   CLEAR_BIT(SYSCFG->CCCSR, (SYSCFG_CCCSR_HSLV0| SYSCFG_CCCSR_HSLV1 | SYSCFG_CCCSR_HSLV2  | SYSCFG_C
 821:../../Drivers/STM32H7xx_HAL_Driver/Src/stm32h7xx_hal.c **** #endif   /* SYSCFG_CCCSR_HSLV */
 822:../../Drivers/STM32H7xx_HAL_Driver/Src/stm32h7xx_hal.c **** }
 1439              		.loc 1 822 1 is_stmt 0 view .LVU258
 1440 000a 7047     		bx	lr
 1441              	.L138:
 1442              		.align	2
 1443              	.L137:
 1444 000c 00040058 		.word	1476396032
 1445              		.cfi_endproc
 1446              	.LFE169:
ARM GAS  C:\Users\gigig\AppData\Local\Temp\cc64rzRb.s 			page 41


 1448              		.section	.text.HAL_SYSCFG_CompensationCodeSelect,"ax",%progbits
 1449              		.align	1
 1450              		.global	HAL_SYSCFG_CompensationCodeSelect
 1451              		.syntax unified
 1452              		.thumb
 1453              		.thumb_func
 1455              	HAL_SYSCFG_CompensationCodeSelect:
 1456              	.LVL43:
 1457              	.LFB170:
 823:../../Drivers/STM32H7xx_HAL_Driver/Src/stm32h7xx_hal.c **** 
 824:../../Drivers/STM32H7xx_HAL_Driver/Src/stm32h7xx_hal.c **** /**
 825:../../Drivers/STM32H7xx_HAL_Driver/Src/stm32h7xx_hal.c ****   * @brief  Code selection for the I/O Compensation cell
 826:../../Drivers/STM32H7xx_HAL_Driver/Src/stm32h7xx_hal.c ****   * @param  SYSCFG_CompCode: Selects the code to be applied for the I/O compensation cell
 827:../../Drivers/STM32H7xx_HAL_Driver/Src/stm32h7xx_hal.c ****   *   This parameter can be one of the following values:
 828:../../Drivers/STM32H7xx_HAL_Driver/Src/stm32h7xx_hal.c ****   *   @arg SYSCFG_CELL_CODE : Select Code from the cell (available in the SYSCFG_CCVR)
 829:../../Drivers/STM32H7xx_HAL_Driver/Src/stm32h7xx_hal.c ****   *   @arg SYSCFG_REGISTER_CODE: Select Code from the SYSCFG compensation cell code register (SYSCF
 830:../../Drivers/STM32H7xx_HAL_Driver/Src/stm32h7xx_hal.c ****   * @retval None
 831:../../Drivers/STM32H7xx_HAL_Driver/Src/stm32h7xx_hal.c ****   */
 832:../../Drivers/STM32H7xx_HAL_Driver/Src/stm32h7xx_hal.c **** void HAL_SYSCFG_CompensationCodeSelect(uint32_t SYSCFG_CompCode)
 833:../../Drivers/STM32H7xx_HAL_Driver/Src/stm32h7xx_hal.c **** {
 1458              		.loc 1 833 1 is_stmt 1 view -0
 1459              		.cfi_startproc
 1460              		@ args = 0, pretend = 0, frame = 0
 1461              		@ frame_needed = 0, uses_anonymous_args = 0
 1462              		@ link register save eliminated.
 834:../../Drivers/STM32H7xx_HAL_Driver/Src/stm32h7xx_hal.c ****   /* Check the parameter */
 835:../../Drivers/STM32H7xx_HAL_Driver/Src/stm32h7xx_hal.c ****   assert_param(IS_SYSCFG_CODE_SELECT(SYSCFG_CompCode));
 1463              		.loc 1 835 3 view .LVU260
 836:../../Drivers/STM32H7xx_HAL_Driver/Src/stm32h7xx_hal.c ****   MODIFY_REG(SYSCFG->CCCSR, SYSCFG_CCCSR_CS, (uint32_t)(SYSCFG_CompCode));
 1464              		.loc 1 836 3 view .LVU261
 1465 0000 034A     		ldr	r2, .L140
 1466 0002 136A     		ldr	r3, [r2, #32]
 1467 0004 23F00203 		bic	r3, r3, #2
 1468 0008 0343     		orrs	r3, r3, r0
 1469 000a 1362     		str	r3, [r2, #32]
 837:../../Drivers/STM32H7xx_HAL_Driver/Src/stm32h7xx_hal.c **** }
 1470              		.loc 1 837 1 is_stmt 0 view .LVU262
 1471 000c 7047     		bx	lr
 1472              	.L141:
 1473 000e 00BF     		.align	2
 1474              	.L140:
 1475 0010 00040058 		.word	1476396032
 1476              		.cfi_endproc
 1477              	.LFE170:
 1479              		.section	.text.HAL_SYSCFG_CompensationCodeConfig,"ax",%progbits
 1480              		.align	1
 1481              		.global	HAL_SYSCFG_CompensationCodeConfig
 1482              		.syntax unified
 1483              		.thumb
 1484              		.thumb_func
 1486              	HAL_SYSCFG_CompensationCodeConfig:
 1487              	.LVL44:
 1488              	.LFB171:
 838:../../Drivers/STM32H7xx_HAL_Driver/Src/stm32h7xx_hal.c **** 
 839:../../Drivers/STM32H7xx_HAL_Driver/Src/stm32h7xx_hal.c **** /**
 840:../../Drivers/STM32H7xx_HAL_Driver/Src/stm32h7xx_hal.c ****   * @brief  Code selection for the I/O Compensation cell
 841:../../Drivers/STM32H7xx_HAL_Driver/Src/stm32h7xx_hal.c ****   * @param  SYSCFG_PMOSCode: PMOS compensation code
ARM GAS  C:\Users\gigig\AppData\Local\Temp\cc64rzRb.s 			page 42


 842:../../Drivers/STM32H7xx_HAL_Driver/Src/stm32h7xx_hal.c ****   *         This code is applied to the I/O compensation cell when the CS bit of the
 843:../../Drivers/STM32H7xx_HAL_Driver/Src/stm32h7xx_hal.c ****   *          SYSCFG_CMPCR is set
 844:../../Drivers/STM32H7xx_HAL_Driver/Src/stm32h7xx_hal.c ****   * @param  SYSCFG_NMOSCode: NMOS compensation code
 845:../../Drivers/STM32H7xx_HAL_Driver/Src/stm32h7xx_hal.c ****   *         This code is applied to the I/O compensation cell when the CS bit of the
 846:../../Drivers/STM32H7xx_HAL_Driver/Src/stm32h7xx_hal.c ****   *          SYSCFG_CMPCR is set
 847:../../Drivers/STM32H7xx_HAL_Driver/Src/stm32h7xx_hal.c ****   * @retval None
 848:../../Drivers/STM32H7xx_HAL_Driver/Src/stm32h7xx_hal.c ****   */
 849:../../Drivers/STM32H7xx_HAL_Driver/Src/stm32h7xx_hal.c **** void HAL_SYSCFG_CompensationCodeConfig(uint32_t SYSCFG_PMOSCode, uint32_t SYSCFG_NMOSCode )
 850:../../Drivers/STM32H7xx_HAL_Driver/Src/stm32h7xx_hal.c **** {
 1489              		.loc 1 850 1 is_stmt 1 view -0
 1490              		.cfi_startproc
 1491              		@ args = 0, pretend = 0, frame = 0
 1492              		@ frame_needed = 0, uses_anonymous_args = 0
 1493              		@ link register save eliminated.
 851:../../Drivers/STM32H7xx_HAL_Driver/Src/stm32h7xx_hal.c ****   /* Check the parameter */
 852:../../Drivers/STM32H7xx_HAL_Driver/Src/stm32h7xx_hal.c ****   assert_param(IS_SYSCFG_CODE_CONFIG(SYSCFG_PMOSCode));
 1494              		.loc 1 852 3 view .LVU264
 853:../../Drivers/STM32H7xx_HAL_Driver/Src/stm32h7xx_hal.c ****   assert_param(IS_SYSCFG_CODE_CONFIG(SYSCFG_NMOSCode));
 1495              		.loc 1 853 3 view .LVU265
 854:../../Drivers/STM32H7xx_HAL_Driver/Src/stm32h7xx_hal.c ****   MODIFY_REG(SYSCFG->CCCR, SYSCFG_CCCR_NCC|SYSCFG_CCCR_PCC, (((uint32_t)(SYSCFG_PMOSCode)<< 4)|(uin
 1496              		.loc 1 854 3 view .LVU266
 1497 0000 044A     		ldr	r2, .L143
 1498 0002 936A     		ldr	r3, [r2, #40]
 1499 0004 23F0FF03 		bic	r3, r3, #255
 1500 0008 41EA0011 		orr	r1, r1, r0, lsl #4
 1501              	.LVL45:
 1502              		.loc 1 854 3 is_stmt 0 view .LVU267
 1503 000c 0B43     		orrs	r3, r3, r1
 1504 000e 9362     		str	r3, [r2, #40]
 855:../../Drivers/STM32H7xx_HAL_Driver/Src/stm32h7xx_hal.c **** }
 1505              		.loc 1 855 1 view .LVU268
 1506 0010 7047     		bx	lr
 1507              	.L144:
 1508 0012 00BF     		.align	2
 1509              	.L143:
 1510 0014 00040058 		.word	1476396032
 1511              		.cfi_endproc
 1512              	.LFE171:
 1514              		.section	.text.HAL_DBGMCU_EnableDBGSleepMode,"ax",%progbits
 1515              		.align	1
 1516              		.global	HAL_DBGMCU_EnableDBGSleepMode
 1517              		.syntax unified
 1518              		.thumb
 1519              		.thumb_func
 1521              	HAL_DBGMCU_EnableDBGSleepMode:
 1522              	.LFB172:
 856:../../Drivers/STM32H7xx_HAL_Driver/Src/stm32h7xx_hal.c **** 
 857:../../Drivers/STM32H7xx_HAL_Driver/Src/stm32h7xx_hal.c **** #if defined(SYSCFG_CCCR_NCC_MMC)
 858:../../Drivers/STM32H7xx_HAL_Driver/Src/stm32h7xx_hal.c **** /**
 859:../../Drivers/STM32H7xx_HAL_Driver/Src/stm32h7xx_hal.c ****   * @brief  Code selection for the I/O Compensation cell
 860:../../Drivers/STM32H7xx_HAL_Driver/Src/stm32h7xx_hal.c ****   * @param  SYSCFG_PMOSCode: VDDMMC PMOS compensation code
 861:../../Drivers/STM32H7xx_HAL_Driver/Src/stm32h7xx_hal.c ****   *         This code is applied to the I/O compensation cell when the CS bit of the
 862:../../Drivers/STM32H7xx_HAL_Driver/Src/stm32h7xx_hal.c ****   *          SYSCFG_CMPCR is set
 863:../../Drivers/STM32H7xx_HAL_Driver/Src/stm32h7xx_hal.c ****   * @param  SYSCFG_NMOSCode: VDDMMC NMOS compensation code
 864:../../Drivers/STM32H7xx_HAL_Driver/Src/stm32h7xx_hal.c ****   *         This code is applied to the I/O compensation cell when the CS bit of the
 865:../../Drivers/STM32H7xx_HAL_Driver/Src/stm32h7xx_hal.c ****   *          SYSCFG_CMPCR is set
 866:../../Drivers/STM32H7xx_HAL_Driver/Src/stm32h7xx_hal.c ****   * @retval None
ARM GAS  C:\Users\gigig\AppData\Local\Temp\cc64rzRb.s 			page 43


 867:../../Drivers/STM32H7xx_HAL_Driver/Src/stm32h7xx_hal.c ****   */
 868:../../Drivers/STM32H7xx_HAL_Driver/Src/stm32h7xx_hal.c **** void HAL_SYSCFG_VDDMMC_CompensationCodeConfig(uint32_t SYSCFG_PMOSCode, uint32_t SYSCFG_NMOSCode )
 869:../../Drivers/STM32H7xx_HAL_Driver/Src/stm32h7xx_hal.c **** {
 870:../../Drivers/STM32H7xx_HAL_Driver/Src/stm32h7xx_hal.c ****   /* Check the parameter */
 871:../../Drivers/STM32H7xx_HAL_Driver/Src/stm32h7xx_hal.c ****   assert_param(IS_SYSCFG_CODE_CONFIG(SYSCFG_PMOSCode));
 872:../../Drivers/STM32H7xx_HAL_Driver/Src/stm32h7xx_hal.c ****   assert_param(IS_SYSCFG_CODE_CONFIG(SYSCFG_NMOSCode));
 873:../../Drivers/STM32H7xx_HAL_Driver/Src/stm32h7xx_hal.c ****   MODIFY_REG(SYSCFG->CCCR, (SYSCFG_CCCR_NCC_MMC | SYSCFG_CCCR_PCC_MMC), (((uint32_t)(SYSCFG_PMOSCod
 874:../../Drivers/STM32H7xx_HAL_Driver/Src/stm32h7xx_hal.c **** }
 875:../../Drivers/STM32H7xx_HAL_Driver/Src/stm32h7xx_hal.c **** #endif /* SYSCFG_CCCR_NCC_MMC */
 876:../../Drivers/STM32H7xx_HAL_Driver/Src/stm32h7xx_hal.c **** 
 877:../../Drivers/STM32H7xx_HAL_Driver/Src/stm32h7xx_hal.c **** #if defined(SYSCFG_ADC2ALT_ADC2_ROUT0)
 878:../../Drivers/STM32H7xx_HAL_Driver/Src/stm32h7xx_hal.c **** /** @brief  SYSCFG ADC2 internal input alternate connection macros
 879:../../Drivers/STM32H7xx_HAL_Driver/Src/stm32h7xx_hal.c ****   * @param Adc2AltRout0 This parameter can be a value of :
 880:../../Drivers/STM32H7xx_HAL_Driver/Src/stm32h7xx_hal.c ****   *     @arg @ref SYSCFG_ADC2_ROUT0_DAC1_1   DAC1_out1 connected to ADC2 VINP[16]
 881:../../Drivers/STM32H7xx_HAL_Driver/Src/stm32h7xx_hal.c ****   *     @arg @ref SYSCFG_ADC2_ROUT0_VBAT4    VBAT/4 connected to ADC2 VINP[16]
 882:../../Drivers/STM32H7xx_HAL_Driver/Src/stm32h7xx_hal.c ****   */
 883:../../Drivers/STM32H7xx_HAL_Driver/Src/stm32h7xx_hal.c **** void HAL_SYSCFG_ADC2ALT_Rout0Config(uint32_t Adc2AltRout0)
 884:../../Drivers/STM32H7xx_HAL_Driver/Src/stm32h7xx_hal.c **** {
 885:../../Drivers/STM32H7xx_HAL_Driver/Src/stm32h7xx_hal.c ****   /* Check the parameters */
 886:../../Drivers/STM32H7xx_HAL_Driver/Src/stm32h7xx_hal.c ****   assert_param(IS_SYSCFG_ADC2ALT_ROUT0(Adc2AltRout0));
 887:../../Drivers/STM32H7xx_HAL_Driver/Src/stm32h7xx_hal.c **** 
 888:../../Drivers/STM32H7xx_HAL_Driver/Src/stm32h7xx_hal.c ****   MODIFY_REG(SYSCFG->ADC2ALT, SYSCFG_ADC2ALT_ADC2_ROUT0, Adc2AltRout0);
 889:../../Drivers/STM32H7xx_HAL_Driver/Src/stm32h7xx_hal.c **** }
 890:../../Drivers/STM32H7xx_HAL_Driver/Src/stm32h7xx_hal.c **** #endif /*SYSCFG_ADC2ALT_ADC2_ROUT0*/
 891:../../Drivers/STM32H7xx_HAL_Driver/Src/stm32h7xx_hal.c **** 
 892:../../Drivers/STM32H7xx_HAL_Driver/Src/stm32h7xx_hal.c **** #if defined(SYSCFG_ADC2ALT_ADC2_ROUT1)
 893:../../Drivers/STM32H7xx_HAL_Driver/Src/stm32h7xx_hal.c **** /** @brief  SYSCFG ADC2 internal input alternate connection macros
 894:../../Drivers/STM32H7xx_HAL_Driver/Src/stm32h7xx_hal.c ****   * @param Adc2AltRout1  This parameter can be a value of :
 895:../../Drivers/STM32H7xx_HAL_Driver/Src/stm32h7xx_hal.c ****   *     @arg @ref SYSCFG_ADC2_ROUT1_DAC1_2   DAC1_out2 connected to ADC2 VINP[17]
 896:../../Drivers/STM32H7xx_HAL_Driver/Src/stm32h7xx_hal.c ****   *     @arg @ref SYSCFG_ADC2_ROUT1_VREFINT  VREFINT connected to ADC2 VINP[17]
 897:../../Drivers/STM32H7xx_HAL_Driver/Src/stm32h7xx_hal.c ****   */
 898:../../Drivers/STM32H7xx_HAL_Driver/Src/stm32h7xx_hal.c **** void HAL_SYSCFG_ADC2ALT_Rout1Config(uint32_t Adc2AltRout1)
 899:../../Drivers/STM32H7xx_HAL_Driver/Src/stm32h7xx_hal.c **** {
 900:../../Drivers/STM32H7xx_HAL_Driver/Src/stm32h7xx_hal.c ****   /* Check the parameters */
 901:../../Drivers/STM32H7xx_HAL_Driver/Src/stm32h7xx_hal.c ****   assert_param(IS_SYSCFG_ADC2ALT_ROUT1(Adc2AltRout1));
 902:../../Drivers/STM32H7xx_HAL_Driver/Src/stm32h7xx_hal.c **** 
 903:../../Drivers/STM32H7xx_HAL_Driver/Src/stm32h7xx_hal.c ****   MODIFY_REG(SYSCFG->ADC2ALT, SYSCFG_ADC2ALT_ADC2_ROUT1, Adc2AltRout1);
 904:../../Drivers/STM32H7xx_HAL_Driver/Src/stm32h7xx_hal.c **** }
 905:../../Drivers/STM32H7xx_HAL_Driver/Src/stm32h7xx_hal.c **** #endif /*SYSCFG_ADC2ALT_ADC2_ROUT1*/
 906:../../Drivers/STM32H7xx_HAL_Driver/Src/stm32h7xx_hal.c **** 
 907:../../Drivers/STM32H7xx_HAL_Driver/Src/stm32h7xx_hal.c **** /**
 908:../../Drivers/STM32H7xx_HAL_Driver/Src/stm32h7xx_hal.c ****   * @brief  Enable the Debug Module during Domain1/CDomain SLEEP mode
 909:../../Drivers/STM32H7xx_HAL_Driver/Src/stm32h7xx_hal.c ****   * @retval None
 910:../../Drivers/STM32H7xx_HAL_Driver/Src/stm32h7xx_hal.c ****   */
 911:../../Drivers/STM32H7xx_HAL_Driver/Src/stm32h7xx_hal.c **** void HAL_DBGMCU_EnableDBGSleepMode(void)
 912:../../Drivers/STM32H7xx_HAL_Driver/Src/stm32h7xx_hal.c **** {
 1523              		.loc 1 912 1 is_stmt 1 view -0
 1524              		.cfi_startproc
 1525              		@ args = 0, pretend = 0, frame = 0
 1526              		@ frame_needed = 0, uses_anonymous_args = 0
 1527              		@ link register save eliminated.
 913:../../Drivers/STM32H7xx_HAL_Driver/Src/stm32h7xx_hal.c ****   SET_BIT(DBGMCU->CR, DBGMCU_CR_DBG_SLEEPD1);
 1528              		.loc 1 913 3 view .LVU270
 1529 0000 024A     		ldr	r2, .L146
 1530 0002 5368     		ldr	r3, [r2, #4]
 1531 0004 43F00103 		orr	r3, r3, #1
 1532 0008 5360     		str	r3, [r2, #4]
ARM GAS  C:\Users\gigig\AppData\Local\Temp\cc64rzRb.s 			page 44


 914:../../Drivers/STM32H7xx_HAL_Driver/Src/stm32h7xx_hal.c **** }
 1533              		.loc 1 914 1 is_stmt 0 view .LVU271
 1534 000a 7047     		bx	lr
 1535              	.L147:
 1536              		.align	2
 1537              	.L146:
 1538 000c 0010005C 		.word	1543507968
 1539              		.cfi_endproc
 1540              	.LFE172:
 1542              		.section	.text.HAL_DBGMCU_DisableDBGSleepMode,"ax",%progbits
 1543              		.align	1
 1544              		.global	HAL_DBGMCU_DisableDBGSleepMode
 1545              		.syntax unified
 1546              		.thumb
 1547              		.thumb_func
 1549              	HAL_DBGMCU_DisableDBGSleepMode:
 1550              	.LFB173:
 915:../../Drivers/STM32H7xx_HAL_Driver/Src/stm32h7xx_hal.c **** 
 916:../../Drivers/STM32H7xx_HAL_Driver/Src/stm32h7xx_hal.c **** /**
 917:../../Drivers/STM32H7xx_HAL_Driver/Src/stm32h7xx_hal.c ****   * @brief  Disable the Debug Module during Domain1/CDomain SLEEP mode
 918:../../Drivers/STM32H7xx_HAL_Driver/Src/stm32h7xx_hal.c ****   * @retval None
 919:../../Drivers/STM32H7xx_HAL_Driver/Src/stm32h7xx_hal.c ****   */
 920:../../Drivers/STM32H7xx_HAL_Driver/Src/stm32h7xx_hal.c **** void HAL_DBGMCU_DisableDBGSleepMode(void)
 921:../../Drivers/STM32H7xx_HAL_Driver/Src/stm32h7xx_hal.c **** {
 1551              		.loc 1 921 1 is_stmt 1 view -0
 1552              		.cfi_startproc
 1553              		@ args = 0, pretend = 0, frame = 0
 1554              		@ frame_needed = 0, uses_anonymous_args = 0
 1555              		@ link register save eliminated.
 922:../../Drivers/STM32H7xx_HAL_Driver/Src/stm32h7xx_hal.c ****   CLEAR_BIT(DBGMCU->CR, DBGMCU_CR_DBG_SLEEPD1);
 1556              		.loc 1 922 3 view .LVU273
 1557 0000 024A     		ldr	r2, .L149
 1558 0002 5368     		ldr	r3, [r2, #4]
 1559 0004 23F00103 		bic	r3, r3, #1
 1560 0008 5360     		str	r3, [r2, #4]
 923:../../Drivers/STM32H7xx_HAL_Driver/Src/stm32h7xx_hal.c **** }
 1561              		.loc 1 923 1 is_stmt 0 view .LVU274
 1562 000a 7047     		bx	lr
 1563              	.L150:
 1564              		.align	2
 1565              	.L149:
 1566 000c 0010005C 		.word	1543507968
 1567              		.cfi_endproc
 1568              	.LFE173:
 1570              		.section	.text.HAL_DBGMCU_EnableDBGStopMode,"ax",%progbits
 1571              		.align	1
 1572              		.global	HAL_DBGMCU_EnableDBGStopMode
 1573              		.syntax unified
 1574              		.thumb
 1575              		.thumb_func
 1577              	HAL_DBGMCU_EnableDBGStopMode:
 1578              	.LFB174:
 924:../../Drivers/STM32H7xx_HAL_Driver/Src/stm32h7xx_hal.c **** 
 925:../../Drivers/STM32H7xx_HAL_Driver/Src/stm32h7xx_hal.c **** 
 926:../../Drivers/STM32H7xx_HAL_Driver/Src/stm32h7xx_hal.c **** /**
 927:../../Drivers/STM32H7xx_HAL_Driver/Src/stm32h7xx_hal.c ****   * @brief  Enable the Debug Module during Domain1/CDomain STOP mode
 928:../../Drivers/STM32H7xx_HAL_Driver/Src/stm32h7xx_hal.c ****   * @retval None
ARM GAS  C:\Users\gigig\AppData\Local\Temp\cc64rzRb.s 			page 45


 929:../../Drivers/STM32H7xx_HAL_Driver/Src/stm32h7xx_hal.c ****   */
 930:../../Drivers/STM32H7xx_HAL_Driver/Src/stm32h7xx_hal.c **** void HAL_DBGMCU_EnableDBGStopMode(void)
 931:../../Drivers/STM32H7xx_HAL_Driver/Src/stm32h7xx_hal.c **** {
 1579              		.loc 1 931 1 is_stmt 1 view -0
 1580              		.cfi_startproc
 1581              		@ args = 0, pretend = 0, frame = 0
 1582              		@ frame_needed = 0, uses_anonymous_args = 0
 1583              		@ link register save eliminated.
 932:../../Drivers/STM32H7xx_HAL_Driver/Src/stm32h7xx_hal.c ****   SET_BIT(DBGMCU->CR, DBGMCU_CR_DBG_STOPD1);
 1584              		.loc 1 932 3 view .LVU276
 1585 0000 024A     		ldr	r2, .L152
 1586 0002 5368     		ldr	r3, [r2, #4]
 1587 0004 43F00203 		orr	r3, r3, #2
 1588 0008 5360     		str	r3, [r2, #4]
 933:../../Drivers/STM32H7xx_HAL_Driver/Src/stm32h7xx_hal.c **** }
 1589              		.loc 1 933 1 is_stmt 0 view .LVU277
 1590 000a 7047     		bx	lr
 1591              	.L153:
 1592              		.align	2
 1593              	.L152:
 1594 000c 0010005C 		.word	1543507968
 1595              		.cfi_endproc
 1596              	.LFE174:
 1598              		.section	.text.HAL_DBGMCU_DisableDBGStopMode,"ax",%progbits
 1599              		.align	1
 1600              		.global	HAL_DBGMCU_DisableDBGStopMode
 1601              		.syntax unified
 1602              		.thumb
 1603              		.thumb_func
 1605              	HAL_DBGMCU_DisableDBGStopMode:
 1606              	.LFB175:
 934:../../Drivers/STM32H7xx_HAL_Driver/Src/stm32h7xx_hal.c **** 
 935:../../Drivers/STM32H7xx_HAL_Driver/Src/stm32h7xx_hal.c **** /**
 936:../../Drivers/STM32H7xx_HAL_Driver/Src/stm32h7xx_hal.c ****   * @brief  Disable the Debug Module during Domain1/CDomain STOP mode
 937:../../Drivers/STM32H7xx_HAL_Driver/Src/stm32h7xx_hal.c ****   * @retval None
 938:../../Drivers/STM32H7xx_HAL_Driver/Src/stm32h7xx_hal.c ****   */
 939:../../Drivers/STM32H7xx_HAL_Driver/Src/stm32h7xx_hal.c **** void HAL_DBGMCU_DisableDBGStopMode(void)
 940:../../Drivers/STM32H7xx_HAL_Driver/Src/stm32h7xx_hal.c **** {
 1607              		.loc 1 940 1 is_stmt 1 view -0
 1608              		.cfi_startproc
 1609              		@ args = 0, pretend = 0, frame = 0
 1610              		@ frame_needed = 0, uses_anonymous_args = 0
 1611              		@ link register save eliminated.
 941:../../Drivers/STM32H7xx_HAL_Driver/Src/stm32h7xx_hal.c ****   CLEAR_BIT(DBGMCU->CR, DBGMCU_CR_DBG_STOPD1);
 1612              		.loc 1 941 3 view .LVU279
 1613 0000 024A     		ldr	r2, .L155
 1614 0002 5368     		ldr	r3, [r2, #4]
 1615 0004 23F00203 		bic	r3, r3, #2
 1616 0008 5360     		str	r3, [r2, #4]
 942:../../Drivers/STM32H7xx_HAL_Driver/Src/stm32h7xx_hal.c **** }
 1617              		.loc 1 942 1 is_stmt 0 view .LVU280
 1618 000a 7047     		bx	lr
 1619              	.L156:
 1620              		.align	2
 1621              	.L155:
 1622 000c 0010005C 		.word	1543507968
 1623              		.cfi_endproc
ARM GAS  C:\Users\gigig\AppData\Local\Temp\cc64rzRb.s 			page 46


 1624              	.LFE175:
 1626              		.section	.text.HAL_DBGMCU_EnableDBGStandbyMode,"ax",%progbits
 1627              		.align	1
 1628              		.global	HAL_DBGMCU_EnableDBGStandbyMode
 1629              		.syntax unified
 1630              		.thumb
 1631              		.thumb_func
 1633              	HAL_DBGMCU_EnableDBGStandbyMode:
 1634              	.LFB176:
 943:../../Drivers/STM32H7xx_HAL_Driver/Src/stm32h7xx_hal.c **** 
 944:../../Drivers/STM32H7xx_HAL_Driver/Src/stm32h7xx_hal.c **** /**
 945:../../Drivers/STM32H7xx_HAL_Driver/Src/stm32h7xx_hal.c ****   * @brief  Enable the Debug Module during Domain1/CDomain STANDBY mode
 946:../../Drivers/STM32H7xx_HAL_Driver/Src/stm32h7xx_hal.c ****   * @retval None
 947:../../Drivers/STM32H7xx_HAL_Driver/Src/stm32h7xx_hal.c ****   */
 948:../../Drivers/STM32H7xx_HAL_Driver/Src/stm32h7xx_hal.c **** void HAL_DBGMCU_EnableDBGStandbyMode(void)
 949:../../Drivers/STM32H7xx_HAL_Driver/Src/stm32h7xx_hal.c **** {
 1635              		.loc 1 949 1 is_stmt 1 view -0
 1636              		.cfi_startproc
 1637              		@ args = 0, pretend = 0, frame = 0
 1638              		@ frame_needed = 0, uses_anonymous_args = 0
 1639              		@ link register save eliminated.
 950:../../Drivers/STM32H7xx_HAL_Driver/Src/stm32h7xx_hal.c ****   SET_BIT(DBGMCU->CR, DBGMCU_CR_DBG_STANDBYD1);
 1640              		.loc 1 950 3 view .LVU282
 1641 0000 024A     		ldr	r2, .L158
 1642 0002 5368     		ldr	r3, [r2, #4]
 1643 0004 43F00403 		orr	r3, r3, #4
 1644 0008 5360     		str	r3, [r2, #4]
 951:../../Drivers/STM32H7xx_HAL_Driver/Src/stm32h7xx_hal.c **** }
 1645              		.loc 1 951 1 is_stmt 0 view .LVU283
 1646 000a 7047     		bx	lr
 1647              	.L159:
 1648              		.align	2
 1649              	.L158:
 1650 000c 0010005C 		.word	1543507968
 1651              		.cfi_endproc
 1652              	.LFE176:
 1654              		.section	.text.HAL_DBGMCU_DisableDBGStandbyMode,"ax",%progbits
 1655              		.align	1
 1656              		.global	HAL_DBGMCU_DisableDBGStandbyMode
 1657              		.syntax unified
 1658              		.thumb
 1659              		.thumb_func
 1661              	HAL_DBGMCU_DisableDBGStandbyMode:
 1662              	.LFB177:
 952:../../Drivers/STM32H7xx_HAL_Driver/Src/stm32h7xx_hal.c **** 
 953:../../Drivers/STM32H7xx_HAL_Driver/Src/stm32h7xx_hal.c **** /**
 954:../../Drivers/STM32H7xx_HAL_Driver/Src/stm32h7xx_hal.c ****   * @brief  Disable the Debug Module during Domain1/CDomain STANDBY mode
 955:../../Drivers/STM32H7xx_HAL_Driver/Src/stm32h7xx_hal.c ****   * @retval None
 956:../../Drivers/STM32H7xx_HAL_Driver/Src/stm32h7xx_hal.c ****   */
 957:../../Drivers/STM32H7xx_HAL_Driver/Src/stm32h7xx_hal.c **** void HAL_DBGMCU_DisableDBGStandbyMode(void)
 958:../../Drivers/STM32H7xx_HAL_Driver/Src/stm32h7xx_hal.c **** {
 1663              		.loc 1 958 1 is_stmt 1 view -0
 1664              		.cfi_startproc
 1665              		@ args = 0, pretend = 0, frame = 0
 1666              		@ frame_needed = 0, uses_anonymous_args = 0
 1667              		@ link register save eliminated.
 959:../../Drivers/STM32H7xx_HAL_Driver/Src/stm32h7xx_hal.c ****   CLEAR_BIT(DBGMCU->CR, DBGMCU_CR_DBG_STANDBYD1);
ARM GAS  C:\Users\gigig\AppData\Local\Temp\cc64rzRb.s 			page 47


 1668              		.loc 1 959 3 view .LVU285
 1669 0000 024A     		ldr	r2, .L161
 1670 0002 5368     		ldr	r3, [r2, #4]
 1671 0004 23F00403 		bic	r3, r3, #4
 1672 0008 5360     		str	r3, [r2, #4]
 960:../../Drivers/STM32H7xx_HAL_Driver/Src/stm32h7xx_hal.c **** }
 1673              		.loc 1 960 1 is_stmt 0 view .LVU286
 1674 000a 7047     		bx	lr
 1675              	.L162:
 1676              		.align	2
 1677              	.L161:
 1678 000c 0010005C 		.word	1543507968
 1679              		.cfi_endproc
 1680              	.LFE177:
 1682              		.section	.text.HAL_EnableDomain2DBGSleepMode,"ax",%progbits
 1683              		.align	1
 1684              		.global	HAL_EnableDomain2DBGSleepMode
 1685              		.syntax unified
 1686              		.thumb
 1687              		.thumb_func
 1689              	HAL_EnableDomain2DBGSleepMode:
 1690              	.LFB178:
 961:../../Drivers/STM32H7xx_HAL_Driver/Src/stm32h7xx_hal.c **** 
 962:../../Drivers/STM32H7xx_HAL_Driver/Src/stm32h7xx_hal.c **** #if defined(DUAL_CORE)
 963:../../Drivers/STM32H7xx_HAL_Driver/Src/stm32h7xx_hal.c **** /**
 964:../../Drivers/STM32H7xx_HAL_Driver/Src/stm32h7xx_hal.c ****   * @brief  Enable the Debug Module during Domain1 SLEEP mode
 965:../../Drivers/STM32H7xx_HAL_Driver/Src/stm32h7xx_hal.c ****   * @retval None
 966:../../Drivers/STM32H7xx_HAL_Driver/Src/stm32h7xx_hal.c ****   */
 967:../../Drivers/STM32H7xx_HAL_Driver/Src/stm32h7xx_hal.c **** void HAL_EnableDomain2DBGSleepMode(void)
 968:../../Drivers/STM32H7xx_HAL_Driver/Src/stm32h7xx_hal.c **** {
 1691              		.loc 1 968 1 is_stmt 1 view -0
 1692              		.cfi_startproc
 1693              		@ args = 0, pretend = 0, frame = 0
 1694              		@ frame_needed = 0, uses_anonymous_args = 0
 1695              		@ link register save eliminated.
 969:../../Drivers/STM32H7xx_HAL_Driver/Src/stm32h7xx_hal.c ****   SET_BIT(DBGMCU->CR, DBGMCU_CR_DBG_SLEEPD2);
 1696              		.loc 1 969 3 view .LVU288
 1697 0000 024A     		ldr	r2, .L164
 1698 0002 5368     		ldr	r3, [r2, #4]
 1699 0004 43F00803 		orr	r3, r3, #8
 1700 0008 5360     		str	r3, [r2, #4]
 970:../../Drivers/STM32H7xx_HAL_Driver/Src/stm32h7xx_hal.c **** }
 1701              		.loc 1 970 1 is_stmt 0 view .LVU289
 1702 000a 7047     		bx	lr
 1703              	.L165:
 1704              		.align	2
 1705              	.L164:
 1706 000c 0010005C 		.word	1543507968
 1707              		.cfi_endproc
 1708              	.LFE178:
 1710              		.section	.text.HAL_DisableDomain2DBGSleepMode,"ax",%progbits
 1711              		.align	1
 1712              		.global	HAL_DisableDomain2DBGSleepMode
 1713              		.syntax unified
 1714              		.thumb
 1715              		.thumb_func
 1717              	HAL_DisableDomain2DBGSleepMode:
ARM GAS  C:\Users\gigig\AppData\Local\Temp\cc64rzRb.s 			page 48


 1718              	.LFB179:
 971:../../Drivers/STM32H7xx_HAL_Driver/Src/stm32h7xx_hal.c **** 
 972:../../Drivers/STM32H7xx_HAL_Driver/Src/stm32h7xx_hal.c **** /**
 973:../../Drivers/STM32H7xx_HAL_Driver/Src/stm32h7xx_hal.c ****   * @brief  Disable the Debug Module during Domain2 SLEEP mode
 974:../../Drivers/STM32H7xx_HAL_Driver/Src/stm32h7xx_hal.c ****   * @retval None
 975:../../Drivers/STM32H7xx_HAL_Driver/Src/stm32h7xx_hal.c ****   */
 976:../../Drivers/STM32H7xx_HAL_Driver/Src/stm32h7xx_hal.c **** void HAL_DisableDomain2DBGSleepMode(void)
 977:../../Drivers/STM32H7xx_HAL_Driver/Src/stm32h7xx_hal.c **** {
 1719              		.loc 1 977 1 is_stmt 1 view -0
 1720              		.cfi_startproc
 1721              		@ args = 0, pretend = 0, frame = 0
 1722              		@ frame_needed = 0, uses_anonymous_args = 0
 1723              		@ link register save eliminated.
 978:../../Drivers/STM32H7xx_HAL_Driver/Src/stm32h7xx_hal.c ****   CLEAR_BIT(DBGMCU->CR, DBGMCU_CR_DBG_SLEEPD2);
 1724              		.loc 1 978 3 view .LVU291
 1725 0000 024A     		ldr	r2, .L167
 1726 0002 5368     		ldr	r3, [r2, #4]
 1727 0004 23F00803 		bic	r3, r3, #8
 1728 0008 5360     		str	r3, [r2, #4]
 979:../../Drivers/STM32H7xx_HAL_Driver/Src/stm32h7xx_hal.c **** }
 1729              		.loc 1 979 1 is_stmt 0 view .LVU292
 1730 000a 7047     		bx	lr
 1731              	.L168:
 1732              		.align	2
 1733              	.L167:
 1734 000c 0010005C 		.word	1543507968
 1735              		.cfi_endproc
 1736              	.LFE179:
 1738              		.section	.text.HAL_EnableDomain2DBGStopMode,"ax",%progbits
 1739              		.align	1
 1740              		.global	HAL_EnableDomain2DBGStopMode
 1741              		.syntax unified
 1742              		.thumb
 1743              		.thumb_func
 1745              	HAL_EnableDomain2DBGStopMode:
 1746              	.LFB180:
 980:../../Drivers/STM32H7xx_HAL_Driver/Src/stm32h7xx_hal.c **** 
 981:../../Drivers/STM32H7xx_HAL_Driver/Src/stm32h7xx_hal.c **** /**
 982:../../Drivers/STM32H7xx_HAL_Driver/Src/stm32h7xx_hal.c ****   * @brief  Enable the Debug Module during Domain2 STOP mode
 983:../../Drivers/STM32H7xx_HAL_Driver/Src/stm32h7xx_hal.c ****   * @retval None
 984:../../Drivers/STM32H7xx_HAL_Driver/Src/stm32h7xx_hal.c ****   */
 985:../../Drivers/STM32H7xx_HAL_Driver/Src/stm32h7xx_hal.c **** void HAL_EnableDomain2DBGStopMode(void)
 986:../../Drivers/STM32H7xx_HAL_Driver/Src/stm32h7xx_hal.c **** {
 1747              		.loc 1 986 1 is_stmt 1 view -0
 1748              		.cfi_startproc
 1749              		@ args = 0, pretend = 0, frame = 0
 1750              		@ frame_needed = 0, uses_anonymous_args = 0
 1751              		@ link register save eliminated.
 987:../../Drivers/STM32H7xx_HAL_Driver/Src/stm32h7xx_hal.c ****   SET_BIT(DBGMCU->CR, DBGMCU_CR_DBG_STOPD2);
 1752              		.loc 1 987 3 view .LVU294
 1753 0000 024A     		ldr	r2, .L170
 1754 0002 5368     		ldr	r3, [r2, #4]
 1755 0004 43F01003 		orr	r3, r3, #16
 1756 0008 5360     		str	r3, [r2, #4]
 988:../../Drivers/STM32H7xx_HAL_Driver/Src/stm32h7xx_hal.c **** }
 1757              		.loc 1 988 1 is_stmt 0 view .LVU295
 1758 000a 7047     		bx	lr
ARM GAS  C:\Users\gigig\AppData\Local\Temp\cc64rzRb.s 			page 49


 1759              	.L171:
 1760              		.align	2
 1761              	.L170:
 1762 000c 0010005C 		.word	1543507968
 1763              		.cfi_endproc
 1764              	.LFE180:
 1766              		.section	.text.HAL_DisableDomain2DBGStopMode,"ax",%progbits
 1767              		.align	1
 1768              		.global	HAL_DisableDomain2DBGStopMode
 1769              		.syntax unified
 1770              		.thumb
 1771              		.thumb_func
 1773              	HAL_DisableDomain2DBGStopMode:
 1774              	.LFB181:
 989:../../Drivers/STM32H7xx_HAL_Driver/Src/stm32h7xx_hal.c **** 
 990:../../Drivers/STM32H7xx_HAL_Driver/Src/stm32h7xx_hal.c **** /**
 991:../../Drivers/STM32H7xx_HAL_Driver/Src/stm32h7xx_hal.c ****   * @brief  Disable the Debug Module during Domain2 STOP mode
 992:../../Drivers/STM32H7xx_HAL_Driver/Src/stm32h7xx_hal.c ****   * @retval None
 993:../../Drivers/STM32H7xx_HAL_Driver/Src/stm32h7xx_hal.c ****   */
 994:../../Drivers/STM32H7xx_HAL_Driver/Src/stm32h7xx_hal.c **** void HAL_DisableDomain2DBGStopMode(void)
 995:../../Drivers/STM32H7xx_HAL_Driver/Src/stm32h7xx_hal.c **** {
 1775              		.loc 1 995 1 is_stmt 1 view -0
 1776              		.cfi_startproc
 1777              		@ args = 0, pretend = 0, frame = 0
 1778              		@ frame_needed = 0, uses_anonymous_args = 0
 1779              		@ link register save eliminated.
 996:../../Drivers/STM32H7xx_HAL_Driver/Src/stm32h7xx_hal.c ****   CLEAR_BIT(DBGMCU->CR, DBGMCU_CR_DBG_STOPD2);
 1780              		.loc 1 996 3 view .LVU297
 1781 0000 024A     		ldr	r2, .L173
 1782 0002 5368     		ldr	r3, [r2, #4]
 1783 0004 23F01003 		bic	r3, r3, #16
 1784 0008 5360     		str	r3, [r2, #4]
 997:../../Drivers/STM32H7xx_HAL_Driver/Src/stm32h7xx_hal.c **** }
 1785              		.loc 1 997 1 is_stmt 0 view .LVU298
 1786 000a 7047     		bx	lr
 1787              	.L174:
 1788              		.align	2
 1789              	.L173:
 1790 000c 0010005C 		.word	1543507968
 1791              		.cfi_endproc
 1792              	.LFE181:
 1794              		.section	.text.HAL_EnableDomain2DBGStandbyMode,"ax",%progbits
 1795              		.align	1
 1796              		.global	HAL_EnableDomain2DBGStandbyMode
 1797              		.syntax unified
 1798              		.thumb
 1799              		.thumb_func
 1801              	HAL_EnableDomain2DBGStandbyMode:
 1802              	.LFB182:
 998:../../Drivers/STM32H7xx_HAL_Driver/Src/stm32h7xx_hal.c **** 
 999:../../Drivers/STM32H7xx_HAL_Driver/Src/stm32h7xx_hal.c **** /**
1000:../../Drivers/STM32H7xx_HAL_Driver/Src/stm32h7xx_hal.c ****   * @brief  Enable the Debug Module during Domain2 STANDBY mode
1001:../../Drivers/STM32H7xx_HAL_Driver/Src/stm32h7xx_hal.c ****   * @retval None
1002:../../Drivers/STM32H7xx_HAL_Driver/Src/stm32h7xx_hal.c ****   */
1003:../../Drivers/STM32H7xx_HAL_Driver/Src/stm32h7xx_hal.c **** void HAL_EnableDomain2DBGStandbyMode(void)
1004:../../Drivers/STM32H7xx_HAL_Driver/Src/stm32h7xx_hal.c **** {
 1803              		.loc 1 1004 1 is_stmt 1 view -0
ARM GAS  C:\Users\gigig\AppData\Local\Temp\cc64rzRb.s 			page 50


 1804              		.cfi_startproc
 1805              		@ args = 0, pretend = 0, frame = 0
 1806              		@ frame_needed = 0, uses_anonymous_args = 0
 1807              		@ link register save eliminated.
1005:../../Drivers/STM32H7xx_HAL_Driver/Src/stm32h7xx_hal.c ****   SET_BIT(DBGMCU->CR, DBGMCU_CR_DBG_STANDBYD2);
 1808              		.loc 1 1005 3 view .LVU300
 1809 0000 024A     		ldr	r2, .L176
 1810 0002 5368     		ldr	r3, [r2, #4]
 1811 0004 43F02003 		orr	r3, r3, #32
 1812 0008 5360     		str	r3, [r2, #4]
1006:../../Drivers/STM32H7xx_HAL_Driver/Src/stm32h7xx_hal.c **** }
 1813              		.loc 1 1006 1 is_stmt 0 view .LVU301
 1814 000a 7047     		bx	lr
 1815              	.L177:
 1816              		.align	2
 1817              	.L176:
 1818 000c 0010005C 		.word	1543507968
 1819              		.cfi_endproc
 1820              	.LFE182:
 1822              		.section	.text.HAL_DisableDomain2DBGStandbyMode,"ax",%progbits
 1823              		.align	1
 1824              		.global	HAL_DisableDomain2DBGStandbyMode
 1825              		.syntax unified
 1826              		.thumb
 1827              		.thumb_func
 1829              	HAL_DisableDomain2DBGStandbyMode:
 1830              	.LFB183:
1007:../../Drivers/STM32H7xx_HAL_Driver/Src/stm32h7xx_hal.c **** 
1008:../../Drivers/STM32H7xx_HAL_Driver/Src/stm32h7xx_hal.c **** /**
1009:../../Drivers/STM32H7xx_HAL_Driver/Src/stm32h7xx_hal.c ****   * @brief  Disable the Debug Module during Domain2 STANDBY mode
1010:../../Drivers/STM32H7xx_HAL_Driver/Src/stm32h7xx_hal.c ****   * @retval None
1011:../../Drivers/STM32H7xx_HAL_Driver/Src/stm32h7xx_hal.c ****   */
1012:../../Drivers/STM32H7xx_HAL_Driver/Src/stm32h7xx_hal.c **** void HAL_DisableDomain2DBGStandbyMode(void)
1013:../../Drivers/STM32H7xx_HAL_Driver/Src/stm32h7xx_hal.c **** {
 1831              		.loc 1 1013 1 is_stmt 1 view -0
 1832              		.cfi_startproc
 1833              		@ args = 0, pretend = 0, frame = 0
 1834              		@ frame_needed = 0, uses_anonymous_args = 0
 1835              		@ link register save eliminated.
1014:../../Drivers/STM32H7xx_HAL_Driver/Src/stm32h7xx_hal.c ****   CLEAR_BIT(DBGMCU->CR, DBGMCU_CR_DBG_STANDBYD2);
 1836              		.loc 1 1014 3 view .LVU303
 1837 0000 024A     		ldr	r2, .L179
 1838 0002 5368     		ldr	r3, [r2, #4]
 1839 0004 23F02003 		bic	r3, r3, #32
 1840 0008 5360     		str	r3, [r2, #4]
1015:../../Drivers/STM32H7xx_HAL_Driver/Src/stm32h7xx_hal.c **** }
 1841              		.loc 1 1015 1 is_stmt 0 view .LVU304
 1842 000a 7047     		bx	lr
 1843              	.L180:
 1844              		.align	2
 1845              	.L179:
 1846 000c 0010005C 		.word	1543507968
 1847              		.cfi_endproc
 1848              	.LFE183:
 1850              		.section	.text.HAL_SetFMCMemorySwappingConfig,"ax",%progbits
 1851              		.align	1
 1852              		.global	HAL_SetFMCMemorySwappingConfig
ARM GAS  C:\Users\gigig\AppData\Local\Temp\cc64rzRb.s 			page 51


 1853              		.syntax unified
 1854              		.thumb
 1855              		.thumb_func
 1857              	HAL_SetFMCMemorySwappingConfig:
 1858              	.LVL46:
 1859              	.LFB184:
1016:../../Drivers/STM32H7xx_HAL_Driver/Src/stm32h7xx_hal.c **** #endif /*DUAL_CORE*/
1017:../../Drivers/STM32H7xx_HAL_Driver/Src/stm32h7xx_hal.c **** 
1018:../../Drivers/STM32H7xx_HAL_Driver/Src/stm32h7xx_hal.c **** #if defined(DBGMCU_CR_DBG_STOPD3)
1019:../../Drivers/STM32H7xx_HAL_Driver/Src/stm32h7xx_hal.c **** /**
1020:../../Drivers/STM32H7xx_HAL_Driver/Src/stm32h7xx_hal.c ****   * @brief  Enable the Debug Module during Domain3/SRDomain STOP mode
1021:../../Drivers/STM32H7xx_HAL_Driver/Src/stm32h7xx_hal.c ****   * @retval None
1022:../../Drivers/STM32H7xx_HAL_Driver/Src/stm32h7xx_hal.c ****   */
1023:../../Drivers/STM32H7xx_HAL_Driver/Src/stm32h7xx_hal.c **** void HAL_EnableDomain3DBGStopMode(void)
1024:../../Drivers/STM32H7xx_HAL_Driver/Src/stm32h7xx_hal.c **** {
1025:../../Drivers/STM32H7xx_HAL_Driver/Src/stm32h7xx_hal.c ****   SET_BIT(DBGMCU->CR, DBGMCU_CR_DBG_STOPD3);
1026:../../Drivers/STM32H7xx_HAL_Driver/Src/stm32h7xx_hal.c **** }
1027:../../Drivers/STM32H7xx_HAL_Driver/Src/stm32h7xx_hal.c **** 
1028:../../Drivers/STM32H7xx_HAL_Driver/Src/stm32h7xx_hal.c **** /**
1029:../../Drivers/STM32H7xx_HAL_Driver/Src/stm32h7xx_hal.c ****   * @brief  Disable the Debug Module during Domain3/SRDomain STOP mode
1030:../../Drivers/STM32H7xx_HAL_Driver/Src/stm32h7xx_hal.c ****   * @retval None
1031:../../Drivers/STM32H7xx_HAL_Driver/Src/stm32h7xx_hal.c ****   */
1032:../../Drivers/STM32H7xx_HAL_Driver/Src/stm32h7xx_hal.c **** void HAL_DisableDomain3DBGStopMode(void)
1033:../../Drivers/STM32H7xx_HAL_Driver/Src/stm32h7xx_hal.c **** {
1034:../../Drivers/STM32H7xx_HAL_Driver/Src/stm32h7xx_hal.c ****   CLEAR_BIT(DBGMCU->CR, DBGMCU_CR_DBG_STOPD3);
1035:../../Drivers/STM32H7xx_HAL_Driver/Src/stm32h7xx_hal.c **** }
1036:../../Drivers/STM32H7xx_HAL_Driver/Src/stm32h7xx_hal.c **** #endif /*DBGMCU_CR_DBG_STOPD3*/
1037:../../Drivers/STM32H7xx_HAL_Driver/Src/stm32h7xx_hal.c **** 
1038:../../Drivers/STM32H7xx_HAL_Driver/Src/stm32h7xx_hal.c **** #if defined(DBGMCU_CR_DBG_STANDBYD3)
1039:../../Drivers/STM32H7xx_HAL_Driver/Src/stm32h7xx_hal.c **** /**
1040:../../Drivers/STM32H7xx_HAL_Driver/Src/stm32h7xx_hal.c ****   * @brief  Enable the Debug Module during Domain3/SRDomain STANDBY mode
1041:../../Drivers/STM32H7xx_HAL_Driver/Src/stm32h7xx_hal.c ****   * @retval None
1042:../../Drivers/STM32H7xx_HAL_Driver/Src/stm32h7xx_hal.c ****   */
1043:../../Drivers/STM32H7xx_HAL_Driver/Src/stm32h7xx_hal.c **** void HAL_EnableDomain3DBGStandbyMode(void)
1044:../../Drivers/STM32H7xx_HAL_Driver/Src/stm32h7xx_hal.c **** {
1045:../../Drivers/STM32H7xx_HAL_Driver/Src/stm32h7xx_hal.c ****   SET_BIT(DBGMCU->CR, DBGMCU_CR_DBG_STANDBYD3);
1046:../../Drivers/STM32H7xx_HAL_Driver/Src/stm32h7xx_hal.c **** }
1047:../../Drivers/STM32H7xx_HAL_Driver/Src/stm32h7xx_hal.c **** 
1048:../../Drivers/STM32H7xx_HAL_Driver/Src/stm32h7xx_hal.c **** /**
1049:../../Drivers/STM32H7xx_HAL_Driver/Src/stm32h7xx_hal.c ****   * @brief  Disable the Debug Module during Domain3/SRDomain STANDBY mode
1050:../../Drivers/STM32H7xx_HAL_Driver/Src/stm32h7xx_hal.c ****   * @retval None
1051:../../Drivers/STM32H7xx_HAL_Driver/Src/stm32h7xx_hal.c ****   */
1052:../../Drivers/STM32H7xx_HAL_Driver/Src/stm32h7xx_hal.c **** void HAL_DisableDomain3DBGStandbyMode(void)
1053:../../Drivers/STM32H7xx_HAL_Driver/Src/stm32h7xx_hal.c **** {
1054:../../Drivers/STM32H7xx_HAL_Driver/Src/stm32h7xx_hal.c ****   CLEAR_BIT(DBGMCU->CR, DBGMCU_CR_DBG_STANDBYD3);
1055:../../Drivers/STM32H7xx_HAL_Driver/Src/stm32h7xx_hal.c **** }
1056:../../Drivers/STM32H7xx_HAL_Driver/Src/stm32h7xx_hal.c **** #endif /*DBGMCU_CR_DBG_STANDBYD3*/
1057:../../Drivers/STM32H7xx_HAL_Driver/Src/stm32h7xx_hal.c **** 
1058:../../Drivers/STM32H7xx_HAL_Driver/Src/stm32h7xx_hal.c **** /**
1059:../../Drivers/STM32H7xx_HAL_Driver/Src/stm32h7xx_hal.c ****   * @brief  Set the FMC Memory Mapping Swapping config.
1060:../../Drivers/STM32H7xx_HAL_Driver/Src/stm32h7xx_hal.c ****   * @param  BankMapConfig: Defines the FMC Bank mapping configuration. This parameter can be
1061:../../Drivers/STM32H7xx_HAL_Driver/Src/stm32h7xx_hal.c ****             FMC_SWAPBMAP_DISABLE, FMC_SWAPBMAP_SDRAM_SRAM, FMC_SWAPBMAP_SDRAMB2
1062:../../Drivers/STM32H7xx_HAL_Driver/Src/stm32h7xx_hal.c ****   * @retval HAL state
1063:../../Drivers/STM32H7xx_HAL_Driver/Src/stm32h7xx_hal.c ****   */
1064:../../Drivers/STM32H7xx_HAL_Driver/Src/stm32h7xx_hal.c **** void HAL_SetFMCMemorySwappingConfig(uint32_t BankMapConfig)
1065:../../Drivers/STM32H7xx_HAL_Driver/Src/stm32h7xx_hal.c **** {
 1860              		.loc 1 1065 1 is_stmt 1 view -0
ARM GAS  C:\Users\gigig\AppData\Local\Temp\cc64rzRb.s 			page 52


 1861              		.cfi_startproc
 1862              		@ args = 0, pretend = 0, frame = 0
 1863              		@ frame_needed = 0, uses_anonymous_args = 0
 1864              		@ link register save eliminated.
1066:../../Drivers/STM32H7xx_HAL_Driver/Src/stm32h7xx_hal.c ****   /* Check the parameter */
1067:../../Drivers/STM32H7xx_HAL_Driver/Src/stm32h7xx_hal.c ****   assert_param(IS_FMC_SWAPBMAP_MODE(BankMapConfig));
 1865              		.loc 1 1067 3 view .LVU306
1068:../../Drivers/STM32H7xx_HAL_Driver/Src/stm32h7xx_hal.c ****   MODIFY_REG(FMC_Bank1_R->BTCR[0], FMC_BCR1_BMAP, BankMapConfig);
 1866              		.loc 1 1068 3 view .LVU307
 1867 0000 034A     		ldr	r2, .L182
 1868 0002 1368     		ldr	r3, [r2]
 1869 0004 23F04073 		bic	r3, r3, #50331648
 1870 0008 0343     		orrs	r3, r3, r0
 1871 000a 1360     		str	r3, [r2]
1069:../../Drivers/STM32H7xx_HAL_Driver/Src/stm32h7xx_hal.c **** }
 1872              		.loc 1 1069 1 is_stmt 0 view .LVU308
 1873 000c 7047     		bx	lr
 1874              	.L183:
 1875 000e 00BF     		.align	2
 1876              	.L182:
 1877 0010 00400052 		.word	1375748096
 1878              		.cfi_endproc
 1879              	.LFE184:
 1881              		.section	.text.HAL_GetFMCMemorySwappingConfig,"ax",%progbits
 1882              		.align	1
 1883              		.global	HAL_GetFMCMemorySwappingConfig
 1884              		.syntax unified
 1885              		.thumb
 1886              		.thumb_func
 1888              	HAL_GetFMCMemorySwappingConfig:
 1889              	.LFB185:
1070:../../Drivers/STM32H7xx_HAL_Driver/Src/stm32h7xx_hal.c **** 
1071:../../Drivers/STM32H7xx_HAL_Driver/Src/stm32h7xx_hal.c **** /**
1072:../../Drivers/STM32H7xx_HAL_Driver/Src/stm32h7xx_hal.c ****   * @brief  Get FMC Bank mapping mode.
1073:../../Drivers/STM32H7xx_HAL_Driver/Src/stm32h7xx_hal.c ****   * @retval The FMC Bank mapping mode. This parameter can be
1074:../../Drivers/STM32H7xx_HAL_Driver/Src/stm32h7xx_hal.c ****             FMC_SWAPBMAP_DISABLE, FMC_SWAPBMAP_SDRAM_SRAM, FMC_SWAPBMAP_SDRAMB2
1075:../../Drivers/STM32H7xx_HAL_Driver/Src/stm32h7xx_hal.c **** */
1076:../../Drivers/STM32H7xx_HAL_Driver/Src/stm32h7xx_hal.c **** uint32_t HAL_GetFMCMemorySwappingConfig(void)
1077:../../Drivers/STM32H7xx_HAL_Driver/Src/stm32h7xx_hal.c **** {
 1890              		.loc 1 1077 1 is_stmt 1 view -0
 1891              		.cfi_startproc
 1892              		@ args = 0, pretend = 0, frame = 0
 1893              		@ frame_needed = 0, uses_anonymous_args = 0
 1894              		@ link register save eliminated.
1078:../../Drivers/STM32H7xx_HAL_Driver/Src/stm32h7xx_hal.c ****   return READ_BIT(FMC_Bank1_R->BTCR[0], FMC_BCR1_BMAP);
 1895              		.loc 1 1078 3 view .LVU310
 1896              		.loc 1 1078 10 is_stmt 0 view .LVU311
 1897 0000 024B     		ldr	r3, .L185
 1898 0002 1868     		ldr	r0, [r3]
1079:../../Drivers/STM32H7xx_HAL_Driver/Src/stm32h7xx_hal.c **** }
 1899              		.loc 1 1079 1 view .LVU312
 1900 0004 00F04070 		and	r0, r0, #50331648
 1901 0008 7047     		bx	lr
 1902              	.L186:
 1903 000a 00BF     		.align	2
 1904              	.L185:
 1905 000c 00400052 		.word	1375748096
ARM GAS  C:\Users\gigig\AppData\Local\Temp\cc64rzRb.s 			page 53


 1906              		.cfi_endproc
 1907              	.LFE185:
 1909              		.section	.text.HAL_EXTI_EdgeConfig,"ax",%progbits
 1910              		.align	1
 1911              		.global	HAL_EXTI_EdgeConfig
 1912              		.syntax unified
 1913              		.thumb
 1914              		.thumb_func
 1916              	HAL_EXTI_EdgeConfig:
 1917              	.LVL47:
 1918              	.LFB186:
1080:../../Drivers/STM32H7xx_HAL_Driver/Src/stm32h7xx_hal.c **** 
1081:../../Drivers/STM32H7xx_HAL_Driver/Src/stm32h7xx_hal.c **** /**
1082:../../Drivers/STM32H7xx_HAL_Driver/Src/stm32h7xx_hal.c ****   * @brief  Configure the EXTI input event line edge
1083:../../Drivers/STM32H7xx_HAL_Driver/Src/stm32h7xx_hal.c ****   * @note    No edge configuration for direct lines but for configurable lines:(EXTI_LINE0..EXTI_LI
1084:../../Drivers/STM32H7xx_HAL_Driver/Src/stm32h7xx_hal.c ****   *          EXTI_LINE49,EXTI_LINE51,EXTI_LINE82,EXTI_LINE84,EXTI_LINE85 and EXTI_LINE86.
1085:../../Drivers/STM32H7xx_HAL_Driver/Src/stm32h7xx_hal.c ****   * @param   EXTI_Line: Specifies the EXTI LINE, it can be one of the following values,
1086:../../Drivers/STM32H7xx_HAL_Driver/Src/stm32h7xx_hal.c ****   *         (EXTI_LINE0....EXTI_LINE87)excluding :line45, line81,line83 which are reserved
1087:../../Drivers/STM32H7xx_HAL_Driver/Src/stm32h7xx_hal.c ****   * @param   EXTI_Edge: Specifies  EXTI line Edge used.
1088:../../Drivers/STM32H7xx_HAL_Driver/Src/stm32h7xx_hal.c ****   *          This parameter can be one of the following values :
1089:../../Drivers/STM32H7xx_HAL_Driver/Src/stm32h7xx_hal.c ****   *   @arg EXTI_RISING_EDGE : Configurable line, with Rising edge trigger detection
1090:../../Drivers/STM32H7xx_HAL_Driver/Src/stm32h7xx_hal.c ****   *   @arg EXTI_FALLING_EDGE: Configurable line, with Falling edge trigger detection
1091:../../Drivers/STM32H7xx_HAL_Driver/Src/stm32h7xx_hal.c ****   * @retval None
1092:../../Drivers/STM32H7xx_HAL_Driver/Src/stm32h7xx_hal.c ****   */
1093:../../Drivers/STM32H7xx_HAL_Driver/Src/stm32h7xx_hal.c **** void HAL_EXTI_EdgeConfig(uint32_t EXTI_Line , uint32_t EXTI_Edge )
1094:../../Drivers/STM32H7xx_HAL_Driver/Src/stm32h7xx_hal.c **** {
 1919              		.loc 1 1094 1 is_stmt 1 view -0
 1920              		.cfi_startproc
 1921              		@ args = 0, pretend = 0, frame = 0
 1922              		@ frame_needed = 0, uses_anonymous_args = 0
 1923              		@ link register save eliminated.
 1924              		.loc 1 1094 1 is_stmt 0 view .LVU314
 1925 0000 30B4     		push	{r4, r5}
 1926              	.LCFI9:
 1927              		.cfi_def_cfa_offset 8
 1928              		.cfi_offset 4, -8
 1929              		.cfi_offset 5, -4
1095:../../Drivers/STM32H7xx_HAL_Driver/Src/stm32h7xx_hal.c ****   /* Check the parameter */
1096:../../Drivers/STM32H7xx_HAL_Driver/Src/stm32h7xx_hal.c ****   assert_param(IS_HAL_EXTI_CONFIG_LINE(EXTI_Line));
 1930              		.loc 1 1096 3 is_stmt 1 view .LVU315
1097:../../Drivers/STM32H7xx_HAL_Driver/Src/stm32h7xx_hal.c ****   assert_param(IS_EXTI_EDGE_LINE(EXTI_Edge));
 1931              		.loc 1 1097 3 view .LVU316
1098:../../Drivers/STM32H7xx_HAL_Driver/Src/stm32h7xx_hal.c **** 
1099:../../Drivers/STM32H7xx_HAL_Driver/Src/stm32h7xx_hal.c ****   /* Clear Rising Falling edge configuration */
1100:../../Drivers/STM32H7xx_HAL_Driver/Src/stm32h7xx_hal.c ****   CLEAR_BIT(*(__IO uint32_t *) (((uint32_t) &(EXTI->FTSR1)) + ((EXTI_Line >> 5 ) * 0x20UL)), (uint3
 1932              		.loc 1 1100 3 view .LVU317
 1933 0002 4309     		lsrs	r3, r0, #5
 1934 0004 20F01F0C 		bic	ip, r0, #31
 1935 0008 104C     		ldr	r4, .L191
 1936 000a 5CF80450 		ldr	r5, [ip, r4]
 1937 000e 00F01F00 		and	r0, r0, #31
 1938              	.LVL48:
 1939              		.loc 1 1100 3 is_stmt 0 view .LVU318
 1940 0012 0122     		movs	r2, #1
 1941 0014 8240     		lsls	r2, r2, r0
 1942 0016 25EA0205 		bic	r5, r5, r2
 1943 001a 4CF80450 		str	r5, [ip, r4]
ARM GAS  C:\Users\gigig\AppData\Local\Temp\cc64rzRb.s 			page 54


1101:../../Drivers/STM32H7xx_HAL_Driver/Src/stm32h7xx_hal.c ****   CLEAR_BIT( *(__IO uint32_t *) (((uint32_t) &(EXTI->RTSR1)) + ((EXTI_Line >> 5 ) * 0x20UL)), (uint
 1944              		.loc 1 1101 3 is_stmt 1 view .LVU319
 1945 001e 03F13073 		add	r3, r3, #46137344
 1946 0022 5B01     		lsls	r3, r3, #5
 1947 0024 1868     		ldr	r0, [r3]
 1948 0026 20EA0200 		bic	r0, r0, r2
 1949 002a 1860     		str	r0, [r3]
1102:../../Drivers/STM32H7xx_HAL_Driver/Src/stm32h7xx_hal.c **** 
1103:../../Drivers/STM32H7xx_HAL_Driver/Src/stm32h7xx_hal.c ****   if( (EXTI_Edge & EXTI_RISING_EDGE) == EXTI_RISING_EDGE)
 1950              		.loc 1 1103 3 view .LVU320
 1951              		.loc 1 1103 5 is_stmt 0 view .LVU321
 1952 002c 11F4801F 		tst	r1, #1048576
 1953 0030 02D0     		beq	.L188
1104:../../Drivers/STM32H7xx_HAL_Driver/Src/stm32h7xx_hal.c ****   {
1105:../../Drivers/STM32H7xx_HAL_Driver/Src/stm32h7xx_hal.c ****    SET_BIT( *(__IO uint32_t *) (((uint32_t) &(EXTI->RTSR1)) + ((EXTI_Line >> 5 ) * 0x20UL)), (uint3
 1954              		.loc 1 1105 4 is_stmt 1 view .LVU322
 1955 0032 1868     		ldr	r0, [r3]
 1956 0034 1043     		orrs	r0, r0, r2
 1957 0036 1860     		str	r0, [r3]
 1958              	.L188:
1106:../../Drivers/STM32H7xx_HAL_Driver/Src/stm32h7xx_hal.c ****   }
1107:../../Drivers/STM32H7xx_HAL_Driver/Src/stm32h7xx_hal.c ****   if( (EXTI_Edge & EXTI_FALLING_EDGE) == EXTI_FALLING_EDGE)
 1959              		.loc 1 1107 3 view .LVU323
 1960              		.loc 1 1107 5 is_stmt 0 view .LVU324
 1961 0038 11F4001F 		tst	r1, #2097152
 1962 003c 04D0     		beq	.L187
1108:../../Drivers/STM32H7xx_HAL_Driver/Src/stm32h7xx_hal.c ****   {
1109:../../Drivers/STM32H7xx_HAL_Driver/Src/stm32h7xx_hal.c ****    SET_BIT(*(__IO uint32_t *) (((uint32_t) &(EXTI->FTSR1)) + ((EXTI_Line >> 5 ) * 0x20UL)), (uint32
 1963              		.loc 1 1109 4 is_stmt 1 view .LVU325
 1964 003e 5CF80430 		ldr	r3, [ip, r4]
 1965 0042 1A43     		orrs	r2, r2, r3
 1966 0044 4CF80420 		str	r2, [ip, r4]
 1967              	.L187:
1110:../../Drivers/STM32H7xx_HAL_Driver/Src/stm32h7xx_hal.c ****   }
1111:../../Drivers/STM32H7xx_HAL_Driver/Src/stm32h7xx_hal.c **** }
 1968              		.loc 1 1111 1 is_stmt 0 view .LVU326
 1969 0048 30BC     		pop	{r4, r5}
 1970              	.LCFI10:
 1971              		.cfi_restore 5
 1972              		.cfi_restore 4
 1973              		.cfi_def_cfa_offset 0
 1974 004a 7047     		bx	lr
 1975              	.L192:
 1976              		.align	2
 1977              	.L191:
 1978 004c 04000058 		.word	1476395012
 1979              		.cfi_endproc
 1980              	.LFE186:
 1982              		.section	.text.HAL_EXTI_GenerateSWInterrupt,"ax",%progbits
 1983              		.align	1
 1984              		.global	HAL_EXTI_GenerateSWInterrupt
 1985              		.syntax unified
 1986              		.thumb
 1987              		.thumb_func
 1989              	HAL_EXTI_GenerateSWInterrupt:
 1990              	.LVL49:
 1991              	.LFB187:
ARM GAS  C:\Users\gigig\AppData\Local\Temp\cc64rzRb.s 			page 55


1112:../../Drivers/STM32H7xx_HAL_Driver/Src/stm32h7xx_hal.c **** 
1113:../../Drivers/STM32H7xx_HAL_Driver/Src/stm32h7xx_hal.c **** /**
1114:../../Drivers/STM32H7xx_HAL_Driver/Src/stm32h7xx_hal.c ****   * @brief  Generates a Software interrupt on selected EXTI line.
1115:../../Drivers/STM32H7xx_HAL_Driver/Src/stm32h7xx_hal.c ****   * @param   EXTI_Line: Specifies the EXTI LINE, it can be one of the following values,
1116:../../Drivers/STM32H7xx_HAL_Driver/Src/stm32h7xx_hal.c ****   *          (EXTI_LINE0..EXTI_LINE21),EXTI_LINE49,EXTI_LINE51,EXTI_LINE82,EXTI_LINE84,EXTI_LINE85 
1117:../../Drivers/STM32H7xx_HAL_Driver/Src/stm32h7xx_hal.c ****   * @retval None
1118:../../Drivers/STM32H7xx_HAL_Driver/Src/stm32h7xx_hal.c ****   */
1119:../../Drivers/STM32H7xx_HAL_Driver/Src/stm32h7xx_hal.c **** void HAL_EXTI_GenerateSWInterrupt(uint32_t EXTI_Line)
1120:../../Drivers/STM32H7xx_HAL_Driver/Src/stm32h7xx_hal.c **** {
 1992              		.loc 1 1120 1 is_stmt 1 view -0
 1993              		.cfi_startproc
 1994              		@ args = 0, pretend = 0, frame = 0
 1995              		@ frame_needed = 0, uses_anonymous_args = 0
 1996              		@ link register save eliminated.
1121:../../Drivers/STM32H7xx_HAL_Driver/Src/stm32h7xx_hal.c ****   /* Check the parameters */
1122:../../Drivers/STM32H7xx_HAL_Driver/Src/stm32h7xx_hal.c ****   assert_param(IS_HAL_EXTI_CONFIG_LINE(EXTI_Line));
 1997              		.loc 1 1122 3 view .LVU328
1123:../../Drivers/STM32H7xx_HAL_Driver/Src/stm32h7xx_hal.c **** 
1124:../../Drivers/STM32H7xx_HAL_Driver/Src/stm32h7xx_hal.c ****   SET_BIT(*(__IO uint32_t *) (((uint32_t) &(EXTI->SWIER1)) + ((EXTI_Line >> 5 ) * 0x20UL)), (uint32
 1998              		.loc 1 1124 3 view .LVU329
 1999 0000 20F01F0C 		bic	ip, r0, #31
 2000 0004 0549     		ldr	r1, .L194
 2001 0006 5CF80130 		ldr	r3, [ip, r1]
 2002 000a 00F01F00 		and	r0, r0, #31
 2003              	.LVL50:
 2004              		.loc 1 1124 3 is_stmt 0 view .LVU330
 2005 000e 0122     		movs	r2, #1
 2006 0010 8240     		lsls	r2, r2, r0
 2007 0012 1343     		orrs	r3, r3, r2
 2008 0014 4CF80130 		str	r3, [ip, r1]
1125:../../Drivers/STM32H7xx_HAL_Driver/Src/stm32h7xx_hal.c **** }
 2009              		.loc 1 1125 1 view .LVU331
 2010 0018 7047     		bx	lr
 2011              	.L195:
 2012 001a 00BF     		.align	2
 2013              	.L194:
 2014 001c 08000058 		.word	1476395016
 2015              		.cfi_endproc
 2016              	.LFE187:
 2018              		.section	.text.HAL_EXTI_D1_ClearFlag,"ax",%progbits
 2019              		.align	1
 2020              		.global	HAL_EXTI_D1_ClearFlag
 2021              		.syntax unified
 2022              		.thumb
 2023              		.thumb_func
 2025              	HAL_EXTI_D1_ClearFlag:
 2026              	.LVL51:
 2027              	.LFB188:
1126:../../Drivers/STM32H7xx_HAL_Driver/Src/stm32h7xx_hal.c **** 
1127:../../Drivers/STM32H7xx_HAL_Driver/Src/stm32h7xx_hal.c **** 
1128:../../Drivers/STM32H7xx_HAL_Driver/Src/stm32h7xx_hal.c **** /**
1129:../../Drivers/STM32H7xx_HAL_Driver/Src/stm32h7xx_hal.c ****   * @brief  Clears the EXTI's line pending flags for Domain D1
1130:../../Drivers/STM32H7xx_HAL_Driver/Src/stm32h7xx_hal.c ****   * @param   EXTI_Line: Specifies the EXTI LINE, it can be one of the following values,
1131:../../Drivers/STM32H7xx_HAL_Driver/Src/stm32h7xx_hal.c ****   *         (EXTI_LINE0....EXTI_LINE87)excluding :line45, line81,line83 which are reserved
1132:../../Drivers/STM32H7xx_HAL_Driver/Src/stm32h7xx_hal.c ****   * @retval None
1133:../../Drivers/STM32H7xx_HAL_Driver/Src/stm32h7xx_hal.c ****   */
1134:../../Drivers/STM32H7xx_HAL_Driver/Src/stm32h7xx_hal.c **** void HAL_EXTI_D1_ClearFlag(uint32_t EXTI_Line)
ARM GAS  C:\Users\gigig\AppData\Local\Temp\cc64rzRb.s 			page 56


1135:../../Drivers/STM32H7xx_HAL_Driver/Src/stm32h7xx_hal.c **** {
 2028              		.loc 1 1135 1 is_stmt 1 view -0
 2029              		.cfi_startproc
 2030              		@ args = 0, pretend = 0, frame = 0
 2031              		@ frame_needed = 0, uses_anonymous_args = 0
 2032              		@ link register save eliminated.
1136:../../Drivers/STM32H7xx_HAL_Driver/Src/stm32h7xx_hal.c ****   /* Check the parameters */
1137:../../Drivers/STM32H7xx_HAL_Driver/Src/stm32h7xx_hal.c ****  assert_param(IS_EXTI_D1_LINE(EXTI_Line));
 2033              		.loc 1 1137 2 view .LVU333
1138:../../Drivers/STM32H7xx_HAL_Driver/Src/stm32h7xx_hal.c ****  WRITE_REG(*(__IO uint32_t *) (((uint32_t) &(EXTI_D1->PR1)) + ((EXTI_Line >> 5 ) * 0x10UL)), (uint3
 2034              		.loc 1 1138 2 view .LVU334
 2035 0000 00F01F02 		and	r2, r0, #31
 2036 0004 4009     		lsrs	r0, r0, #5
 2037              	.LVL52:
 2038              		.loc 1 1138 2 is_stmt 0 view .LVU335
 2039 0006 0001     		lsls	r0, r0, #4
 2040 0008 0123     		movs	r3, #1
 2041 000a 9340     		lsls	r3, r3, r2
 2042 000c 014A     		ldr	r2, .L197
 2043 000e 8350     		str	r3, [r0, r2]
1139:../../Drivers/STM32H7xx_HAL_Driver/Src/stm32h7xx_hal.c **** 
1140:../../Drivers/STM32H7xx_HAL_Driver/Src/stm32h7xx_hal.c **** }
 2044              		.loc 1 1140 1 view .LVU336
 2045 0010 7047     		bx	lr
 2046              	.L198:
 2047 0012 00BF     		.align	2
 2048              	.L197:
 2049 0014 88000058 		.word	1476395144
 2050              		.cfi_endproc
 2051              	.LFE188:
 2053              		.section	.text.HAL_EXTI_D2_ClearFlag,"ax",%progbits
 2054              		.align	1
 2055              		.global	HAL_EXTI_D2_ClearFlag
 2056              		.syntax unified
 2057              		.thumb
 2058              		.thumb_func
 2060              	HAL_EXTI_D2_ClearFlag:
 2061              	.LVL53:
 2062              	.LFB189:
1141:../../Drivers/STM32H7xx_HAL_Driver/Src/stm32h7xx_hal.c **** 
1142:../../Drivers/STM32H7xx_HAL_Driver/Src/stm32h7xx_hal.c **** #if defined(DUAL_CORE)
1143:../../Drivers/STM32H7xx_HAL_Driver/Src/stm32h7xx_hal.c **** /**
1144:../../Drivers/STM32H7xx_HAL_Driver/Src/stm32h7xx_hal.c ****   * @brief  Clears the EXTI's line pending flags for Domain D2
1145:../../Drivers/STM32H7xx_HAL_Driver/Src/stm32h7xx_hal.c ****   * @param   EXTI_Line: Specifies the EXTI LINE, it can be one of the following values,
1146:../../Drivers/STM32H7xx_HAL_Driver/Src/stm32h7xx_hal.c ****   *         (EXTI_LINE0....EXTI_LINE87)excluding :line45, line81,line83 which are reserved
1147:../../Drivers/STM32H7xx_HAL_Driver/Src/stm32h7xx_hal.c ****   * @retval None
1148:../../Drivers/STM32H7xx_HAL_Driver/Src/stm32h7xx_hal.c ****   */
1149:../../Drivers/STM32H7xx_HAL_Driver/Src/stm32h7xx_hal.c **** void HAL_EXTI_D2_ClearFlag(uint32_t EXTI_Line)
1150:../../Drivers/STM32H7xx_HAL_Driver/Src/stm32h7xx_hal.c **** {
 2063              		.loc 1 1150 1 is_stmt 1 view -0
 2064              		.cfi_startproc
 2065              		@ args = 0, pretend = 0, frame = 0
 2066              		@ frame_needed = 0, uses_anonymous_args = 0
 2067              		@ link register save eliminated.
1151:../../Drivers/STM32H7xx_HAL_Driver/Src/stm32h7xx_hal.c ****   /* Check the parameters */
1152:../../Drivers/STM32H7xx_HAL_Driver/Src/stm32h7xx_hal.c ****  assert_param(IS_EXTI_D2_LINE(EXTI_Line));
 2068              		.loc 1 1152 2 view .LVU338
ARM GAS  C:\Users\gigig\AppData\Local\Temp\cc64rzRb.s 			page 57


1153:../../Drivers/STM32H7xx_HAL_Driver/Src/stm32h7xx_hal.c ****  WRITE_REG(*(__IO uint32_t *) (((uint32_t) &(EXTI_D2->PR1)) + ((EXTI_Line >> 5 ) * 0x10UL)), (uint3
 2069              		.loc 1 1153 2 view .LVU339
 2070 0000 00F01F02 		and	r2, r0, #31
 2071 0004 4009     		lsrs	r0, r0, #5
 2072              	.LVL54:
 2073              		.loc 1 1153 2 is_stmt 0 view .LVU340
 2074 0006 0001     		lsls	r0, r0, #4
 2075 0008 0123     		movs	r3, #1
 2076 000a 9340     		lsls	r3, r3, r2
 2077 000c 014A     		ldr	r2, .L200
 2078 000e 8350     		str	r3, [r0, r2]
1154:../../Drivers/STM32H7xx_HAL_Driver/Src/stm32h7xx_hal.c **** }
 2079              		.loc 1 1154 1 view .LVU341
 2080 0010 7047     		bx	lr
 2081              	.L201:
 2082 0012 00BF     		.align	2
 2083              	.L200:
 2084 0014 C8000058 		.word	1476395208
 2085              		.cfi_endproc
 2086              	.LFE189:
 2088              		.section	.text.HAL_EXTI_D1_EventInputConfig,"ax",%progbits
 2089              		.align	1
 2090              		.global	HAL_EXTI_D1_EventInputConfig
 2091              		.syntax unified
 2092              		.thumb
 2093              		.thumb_func
 2095              	HAL_EXTI_D1_EventInputConfig:
 2096              	.LVL55:
 2097              	.LFB190:
1155:../../Drivers/STM32H7xx_HAL_Driver/Src/stm32h7xx_hal.c **** 
1156:../../Drivers/STM32H7xx_HAL_Driver/Src/stm32h7xx_hal.c **** #endif /*DUAL_CORE*/
1157:../../Drivers/STM32H7xx_HAL_Driver/Src/stm32h7xx_hal.c **** /**
1158:../../Drivers/STM32H7xx_HAL_Driver/Src/stm32h7xx_hal.c ****   * @brief  Configure the EXTI input event line for Domain D1
1159:../../Drivers/STM32H7xx_HAL_Driver/Src/stm32h7xx_hal.c ****   * @param   EXTI_Line: Specifies the EXTI LINE, it can be one of the following values,
1160:../../Drivers/STM32H7xx_HAL_Driver/Src/stm32h7xx_hal.c ****   *         (EXTI_LINE0....EXTI_LINE87)excluding :line45, line81,line83 which are reserved
1161:../../Drivers/STM32H7xx_HAL_Driver/Src/stm32h7xx_hal.c ****   * @param   EXTI_Mode: Specifies which EXTI line is used as interrupt or an event.
1162:../../Drivers/STM32H7xx_HAL_Driver/Src/stm32h7xx_hal.c ****   *          This parameter can be one or a combination of the following values :
1163:../../Drivers/STM32H7xx_HAL_Driver/Src/stm32h7xx_hal.c ****   *   @arg EXTI_MODE_IT :  Interrupt Mode selected
1164:../../Drivers/STM32H7xx_HAL_Driver/Src/stm32h7xx_hal.c ****   *   @arg EXTI_MODE_EVT : Event Mode selected
1165:../../Drivers/STM32H7xx_HAL_Driver/Src/stm32h7xx_hal.c ****   * @param   EXTI_LineCmd controls (Enable/Disable) the EXTI line.
1166:../../Drivers/STM32H7xx_HAL_Driver/Src/stm32h7xx_hal.c **** 
1167:../../Drivers/STM32H7xx_HAL_Driver/Src/stm32h7xx_hal.c ****   * @retval None
1168:../../Drivers/STM32H7xx_HAL_Driver/Src/stm32h7xx_hal.c ****   */
1169:../../Drivers/STM32H7xx_HAL_Driver/Src/stm32h7xx_hal.c **** void HAL_EXTI_D1_EventInputConfig(uint32_t EXTI_Line , uint32_t EXTI_Mode,  uint32_t EXTI_LineCmd )
1170:../../Drivers/STM32H7xx_HAL_Driver/Src/stm32h7xx_hal.c **** {
 2098              		.loc 1 1170 1 is_stmt 1 view -0
 2099              		.cfi_startproc
 2100              		@ args = 0, pretend = 0, frame = 0
 2101              		@ frame_needed = 0, uses_anonymous_args = 0
 2102              		.loc 1 1170 1 is_stmt 0 view .LVU343
 2103 0000 10B5     		push	{r4, lr}
 2104              	.LCFI11:
 2105              		.cfi_def_cfa_offset 8
 2106              		.cfi_offset 4, -8
 2107              		.cfi_offset 14, -4
1171:../../Drivers/STM32H7xx_HAL_Driver/Src/stm32h7xx_hal.c ****   /* Check the parameter */
1172:../../Drivers/STM32H7xx_HAL_Driver/Src/stm32h7xx_hal.c ****   assert_param(IS_EXTI_D1_LINE(EXTI_Line));
ARM GAS  C:\Users\gigig\AppData\Local\Temp\cc64rzRb.s 			page 58


 2108              		.loc 1 1172 3 is_stmt 1 view .LVU344
1173:../../Drivers/STM32H7xx_HAL_Driver/Src/stm32h7xx_hal.c ****   assert_param(IS_EXTI_MODE_LINE(EXTI_Mode));
 2109              		.loc 1 1173 3 view .LVU345
1174:../../Drivers/STM32H7xx_HAL_Driver/Src/stm32h7xx_hal.c **** 
1175:../../Drivers/STM32H7xx_HAL_Driver/Src/stm32h7xx_hal.c ****   if( (EXTI_Mode & EXTI_MODE_IT) == EXTI_MODE_IT)
 2110              		.loc 1 1175 3 view .LVU346
 2111              		.loc 1 1175 5 is_stmt 0 view .LVU347
 2112 0002 11F4803F 		tst	r1, #65536
 2113 0006 0ED0     		beq	.L203
1176:../../Drivers/STM32H7xx_HAL_Driver/Src/stm32h7xx_hal.c ****   {
1177:../../Drivers/STM32H7xx_HAL_Driver/Src/stm32h7xx_hal.c ****      if( EXTI_LineCmd == 0UL)
 2114              		.loc 1 1177 6 is_stmt 1 view .LVU348
 2115              		.loc 1 1177 8 is_stmt 0 view .LVU349
 2116 0008 EAB9     		cbnz	r2, .L204
1178:../../Drivers/STM32H7xx_HAL_Driver/Src/stm32h7xx_hal.c ****      {
1179:../../Drivers/STM32H7xx_HAL_Driver/Src/stm32h7xx_hal.c ****        /* Clear EXTI line configuration */
1180:../../Drivers/STM32H7xx_HAL_Driver/Src/stm32h7xx_hal.c ****         CLEAR_BIT(*(__IO uint32_t *) (((uint32_t) &(EXTI_D1->IMR1)) + ((EXTI_Line >> 5 ) * 0x10UL))
 2117              		.loc 1 1180 9 is_stmt 1 view .LVU350
 2118 000a 1C4B     		ldr	r3, .L208
 2119 000c 03EB5013 		add	r3, r3, r0, lsr #5
 2120 0010 1B01     		lsls	r3, r3, #4
 2121 0012 1C68     		ldr	r4, [r3]
 2122 0014 00F01F0E 		and	lr, r0, #31
 2123 0018 4FF0010C 		mov	ip, #1
 2124 001c 0CFA0EFC 		lsl	ip, ip, lr
 2125 0020 24EA0C04 		bic	r4, r4, ip
 2126 0024 1C60     		str	r4, [r3]
 2127              	.L203:
1181:../../Drivers/STM32H7xx_HAL_Driver/Src/stm32h7xx_hal.c ****      }
1182:../../Drivers/STM32H7xx_HAL_Driver/Src/stm32h7xx_hal.c ****      else
1183:../../Drivers/STM32H7xx_HAL_Driver/Src/stm32h7xx_hal.c ****      {
1184:../../Drivers/STM32H7xx_HAL_Driver/Src/stm32h7xx_hal.c ****         SET_BIT(*(__IO uint32_t *) (((uint32_t) &(EXTI_D1->IMR1)) + ((EXTI_Line >> 5 ) * 0x10UL)), 
1185:../../Drivers/STM32H7xx_HAL_Driver/Src/stm32h7xx_hal.c ****      }
1186:../../Drivers/STM32H7xx_HAL_Driver/Src/stm32h7xx_hal.c ****   }
1187:../../Drivers/STM32H7xx_HAL_Driver/Src/stm32h7xx_hal.c **** 
1188:../../Drivers/STM32H7xx_HAL_Driver/Src/stm32h7xx_hal.c ****   if( (EXTI_Mode & EXTI_MODE_EVT) == EXTI_MODE_EVT)
 2128              		.loc 1 1188 3 view .LVU351
 2129              		.loc 1 1188 5 is_stmt 0 view .LVU352
 2130 0026 11F4003F 		tst	r1, #131072
 2131 002a 0BD0     		beq	.L202
1189:../../Drivers/STM32H7xx_HAL_Driver/Src/stm32h7xx_hal.c ****   {
1190:../../Drivers/STM32H7xx_HAL_Driver/Src/stm32h7xx_hal.c ****     if( EXTI_LineCmd == 0UL)
 2132              		.loc 1 1190 5 is_stmt 1 view .LVU353
 2133              		.loc 1 1190 7 is_stmt 0 view .LVU354
 2134 002c D2B9     		cbnz	r2, .L206
1191:../../Drivers/STM32H7xx_HAL_Driver/Src/stm32h7xx_hal.c ****     {
1192:../../Drivers/STM32H7xx_HAL_Driver/Src/stm32h7xx_hal.c ****       /* Clear EXTI line configuration */
1193:../../Drivers/STM32H7xx_HAL_Driver/Src/stm32h7xx_hal.c ****       CLEAR_BIT(  *(__IO uint32_t *) (((uint32_t) &(EXTI_D1->EMR1)) + ((EXTI_Line >> 5 ) * 0x10UL))
 2135              		.loc 1 1193 7 is_stmt 1 view .LVU355
 2136 002e 4309     		lsrs	r3, r0, #5
 2137 0030 1B01     		lsls	r3, r3, #4
 2138 0032 134C     		ldr	r4, .L208+4
 2139 0034 1A59     		ldr	r2, [r3, r4]
 2140              	.LVL56:
 2141              		.loc 1 1193 7 is_stmt 0 view .LVU356
 2142 0036 00F01F00 		and	r0, r0, #31
 2143              	.LVL57:
ARM GAS  C:\Users\gigig\AppData\Local\Temp\cc64rzRb.s 			page 59


 2144              		.loc 1 1193 7 view .LVU357
 2145 003a 0121     		movs	r1, #1
 2146              	.LVL58:
 2147              		.loc 1 1193 7 view .LVU358
 2148 003c 8140     		lsls	r1, r1, r0
 2149 003e 22EA0102 		bic	r2, r2, r1
 2150 0042 1A51     		str	r2, [r3, r4]
 2151              	.L202:
1194:../../Drivers/STM32H7xx_HAL_Driver/Src/stm32h7xx_hal.c ****     }
1195:../../Drivers/STM32H7xx_HAL_Driver/Src/stm32h7xx_hal.c ****     else
1196:../../Drivers/STM32H7xx_HAL_Driver/Src/stm32h7xx_hal.c ****     {
1197:../../Drivers/STM32H7xx_HAL_Driver/Src/stm32h7xx_hal.c ****       SET_BIT(  *(__IO uint32_t *) (((uint32_t) &(EXTI_D1->EMR1)) + ((EXTI_Line >> 5 ) * 0x10UL)), 
1198:../../Drivers/STM32H7xx_HAL_Driver/Src/stm32h7xx_hal.c ****     }
1199:../../Drivers/STM32H7xx_HAL_Driver/Src/stm32h7xx_hal.c ****   }
1200:../../Drivers/STM32H7xx_HAL_Driver/Src/stm32h7xx_hal.c **** }
 2152              		.loc 1 1200 1 view .LVU359
 2153 0044 10BD     		pop	{r4, pc}
 2154              	.LVL59:
 2155              	.L204:
1184:../../Drivers/STM32H7xx_HAL_Driver/Src/stm32h7xx_hal.c ****      }
 2156              		.loc 1 1184 9 is_stmt 1 view .LVU360
 2157 0046 0D4B     		ldr	r3, .L208
 2158 0048 03EB5013 		add	r3, r3, r0, lsr #5
 2159 004c 1B01     		lsls	r3, r3, #4
 2160 004e 1C68     		ldr	r4, [r3]
 2161 0050 00F01F0E 		and	lr, r0, #31
 2162 0054 4FF0010C 		mov	ip, #1
 2163 0058 0CFA0EFC 		lsl	ip, ip, lr
 2164 005c 44EA0C04 		orr	r4, r4, ip
 2165 0060 1C60     		str	r4, [r3]
 2166 0062 E0E7     		b	.L203
 2167              	.L206:
1197:../../Drivers/STM32H7xx_HAL_Driver/Src/stm32h7xx_hal.c ****     }
 2168              		.loc 1 1197 7 view .LVU361
 2169 0064 4309     		lsrs	r3, r0, #5
 2170 0066 1B01     		lsls	r3, r3, #4
 2171 0068 054C     		ldr	r4, .L208+4
 2172 006a 1A59     		ldr	r2, [r3, r4]
 2173              	.LVL60:
1197:../../Drivers/STM32H7xx_HAL_Driver/Src/stm32h7xx_hal.c ****     }
 2174              		.loc 1 1197 7 is_stmt 0 view .LVU362
 2175 006c 00F01F00 		and	r0, r0, #31
 2176              	.LVL61:
1197:../../Drivers/STM32H7xx_HAL_Driver/Src/stm32h7xx_hal.c ****     }
 2177              		.loc 1 1197 7 view .LVU363
 2178 0070 0121     		movs	r1, #1
 2179              	.LVL62:
1197:../../Drivers/STM32H7xx_HAL_Driver/Src/stm32h7xx_hal.c ****     }
 2180              		.loc 1 1197 7 view .LVU364
 2181 0072 8140     		lsls	r1, r1, r0
 2182 0074 0A43     		orrs	r2, r2, r1
 2183 0076 1A51     		str	r2, [r3, r4]
 2184              		.loc 1 1200 1 view .LVU365
 2185 0078 E4E7     		b	.L202
 2186              	.L209:
 2187 007a 00BF     		.align	2
 2188              	.L208:
ARM GAS  C:\Users\gigig\AppData\Local\Temp\cc64rzRb.s 			page 60


 2189 007c 08008005 		.word	92274696
 2190 0080 84000058 		.word	1476395140
 2191              		.cfi_endproc
 2192              	.LFE190:
 2194              		.section	.text.HAL_EXTI_D2_EventInputConfig,"ax",%progbits
 2195              		.align	1
 2196              		.global	HAL_EXTI_D2_EventInputConfig
 2197              		.syntax unified
 2198              		.thumb
 2199              		.thumb_func
 2201              	HAL_EXTI_D2_EventInputConfig:
 2202              	.LVL63:
 2203              	.LFB191:
1201:../../Drivers/STM32H7xx_HAL_Driver/Src/stm32h7xx_hal.c **** 
1202:../../Drivers/STM32H7xx_HAL_Driver/Src/stm32h7xx_hal.c **** #if defined(DUAL_CORE)
1203:../../Drivers/STM32H7xx_HAL_Driver/Src/stm32h7xx_hal.c **** /**
1204:../../Drivers/STM32H7xx_HAL_Driver/Src/stm32h7xx_hal.c ****   * @brief  Configure the EXTI input event line for Domain D2
1205:../../Drivers/STM32H7xx_HAL_Driver/Src/stm32h7xx_hal.c ****   * @param   EXTI_Line: Specifies the EXTI LINE, it can be one of the following values,
1206:../../Drivers/STM32H7xx_HAL_Driver/Src/stm32h7xx_hal.c ****   *         (EXTI_LINE0....EXTI_LINE87)excluding :line45, line81,line83 which are reserved
1207:../../Drivers/STM32H7xx_HAL_Driver/Src/stm32h7xx_hal.c ****   * @param   EXTI_Mode: Specifies which EXTI line is used as interrupt or an event.
1208:../../Drivers/STM32H7xx_HAL_Driver/Src/stm32h7xx_hal.c ****   *          This parameter can be one or a combination of the following values :
1209:../../Drivers/STM32H7xx_HAL_Driver/Src/stm32h7xx_hal.c ****   *   @arg EXTI_MODE_IT :  Interrupt Mode selected
1210:../../Drivers/STM32H7xx_HAL_Driver/Src/stm32h7xx_hal.c ****   *   @arg EXTI_MODE_EVT : Event Mode selected
1211:../../Drivers/STM32H7xx_HAL_Driver/Src/stm32h7xx_hal.c ****   * @param   EXTI_LineCmd controls (Enable/Disable) the EXTI line.
1212:../../Drivers/STM32H7xx_HAL_Driver/Src/stm32h7xx_hal.c **** 
1213:../../Drivers/STM32H7xx_HAL_Driver/Src/stm32h7xx_hal.c ****   * @retval None
1214:../../Drivers/STM32H7xx_HAL_Driver/Src/stm32h7xx_hal.c ****   */
1215:../../Drivers/STM32H7xx_HAL_Driver/Src/stm32h7xx_hal.c **** void HAL_EXTI_D2_EventInputConfig(uint32_t EXTI_Line , uint32_t EXTI_Mode,  uint32_t EXTI_LineCmd )
1216:../../Drivers/STM32H7xx_HAL_Driver/Src/stm32h7xx_hal.c **** {
 2204              		.loc 1 1216 1 is_stmt 1 view -0
 2205              		.cfi_startproc
 2206              		@ args = 0, pretend = 0, frame = 0
 2207              		@ frame_needed = 0, uses_anonymous_args = 0
 2208              		.loc 1 1216 1 is_stmt 0 view .LVU367
 2209 0000 10B5     		push	{r4, lr}
 2210              	.LCFI12:
 2211              		.cfi_def_cfa_offset 8
 2212              		.cfi_offset 4, -8
 2213              		.cfi_offset 14, -4
1217:../../Drivers/STM32H7xx_HAL_Driver/Src/stm32h7xx_hal.c ****   /* Check the parameter */
1218:../../Drivers/STM32H7xx_HAL_Driver/Src/stm32h7xx_hal.c ****   assert_param(IS_EXTI_D2_LINE(EXTI_Line));
 2214              		.loc 1 1218 3 is_stmt 1 view .LVU368
1219:../../Drivers/STM32H7xx_HAL_Driver/Src/stm32h7xx_hal.c ****   assert_param(IS_EXTI_MODE_LINE(EXTI_Mode));
 2215              		.loc 1 1219 3 view .LVU369
1220:../../Drivers/STM32H7xx_HAL_Driver/Src/stm32h7xx_hal.c **** 
1221:../../Drivers/STM32H7xx_HAL_Driver/Src/stm32h7xx_hal.c ****   if( (EXTI_Mode & EXTI_MODE_IT) == EXTI_MODE_IT)
 2216              		.loc 1 1221 3 view .LVU370
 2217              		.loc 1 1221 5 is_stmt 0 view .LVU371
 2218 0002 11F4803F 		tst	r1, #65536
 2219 0006 0ED0     		beq	.L211
1222:../../Drivers/STM32H7xx_HAL_Driver/Src/stm32h7xx_hal.c ****   {
1223:../../Drivers/STM32H7xx_HAL_Driver/Src/stm32h7xx_hal.c ****     if( EXTI_LineCmd == 0UL)
 2220              		.loc 1 1223 5 is_stmt 1 view .LVU372
 2221              		.loc 1 1223 7 is_stmt 0 view .LVU373
 2222 0008 EAB9     		cbnz	r2, .L212
1224:../../Drivers/STM32H7xx_HAL_Driver/Src/stm32h7xx_hal.c ****     {
1225:../../Drivers/STM32H7xx_HAL_Driver/Src/stm32h7xx_hal.c ****     /* Clear EXTI line configuration */
ARM GAS  C:\Users\gigig\AppData\Local\Temp\cc64rzRb.s 			page 61


1226:../../Drivers/STM32H7xx_HAL_Driver/Src/stm32h7xx_hal.c ****      CLEAR_BIT(*(__IO uint32_t *) (((uint32_t) &(EXTI_D2->IMR1)) + ((EXTI_Line >> 5 ) * 0x10UL)),(u
 2223              		.loc 1 1226 6 is_stmt 1 view .LVU374
 2224 000a 1C4B     		ldr	r3, .L216
 2225 000c 03EB5013 		add	r3, r3, r0, lsr #5
 2226 0010 1B01     		lsls	r3, r3, #4
 2227 0012 1C68     		ldr	r4, [r3]
 2228 0014 00F01F0E 		and	lr, r0, #31
 2229 0018 4FF0010C 		mov	ip, #1
 2230 001c 0CFA0EFC 		lsl	ip, ip, lr
 2231 0020 24EA0C04 		bic	r4, r4, ip
 2232 0024 1C60     		str	r4, [r3]
 2233              	.L211:
1227:../../Drivers/STM32H7xx_HAL_Driver/Src/stm32h7xx_hal.c ****     }
1228:../../Drivers/STM32H7xx_HAL_Driver/Src/stm32h7xx_hal.c ****     else
1229:../../Drivers/STM32H7xx_HAL_Driver/Src/stm32h7xx_hal.c ****     {
1230:../../Drivers/STM32H7xx_HAL_Driver/Src/stm32h7xx_hal.c ****      SET_BIT(*(__IO uint32_t *) (((uint32_t) &(EXTI_D2->IMR1)) + ((EXTI_Line >> 5 ) * 0x10UL)), (ui
1231:../../Drivers/STM32H7xx_HAL_Driver/Src/stm32h7xx_hal.c ****     }
1232:../../Drivers/STM32H7xx_HAL_Driver/Src/stm32h7xx_hal.c ****   }
1233:../../Drivers/STM32H7xx_HAL_Driver/Src/stm32h7xx_hal.c **** 
1234:../../Drivers/STM32H7xx_HAL_Driver/Src/stm32h7xx_hal.c ****   if( (EXTI_Mode & EXTI_MODE_EVT) == EXTI_MODE_EVT)
 2234              		.loc 1 1234 3 view .LVU375
 2235              		.loc 1 1234 5 is_stmt 0 view .LVU376
 2236 0026 11F4003F 		tst	r1, #131072
 2237 002a 0BD0     		beq	.L210
1235:../../Drivers/STM32H7xx_HAL_Driver/Src/stm32h7xx_hal.c ****   {
1236:../../Drivers/STM32H7xx_HAL_Driver/Src/stm32h7xx_hal.c ****     if( EXTI_LineCmd == 0UL)
 2238              		.loc 1 1236 5 is_stmt 1 view .LVU377
 2239              		.loc 1 1236 7 is_stmt 0 view .LVU378
 2240 002c D2B9     		cbnz	r2, .L214
1237:../../Drivers/STM32H7xx_HAL_Driver/Src/stm32h7xx_hal.c ****     {
1238:../../Drivers/STM32H7xx_HAL_Driver/Src/stm32h7xx_hal.c ****       /* Clear EXTI line configuration */
1239:../../Drivers/STM32H7xx_HAL_Driver/Src/stm32h7xx_hal.c ****       CLEAR_BIT(  *(__IO uint32_t *) (((uint32_t) &(EXTI_D2->EMR1)) + ((EXTI_Line >> 5 ) * 0x10UL))
 2241              		.loc 1 1239 7 is_stmt 1 view .LVU379
 2242 002e 4309     		lsrs	r3, r0, #5
 2243 0030 1B01     		lsls	r3, r3, #4
 2244 0032 134C     		ldr	r4, .L216+4
 2245 0034 1A59     		ldr	r2, [r3, r4]
 2246              	.LVL64:
 2247              		.loc 1 1239 7 is_stmt 0 view .LVU380
 2248 0036 00F01F00 		and	r0, r0, #31
 2249              	.LVL65:
 2250              		.loc 1 1239 7 view .LVU381
 2251 003a 0121     		movs	r1, #1
 2252              	.LVL66:
 2253              		.loc 1 1239 7 view .LVU382
 2254 003c 8140     		lsls	r1, r1, r0
 2255 003e 22EA0102 		bic	r2, r2, r1
 2256 0042 1A51     		str	r2, [r3, r4]
 2257              	.L210:
1240:../../Drivers/STM32H7xx_HAL_Driver/Src/stm32h7xx_hal.c ****     }
1241:../../Drivers/STM32H7xx_HAL_Driver/Src/stm32h7xx_hal.c ****     else
1242:../../Drivers/STM32H7xx_HAL_Driver/Src/stm32h7xx_hal.c ****     {
1243:../../Drivers/STM32H7xx_HAL_Driver/Src/stm32h7xx_hal.c ****       SET_BIT(  *(__IO uint32_t *) (((uint32_t) &(EXTI_D2->EMR1)) + ((EXTI_Line >> 5 ) * 0x10UL)), 
1244:../../Drivers/STM32H7xx_HAL_Driver/Src/stm32h7xx_hal.c ****     }
1245:../../Drivers/STM32H7xx_HAL_Driver/Src/stm32h7xx_hal.c ****   }
1246:../../Drivers/STM32H7xx_HAL_Driver/Src/stm32h7xx_hal.c **** }
 2258              		.loc 1 1246 1 view .LVU383
ARM GAS  C:\Users\gigig\AppData\Local\Temp\cc64rzRb.s 			page 62


 2259 0044 10BD     		pop	{r4, pc}
 2260              	.LVL67:
 2261              	.L212:
1230:../../Drivers/STM32H7xx_HAL_Driver/Src/stm32h7xx_hal.c ****     }
 2262              		.loc 1 1230 6 is_stmt 1 view .LVU384
 2263 0046 0D4B     		ldr	r3, .L216
 2264 0048 03EB5013 		add	r3, r3, r0, lsr #5
 2265 004c 1B01     		lsls	r3, r3, #4
 2266 004e 1C68     		ldr	r4, [r3]
 2267 0050 00F01F0E 		and	lr, r0, #31
 2268 0054 4FF0010C 		mov	ip, #1
 2269 0058 0CFA0EFC 		lsl	ip, ip, lr
 2270 005c 44EA0C04 		orr	r4, r4, ip
 2271 0060 1C60     		str	r4, [r3]
 2272 0062 E0E7     		b	.L211
 2273              	.L214:
1243:../../Drivers/STM32H7xx_HAL_Driver/Src/stm32h7xx_hal.c ****     }
 2274              		.loc 1 1243 7 view .LVU385
 2275 0064 4309     		lsrs	r3, r0, #5
 2276 0066 1B01     		lsls	r3, r3, #4
 2277 0068 054C     		ldr	r4, .L216+4
 2278 006a 1A59     		ldr	r2, [r3, r4]
 2279              	.LVL68:
1243:../../Drivers/STM32H7xx_HAL_Driver/Src/stm32h7xx_hal.c ****     }
 2280              		.loc 1 1243 7 is_stmt 0 view .LVU386
 2281 006c 00F01F00 		and	r0, r0, #31
 2282              	.LVL69:
1243:../../Drivers/STM32H7xx_HAL_Driver/Src/stm32h7xx_hal.c ****     }
 2283              		.loc 1 1243 7 view .LVU387
 2284 0070 0121     		movs	r1, #1
 2285              	.LVL70:
1243:../../Drivers/STM32H7xx_HAL_Driver/Src/stm32h7xx_hal.c ****     }
 2286              		.loc 1 1243 7 view .LVU388
 2287 0072 8140     		lsls	r1, r1, r0
 2288 0074 0A43     		orrs	r2, r2, r1
 2289 0076 1A51     		str	r2, [r3, r4]
 2290              		.loc 1 1246 1 view .LVU389
 2291 0078 E4E7     		b	.L210
 2292              	.L217:
 2293 007a 00BF     		.align	2
 2294              	.L216:
 2295 007c 0C008005 		.word	92274700
 2296 0080 C4000058 		.word	1476395204
 2297              		.cfi_endproc
 2298              	.LFE191:
 2300              		.section	.text.HAL_EXTI_D3_EventInputConfig,"ax",%progbits
 2301              		.align	1
 2302              		.global	HAL_EXTI_D3_EventInputConfig
 2303              		.syntax unified
 2304              		.thumb
 2305              		.thumb_func
 2307              	HAL_EXTI_D3_EventInputConfig:
 2308              	.LVL71:
 2309              	.LFB192:
1247:../../Drivers/STM32H7xx_HAL_Driver/Src/stm32h7xx_hal.c **** #endif /*DUAL_CORE*/
1248:../../Drivers/STM32H7xx_HAL_Driver/Src/stm32h7xx_hal.c **** 
1249:../../Drivers/STM32H7xx_HAL_Driver/Src/stm32h7xx_hal.c **** /**
ARM GAS  C:\Users\gigig\AppData\Local\Temp\cc64rzRb.s 			page 63


1250:../../Drivers/STM32H7xx_HAL_Driver/Src/stm32h7xx_hal.c ****   * @brief  Configure the EXTI input event line for Domain D3
1251:../../Drivers/STM32H7xx_HAL_Driver/Src/stm32h7xx_hal.c ****   * @param   EXTI_Line: Specifies the EXTI LINE, it can be one of the following values,
1252:../../Drivers/STM32H7xx_HAL_Driver/Src/stm32h7xx_hal.c ****   *         (EXTI_LINE0...EXTI_LINE15),(EXTI_LINE19...EXTI_LINE21),EXTI_LINE25, EXTI_LINE34,
1253:../../Drivers/STM32H7xx_HAL_Driver/Src/stm32h7xx_hal.c ****   *          EXTI_LINE35,EXTI_LINE41,(EXTI_LINE48...EXTI_LINE53)
1254:../../Drivers/STM32H7xx_HAL_Driver/Src/stm32h7xx_hal.c ****   * @param   EXTI_LineCmd controls (Enable/Disable) the EXTI line.
1255:../../Drivers/STM32H7xx_HAL_Driver/Src/stm32h7xx_hal.c ****   * @param   EXTI_ClearSrc: Specifies the clear source of D3 pending event.
1256:../../Drivers/STM32H7xx_HAL_Driver/Src/stm32h7xx_hal.c ****   *          This parameter can be one of the following values :
1257:../../Drivers/STM32H7xx_HAL_Driver/Src/stm32h7xx_hal.c ****   *   @arg BDMA_CH6_CLEAR : BDMA ch6 event selected as D3 domain pendclear source
1258:../../Drivers/STM32H7xx_HAL_Driver/Src/stm32h7xx_hal.c ****   *   @arg BDMA_CH7_CLEAR : BDMA ch7 event selected as D3 domain pendclear source
1259:../../Drivers/STM32H7xx_HAL_Driver/Src/stm32h7xx_hal.c ****   *   @arg LPTIM4_OUT_CLEAR : LPTIM4 out selected as D3 domain pendclear source
1260:../../Drivers/STM32H7xx_HAL_Driver/Src/stm32h7xx_hal.c ****   *   @arg LPTIM5_OUT_CLEAR : LPTIM5 out selected as D3 domain pendclear source
1261:../../Drivers/STM32H7xx_HAL_Driver/Src/stm32h7xx_hal.c ****   * @retval None
1262:../../Drivers/STM32H7xx_HAL_Driver/Src/stm32h7xx_hal.c ****   */
1263:../../Drivers/STM32H7xx_HAL_Driver/Src/stm32h7xx_hal.c **** void HAL_EXTI_D3_EventInputConfig(uint32_t EXTI_Line, uint32_t EXTI_LineCmd , uint32_t EXTI_ClearSr
1264:../../Drivers/STM32H7xx_HAL_Driver/Src/stm32h7xx_hal.c **** {
 2310              		.loc 1 1264 1 is_stmt 1 view -0
 2311              		.cfi_startproc
 2312              		@ args = 0, pretend = 0, frame = 0
 2313              		@ frame_needed = 0, uses_anonymous_args = 0
 2314              		.loc 1 1264 1 is_stmt 0 view .LVU391
 2315 0000 10B5     		push	{r4, lr}
 2316              	.LCFI13:
 2317              		.cfi_def_cfa_offset 8
 2318              		.cfi_offset 4, -8
 2319              		.cfi_offset 14, -4
1265:../../Drivers/STM32H7xx_HAL_Driver/Src/stm32h7xx_hal.c ****   __IO uint32_t *pRegv;
 2320              		.loc 1 1265 3 is_stmt 1 view .LVU392
1266:../../Drivers/STM32H7xx_HAL_Driver/Src/stm32h7xx_hal.c **** 
1267:../../Drivers/STM32H7xx_HAL_Driver/Src/stm32h7xx_hal.c ****   /* Check the parameter */
1268:../../Drivers/STM32H7xx_HAL_Driver/Src/stm32h7xx_hal.c ****   assert_param(IS_EXTI_D3_LINE(EXTI_Line));
 2321              		.loc 1 1268 3 view .LVU393
1269:../../Drivers/STM32H7xx_HAL_Driver/Src/stm32h7xx_hal.c ****   assert_param(IS_EXTI_D3_CLEAR(EXTI_ClearSrc));
 2322              		.loc 1 1269 3 view .LVU394
1270:../../Drivers/STM32H7xx_HAL_Driver/Src/stm32h7xx_hal.c **** 
1271:../../Drivers/STM32H7xx_HAL_Driver/Src/stm32h7xx_hal.c ****   if( EXTI_LineCmd == 0UL)
 2323              		.loc 1 1271 3 view .LVU395
 2324              		.loc 1 1271 5 is_stmt 0 view .LVU396
 2325 0002 09BB     		cbnz	r1, .L219
1272:../../Drivers/STM32H7xx_HAL_Driver/Src/stm32h7xx_hal.c ****   {
1273:../../Drivers/STM32H7xx_HAL_Driver/Src/stm32h7xx_hal.c ****     /* Clear EXTI line configuration */
1274:../../Drivers/STM32H7xx_HAL_Driver/Src/stm32h7xx_hal.c ****     CLEAR_BIT(*(__IO uint32_t *) (((uint32_t) &(EXTI->D3PMR1)) + ((EXTI_Line >> 5 ) * 0x20UL)),(uin
 2326              		.loc 1 1274 5 is_stmt 1 view .LVU397
 2327 0004 20F01F03 		bic	r3, r0, #31
 2328 0008 194C     		ldr	r4, .L224
 2329 000a 1959     		ldr	r1, [r3, r4]
 2330              	.LVL72:
 2331              		.loc 1 1274 5 is_stmt 0 view .LVU398
 2332 000c 00F01F0E 		and	lr, r0, #31
 2333 0010 4FF0010C 		mov	ip, #1
 2334 0014 0CFA0EFC 		lsl	ip, ip, lr
 2335 0018 21EA0C01 		bic	r1, r1, ip
 2336 001c 1951     		str	r1, [r3, r4]
 2337              	.L220:
1275:../../Drivers/STM32H7xx_HAL_Driver/Src/stm32h7xx_hal.c ****   }
1276:../../Drivers/STM32H7xx_HAL_Driver/Src/stm32h7xx_hal.c ****   else
1277:../../Drivers/STM32H7xx_HAL_Driver/Src/stm32h7xx_hal.c ****   {
1278:../../Drivers/STM32H7xx_HAL_Driver/Src/stm32h7xx_hal.c ****     SET_BIT(*(__IO uint32_t *) (((uint32_t) &(EXTI->D3PMR1)) +((EXTI_Line >> 5 ) * 0x20UL)), (uint3
ARM GAS  C:\Users\gigig\AppData\Local\Temp\cc64rzRb.s 			page 64


1279:../../Drivers/STM32H7xx_HAL_Driver/Src/stm32h7xx_hal.c ****   }
1280:../../Drivers/STM32H7xx_HAL_Driver/Src/stm32h7xx_hal.c **** 
1281:../../Drivers/STM32H7xx_HAL_Driver/Src/stm32h7xx_hal.c ****   if(((EXTI_Line>>4)%2UL) == 0UL)
 2338              		.loc 1 1281 3 is_stmt 1 view .LVU399
 2339              		.loc 1 1281 5 is_stmt 0 view .LVU400
 2340 001e 10F0100F 		tst	r0, #16
 2341 0022 1FD1     		bne	.L221
1282:../../Drivers/STM32H7xx_HAL_Driver/Src/stm32h7xx_hal.c ****   {
1283:../../Drivers/STM32H7xx_HAL_Driver/Src/stm32h7xx_hal.c ****     pRegv = (__IO uint32_t *) (((uint32_t) &(EXTI->D3PCR1L)) + ((EXTI_Line >> 5 ) * 0x20UL));
 2342              		.loc 1 1283 5 is_stmt 1 view .LVU401
 2343              		.loc 1 1283 83 is_stmt 0 view .LVU402
 2344 0024 20F01F03 		bic	r3, r0, #31
 2345              		.loc 1 1283 62 view .LVU403
 2346 0028 1249     		ldr	r1, .L224+4
 2347 002a 1944     		add	r1, r1, r3
 2348              	.LVL73:
 2349              	.L222:
1284:../../Drivers/STM32H7xx_HAL_Driver/Src/stm32h7xx_hal.c ****   }
1285:../../Drivers/STM32H7xx_HAL_Driver/Src/stm32h7xx_hal.c ****   else
1286:../../Drivers/STM32H7xx_HAL_Driver/Src/stm32h7xx_hal.c ****   {
1287:../../Drivers/STM32H7xx_HAL_Driver/Src/stm32h7xx_hal.c ****     pRegv = (__IO uint32_t *) (((uint32_t) &(EXTI->D3PCR1H)) + ((EXTI_Line >> 5 ) * 0x20UL));
1288:../../Drivers/STM32H7xx_HAL_Driver/Src/stm32h7xx_hal.c ****   }
1289:../../Drivers/STM32H7xx_HAL_Driver/Src/stm32h7xx_hal.c ****   MODIFY_REG(*pRegv, (uint32_t)(3UL << ((EXTI_Line*2UL) & 0x1FUL)), (uint32_t)(EXTI_ClearSrc << ((E
 2350              		.loc 1 1289 3 is_stmt 1 view .LVU404
 2351 002c 0B68     		ldr	r3, [r1]
 2352 002e 4000     		lsls	r0, r0, #1
 2353              	.LVL74:
 2354              		.loc 1 1289 3 is_stmt 0 view .LVU405
 2355 0030 00F01E00 		and	r0, r0, #30
 2356 0034 4FF0030C 		mov	ip, #3
 2357 0038 0CFA00FC 		lsl	ip, ip, r0
 2358 003c 23EA0C03 		bic	r3, r3, ip
 2359 0040 8240     		lsls	r2, r2, r0
 2360              	.LVL75:
 2361              		.loc 1 1289 3 view .LVU406
 2362 0042 1A43     		orrs	r2, r2, r3
 2363 0044 0A60     		str	r2, [r1]
1290:../../Drivers/STM32H7xx_HAL_Driver/Src/stm32h7xx_hal.c **** 
1291:../../Drivers/STM32H7xx_HAL_Driver/Src/stm32h7xx_hal.c **** }
 2364              		.loc 1 1291 1 view .LVU407
 2365 0046 10BD     		pop	{r4, pc}
 2366              	.LVL76:
 2367              	.L219:
1278:../../Drivers/STM32H7xx_HAL_Driver/Src/stm32h7xx_hal.c ****   }
 2368              		.loc 1 1278 5 is_stmt 1 view .LVU408
 2369 0048 20F01F03 		bic	r3, r0, #31
 2370 004c 084C     		ldr	r4, .L224
 2371 004e 1959     		ldr	r1, [r3, r4]
 2372              	.LVL77:
1278:../../Drivers/STM32H7xx_HAL_Driver/Src/stm32h7xx_hal.c ****   }
 2373              		.loc 1 1278 5 is_stmt 0 view .LVU409
 2374 0050 00F01F0E 		and	lr, r0, #31
 2375 0054 4FF0010C 		mov	ip, #1
 2376 0058 0CFA0EFC 		lsl	ip, ip, lr
 2377 005c 41EA0C01 		orr	r1, r1, ip
 2378 0060 1951     		str	r1, [r3, r4]
 2379 0062 DCE7     		b	.L220
ARM GAS  C:\Users\gigig\AppData\Local\Temp\cc64rzRb.s 			page 65


 2380              	.L221:
1287:../../Drivers/STM32H7xx_HAL_Driver/Src/stm32h7xx_hal.c ****   }
 2381              		.loc 1 1287 5 is_stmt 1 view .LVU410
1287:../../Drivers/STM32H7xx_HAL_Driver/Src/stm32h7xx_hal.c ****   }
 2382              		.loc 1 1287 83 is_stmt 0 view .LVU411
 2383 0064 20F01F03 		bic	r3, r0, #31
1287:../../Drivers/STM32H7xx_HAL_Driver/Src/stm32h7xx_hal.c ****   }
 2384              		.loc 1 1287 62 view .LVU412
 2385 0068 0349     		ldr	r1, .L224+8
 2386 006a 1944     		add	r1, r1, r3
 2387              	.LVL78:
1287:../../Drivers/STM32H7xx_HAL_Driver/Src/stm32h7xx_hal.c ****   }
 2388              		.loc 1 1287 62 view .LVU413
 2389 006c DEE7     		b	.L222
 2390              	.L225:
 2391 006e 00BF     		.align	2
 2392              	.L224:
 2393 0070 0C000058 		.word	1476395020
 2394 0074 10000058 		.word	1476395024
 2395 0078 14000058 		.word	1476395028
 2396              		.cfi_endproc
 2397              	.LFE192:
 2399              		.global	uwTickFreq
 2400              		.section	.data.uwTickFreq,"aw"
 2403              	uwTickFreq:
 2404 0000 01       		.byte	1
 2405              		.global	uwTickPrio
 2406              		.section	.data.uwTickPrio,"aw"
 2407              		.align	2
 2410              	uwTickPrio:
 2411 0000 10000000 		.word	16
 2412              		.global	uwTick
 2413              		.section	.bss.uwTick,"aw",%nobits
 2414              		.align	2
 2417              	uwTick:
 2418 0000 00000000 		.space	4
 2419              		.text
 2420              	.Letext0:
 2421              		.file 2 "../../Drivers/CMSIS/Device/ST/STM32H7xx/Include/stm32h755xx.h"
 2422              		.file 3 "c:\\program files (x86)\\arm gnu toolchain arm-none-eabi\\12.2 rel1\\arm-none-eabi\\inclu
 2423              		.file 4 "c:\\program files (x86)\\arm gnu toolchain arm-none-eabi\\12.2 rel1\\arm-none-eabi\\inclu
 2424              		.file 5 "../../Drivers/CMSIS/Include/core_cm4.h"
 2425              		.file 6 "../../Drivers/CMSIS/Device/ST/STM32H7xx/Include/system_stm32h7xx.h"
 2426              		.file 7 "../../Drivers/STM32H7xx_HAL_Driver/Inc/stm32h7xx_hal_def.h"
 2427              		.file 8 "../../Drivers/STM32H7xx_HAL_Driver/Inc/stm32h7xx_hal.h"
 2428              		.file 9 "../../Drivers/STM32H7xx_HAL_Driver/Inc/stm32h7xx_hal_cortex.h"
 2429              		.file 10 "../../Drivers/STM32H7xx_HAL_Driver/Inc/stm32h7xx_hal_rcc.h"
ARM GAS  C:\Users\gigig\AppData\Local\Temp\cc64rzRb.s 			page 66

