ARM GAS  C:\Users\gigig\AppData\Local\Temp\ccWZWLjv.s 			page 1


   1              		.cpu cortex-m7
   2              		.arch armv7e-m
   3              		.fpu fpv4-sp-d16
   4              		.eabi_attribute 27, 1
   5              		.eabi_attribute 28, 1
   6              		.eabi_attribute 20, 1
   7              		.eabi_attribute 21, 1
   8              		.eabi_attribute 23, 3
   9              		.eabi_attribute 24, 1
  10              		.eabi_attribute 25, 1
  11              		.eabi_attribute 26, 1
  12              		.eabi_attribute 30, 1
  13              		.eabi_attribute 34, 1
  14              		.eabi_attribute 18, 4
  15              		.file	"stm32h7xx_hal_msp.c"
  16              		.text
  17              	.Ltext0:
  18              		.cfi_sections	.debug_frame
  19              		.file 1 "../../CM4/Core/Src/stm32h7xx_hal_msp.c"
  20              		.section	.text.HAL_MspInit,"ax",%progbits
  21              		.align	1
  22              		.global	HAL_MspInit
  23              		.syntax unified
  24              		.thumb
  25              		.thumb_func
  27              	HAL_MspInit:
  28              	.LFB132:
   1:../../CM4/Core/Src/stm32h7xx_hal_msp.c **** /* USER CODE BEGIN Header */
   2:../../CM4/Core/Src/stm32h7xx_hal_msp.c **** /**
   3:../../CM4/Core/Src/stm32h7xx_hal_msp.c ****   ******************************************************************************
   4:../../CM4/Core/Src/stm32h7xx_hal_msp.c ****   * @file         stm32h7xx_hal_msp.c
   5:../../CM4/Core/Src/stm32h7xx_hal_msp.c ****   * @brief        This file provides code for the MSP Initialization
   6:../../CM4/Core/Src/stm32h7xx_hal_msp.c ****   *               and de-Initialization codes.
   7:../../CM4/Core/Src/stm32h7xx_hal_msp.c ****   ******************************************************************************
   8:../../CM4/Core/Src/stm32h7xx_hal_msp.c ****   * @attention
   9:../../CM4/Core/Src/stm32h7xx_hal_msp.c ****   *
  10:../../CM4/Core/Src/stm32h7xx_hal_msp.c ****   * Copyright (c) 2024 STMicroelectronics.
  11:../../CM4/Core/Src/stm32h7xx_hal_msp.c ****   * All rights reserved.
  12:../../CM4/Core/Src/stm32h7xx_hal_msp.c ****   *
  13:../../CM4/Core/Src/stm32h7xx_hal_msp.c ****   * This software is licensed under terms that can be found in the LICENSE file
  14:../../CM4/Core/Src/stm32h7xx_hal_msp.c ****   * in the root directory of this software component.
  15:../../CM4/Core/Src/stm32h7xx_hal_msp.c ****   * If no LICENSE file comes with this software, it is provided AS-IS.
  16:../../CM4/Core/Src/stm32h7xx_hal_msp.c ****   *
  17:../../CM4/Core/Src/stm32h7xx_hal_msp.c ****   ******************************************************************************
  18:../../CM4/Core/Src/stm32h7xx_hal_msp.c ****   */
  19:../../CM4/Core/Src/stm32h7xx_hal_msp.c **** /* USER CODE END Header */
  20:../../CM4/Core/Src/stm32h7xx_hal_msp.c **** 
  21:../../CM4/Core/Src/stm32h7xx_hal_msp.c **** /* Includes ------------------------------------------------------------------*/
  22:../../CM4/Core/Src/stm32h7xx_hal_msp.c **** #include "main.h"
  23:../../CM4/Core/Src/stm32h7xx_hal_msp.c **** 
  24:../../CM4/Core/Src/stm32h7xx_hal_msp.c **** /* USER CODE BEGIN Includes */
  25:../../CM4/Core/Src/stm32h7xx_hal_msp.c **** 
  26:../../CM4/Core/Src/stm32h7xx_hal_msp.c **** /* USER CODE END Includes */
  27:../../CM4/Core/Src/stm32h7xx_hal_msp.c **** 
  28:../../CM4/Core/Src/stm32h7xx_hal_msp.c **** /* Private typedef -----------------------------------------------------------*/
  29:../../CM4/Core/Src/stm32h7xx_hal_msp.c **** /* USER CODE BEGIN TD */
  30:../../CM4/Core/Src/stm32h7xx_hal_msp.c **** 
ARM GAS  C:\Users\gigig\AppData\Local\Temp\ccWZWLjv.s 			page 2


  31:../../CM4/Core/Src/stm32h7xx_hal_msp.c **** /* USER CODE END TD */
  32:../../CM4/Core/Src/stm32h7xx_hal_msp.c **** 
  33:../../CM4/Core/Src/stm32h7xx_hal_msp.c **** /* Private define ------------------------------------------------------------*/
  34:../../CM4/Core/Src/stm32h7xx_hal_msp.c **** /* USER CODE BEGIN Define */
  35:../../CM4/Core/Src/stm32h7xx_hal_msp.c **** 
  36:../../CM4/Core/Src/stm32h7xx_hal_msp.c **** /* USER CODE END Define */
  37:../../CM4/Core/Src/stm32h7xx_hal_msp.c **** 
  38:../../CM4/Core/Src/stm32h7xx_hal_msp.c **** /* Private macro -------------------------------------------------------------*/
  39:../../CM4/Core/Src/stm32h7xx_hal_msp.c **** /* USER CODE BEGIN Macro */
  40:../../CM4/Core/Src/stm32h7xx_hal_msp.c **** 
  41:../../CM4/Core/Src/stm32h7xx_hal_msp.c **** /* USER CODE END Macro */
  42:../../CM4/Core/Src/stm32h7xx_hal_msp.c **** 
  43:../../CM4/Core/Src/stm32h7xx_hal_msp.c **** /* Private variables ---------------------------------------------------------*/
  44:../../CM4/Core/Src/stm32h7xx_hal_msp.c **** /* USER CODE BEGIN PV */
  45:../../CM4/Core/Src/stm32h7xx_hal_msp.c **** 
  46:../../CM4/Core/Src/stm32h7xx_hal_msp.c **** /* USER CODE END PV */
  47:../../CM4/Core/Src/stm32h7xx_hal_msp.c **** 
  48:../../CM4/Core/Src/stm32h7xx_hal_msp.c **** /* Private function prototypes -----------------------------------------------*/
  49:../../CM4/Core/Src/stm32h7xx_hal_msp.c **** /* USER CODE BEGIN PFP */
  50:../../CM4/Core/Src/stm32h7xx_hal_msp.c **** 
  51:../../CM4/Core/Src/stm32h7xx_hal_msp.c **** /* USER CODE END PFP */
  52:../../CM4/Core/Src/stm32h7xx_hal_msp.c **** 
  53:../../CM4/Core/Src/stm32h7xx_hal_msp.c **** /* External functions --------------------------------------------------------*/
  54:../../CM4/Core/Src/stm32h7xx_hal_msp.c **** /* USER CODE BEGIN ExternalFunctions */
  55:../../CM4/Core/Src/stm32h7xx_hal_msp.c **** 
  56:../../CM4/Core/Src/stm32h7xx_hal_msp.c **** /* USER CODE END ExternalFunctions */
  57:../../CM4/Core/Src/stm32h7xx_hal_msp.c **** 
  58:../../CM4/Core/Src/stm32h7xx_hal_msp.c **** /* USER CODE BEGIN 0 */
  59:../../CM4/Core/Src/stm32h7xx_hal_msp.c **** 
  60:../../CM4/Core/Src/stm32h7xx_hal_msp.c **** /* USER CODE END 0 */
  61:../../CM4/Core/Src/stm32h7xx_hal_msp.c **** /**
  62:../../CM4/Core/Src/stm32h7xx_hal_msp.c ****   * Initializes the Global MSP.
  63:../../CM4/Core/Src/stm32h7xx_hal_msp.c ****   */
  64:../../CM4/Core/Src/stm32h7xx_hal_msp.c **** void HAL_MspInit(void)
  65:../../CM4/Core/Src/stm32h7xx_hal_msp.c **** {
  29              		.loc 1 65 1 view -0
  30              		.cfi_startproc
  31              		@ args = 0, pretend = 0, frame = 8
  32              		@ frame_needed = 0, uses_anonymous_args = 0
  33 0000 00B5     		push	{lr}
  34              	.LCFI0:
  35              		.cfi_def_cfa_offset 4
  36              		.cfi_offset 14, -4
  37 0002 83B0     		sub	sp, sp, #12
  38              	.LCFI1:
  39              		.cfi_def_cfa_offset 16
  66:../../CM4/Core/Src/stm32h7xx_hal_msp.c ****   /* USER CODE BEGIN MspInit 0 */
  67:../../CM4/Core/Src/stm32h7xx_hal_msp.c **** 
  68:../../CM4/Core/Src/stm32h7xx_hal_msp.c ****   /* USER CODE END MspInit 0 */
  69:../../CM4/Core/Src/stm32h7xx_hal_msp.c **** 
  70:../../CM4/Core/Src/stm32h7xx_hal_msp.c ****   __HAL_RCC_SYSCFG_CLK_ENABLE();
  40              		.loc 1 70 3 view .LVU1
  41              	.LBB2:
  42              		.loc 1 70 3 view .LVU2
  43              		.loc 1 70 3 view .LVU3
  44 0004 0A4B     		ldr	r3, .L3
  45 0006 D3F8F420 		ldr	r2, [r3, #244]
ARM GAS  C:\Users\gigig\AppData\Local\Temp\ccWZWLjv.s 			page 3


  46 000a 42F00202 		orr	r2, r2, #2
  47 000e C3F8F420 		str	r2, [r3, #244]
  48              		.loc 1 70 3 view .LVU4
  49 0012 D3F8F430 		ldr	r3, [r3, #244]
  50 0016 03F00203 		and	r3, r3, #2
  51 001a 0193     		str	r3, [sp, #4]
  52              		.loc 1 70 3 view .LVU5
  53 001c 019B     		ldr	r3, [sp, #4]
  54              	.LBE2:
  55              		.loc 1 70 3 view .LVU6
  71:../../CM4/Core/Src/stm32h7xx_hal_msp.c **** 
  72:../../CM4/Core/Src/stm32h7xx_hal_msp.c ****   /* System interrupt init*/
  73:../../CM4/Core/Src/stm32h7xx_hal_msp.c ****   /* PendSV_IRQn interrupt configuration */
  74:../../CM4/Core/Src/stm32h7xx_hal_msp.c ****   HAL_NVIC_SetPriority(PendSV_IRQn, 15, 0);
  56              		.loc 1 74 3 view .LVU7
  57 001e 0022     		movs	r2, #0
  58 0020 0F21     		movs	r1, #15
  59 0022 6FF00100 		mvn	r0, #1
  60 0026 FFF7FEFF 		bl	HAL_NVIC_SetPriority
  61              	.LVL0:
  75:../../CM4/Core/Src/stm32h7xx_hal_msp.c **** 
  76:../../CM4/Core/Src/stm32h7xx_hal_msp.c ****   /* USER CODE BEGIN MspInit 1 */
  77:../../CM4/Core/Src/stm32h7xx_hal_msp.c **** 
  78:../../CM4/Core/Src/stm32h7xx_hal_msp.c ****   /* USER CODE END MspInit 1 */
  79:../../CM4/Core/Src/stm32h7xx_hal_msp.c **** }
  62              		.loc 1 79 1 is_stmt 0 view .LVU8
  63 002a 03B0     		add	sp, sp, #12
  64              	.LCFI2:
  65              		.cfi_def_cfa_offset 4
  66              		@ sp needed
  67 002c 5DF804FB 		ldr	pc, [sp], #4
  68              	.L4:
  69              		.align	2
  70              	.L3:
  71 0030 00440258 		.word	1476543488
  72              		.cfi_endproc
  73              	.LFE132:
  75              		.section	.text.HAL_UART_MspInit,"ax",%progbits
  76              		.align	1
  77              		.global	HAL_UART_MspInit
  78              		.syntax unified
  79              		.thumb
  80              		.thumb_func
  82              	HAL_UART_MspInit:
  83              	.LVL1:
  84              	.LFB133:
  80:../../CM4/Core/Src/stm32h7xx_hal_msp.c **** 
  81:../../CM4/Core/Src/stm32h7xx_hal_msp.c **** /**
  82:../../CM4/Core/Src/stm32h7xx_hal_msp.c **** * @brief UART MSP Initialization
  83:../../CM4/Core/Src/stm32h7xx_hal_msp.c **** * This function configures the hardware resources used in this example
  84:../../CM4/Core/Src/stm32h7xx_hal_msp.c **** * @param huart: UART handle pointer
  85:../../CM4/Core/Src/stm32h7xx_hal_msp.c **** * @retval None
  86:../../CM4/Core/Src/stm32h7xx_hal_msp.c **** */
  87:../../CM4/Core/Src/stm32h7xx_hal_msp.c **** void HAL_UART_MspInit(UART_HandleTypeDef* huart)
  88:../../CM4/Core/Src/stm32h7xx_hal_msp.c **** {
  85              		.loc 1 88 1 is_stmt 1 view -0
  86              		.cfi_startproc
ARM GAS  C:\Users\gigig\AppData\Local\Temp\ccWZWLjv.s 			page 4


  87              		@ args = 0, pretend = 0, frame = 200
  88              		@ frame_needed = 0, uses_anonymous_args = 0
  89              		.loc 1 88 1 is_stmt 0 view .LVU10
  90 0000 10B5     		push	{r4, lr}
  91              	.LCFI3:
  92              		.cfi_def_cfa_offset 8
  93              		.cfi_offset 4, -8
  94              		.cfi_offset 14, -4
  95 0002 B2B0     		sub	sp, sp, #200
  96              	.LCFI4:
  97              		.cfi_def_cfa_offset 208
  98 0004 0446     		mov	r4, r0
  89:../../CM4/Core/Src/stm32h7xx_hal_msp.c ****   RCC_PeriphCLKInitTypeDef PeriphClkInitStruct = {0};
  99              		.loc 1 89 3 is_stmt 1 view .LVU11
 100              		.loc 1 89 28 is_stmt 0 view .LVU12
 101 0006 C022     		movs	r2, #192
 102 0008 0021     		movs	r1, #0
 103 000a 02A8     		add	r0, sp, #8
 104              	.LVL2:
 105              		.loc 1 89 28 view .LVU13
 106 000c FFF7FEFF 		bl	memset
 107              	.LVL3:
  90:../../CM4/Core/Src/stm32h7xx_hal_msp.c ****   if(huart->Instance==USART3)
 108              		.loc 1 90 3 is_stmt 1 view .LVU14
 109              		.loc 1 90 11 is_stmt 0 view .LVU15
 110 0010 2268     		ldr	r2, [r4]
 111              		.loc 1 90 5 view .LVU16
 112 0012 0F4B     		ldr	r3, .L11
 113 0014 9A42     		cmp	r2, r3
 114 0016 01D0     		beq	.L9
 115              	.L5:
  91:../../CM4/Core/Src/stm32h7xx_hal_msp.c ****   {
  92:../../CM4/Core/Src/stm32h7xx_hal_msp.c ****   /* USER CODE BEGIN USART3_MspInit 0 */
  93:../../CM4/Core/Src/stm32h7xx_hal_msp.c **** 
  94:../../CM4/Core/Src/stm32h7xx_hal_msp.c ****   /* USER CODE END USART3_MspInit 0 */
  95:../../CM4/Core/Src/stm32h7xx_hal_msp.c **** 
  96:../../CM4/Core/Src/stm32h7xx_hal_msp.c ****   /** Initializes the peripherals clock
  97:../../CM4/Core/Src/stm32h7xx_hal_msp.c ****   */
  98:../../CM4/Core/Src/stm32h7xx_hal_msp.c ****     PeriphClkInitStruct.PeriphClockSelection = RCC_PERIPHCLK_USART3;
  99:../../CM4/Core/Src/stm32h7xx_hal_msp.c ****     PeriphClkInitStruct.Usart234578ClockSelection = RCC_USART234578CLKSOURCE_D2PCLK1;
 100:../../CM4/Core/Src/stm32h7xx_hal_msp.c ****     if (HAL_RCCEx_PeriphCLKConfig(&PeriphClkInitStruct) != HAL_OK)
 101:../../CM4/Core/Src/stm32h7xx_hal_msp.c ****     {
 102:../../CM4/Core/Src/stm32h7xx_hal_msp.c ****       Error_Handler();
 103:../../CM4/Core/Src/stm32h7xx_hal_msp.c ****     }
 104:../../CM4/Core/Src/stm32h7xx_hal_msp.c **** 
 105:../../CM4/Core/Src/stm32h7xx_hal_msp.c ****     /* Peripheral clock enable */
 106:../../CM4/Core/Src/stm32h7xx_hal_msp.c ****     __HAL_RCC_USART3_CLK_ENABLE();
 107:../../CM4/Core/Src/stm32h7xx_hal_msp.c ****   /* USER CODE BEGIN USART3_MspInit 1 */
 108:../../CM4/Core/Src/stm32h7xx_hal_msp.c **** 
 109:../../CM4/Core/Src/stm32h7xx_hal_msp.c ****   /* USER CODE END USART3_MspInit 1 */
 110:../../CM4/Core/Src/stm32h7xx_hal_msp.c ****   }
 111:../../CM4/Core/Src/stm32h7xx_hal_msp.c **** 
 112:../../CM4/Core/Src/stm32h7xx_hal_msp.c **** }
 116              		.loc 1 112 1 view .LVU17
 117 0018 32B0     		add	sp, sp, #200
 118              	.LCFI5:
 119              		.cfi_remember_state
ARM GAS  C:\Users\gigig\AppData\Local\Temp\ccWZWLjv.s 			page 5


 120              		.cfi_def_cfa_offset 8
 121              		@ sp needed
 122 001a 10BD     		pop	{r4, pc}
 123              	.LVL4:
 124              	.L9:
 125              	.LCFI6:
 126              		.cfi_restore_state
  98:../../CM4/Core/Src/stm32h7xx_hal_msp.c ****     PeriphClkInitStruct.Usart234578ClockSelection = RCC_USART234578CLKSOURCE_D2PCLK1;
 127              		.loc 1 98 5 is_stmt 1 view .LVU18
  98:../../CM4/Core/Src/stm32h7xx_hal_msp.c ****     PeriphClkInitStruct.Usart234578ClockSelection = RCC_USART234578CLKSOURCE_D2PCLK1;
 128              		.loc 1 98 46 is_stmt 0 view .LVU19
 129 001c 0222     		movs	r2, #2
 130 001e 0023     		movs	r3, #0
 131 0020 CDE90223 		strd	r2, [sp, #8]
  99:../../CM4/Core/Src/stm32h7xx_hal_msp.c ****     if (HAL_RCCEx_PeriphCLKConfig(&PeriphClkInitStruct) != HAL_OK)
 132              		.loc 1 99 5 is_stmt 1 view .LVU20
 100:../../CM4/Core/Src/stm32h7xx_hal_msp.c ****     {
 133              		.loc 1 100 5 view .LVU21
 100:../../CM4/Core/Src/stm32h7xx_hal_msp.c ****     {
 134              		.loc 1 100 9 is_stmt 0 view .LVU22
 135 0024 02A8     		add	r0, sp, #8
 136 0026 FFF7FEFF 		bl	HAL_RCCEx_PeriphCLKConfig
 137              	.LVL5:
 100:../../CM4/Core/Src/stm32h7xx_hal_msp.c ****     {
 138              		.loc 1 100 8 view .LVU23
 139 002a 68B9     		cbnz	r0, .L10
 140              	.L7:
 106:../../CM4/Core/Src/stm32h7xx_hal_msp.c ****   /* USER CODE BEGIN USART3_MspInit 1 */
 141              		.loc 1 106 5 is_stmt 1 view .LVU24
 142              	.LBB3:
 106:../../CM4/Core/Src/stm32h7xx_hal_msp.c ****   /* USER CODE BEGIN USART3_MspInit 1 */
 143              		.loc 1 106 5 view .LVU25
 106:../../CM4/Core/Src/stm32h7xx_hal_msp.c ****   /* USER CODE BEGIN USART3_MspInit 1 */
 144              		.loc 1 106 5 view .LVU26
 145 002c 094B     		ldr	r3, .L11+4
 146 002e D3F8E820 		ldr	r2, [r3, #232]
 147 0032 42F48022 		orr	r2, r2, #262144
 148 0036 C3F8E820 		str	r2, [r3, #232]
 106:../../CM4/Core/Src/stm32h7xx_hal_msp.c ****   /* USER CODE BEGIN USART3_MspInit 1 */
 149              		.loc 1 106 5 view .LVU27
 150 003a D3F8E830 		ldr	r3, [r3, #232]
 151 003e 03F48023 		and	r3, r3, #262144
 152 0042 0193     		str	r3, [sp, #4]
 106:../../CM4/Core/Src/stm32h7xx_hal_msp.c ****   /* USER CODE BEGIN USART3_MspInit 1 */
 153              		.loc 1 106 5 view .LVU28
 154 0044 019B     		ldr	r3, [sp, #4]
 155              	.LBE3:
 106:../../CM4/Core/Src/stm32h7xx_hal_msp.c ****   /* USER CODE BEGIN USART3_MspInit 1 */
 156              		.loc 1 106 5 view .LVU29
 157              		.loc 1 112 1 is_stmt 0 view .LVU30
 158 0046 E7E7     		b	.L5
 159              	.L10:
 102:../../CM4/Core/Src/stm32h7xx_hal_msp.c ****     }
 160              		.loc 1 102 7 is_stmt 1 view .LVU31
 161 0048 FFF7FEFF 		bl	Error_Handler
 162              	.LVL6:
 163 004c EEE7     		b	.L7
ARM GAS  C:\Users\gigig\AppData\Local\Temp\ccWZWLjv.s 			page 6


 164              	.L12:
 165 004e 00BF     		.align	2
 166              	.L11:
 167 0050 00480040 		.word	1073760256
 168 0054 00440258 		.word	1476543488
 169              		.cfi_endproc
 170              	.LFE133:
 172              		.section	.text.HAL_UART_MspDeInit,"ax",%progbits
 173              		.align	1
 174              		.global	HAL_UART_MspDeInit
 175              		.syntax unified
 176              		.thumb
 177              		.thumb_func
 179              	HAL_UART_MspDeInit:
 180              	.LVL7:
 181              	.LFB134:
 113:../../CM4/Core/Src/stm32h7xx_hal_msp.c **** 
 114:../../CM4/Core/Src/stm32h7xx_hal_msp.c **** /**
 115:../../CM4/Core/Src/stm32h7xx_hal_msp.c **** * @brief UART MSP De-Initialization
 116:../../CM4/Core/Src/stm32h7xx_hal_msp.c **** * This function freeze the hardware resources used in this example
 117:../../CM4/Core/Src/stm32h7xx_hal_msp.c **** * @param huart: UART handle pointer
 118:../../CM4/Core/Src/stm32h7xx_hal_msp.c **** * @retval None
 119:../../CM4/Core/Src/stm32h7xx_hal_msp.c **** */
 120:../../CM4/Core/Src/stm32h7xx_hal_msp.c **** void HAL_UART_MspDeInit(UART_HandleTypeDef* huart)
 121:../../CM4/Core/Src/stm32h7xx_hal_msp.c **** {
 182              		.loc 1 121 1 view -0
 183              		.cfi_startproc
 184              		@ args = 0, pretend = 0, frame = 0
 185              		@ frame_needed = 0, uses_anonymous_args = 0
 186              		@ link register save eliminated.
 122:../../CM4/Core/Src/stm32h7xx_hal_msp.c ****   if(huart->Instance==USART3)
 187              		.loc 1 122 3 view .LVU33
 188              		.loc 1 122 11 is_stmt 0 view .LVU34
 189 0000 0268     		ldr	r2, [r0]
 190              		.loc 1 122 5 view .LVU35
 191 0002 064B     		ldr	r3, .L16
 192 0004 9A42     		cmp	r2, r3
 193 0006 00D0     		beq	.L15
 194              	.L13:
 123:../../CM4/Core/Src/stm32h7xx_hal_msp.c ****   {
 124:../../CM4/Core/Src/stm32h7xx_hal_msp.c ****   /* USER CODE BEGIN USART3_MspDeInit 0 */
 125:../../CM4/Core/Src/stm32h7xx_hal_msp.c **** 
 126:../../CM4/Core/Src/stm32h7xx_hal_msp.c ****   /* USER CODE END USART3_MspDeInit 0 */
 127:../../CM4/Core/Src/stm32h7xx_hal_msp.c ****     /* Peripheral clock disable */
 128:../../CM4/Core/Src/stm32h7xx_hal_msp.c ****     __HAL_RCC_USART3_CLK_DISABLE();
 129:../../CM4/Core/Src/stm32h7xx_hal_msp.c ****   /* USER CODE BEGIN USART3_MspDeInit 1 */
 130:../../CM4/Core/Src/stm32h7xx_hal_msp.c **** 
 131:../../CM4/Core/Src/stm32h7xx_hal_msp.c ****   /* USER CODE END USART3_MspDeInit 1 */
 132:../../CM4/Core/Src/stm32h7xx_hal_msp.c ****   }
 133:../../CM4/Core/Src/stm32h7xx_hal_msp.c **** 
 134:../../CM4/Core/Src/stm32h7xx_hal_msp.c **** }
 195              		.loc 1 134 1 view .LVU36
 196 0008 7047     		bx	lr
 197              	.L15:
 128:../../CM4/Core/Src/stm32h7xx_hal_msp.c ****   /* USER CODE BEGIN USART3_MspDeInit 1 */
 198              		.loc 1 128 5 is_stmt 1 view .LVU37
 199 000a 054A     		ldr	r2, .L16+4
ARM GAS  C:\Users\gigig\AppData\Local\Temp\ccWZWLjv.s 			page 7


 200 000c D2F8E830 		ldr	r3, [r2, #232]
 201 0010 23F48023 		bic	r3, r3, #262144
 202 0014 C2F8E830 		str	r3, [r2, #232]
 203              		.loc 1 134 1 is_stmt 0 view .LVU38
 204 0018 F6E7     		b	.L13
 205              	.L17:
 206 001a 00BF     		.align	2
 207              	.L16:
 208 001c 00480040 		.word	1073760256
 209 0020 00440258 		.word	1476543488
 210              		.cfi_endproc
 211              	.LFE134:
 213              		.text
 214              	.Letext0:
 215              		.file 2 "../../Drivers/CMSIS/Device/ST/STM32H7xx/Include/stm32h755xx.h"
 216              		.file 3 "c:\\program files (x86)\\arm gnu toolchain arm-none-eabi\\12.2 rel1\\arm-none-eabi\\inclu
 217              		.file 4 "c:\\program files (x86)\\arm gnu toolchain arm-none-eabi\\12.2 rel1\\arm-none-eabi\\inclu
 218              		.file 5 "../../Drivers/STM32H7xx_HAL_Driver/Inc/stm32h7xx_hal_def.h"
 219              		.file 6 "../../Drivers/STM32H7xx_HAL_Driver/Inc/stm32h7xx_hal_rcc_ex.h"
 220              		.file 7 "../../Drivers/STM32H7xx_HAL_Driver/Inc/stm32h7xx_hal_dma.h"
 221              		.file 8 "../../Drivers/STM32H7xx_HAL_Driver/Inc/stm32h7xx_hal_uart.h"
 222              		.file 9 "../../CM4/Core/Inc/main.h"
 223              		.file 10 "../../Drivers/STM32H7xx_HAL_Driver/Inc/stm32h7xx_hal_cortex.h"
 224              		.file 11 "<built-in>"
ARM GAS  C:\Users\gigig\AppData\Local\Temp\ccWZWLjv.s 			page 8

