ARM GAS  C:\Users\gigig\AppData\Local\Temp\ccovY76i.s 			page 1


   1              		.cpu cortex-m7
   2              		.arch armv7e-m
   3              		.fpu fpv4-sp-d16
   4              		.eabi_attribute 27, 1
   5              		.eabi_attribute 28, 1
   6              		.eabi_attribute 20, 1
   7              		.eabi_attribute 21, 1
   8              		.eabi_attribute 23, 3
   9              		.eabi_attribute 24, 1
  10              		.eabi_attribute 25, 1
  11              		.eabi_attribute 26, 1
  12              		.eabi_attribute 30, 1
  13              		.eabi_attribute 34, 1
  14              		.eabi_attribute 18, 4
  15              		.file	"timers.c"
  16              		.text
  17              	.Ltext0:
  18              		.cfi_sections	.debug_frame
  19              		.section	.text.prvGetNextExpireTime,"ax",%progbits
  20              		.align	1
  21              		.syntax unified
  22              		.thumb
  23              		.thumb_func
  25              	prvGetNextExpireTime:
  26              	.LVL0:
  27              	.LFB18:
  28              		.file 1 "../../Middlewares/Third_Party/FreeRTOS/Source/timers.c"
   1:../../Middlewares/Third_Party/FreeRTOS/Source/timers.c **** /*
   2:../../Middlewares/Third_Party/FreeRTOS/Source/timers.c ****  * FreeRTOS Kernel V10.3.1
   3:../../Middlewares/Third_Party/FreeRTOS/Source/timers.c ****  * Copyright (C) 2020 Amazon.com, Inc. or its affiliates.  All Rights Reserved.
   4:../../Middlewares/Third_Party/FreeRTOS/Source/timers.c ****  *
   5:../../Middlewares/Third_Party/FreeRTOS/Source/timers.c ****  * Permission is hereby granted, free of charge, to any person obtaining a copy of
   6:../../Middlewares/Third_Party/FreeRTOS/Source/timers.c ****  * this software and associated documentation files (the "Software"), to deal in
   7:../../Middlewares/Third_Party/FreeRTOS/Source/timers.c ****  * the Software without restriction, including without limitation the rights to
   8:../../Middlewares/Third_Party/FreeRTOS/Source/timers.c ****  * use, copy, modify, merge, publish, distribute, sublicense, and/or sell copies of
   9:../../Middlewares/Third_Party/FreeRTOS/Source/timers.c ****  * the Software, and to permit persons to whom the Software is furnished to do so,
  10:../../Middlewares/Third_Party/FreeRTOS/Source/timers.c ****  * subject to the following conditions:
  11:../../Middlewares/Third_Party/FreeRTOS/Source/timers.c ****  *
  12:../../Middlewares/Third_Party/FreeRTOS/Source/timers.c ****  * The above copyright notice and this permission notice shall be included in all
  13:../../Middlewares/Third_Party/FreeRTOS/Source/timers.c ****  * copies or substantial portions of the Software.
  14:../../Middlewares/Third_Party/FreeRTOS/Source/timers.c ****  *
  15:../../Middlewares/Third_Party/FreeRTOS/Source/timers.c ****  * THE SOFTWARE IS PROVIDED "AS IS", WITHOUT WARRANTY OF ANY KIND, EXPRESS OR
  16:../../Middlewares/Third_Party/FreeRTOS/Source/timers.c ****  * IMPLIED, INCLUDING BUT NOT LIMITED TO THE WARRANTIES OF MERCHANTABILITY, FITNESS
  17:../../Middlewares/Third_Party/FreeRTOS/Source/timers.c ****  * FOR A PARTICULAR PURPOSE AND NONINFRINGEMENT. IN NO EVENT SHALL THE AUTHORS OR
  18:../../Middlewares/Third_Party/FreeRTOS/Source/timers.c ****  * COPYRIGHT HOLDERS BE LIABLE FOR ANY CLAIM, DAMAGES OR OTHER LIABILITY, WHETHER
  19:../../Middlewares/Third_Party/FreeRTOS/Source/timers.c ****  * IN AN ACTION OF CONTRACT, TORT OR OTHERWISE, ARISING FROM, OUT OF OR IN
  20:../../Middlewares/Third_Party/FreeRTOS/Source/timers.c ****  * CONNECTION WITH THE SOFTWARE OR THE USE OR OTHER DEALINGS IN THE SOFTWARE.
  21:../../Middlewares/Third_Party/FreeRTOS/Source/timers.c ****  *
  22:../../Middlewares/Third_Party/FreeRTOS/Source/timers.c ****  * http://www.FreeRTOS.org
  23:../../Middlewares/Third_Party/FreeRTOS/Source/timers.c ****  * http://aws.amazon.com/freertos
  24:../../Middlewares/Third_Party/FreeRTOS/Source/timers.c ****  *
  25:../../Middlewares/Third_Party/FreeRTOS/Source/timers.c ****  * 1 tab == 4 spaces!
  26:../../Middlewares/Third_Party/FreeRTOS/Source/timers.c ****  */
  27:../../Middlewares/Third_Party/FreeRTOS/Source/timers.c **** 
  28:../../Middlewares/Third_Party/FreeRTOS/Source/timers.c **** /* Standard includes. */
  29:../../Middlewares/Third_Party/FreeRTOS/Source/timers.c **** #include <stdlib.h>
  30:../../Middlewares/Third_Party/FreeRTOS/Source/timers.c **** 
ARM GAS  C:\Users\gigig\AppData\Local\Temp\ccovY76i.s 			page 2


  31:../../Middlewares/Third_Party/FreeRTOS/Source/timers.c **** /* Defining MPU_WRAPPERS_INCLUDED_FROM_API_FILE prevents task.h from redefining
  32:../../Middlewares/Third_Party/FreeRTOS/Source/timers.c **** all the API functions to use the MPU wrappers.  That should only be done when
  33:../../Middlewares/Third_Party/FreeRTOS/Source/timers.c **** task.h is included from an application file. */
  34:../../Middlewares/Third_Party/FreeRTOS/Source/timers.c **** #define MPU_WRAPPERS_INCLUDED_FROM_API_FILE
  35:../../Middlewares/Third_Party/FreeRTOS/Source/timers.c **** 
  36:../../Middlewares/Third_Party/FreeRTOS/Source/timers.c **** #include "FreeRTOS.h"
  37:../../Middlewares/Third_Party/FreeRTOS/Source/timers.c **** #include "task.h"
  38:../../Middlewares/Third_Party/FreeRTOS/Source/timers.c **** #include "queue.h"
  39:../../Middlewares/Third_Party/FreeRTOS/Source/timers.c **** #include "timers.h"
  40:../../Middlewares/Third_Party/FreeRTOS/Source/timers.c **** 
  41:../../Middlewares/Third_Party/FreeRTOS/Source/timers.c **** #if ( INCLUDE_xTimerPendFunctionCall == 1 ) && ( configUSE_TIMERS == 0 )
  42:../../Middlewares/Third_Party/FreeRTOS/Source/timers.c **** 	#error configUSE_TIMERS must be set to 1 to make the xTimerPendFunctionCall() function available.
  43:../../Middlewares/Third_Party/FreeRTOS/Source/timers.c **** #endif
  44:../../Middlewares/Third_Party/FreeRTOS/Source/timers.c **** 
  45:../../Middlewares/Third_Party/FreeRTOS/Source/timers.c **** /* Lint e9021, e961 and e750 are suppressed as a MISRA exception justified
  46:../../Middlewares/Third_Party/FreeRTOS/Source/timers.c **** because the MPU ports require MPU_WRAPPERS_INCLUDED_FROM_API_FILE to be defined
  47:../../Middlewares/Third_Party/FreeRTOS/Source/timers.c **** for the header files above, but not in this file, in order to generate the
  48:../../Middlewares/Third_Party/FreeRTOS/Source/timers.c **** correct privileged Vs unprivileged linkage and placement. */
  49:../../Middlewares/Third_Party/FreeRTOS/Source/timers.c **** #undef MPU_WRAPPERS_INCLUDED_FROM_API_FILE /*lint !e9021 !e961 !e750. */
  50:../../Middlewares/Third_Party/FreeRTOS/Source/timers.c **** 
  51:../../Middlewares/Third_Party/FreeRTOS/Source/timers.c **** 
  52:../../Middlewares/Third_Party/FreeRTOS/Source/timers.c **** /* This entire source file will be skipped if the application is not configured
  53:../../Middlewares/Third_Party/FreeRTOS/Source/timers.c **** to include software timer functionality.  This #if is closed at the very bottom
  54:../../Middlewares/Third_Party/FreeRTOS/Source/timers.c **** of this file.  If you want to include software timer functionality then ensure
  55:../../Middlewares/Third_Party/FreeRTOS/Source/timers.c **** configUSE_TIMERS is set to 1 in FreeRTOSConfig.h. */
  56:../../Middlewares/Third_Party/FreeRTOS/Source/timers.c **** #if ( configUSE_TIMERS == 1 )
  57:../../Middlewares/Third_Party/FreeRTOS/Source/timers.c **** 
  58:../../Middlewares/Third_Party/FreeRTOS/Source/timers.c **** /* Misc definitions. */
  59:../../Middlewares/Third_Party/FreeRTOS/Source/timers.c **** #define tmrNO_DELAY		( TickType_t ) 0U
  60:../../Middlewares/Third_Party/FreeRTOS/Source/timers.c **** 
  61:../../Middlewares/Third_Party/FreeRTOS/Source/timers.c **** /* The name assigned to the timer service task.  This can be overridden by
  62:../../Middlewares/Third_Party/FreeRTOS/Source/timers.c **** defining trmTIMER_SERVICE_TASK_NAME in FreeRTOSConfig.h. */
  63:../../Middlewares/Third_Party/FreeRTOS/Source/timers.c **** #ifndef configTIMER_SERVICE_TASK_NAME
  64:../../Middlewares/Third_Party/FreeRTOS/Source/timers.c **** 	#define configTIMER_SERVICE_TASK_NAME "Tmr Svc"
  65:../../Middlewares/Third_Party/FreeRTOS/Source/timers.c **** #endif
  66:../../Middlewares/Third_Party/FreeRTOS/Source/timers.c **** 
  67:../../Middlewares/Third_Party/FreeRTOS/Source/timers.c **** /* Bit definitions used in the ucStatus member of a timer structure. */
  68:../../Middlewares/Third_Party/FreeRTOS/Source/timers.c **** #define tmrSTATUS_IS_ACTIVE					( ( uint8_t ) 0x01 )
  69:../../Middlewares/Third_Party/FreeRTOS/Source/timers.c **** #define tmrSTATUS_IS_STATICALLY_ALLOCATED	( ( uint8_t ) 0x02 )
  70:../../Middlewares/Third_Party/FreeRTOS/Source/timers.c **** #define tmrSTATUS_IS_AUTORELOAD				( ( uint8_t ) 0x04 )
  71:../../Middlewares/Third_Party/FreeRTOS/Source/timers.c **** 
  72:../../Middlewares/Third_Party/FreeRTOS/Source/timers.c **** /* The definition of the timers themselves. */
  73:../../Middlewares/Third_Party/FreeRTOS/Source/timers.c **** typedef struct tmrTimerControl /* The old naming convention is used to prevent breaking kernel awar
  74:../../Middlewares/Third_Party/FreeRTOS/Source/timers.c **** {
  75:../../Middlewares/Third_Party/FreeRTOS/Source/timers.c **** 	const char				*pcTimerName;		/*<< Text name.  This is not used by the kernel, it is included simpl
  76:../../Middlewares/Third_Party/FreeRTOS/Source/timers.c **** 	ListItem_t				xTimerListItem;		/*<< Standard linked list item as used by all kernel features for e
  77:../../Middlewares/Third_Party/FreeRTOS/Source/timers.c **** 	TickType_t				xTimerPeriodInTicks;/*<< How quickly and often the timer expires. */
  78:../../Middlewares/Third_Party/FreeRTOS/Source/timers.c **** 	void 					*pvTimerID;			/*<< An ID to identify the timer.  This allows the timer to be identified 
  79:../../Middlewares/Third_Party/FreeRTOS/Source/timers.c **** 	TimerCallbackFunction_t	pxCallbackFunction;	/*<< The function that will be called when the timer e
  80:../../Middlewares/Third_Party/FreeRTOS/Source/timers.c **** 	#if( configUSE_TRACE_FACILITY == 1 )
  81:../../Middlewares/Third_Party/FreeRTOS/Source/timers.c **** 		UBaseType_t			uxTimerNumber;		/*<< An ID assigned by trace tools such as FreeRTOS+Trace */
  82:../../Middlewares/Third_Party/FreeRTOS/Source/timers.c **** 	#endif
  83:../../Middlewares/Third_Party/FreeRTOS/Source/timers.c **** 	uint8_t 				ucStatus;			/*<< Holds bits to say if the timer was statically allocated or not, and i
  84:../../Middlewares/Third_Party/FreeRTOS/Source/timers.c **** } xTIMER;
  85:../../Middlewares/Third_Party/FreeRTOS/Source/timers.c **** 
  86:../../Middlewares/Third_Party/FreeRTOS/Source/timers.c **** /* The old xTIMER name is maintained above then typedefed to the new Timer_t
  87:../../Middlewares/Third_Party/FreeRTOS/Source/timers.c **** name below to enable the use of older kernel aware debuggers. */
ARM GAS  C:\Users\gigig\AppData\Local\Temp\ccovY76i.s 			page 3


  88:../../Middlewares/Third_Party/FreeRTOS/Source/timers.c **** typedef xTIMER Timer_t;
  89:../../Middlewares/Third_Party/FreeRTOS/Source/timers.c **** 
  90:../../Middlewares/Third_Party/FreeRTOS/Source/timers.c **** /* The definition of messages that can be sent and received on the timer queue.
  91:../../Middlewares/Third_Party/FreeRTOS/Source/timers.c **** Two types of message can be queued - messages that manipulate a software timer,
  92:../../Middlewares/Third_Party/FreeRTOS/Source/timers.c **** and messages that request the execution of a non-timer related callback.  The
  93:../../Middlewares/Third_Party/FreeRTOS/Source/timers.c **** two message types are defined in two separate structures, xTimerParametersType
  94:../../Middlewares/Third_Party/FreeRTOS/Source/timers.c **** and xCallbackParametersType respectively. */
  95:../../Middlewares/Third_Party/FreeRTOS/Source/timers.c **** typedef struct tmrTimerParameters
  96:../../Middlewares/Third_Party/FreeRTOS/Source/timers.c **** {
  97:../../Middlewares/Third_Party/FreeRTOS/Source/timers.c **** 	TickType_t			xMessageValue;		/*<< An optional value used by a subset of commands, for example, whe
  98:../../Middlewares/Third_Party/FreeRTOS/Source/timers.c **** 	Timer_t *			pxTimer;			/*<< The timer to which the command will be applied. */
  99:../../Middlewares/Third_Party/FreeRTOS/Source/timers.c **** } TimerParameter_t;
 100:../../Middlewares/Third_Party/FreeRTOS/Source/timers.c **** 
 101:../../Middlewares/Third_Party/FreeRTOS/Source/timers.c **** 
 102:../../Middlewares/Third_Party/FreeRTOS/Source/timers.c **** typedef struct tmrCallbackParameters
 103:../../Middlewares/Third_Party/FreeRTOS/Source/timers.c **** {
 104:../../Middlewares/Third_Party/FreeRTOS/Source/timers.c **** 	PendedFunction_t	pxCallbackFunction;	/* << The callback function to execute. */
 105:../../Middlewares/Third_Party/FreeRTOS/Source/timers.c **** 	void *pvParameter1;						/* << The value that will be used as the callback functions first paramet
 106:../../Middlewares/Third_Party/FreeRTOS/Source/timers.c **** 	uint32_t ulParameter2;					/* << The value that will be used as the callback functions second para
 107:../../Middlewares/Third_Party/FreeRTOS/Source/timers.c **** } CallbackParameters_t;
 108:../../Middlewares/Third_Party/FreeRTOS/Source/timers.c **** 
 109:../../Middlewares/Third_Party/FreeRTOS/Source/timers.c **** /* The structure that contains the two message types, along with an identifier
 110:../../Middlewares/Third_Party/FreeRTOS/Source/timers.c **** that is used to determine which message type is valid. */
 111:../../Middlewares/Third_Party/FreeRTOS/Source/timers.c **** typedef struct tmrTimerQueueMessage
 112:../../Middlewares/Third_Party/FreeRTOS/Source/timers.c **** {
 113:../../Middlewares/Third_Party/FreeRTOS/Source/timers.c **** 	BaseType_t			xMessageID;			/*<< The command being sent to the timer service task. */
 114:../../Middlewares/Third_Party/FreeRTOS/Source/timers.c **** 	union
 115:../../Middlewares/Third_Party/FreeRTOS/Source/timers.c **** 	{
 116:../../Middlewares/Third_Party/FreeRTOS/Source/timers.c **** 		TimerParameter_t xTimerParameters;
 117:../../Middlewares/Third_Party/FreeRTOS/Source/timers.c **** 
 118:../../Middlewares/Third_Party/FreeRTOS/Source/timers.c **** 		/* Don't include xCallbackParameters if it is not going to be used as
 119:../../Middlewares/Third_Party/FreeRTOS/Source/timers.c **** 		it makes the structure (and therefore the timer queue) larger. */
 120:../../Middlewares/Third_Party/FreeRTOS/Source/timers.c **** 		#if ( INCLUDE_xTimerPendFunctionCall == 1 )
 121:../../Middlewares/Third_Party/FreeRTOS/Source/timers.c **** 			CallbackParameters_t xCallbackParameters;
 122:../../Middlewares/Third_Party/FreeRTOS/Source/timers.c **** 		#endif /* INCLUDE_xTimerPendFunctionCall */
 123:../../Middlewares/Third_Party/FreeRTOS/Source/timers.c **** 	} u;
 124:../../Middlewares/Third_Party/FreeRTOS/Source/timers.c **** } DaemonTaskMessage_t;
 125:../../Middlewares/Third_Party/FreeRTOS/Source/timers.c **** 
 126:../../Middlewares/Third_Party/FreeRTOS/Source/timers.c **** /*lint -save -e956 A manual analysis and inspection has been used to determine
 127:../../Middlewares/Third_Party/FreeRTOS/Source/timers.c **** which static variables must be declared volatile. */
 128:../../Middlewares/Third_Party/FreeRTOS/Source/timers.c **** 
 129:../../Middlewares/Third_Party/FreeRTOS/Source/timers.c **** /* The list in which active timers are stored.  Timers are referenced in expire
 130:../../Middlewares/Third_Party/FreeRTOS/Source/timers.c **** time order, with the nearest expiry time at the front of the list.  Only the
 131:../../Middlewares/Third_Party/FreeRTOS/Source/timers.c **** timer service task is allowed to access these lists.
 132:../../Middlewares/Third_Party/FreeRTOS/Source/timers.c **** xActiveTimerList1 and xActiveTimerList2 could be at function scope but that
 133:../../Middlewares/Third_Party/FreeRTOS/Source/timers.c **** breaks some kernel aware debuggers, and debuggers that reply on removing the
 134:../../Middlewares/Third_Party/FreeRTOS/Source/timers.c **** static qualifier. */
 135:../../Middlewares/Third_Party/FreeRTOS/Source/timers.c **** PRIVILEGED_DATA static List_t xActiveTimerList1;
 136:../../Middlewares/Third_Party/FreeRTOS/Source/timers.c **** PRIVILEGED_DATA static List_t xActiveTimerList2;
 137:../../Middlewares/Third_Party/FreeRTOS/Source/timers.c **** PRIVILEGED_DATA static List_t *pxCurrentTimerList;
 138:../../Middlewares/Third_Party/FreeRTOS/Source/timers.c **** PRIVILEGED_DATA static List_t *pxOverflowTimerList;
 139:../../Middlewares/Third_Party/FreeRTOS/Source/timers.c **** 
 140:../../Middlewares/Third_Party/FreeRTOS/Source/timers.c **** /* A queue that is used to send commands to the timer service task. */
 141:../../Middlewares/Third_Party/FreeRTOS/Source/timers.c **** PRIVILEGED_DATA static QueueHandle_t xTimerQueue = NULL;
 142:../../Middlewares/Third_Party/FreeRTOS/Source/timers.c **** PRIVILEGED_DATA static TaskHandle_t xTimerTaskHandle = NULL;
 143:../../Middlewares/Third_Party/FreeRTOS/Source/timers.c **** 
 144:../../Middlewares/Third_Party/FreeRTOS/Source/timers.c **** /*lint -restore */
ARM GAS  C:\Users\gigig\AppData\Local\Temp\ccovY76i.s 			page 4


 145:../../Middlewares/Third_Party/FreeRTOS/Source/timers.c **** 
 146:../../Middlewares/Third_Party/FreeRTOS/Source/timers.c **** /*-----------------------------------------------------------*/
 147:../../Middlewares/Third_Party/FreeRTOS/Source/timers.c **** 
 148:../../Middlewares/Third_Party/FreeRTOS/Source/timers.c **** #if( configSUPPORT_STATIC_ALLOCATION == 1 )
 149:../../Middlewares/Third_Party/FreeRTOS/Source/timers.c **** 
 150:../../Middlewares/Third_Party/FreeRTOS/Source/timers.c **** 	/* If static allocation is supported then the application must provide the
 151:../../Middlewares/Third_Party/FreeRTOS/Source/timers.c **** 	following callback function - which enables the application to optionally
 152:../../Middlewares/Third_Party/FreeRTOS/Source/timers.c **** 	provide the memory that will be used by the timer task as the task's stack
 153:../../Middlewares/Third_Party/FreeRTOS/Source/timers.c **** 	and TCB. */
 154:../../Middlewares/Third_Party/FreeRTOS/Source/timers.c **** 	extern void vApplicationGetTimerTaskMemory( StaticTask_t **ppxTimerTaskTCBBuffer, StackType_t **pp
 155:../../Middlewares/Third_Party/FreeRTOS/Source/timers.c **** 
 156:../../Middlewares/Third_Party/FreeRTOS/Source/timers.c **** #endif
 157:../../Middlewares/Third_Party/FreeRTOS/Source/timers.c **** 
 158:../../Middlewares/Third_Party/FreeRTOS/Source/timers.c **** /*
 159:../../Middlewares/Third_Party/FreeRTOS/Source/timers.c ****  * Initialise the infrastructure used by the timer service task if it has not
 160:../../Middlewares/Third_Party/FreeRTOS/Source/timers.c ****  * been initialised already.
 161:../../Middlewares/Third_Party/FreeRTOS/Source/timers.c ****  */
 162:../../Middlewares/Third_Party/FreeRTOS/Source/timers.c **** static void prvCheckForValidListAndQueue( void ) PRIVILEGED_FUNCTION;
 163:../../Middlewares/Third_Party/FreeRTOS/Source/timers.c **** 
 164:../../Middlewares/Third_Party/FreeRTOS/Source/timers.c **** /*
 165:../../Middlewares/Third_Party/FreeRTOS/Source/timers.c ****  * The timer service task (daemon).  Timer functionality is controlled by this
 166:../../Middlewares/Third_Party/FreeRTOS/Source/timers.c ****  * task.  Other tasks communicate with the timer service task using the
 167:../../Middlewares/Third_Party/FreeRTOS/Source/timers.c ****  * xTimerQueue queue.
 168:../../Middlewares/Third_Party/FreeRTOS/Source/timers.c ****  */
 169:../../Middlewares/Third_Party/FreeRTOS/Source/timers.c **** static portTASK_FUNCTION_PROTO( prvTimerTask, pvParameters ) PRIVILEGED_FUNCTION;
 170:../../Middlewares/Third_Party/FreeRTOS/Source/timers.c **** 
 171:../../Middlewares/Third_Party/FreeRTOS/Source/timers.c **** /*
 172:../../Middlewares/Third_Party/FreeRTOS/Source/timers.c ****  * Called by the timer service task to interpret and process a command it
 173:../../Middlewares/Third_Party/FreeRTOS/Source/timers.c ****  * received on the timer queue.
 174:../../Middlewares/Third_Party/FreeRTOS/Source/timers.c ****  */
 175:../../Middlewares/Third_Party/FreeRTOS/Source/timers.c **** static void prvProcessReceivedCommands( void ) PRIVILEGED_FUNCTION;
 176:../../Middlewares/Third_Party/FreeRTOS/Source/timers.c **** 
 177:../../Middlewares/Third_Party/FreeRTOS/Source/timers.c **** /*
 178:../../Middlewares/Third_Party/FreeRTOS/Source/timers.c ****  * Insert the timer into either xActiveTimerList1, or xActiveTimerList2,
 179:../../Middlewares/Third_Party/FreeRTOS/Source/timers.c ****  * depending on if the expire time causes a timer counter overflow.
 180:../../Middlewares/Third_Party/FreeRTOS/Source/timers.c ****  */
 181:../../Middlewares/Third_Party/FreeRTOS/Source/timers.c **** static BaseType_t prvInsertTimerInActiveList( Timer_t * const pxTimer, const TickType_t xNextExpiry
 182:../../Middlewares/Third_Party/FreeRTOS/Source/timers.c **** 
 183:../../Middlewares/Third_Party/FreeRTOS/Source/timers.c **** /*
 184:../../Middlewares/Third_Party/FreeRTOS/Source/timers.c ****  * An active timer has reached its expire time.  Reload the timer if it is an
 185:../../Middlewares/Third_Party/FreeRTOS/Source/timers.c ****  * auto-reload timer, then call its callback.
 186:../../Middlewares/Third_Party/FreeRTOS/Source/timers.c ****  */
 187:../../Middlewares/Third_Party/FreeRTOS/Source/timers.c **** static void prvProcessExpiredTimer( const TickType_t xNextExpireTime, const TickType_t xTimeNow ) P
 188:../../Middlewares/Third_Party/FreeRTOS/Source/timers.c **** 
 189:../../Middlewares/Third_Party/FreeRTOS/Source/timers.c **** /*
 190:../../Middlewares/Third_Party/FreeRTOS/Source/timers.c ****  * The tick count has overflowed.  Switch the timer lists after ensuring the
 191:../../Middlewares/Third_Party/FreeRTOS/Source/timers.c ****  * current timer list does not still reference some timers.
 192:../../Middlewares/Third_Party/FreeRTOS/Source/timers.c ****  */
 193:../../Middlewares/Third_Party/FreeRTOS/Source/timers.c **** static void prvSwitchTimerLists( void ) PRIVILEGED_FUNCTION;
 194:../../Middlewares/Third_Party/FreeRTOS/Source/timers.c **** 
 195:../../Middlewares/Third_Party/FreeRTOS/Source/timers.c **** /*
 196:../../Middlewares/Third_Party/FreeRTOS/Source/timers.c ****  * Obtain the current tick count, setting *pxTimerListsWereSwitched to pdTRUE
 197:../../Middlewares/Third_Party/FreeRTOS/Source/timers.c ****  * if a tick count overflow occurred since prvSampleTimeNow() was last called.
 198:../../Middlewares/Third_Party/FreeRTOS/Source/timers.c ****  */
 199:../../Middlewares/Third_Party/FreeRTOS/Source/timers.c **** static TickType_t prvSampleTimeNow( BaseType_t * const pxTimerListsWereSwitched ) PRIVILEGED_FUNCTI
 200:../../Middlewares/Third_Party/FreeRTOS/Source/timers.c **** 
 201:../../Middlewares/Third_Party/FreeRTOS/Source/timers.c **** /*
ARM GAS  C:\Users\gigig\AppData\Local\Temp\ccovY76i.s 			page 5


 202:../../Middlewares/Third_Party/FreeRTOS/Source/timers.c ****  * If the timer list contains any active timers then return the expire time of
 203:../../Middlewares/Third_Party/FreeRTOS/Source/timers.c ****  * the timer that will expire first and set *pxListWasEmpty to false.  If the
 204:../../Middlewares/Third_Party/FreeRTOS/Source/timers.c ****  * timer list does not contain any timers then return 0 and set *pxListWasEmpty
 205:../../Middlewares/Third_Party/FreeRTOS/Source/timers.c ****  * to pdTRUE.
 206:../../Middlewares/Third_Party/FreeRTOS/Source/timers.c ****  */
 207:../../Middlewares/Third_Party/FreeRTOS/Source/timers.c **** static TickType_t prvGetNextExpireTime( BaseType_t * const pxListWasEmpty ) PRIVILEGED_FUNCTION;
 208:../../Middlewares/Third_Party/FreeRTOS/Source/timers.c **** 
 209:../../Middlewares/Third_Party/FreeRTOS/Source/timers.c **** /*
 210:../../Middlewares/Third_Party/FreeRTOS/Source/timers.c ****  * If a timer has expired, process it.  Otherwise, block the timer service task
 211:../../Middlewares/Third_Party/FreeRTOS/Source/timers.c ****  * until either a timer does expire or a command is received.
 212:../../Middlewares/Third_Party/FreeRTOS/Source/timers.c ****  */
 213:../../Middlewares/Third_Party/FreeRTOS/Source/timers.c **** static void prvProcessTimerOrBlockTask( const TickType_t xNextExpireTime, BaseType_t xListWasEmpty 
 214:../../Middlewares/Third_Party/FreeRTOS/Source/timers.c **** 
 215:../../Middlewares/Third_Party/FreeRTOS/Source/timers.c **** /*
 216:../../Middlewares/Third_Party/FreeRTOS/Source/timers.c ****  * Called after a Timer_t structure has been allocated either statically or
 217:../../Middlewares/Third_Party/FreeRTOS/Source/timers.c ****  * dynamically to fill in the structure's members.
 218:../../Middlewares/Third_Party/FreeRTOS/Source/timers.c ****  */
 219:../../Middlewares/Third_Party/FreeRTOS/Source/timers.c **** static void prvInitialiseNewTimer(	const char * const pcTimerName,			/*lint !e971 Unqualified char 
 220:../../Middlewares/Third_Party/FreeRTOS/Source/timers.c **** 									const TickType_t xTimerPeriodInTicks,
 221:../../Middlewares/Third_Party/FreeRTOS/Source/timers.c **** 									const UBaseType_t uxAutoReload,
 222:../../Middlewares/Third_Party/FreeRTOS/Source/timers.c **** 									void * const pvTimerID,
 223:../../Middlewares/Third_Party/FreeRTOS/Source/timers.c **** 									TimerCallbackFunction_t pxCallbackFunction,
 224:../../Middlewares/Third_Party/FreeRTOS/Source/timers.c **** 									Timer_t *pxNewTimer ) PRIVILEGED_FUNCTION;
 225:../../Middlewares/Third_Party/FreeRTOS/Source/timers.c **** /*-----------------------------------------------------------*/
 226:../../Middlewares/Third_Party/FreeRTOS/Source/timers.c **** 
 227:../../Middlewares/Third_Party/FreeRTOS/Source/timers.c **** BaseType_t xTimerCreateTimerTask( void )
 228:../../Middlewares/Third_Party/FreeRTOS/Source/timers.c **** {
 229:../../Middlewares/Third_Party/FreeRTOS/Source/timers.c **** BaseType_t xReturn = pdFAIL;
 230:../../Middlewares/Third_Party/FreeRTOS/Source/timers.c **** 
 231:../../Middlewares/Third_Party/FreeRTOS/Source/timers.c **** 	/* This function is called when the scheduler is started if
 232:../../Middlewares/Third_Party/FreeRTOS/Source/timers.c **** 	configUSE_TIMERS is set to 1.  Check that the infrastructure used by the
 233:../../Middlewares/Third_Party/FreeRTOS/Source/timers.c **** 	timer service task has been created/initialised.  If timers have already
 234:../../Middlewares/Third_Party/FreeRTOS/Source/timers.c **** 	been created then the initialisation will already have been performed. */
 235:../../Middlewares/Third_Party/FreeRTOS/Source/timers.c **** 	prvCheckForValidListAndQueue();
 236:../../Middlewares/Third_Party/FreeRTOS/Source/timers.c **** 
 237:../../Middlewares/Third_Party/FreeRTOS/Source/timers.c **** 	if( xTimerQueue != NULL )
 238:../../Middlewares/Third_Party/FreeRTOS/Source/timers.c **** 	{
 239:../../Middlewares/Third_Party/FreeRTOS/Source/timers.c **** 		#if( configSUPPORT_STATIC_ALLOCATION == 1 )
 240:../../Middlewares/Third_Party/FreeRTOS/Source/timers.c **** 		{
 241:../../Middlewares/Third_Party/FreeRTOS/Source/timers.c **** 			StaticTask_t *pxTimerTaskTCBBuffer = NULL;
 242:../../Middlewares/Third_Party/FreeRTOS/Source/timers.c **** 			StackType_t *pxTimerTaskStackBuffer = NULL;
 243:../../Middlewares/Third_Party/FreeRTOS/Source/timers.c **** 			uint32_t ulTimerTaskStackSize;
 244:../../Middlewares/Third_Party/FreeRTOS/Source/timers.c **** 
 245:../../Middlewares/Third_Party/FreeRTOS/Source/timers.c **** 			vApplicationGetTimerTaskMemory( &pxTimerTaskTCBBuffer, &pxTimerTaskStackBuffer, &ulTimerTaskStac
 246:../../Middlewares/Third_Party/FreeRTOS/Source/timers.c **** 			xTimerTaskHandle = xTaskCreateStatic(	prvTimerTask,
 247:../../Middlewares/Third_Party/FreeRTOS/Source/timers.c **** 													configTIMER_SERVICE_TASK_NAME,
 248:../../Middlewares/Third_Party/FreeRTOS/Source/timers.c **** 													ulTimerTaskStackSize,
 249:../../Middlewares/Third_Party/FreeRTOS/Source/timers.c **** 													NULL,
 250:../../Middlewares/Third_Party/FreeRTOS/Source/timers.c **** 													( ( UBaseType_t ) configTIMER_TASK_PRIORITY ) | portPRIVILEGE_BIT,
 251:../../Middlewares/Third_Party/FreeRTOS/Source/timers.c **** 													pxTimerTaskStackBuffer,
 252:../../Middlewares/Third_Party/FreeRTOS/Source/timers.c **** 													pxTimerTaskTCBBuffer );
 253:../../Middlewares/Third_Party/FreeRTOS/Source/timers.c **** 
 254:../../Middlewares/Third_Party/FreeRTOS/Source/timers.c **** 			if( xTimerTaskHandle != NULL )
 255:../../Middlewares/Third_Party/FreeRTOS/Source/timers.c **** 			{
 256:../../Middlewares/Third_Party/FreeRTOS/Source/timers.c **** 				xReturn = pdPASS;
 257:../../Middlewares/Third_Party/FreeRTOS/Source/timers.c **** 			}
 258:../../Middlewares/Third_Party/FreeRTOS/Source/timers.c **** 		}
ARM GAS  C:\Users\gigig\AppData\Local\Temp\ccovY76i.s 			page 6


 259:../../Middlewares/Third_Party/FreeRTOS/Source/timers.c **** 		#else
 260:../../Middlewares/Third_Party/FreeRTOS/Source/timers.c **** 		{
 261:../../Middlewares/Third_Party/FreeRTOS/Source/timers.c **** 			xReturn = xTaskCreate(	prvTimerTask,
 262:../../Middlewares/Third_Party/FreeRTOS/Source/timers.c **** 									configTIMER_SERVICE_TASK_NAME,
 263:../../Middlewares/Third_Party/FreeRTOS/Source/timers.c **** 									configTIMER_TASK_STACK_DEPTH,
 264:../../Middlewares/Third_Party/FreeRTOS/Source/timers.c **** 									NULL,
 265:../../Middlewares/Third_Party/FreeRTOS/Source/timers.c **** 									( ( UBaseType_t ) configTIMER_TASK_PRIORITY ) | portPRIVILEGE_BIT,
 266:../../Middlewares/Third_Party/FreeRTOS/Source/timers.c **** 									&xTimerTaskHandle );
 267:../../Middlewares/Third_Party/FreeRTOS/Source/timers.c **** 		}
 268:../../Middlewares/Third_Party/FreeRTOS/Source/timers.c **** 		#endif /* configSUPPORT_STATIC_ALLOCATION */
 269:../../Middlewares/Third_Party/FreeRTOS/Source/timers.c **** 	}
 270:../../Middlewares/Third_Party/FreeRTOS/Source/timers.c **** 	else
 271:../../Middlewares/Third_Party/FreeRTOS/Source/timers.c **** 	{
 272:../../Middlewares/Third_Party/FreeRTOS/Source/timers.c **** 		mtCOVERAGE_TEST_MARKER();
 273:../../Middlewares/Third_Party/FreeRTOS/Source/timers.c **** 	}
 274:../../Middlewares/Third_Party/FreeRTOS/Source/timers.c **** 
 275:../../Middlewares/Third_Party/FreeRTOS/Source/timers.c **** 	configASSERT( xReturn );
 276:../../Middlewares/Third_Party/FreeRTOS/Source/timers.c **** 	return xReturn;
 277:../../Middlewares/Third_Party/FreeRTOS/Source/timers.c **** }
 278:../../Middlewares/Third_Party/FreeRTOS/Source/timers.c **** /*-----------------------------------------------------------*/
 279:../../Middlewares/Third_Party/FreeRTOS/Source/timers.c **** 
 280:../../Middlewares/Third_Party/FreeRTOS/Source/timers.c **** #if( configSUPPORT_DYNAMIC_ALLOCATION == 1 )
 281:../../Middlewares/Third_Party/FreeRTOS/Source/timers.c **** 
 282:../../Middlewares/Third_Party/FreeRTOS/Source/timers.c **** 	TimerHandle_t xTimerCreate(	const char * const pcTimerName,			/*lint !e971 Unqualified char types 
 283:../../Middlewares/Third_Party/FreeRTOS/Source/timers.c **** 								const TickType_t xTimerPeriodInTicks,
 284:../../Middlewares/Third_Party/FreeRTOS/Source/timers.c **** 								const UBaseType_t uxAutoReload,
 285:../../Middlewares/Third_Party/FreeRTOS/Source/timers.c **** 								void * const pvTimerID,
 286:../../Middlewares/Third_Party/FreeRTOS/Source/timers.c **** 								TimerCallbackFunction_t pxCallbackFunction )
 287:../../Middlewares/Third_Party/FreeRTOS/Source/timers.c **** 	{
 288:../../Middlewares/Third_Party/FreeRTOS/Source/timers.c **** 	Timer_t *pxNewTimer;
 289:../../Middlewares/Third_Party/FreeRTOS/Source/timers.c **** 
 290:../../Middlewares/Third_Party/FreeRTOS/Source/timers.c **** 		pxNewTimer = ( Timer_t * ) pvPortMalloc( sizeof( Timer_t ) ); /*lint !e9087 !e9079 All values ret
 291:../../Middlewares/Third_Party/FreeRTOS/Source/timers.c **** 
 292:../../Middlewares/Third_Party/FreeRTOS/Source/timers.c **** 		if( pxNewTimer != NULL )
 293:../../Middlewares/Third_Party/FreeRTOS/Source/timers.c **** 		{
 294:../../Middlewares/Third_Party/FreeRTOS/Source/timers.c **** 			/* Status is thus far zero as the timer is not created statically
 295:../../Middlewares/Third_Party/FreeRTOS/Source/timers.c **** 			and has not been started.  The auto-reload bit may get set in
 296:../../Middlewares/Third_Party/FreeRTOS/Source/timers.c **** 			prvInitialiseNewTimer. */
 297:../../Middlewares/Third_Party/FreeRTOS/Source/timers.c **** 			pxNewTimer->ucStatus = 0x00;
 298:../../Middlewares/Third_Party/FreeRTOS/Source/timers.c **** 			prvInitialiseNewTimer( pcTimerName, xTimerPeriodInTicks, uxAutoReload, pvTimerID, pxCallbackFunc
 299:../../Middlewares/Third_Party/FreeRTOS/Source/timers.c **** 		}
 300:../../Middlewares/Third_Party/FreeRTOS/Source/timers.c **** 
 301:../../Middlewares/Third_Party/FreeRTOS/Source/timers.c **** 		return pxNewTimer;
 302:../../Middlewares/Third_Party/FreeRTOS/Source/timers.c **** 	}
 303:../../Middlewares/Third_Party/FreeRTOS/Source/timers.c **** 
 304:../../Middlewares/Third_Party/FreeRTOS/Source/timers.c **** #endif /* configSUPPORT_DYNAMIC_ALLOCATION */
 305:../../Middlewares/Third_Party/FreeRTOS/Source/timers.c **** /*-----------------------------------------------------------*/
 306:../../Middlewares/Third_Party/FreeRTOS/Source/timers.c **** 
 307:../../Middlewares/Third_Party/FreeRTOS/Source/timers.c **** #if( configSUPPORT_STATIC_ALLOCATION == 1 )
 308:../../Middlewares/Third_Party/FreeRTOS/Source/timers.c **** 
 309:../../Middlewares/Third_Party/FreeRTOS/Source/timers.c **** 	TimerHandle_t xTimerCreateStatic(	const char * const pcTimerName,		/*lint !e971 Unqualified char t
 310:../../Middlewares/Third_Party/FreeRTOS/Source/timers.c **** 										const TickType_t xTimerPeriodInTicks,
 311:../../Middlewares/Third_Party/FreeRTOS/Source/timers.c **** 										const UBaseType_t uxAutoReload,
 312:../../Middlewares/Third_Party/FreeRTOS/Source/timers.c **** 										void * const pvTimerID,
 313:../../Middlewares/Third_Party/FreeRTOS/Source/timers.c **** 										TimerCallbackFunction_t pxCallbackFunction,
 314:../../Middlewares/Third_Party/FreeRTOS/Source/timers.c **** 										StaticTimer_t *pxTimerBuffer )
 315:../../Middlewares/Third_Party/FreeRTOS/Source/timers.c **** 	{
ARM GAS  C:\Users\gigig\AppData\Local\Temp\ccovY76i.s 			page 7


 316:../../Middlewares/Third_Party/FreeRTOS/Source/timers.c **** 	Timer_t *pxNewTimer;
 317:../../Middlewares/Third_Party/FreeRTOS/Source/timers.c **** 
 318:../../Middlewares/Third_Party/FreeRTOS/Source/timers.c **** 		#if( configASSERT_DEFINED == 1 )
 319:../../Middlewares/Third_Party/FreeRTOS/Source/timers.c **** 		{
 320:../../Middlewares/Third_Party/FreeRTOS/Source/timers.c **** 			/* Sanity check that the size of the structure used to declare a
 321:../../Middlewares/Third_Party/FreeRTOS/Source/timers.c **** 			variable of type StaticTimer_t equals the size of the real timer
 322:../../Middlewares/Third_Party/FreeRTOS/Source/timers.c **** 			structure. */
 323:../../Middlewares/Third_Party/FreeRTOS/Source/timers.c **** 			volatile size_t xSize = sizeof( StaticTimer_t );
 324:../../Middlewares/Third_Party/FreeRTOS/Source/timers.c **** 			configASSERT( xSize == sizeof( Timer_t ) );
 325:../../Middlewares/Third_Party/FreeRTOS/Source/timers.c **** 			( void ) xSize; /* Keeps lint quiet when configASSERT() is not defined. */
 326:../../Middlewares/Third_Party/FreeRTOS/Source/timers.c **** 		}
 327:../../Middlewares/Third_Party/FreeRTOS/Source/timers.c **** 		#endif /* configASSERT_DEFINED */
 328:../../Middlewares/Third_Party/FreeRTOS/Source/timers.c **** 
 329:../../Middlewares/Third_Party/FreeRTOS/Source/timers.c **** 		/* A pointer to a StaticTimer_t structure MUST be provided, use it. */
 330:../../Middlewares/Third_Party/FreeRTOS/Source/timers.c **** 		configASSERT( pxTimerBuffer );
 331:../../Middlewares/Third_Party/FreeRTOS/Source/timers.c **** 		pxNewTimer = ( Timer_t * ) pxTimerBuffer; /*lint !e740 !e9087 StaticTimer_t is a pointer to a Tim
 332:../../Middlewares/Third_Party/FreeRTOS/Source/timers.c **** 
 333:../../Middlewares/Third_Party/FreeRTOS/Source/timers.c **** 		if( pxNewTimer != NULL )
 334:../../Middlewares/Third_Party/FreeRTOS/Source/timers.c **** 		{
 335:../../Middlewares/Third_Party/FreeRTOS/Source/timers.c **** 			/* Timers can be created statically or dynamically so note this
 336:../../Middlewares/Third_Party/FreeRTOS/Source/timers.c **** 			timer was created statically in case it is later deleted.  The
 337:../../Middlewares/Third_Party/FreeRTOS/Source/timers.c **** 			auto-reload bit may get set in prvInitialiseNewTimer(). */
 338:../../Middlewares/Third_Party/FreeRTOS/Source/timers.c **** 			pxNewTimer->ucStatus = tmrSTATUS_IS_STATICALLY_ALLOCATED;
 339:../../Middlewares/Third_Party/FreeRTOS/Source/timers.c **** 
 340:../../Middlewares/Third_Party/FreeRTOS/Source/timers.c **** 			prvInitialiseNewTimer( pcTimerName, xTimerPeriodInTicks, uxAutoReload, pvTimerID, pxCallbackFunc
 341:../../Middlewares/Third_Party/FreeRTOS/Source/timers.c **** 		}
 342:../../Middlewares/Third_Party/FreeRTOS/Source/timers.c **** 
 343:../../Middlewares/Third_Party/FreeRTOS/Source/timers.c **** 		return pxNewTimer;
 344:../../Middlewares/Third_Party/FreeRTOS/Source/timers.c **** 	}
 345:../../Middlewares/Third_Party/FreeRTOS/Source/timers.c **** 
 346:../../Middlewares/Third_Party/FreeRTOS/Source/timers.c **** #endif /* configSUPPORT_STATIC_ALLOCATION */
 347:../../Middlewares/Third_Party/FreeRTOS/Source/timers.c **** /*-----------------------------------------------------------*/
 348:../../Middlewares/Third_Party/FreeRTOS/Source/timers.c **** 
 349:../../Middlewares/Third_Party/FreeRTOS/Source/timers.c **** static void prvInitialiseNewTimer(	const char * const pcTimerName,			/*lint !e971 Unqualified char 
 350:../../Middlewares/Third_Party/FreeRTOS/Source/timers.c **** 									const TickType_t xTimerPeriodInTicks,
 351:../../Middlewares/Third_Party/FreeRTOS/Source/timers.c **** 									const UBaseType_t uxAutoReload,
 352:../../Middlewares/Third_Party/FreeRTOS/Source/timers.c **** 									void * const pvTimerID,
 353:../../Middlewares/Third_Party/FreeRTOS/Source/timers.c **** 									TimerCallbackFunction_t pxCallbackFunction,
 354:../../Middlewares/Third_Party/FreeRTOS/Source/timers.c **** 									Timer_t *pxNewTimer )
 355:../../Middlewares/Third_Party/FreeRTOS/Source/timers.c **** {
 356:../../Middlewares/Third_Party/FreeRTOS/Source/timers.c **** 	/* 0 is not a valid value for xTimerPeriodInTicks. */
 357:../../Middlewares/Third_Party/FreeRTOS/Source/timers.c **** 	configASSERT( ( xTimerPeriodInTicks > 0 ) );
 358:../../Middlewares/Third_Party/FreeRTOS/Source/timers.c **** 
 359:../../Middlewares/Third_Party/FreeRTOS/Source/timers.c **** 	if( pxNewTimer != NULL )
 360:../../Middlewares/Third_Party/FreeRTOS/Source/timers.c **** 	{
 361:../../Middlewares/Third_Party/FreeRTOS/Source/timers.c **** 		/* Ensure the infrastructure used by the timer service task has been
 362:../../Middlewares/Third_Party/FreeRTOS/Source/timers.c **** 		created/initialised. */
 363:../../Middlewares/Third_Party/FreeRTOS/Source/timers.c **** 		prvCheckForValidListAndQueue();
 364:../../Middlewares/Third_Party/FreeRTOS/Source/timers.c **** 
 365:../../Middlewares/Third_Party/FreeRTOS/Source/timers.c **** 		/* Initialise the timer structure members using the function
 366:../../Middlewares/Third_Party/FreeRTOS/Source/timers.c **** 		parameters. */
 367:../../Middlewares/Third_Party/FreeRTOS/Source/timers.c **** 		pxNewTimer->pcTimerName = pcTimerName;
 368:../../Middlewares/Third_Party/FreeRTOS/Source/timers.c **** 		pxNewTimer->xTimerPeriodInTicks = xTimerPeriodInTicks;
 369:../../Middlewares/Third_Party/FreeRTOS/Source/timers.c **** 		pxNewTimer->pvTimerID = pvTimerID;
 370:../../Middlewares/Third_Party/FreeRTOS/Source/timers.c **** 		pxNewTimer->pxCallbackFunction = pxCallbackFunction;
 371:../../Middlewares/Third_Party/FreeRTOS/Source/timers.c **** 		vListInitialiseItem( &( pxNewTimer->xTimerListItem ) );
 372:../../Middlewares/Third_Party/FreeRTOS/Source/timers.c **** 		if( uxAutoReload != pdFALSE )
ARM GAS  C:\Users\gigig\AppData\Local\Temp\ccovY76i.s 			page 8


 373:../../Middlewares/Third_Party/FreeRTOS/Source/timers.c **** 		{
 374:../../Middlewares/Third_Party/FreeRTOS/Source/timers.c **** 			pxNewTimer->ucStatus |= tmrSTATUS_IS_AUTORELOAD;
 375:../../Middlewares/Third_Party/FreeRTOS/Source/timers.c **** 		}
 376:../../Middlewares/Third_Party/FreeRTOS/Source/timers.c **** 		traceTIMER_CREATE( pxNewTimer );
 377:../../Middlewares/Third_Party/FreeRTOS/Source/timers.c **** 	}
 378:../../Middlewares/Third_Party/FreeRTOS/Source/timers.c **** }
 379:../../Middlewares/Third_Party/FreeRTOS/Source/timers.c **** /*-----------------------------------------------------------*/
 380:../../Middlewares/Third_Party/FreeRTOS/Source/timers.c **** 
 381:../../Middlewares/Third_Party/FreeRTOS/Source/timers.c **** BaseType_t xTimerGenericCommand( TimerHandle_t xTimer, const BaseType_t xCommandID, const TickType_
 382:../../Middlewares/Third_Party/FreeRTOS/Source/timers.c **** {
 383:../../Middlewares/Third_Party/FreeRTOS/Source/timers.c **** BaseType_t xReturn = pdFAIL;
 384:../../Middlewares/Third_Party/FreeRTOS/Source/timers.c **** DaemonTaskMessage_t xMessage;
 385:../../Middlewares/Third_Party/FreeRTOS/Source/timers.c **** 
 386:../../Middlewares/Third_Party/FreeRTOS/Source/timers.c **** 	configASSERT( xTimer );
 387:../../Middlewares/Third_Party/FreeRTOS/Source/timers.c **** 
 388:../../Middlewares/Third_Party/FreeRTOS/Source/timers.c **** 	/* Send a message to the timer service task to perform a particular action
 389:../../Middlewares/Third_Party/FreeRTOS/Source/timers.c **** 	on a particular timer definition. */
 390:../../Middlewares/Third_Party/FreeRTOS/Source/timers.c **** 	if( xTimerQueue != NULL )
 391:../../Middlewares/Third_Party/FreeRTOS/Source/timers.c **** 	{
 392:../../Middlewares/Third_Party/FreeRTOS/Source/timers.c **** 		/* Send a command to the timer service task to start the xTimer timer. */
 393:../../Middlewares/Third_Party/FreeRTOS/Source/timers.c **** 		xMessage.xMessageID = xCommandID;
 394:../../Middlewares/Third_Party/FreeRTOS/Source/timers.c **** 		xMessage.u.xTimerParameters.xMessageValue = xOptionalValue;
 395:../../Middlewares/Third_Party/FreeRTOS/Source/timers.c **** 		xMessage.u.xTimerParameters.pxTimer = xTimer;
 396:../../Middlewares/Third_Party/FreeRTOS/Source/timers.c **** 
 397:../../Middlewares/Third_Party/FreeRTOS/Source/timers.c **** 		if( xCommandID < tmrFIRST_FROM_ISR_COMMAND )
 398:../../Middlewares/Third_Party/FreeRTOS/Source/timers.c **** 		{
 399:../../Middlewares/Third_Party/FreeRTOS/Source/timers.c **** 			if( xTaskGetSchedulerState() == taskSCHEDULER_RUNNING )
 400:../../Middlewares/Third_Party/FreeRTOS/Source/timers.c **** 			{
 401:../../Middlewares/Third_Party/FreeRTOS/Source/timers.c **** 				xReturn = xQueueSendToBack( xTimerQueue, &xMessage, xTicksToWait );
 402:../../Middlewares/Third_Party/FreeRTOS/Source/timers.c **** 			}
 403:../../Middlewares/Third_Party/FreeRTOS/Source/timers.c **** 			else
 404:../../Middlewares/Third_Party/FreeRTOS/Source/timers.c **** 			{
 405:../../Middlewares/Third_Party/FreeRTOS/Source/timers.c **** 				xReturn = xQueueSendToBack( xTimerQueue, &xMessage, tmrNO_DELAY );
 406:../../Middlewares/Third_Party/FreeRTOS/Source/timers.c **** 			}
 407:../../Middlewares/Third_Party/FreeRTOS/Source/timers.c **** 		}
 408:../../Middlewares/Third_Party/FreeRTOS/Source/timers.c **** 		else
 409:../../Middlewares/Third_Party/FreeRTOS/Source/timers.c **** 		{
 410:../../Middlewares/Third_Party/FreeRTOS/Source/timers.c **** 			xReturn = xQueueSendToBackFromISR( xTimerQueue, &xMessage, pxHigherPriorityTaskWoken );
 411:../../Middlewares/Third_Party/FreeRTOS/Source/timers.c **** 		}
 412:../../Middlewares/Third_Party/FreeRTOS/Source/timers.c **** 
 413:../../Middlewares/Third_Party/FreeRTOS/Source/timers.c **** 		traceTIMER_COMMAND_SEND( xTimer, xCommandID, xOptionalValue, xReturn );
 414:../../Middlewares/Third_Party/FreeRTOS/Source/timers.c **** 	}
 415:../../Middlewares/Third_Party/FreeRTOS/Source/timers.c **** 	else
 416:../../Middlewares/Third_Party/FreeRTOS/Source/timers.c **** 	{
 417:../../Middlewares/Third_Party/FreeRTOS/Source/timers.c **** 		mtCOVERAGE_TEST_MARKER();
 418:../../Middlewares/Third_Party/FreeRTOS/Source/timers.c **** 	}
 419:../../Middlewares/Third_Party/FreeRTOS/Source/timers.c **** 
 420:../../Middlewares/Third_Party/FreeRTOS/Source/timers.c **** 	return xReturn;
 421:../../Middlewares/Third_Party/FreeRTOS/Source/timers.c **** }
 422:../../Middlewares/Third_Party/FreeRTOS/Source/timers.c **** /*-----------------------------------------------------------*/
 423:../../Middlewares/Third_Party/FreeRTOS/Source/timers.c **** 
 424:../../Middlewares/Third_Party/FreeRTOS/Source/timers.c **** TaskHandle_t xTimerGetTimerDaemonTaskHandle( void )
 425:../../Middlewares/Third_Party/FreeRTOS/Source/timers.c **** {
 426:../../Middlewares/Third_Party/FreeRTOS/Source/timers.c **** 	/* If xTimerGetTimerDaemonTaskHandle() is called before the scheduler has been
 427:../../Middlewares/Third_Party/FreeRTOS/Source/timers.c **** 	started, then xTimerTaskHandle will be NULL. */
 428:../../Middlewares/Third_Party/FreeRTOS/Source/timers.c **** 	configASSERT( ( xTimerTaskHandle != NULL ) );
 429:../../Middlewares/Third_Party/FreeRTOS/Source/timers.c **** 	return xTimerTaskHandle;
ARM GAS  C:\Users\gigig\AppData\Local\Temp\ccovY76i.s 			page 9


 430:../../Middlewares/Third_Party/FreeRTOS/Source/timers.c **** }
 431:../../Middlewares/Third_Party/FreeRTOS/Source/timers.c **** /*-----------------------------------------------------------*/
 432:../../Middlewares/Third_Party/FreeRTOS/Source/timers.c **** 
 433:../../Middlewares/Third_Party/FreeRTOS/Source/timers.c **** TickType_t xTimerGetPeriod( TimerHandle_t xTimer )
 434:../../Middlewares/Third_Party/FreeRTOS/Source/timers.c **** {
 435:../../Middlewares/Third_Party/FreeRTOS/Source/timers.c **** Timer_t *pxTimer = xTimer;
 436:../../Middlewares/Third_Party/FreeRTOS/Source/timers.c **** 
 437:../../Middlewares/Third_Party/FreeRTOS/Source/timers.c **** 	configASSERT( xTimer );
 438:../../Middlewares/Third_Party/FreeRTOS/Source/timers.c **** 	return pxTimer->xTimerPeriodInTicks;
 439:../../Middlewares/Third_Party/FreeRTOS/Source/timers.c **** }
 440:../../Middlewares/Third_Party/FreeRTOS/Source/timers.c **** /*-----------------------------------------------------------*/
 441:../../Middlewares/Third_Party/FreeRTOS/Source/timers.c **** 
 442:../../Middlewares/Third_Party/FreeRTOS/Source/timers.c **** void vTimerSetReloadMode( TimerHandle_t xTimer, const UBaseType_t uxAutoReload )
 443:../../Middlewares/Third_Party/FreeRTOS/Source/timers.c **** {
 444:../../Middlewares/Third_Party/FreeRTOS/Source/timers.c **** Timer_t * pxTimer =  xTimer;
 445:../../Middlewares/Third_Party/FreeRTOS/Source/timers.c **** 
 446:../../Middlewares/Third_Party/FreeRTOS/Source/timers.c **** 	configASSERT( xTimer );
 447:../../Middlewares/Third_Party/FreeRTOS/Source/timers.c **** 	taskENTER_CRITICAL();
 448:../../Middlewares/Third_Party/FreeRTOS/Source/timers.c **** 	{
 449:../../Middlewares/Third_Party/FreeRTOS/Source/timers.c **** 		if( uxAutoReload != pdFALSE )
 450:../../Middlewares/Third_Party/FreeRTOS/Source/timers.c **** 		{
 451:../../Middlewares/Third_Party/FreeRTOS/Source/timers.c **** 			pxTimer->ucStatus |= tmrSTATUS_IS_AUTORELOAD;
 452:../../Middlewares/Third_Party/FreeRTOS/Source/timers.c **** 		}
 453:../../Middlewares/Third_Party/FreeRTOS/Source/timers.c **** 		else
 454:../../Middlewares/Third_Party/FreeRTOS/Source/timers.c **** 		{
 455:../../Middlewares/Third_Party/FreeRTOS/Source/timers.c **** 			pxTimer->ucStatus &= ~tmrSTATUS_IS_AUTORELOAD;
 456:../../Middlewares/Third_Party/FreeRTOS/Source/timers.c **** 		}
 457:../../Middlewares/Third_Party/FreeRTOS/Source/timers.c **** 	}
 458:../../Middlewares/Third_Party/FreeRTOS/Source/timers.c **** 	taskEXIT_CRITICAL();
 459:../../Middlewares/Third_Party/FreeRTOS/Source/timers.c **** }
 460:../../Middlewares/Third_Party/FreeRTOS/Source/timers.c **** /*-----------------------------------------------------------*/
 461:../../Middlewares/Third_Party/FreeRTOS/Source/timers.c **** 
 462:../../Middlewares/Third_Party/FreeRTOS/Source/timers.c **** UBaseType_t uxTimerGetReloadMode( TimerHandle_t xTimer )
 463:../../Middlewares/Third_Party/FreeRTOS/Source/timers.c **** {
 464:../../Middlewares/Third_Party/FreeRTOS/Source/timers.c **** Timer_t * pxTimer =  xTimer;
 465:../../Middlewares/Third_Party/FreeRTOS/Source/timers.c **** UBaseType_t uxReturn;
 466:../../Middlewares/Third_Party/FreeRTOS/Source/timers.c **** 
 467:../../Middlewares/Third_Party/FreeRTOS/Source/timers.c **** 	configASSERT( xTimer );
 468:../../Middlewares/Third_Party/FreeRTOS/Source/timers.c **** 	taskENTER_CRITICAL();
 469:../../Middlewares/Third_Party/FreeRTOS/Source/timers.c **** 	{
 470:../../Middlewares/Third_Party/FreeRTOS/Source/timers.c **** 		if( ( pxTimer->ucStatus & tmrSTATUS_IS_AUTORELOAD ) == 0 )
 471:../../Middlewares/Third_Party/FreeRTOS/Source/timers.c **** 		{
 472:../../Middlewares/Third_Party/FreeRTOS/Source/timers.c **** 			/* Not an auto-reload timer. */
 473:../../Middlewares/Third_Party/FreeRTOS/Source/timers.c **** 			uxReturn = ( UBaseType_t ) pdFALSE;
 474:../../Middlewares/Third_Party/FreeRTOS/Source/timers.c **** 		}
 475:../../Middlewares/Third_Party/FreeRTOS/Source/timers.c **** 		else
 476:../../Middlewares/Third_Party/FreeRTOS/Source/timers.c **** 		{
 477:../../Middlewares/Third_Party/FreeRTOS/Source/timers.c **** 			/* Is an auto-reload timer. */
 478:../../Middlewares/Third_Party/FreeRTOS/Source/timers.c **** 			uxReturn = ( UBaseType_t ) pdTRUE;
 479:../../Middlewares/Third_Party/FreeRTOS/Source/timers.c **** 		}
 480:../../Middlewares/Third_Party/FreeRTOS/Source/timers.c **** 	}
 481:../../Middlewares/Third_Party/FreeRTOS/Source/timers.c **** 	taskEXIT_CRITICAL();
 482:../../Middlewares/Third_Party/FreeRTOS/Source/timers.c **** 
 483:../../Middlewares/Third_Party/FreeRTOS/Source/timers.c **** 	return uxReturn;
 484:../../Middlewares/Third_Party/FreeRTOS/Source/timers.c **** }
 485:../../Middlewares/Third_Party/FreeRTOS/Source/timers.c **** /*-----------------------------------------------------------*/
 486:../../Middlewares/Third_Party/FreeRTOS/Source/timers.c **** 
ARM GAS  C:\Users\gigig\AppData\Local\Temp\ccovY76i.s 			page 10


 487:../../Middlewares/Third_Party/FreeRTOS/Source/timers.c **** TickType_t xTimerGetExpiryTime( TimerHandle_t xTimer )
 488:../../Middlewares/Third_Party/FreeRTOS/Source/timers.c **** {
 489:../../Middlewares/Third_Party/FreeRTOS/Source/timers.c **** Timer_t * pxTimer =  xTimer;
 490:../../Middlewares/Third_Party/FreeRTOS/Source/timers.c **** TickType_t xReturn;
 491:../../Middlewares/Third_Party/FreeRTOS/Source/timers.c **** 
 492:../../Middlewares/Third_Party/FreeRTOS/Source/timers.c **** 	configASSERT( xTimer );
 493:../../Middlewares/Third_Party/FreeRTOS/Source/timers.c **** 	xReturn = listGET_LIST_ITEM_VALUE( &( pxTimer->xTimerListItem ) );
 494:../../Middlewares/Third_Party/FreeRTOS/Source/timers.c **** 	return xReturn;
 495:../../Middlewares/Third_Party/FreeRTOS/Source/timers.c **** }
 496:../../Middlewares/Third_Party/FreeRTOS/Source/timers.c **** /*-----------------------------------------------------------*/
 497:../../Middlewares/Third_Party/FreeRTOS/Source/timers.c **** 
 498:../../Middlewares/Third_Party/FreeRTOS/Source/timers.c **** const char * pcTimerGetName( TimerHandle_t xTimer ) /*lint !e971 Unqualified char types are allowed
 499:../../Middlewares/Third_Party/FreeRTOS/Source/timers.c **** {
 500:../../Middlewares/Third_Party/FreeRTOS/Source/timers.c **** Timer_t *pxTimer = xTimer;
 501:../../Middlewares/Third_Party/FreeRTOS/Source/timers.c **** 
 502:../../Middlewares/Third_Party/FreeRTOS/Source/timers.c **** 	configASSERT( xTimer );
 503:../../Middlewares/Third_Party/FreeRTOS/Source/timers.c **** 	return pxTimer->pcTimerName;
 504:../../Middlewares/Third_Party/FreeRTOS/Source/timers.c **** }
 505:../../Middlewares/Third_Party/FreeRTOS/Source/timers.c **** /*-----------------------------------------------------------*/
 506:../../Middlewares/Third_Party/FreeRTOS/Source/timers.c **** 
 507:../../Middlewares/Third_Party/FreeRTOS/Source/timers.c **** static void prvProcessExpiredTimer( const TickType_t xNextExpireTime, const TickType_t xTimeNow )
 508:../../Middlewares/Third_Party/FreeRTOS/Source/timers.c **** {
 509:../../Middlewares/Third_Party/FreeRTOS/Source/timers.c **** BaseType_t xResult;
 510:../../Middlewares/Third_Party/FreeRTOS/Source/timers.c **** Timer_t * const pxTimer = ( Timer_t * ) listGET_OWNER_OF_HEAD_ENTRY( pxCurrentTimerList ); /*lint !
 511:../../Middlewares/Third_Party/FreeRTOS/Source/timers.c **** 
 512:../../Middlewares/Third_Party/FreeRTOS/Source/timers.c **** 	/* Remove the timer from the list of active timers.  A check has already
 513:../../Middlewares/Third_Party/FreeRTOS/Source/timers.c **** 	been performed to ensure the list is not empty. */
 514:../../Middlewares/Third_Party/FreeRTOS/Source/timers.c **** 	( void ) uxListRemove( &( pxTimer->xTimerListItem ) );
 515:../../Middlewares/Third_Party/FreeRTOS/Source/timers.c **** 	traceTIMER_EXPIRED( pxTimer );
 516:../../Middlewares/Third_Party/FreeRTOS/Source/timers.c **** 
 517:../../Middlewares/Third_Party/FreeRTOS/Source/timers.c **** 	/* If the timer is an auto-reload timer then calculate the next
 518:../../Middlewares/Third_Party/FreeRTOS/Source/timers.c **** 	expiry time and re-insert the timer in the list of active timers. */
 519:../../Middlewares/Third_Party/FreeRTOS/Source/timers.c **** 	if( ( pxTimer->ucStatus & tmrSTATUS_IS_AUTORELOAD ) != 0 )
 520:../../Middlewares/Third_Party/FreeRTOS/Source/timers.c **** 	{
 521:../../Middlewares/Third_Party/FreeRTOS/Source/timers.c **** 		/* The timer is inserted into a list using a time relative to anything
 522:../../Middlewares/Third_Party/FreeRTOS/Source/timers.c **** 		other than the current time.  It will therefore be inserted into the
 523:../../Middlewares/Third_Party/FreeRTOS/Source/timers.c **** 		correct list relative to the time this task thinks it is now. */
 524:../../Middlewares/Third_Party/FreeRTOS/Source/timers.c **** 		if( prvInsertTimerInActiveList( pxTimer, ( xNextExpireTime + pxTimer->xTimerPeriodInTicks ), xTim
 525:../../Middlewares/Third_Party/FreeRTOS/Source/timers.c **** 		{
 526:../../Middlewares/Third_Party/FreeRTOS/Source/timers.c **** 			/* The timer expired before it was added to the active timer
 527:../../Middlewares/Third_Party/FreeRTOS/Source/timers.c **** 			list.  Reload it now.  */
 528:../../Middlewares/Third_Party/FreeRTOS/Source/timers.c **** 			xResult = xTimerGenericCommand( pxTimer, tmrCOMMAND_START_DONT_TRACE, xNextExpireTime, NULL, tmr
 529:../../Middlewares/Third_Party/FreeRTOS/Source/timers.c **** 			configASSERT( xResult );
 530:../../Middlewares/Third_Party/FreeRTOS/Source/timers.c **** 			( void ) xResult;
 531:../../Middlewares/Third_Party/FreeRTOS/Source/timers.c **** 		}
 532:../../Middlewares/Third_Party/FreeRTOS/Source/timers.c **** 		else
 533:../../Middlewares/Third_Party/FreeRTOS/Source/timers.c **** 		{
 534:../../Middlewares/Third_Party/FreeRTOS/Source/timers.c **** 			mtCOVERAGE_TEST_MARKER();
 535:../../Middlewares/Third_Party/FreeRTOS/Source/timers.c **** 		}
 536:../../Middlewares/Third_Party/FreeRTOS/Source/timers.c **** 	}
 537:../../Middlewares/Third_Party/FreeRTOS/Source/timers.c **** 	else
 538:../../Middlewares/Third_Party/FreeRTOS/Source/timers.c **** 	{
 539:../../Middlewares/Third_Party/FreeRTOS/Source/timers.c **** 		pxTimer->ucStatus &= ~tmrSTATUS_IS_ACTIVE;
 540:../../Middlewares/Third_Party/FreeRTOS/Source/timers.c **** 		mtCOVERAGE_TEST_MARKER();
 541:../../Middlewares/Third_Party/FreeRTOS/Source/timers.c **** 	}
 542:../../Middlewares/Third_Party/FreeRTOS/Source/timers.c **** 
 543:../../Middlewares/Third_Party/FreeRTOS/Source/timers.c **** 	/* Call the timer callback. */
ARM GAS  C:\Users\gigig\AppData\Local\Temp\ccovY76i.s 			page 11


 544:../../Middlewares/Third_Party/FreeRTOS/Source/timers.c **** 	pxTimer->pxCallbackFunction( ( TimerHandle_t ) pxTimer );
 545:../../Middlewares/Third_Party/FreeRTOS/Source/timers.c **** }
 546:../../Middlewares/Third_Party/FreeRTOS/Source/timers.c **** /*-----------------------------------------------------------*/
 547:../../Middlewares/Third_Party/FreeRTOS/Source/timers.c **** 
 548:../../Middlewares/Third_Party/FreeRTOS/Source/timers.c **** static portTASK_FUNCTION( prvTimerTask, pvParameters )
 549:../../Middlewares/Third_Party/FreeRTOS/Source/timers.c **** {
 550:../../Middlewares/Third_Party/FreeRTOS/Source/timers.c **** TickType_t xNextExpireTime;
 551:../../Middlewares/Third_Party/FreeRTOS/Source/timers.c **** BaseType_t xListWasEmpty;
 552:../../Middlewares/Third_Party/FreeRTOS/Source/timers.c **** 
 553:../../Middlewares/Third_Party/FreeRTOS/Source/timers.c **** 	/* Just to avoid compiler warnings. */
 554:../../Middlewares/Third_Party/FreeRTOS/Source/timers.c **** 	( void ) pvParameters;
 555:../../Middlewares/Third_Party/FreeRTOS/Source/timers.c **** 
 556:../../Middlewares/Third_Party/FreeRTOS/Source/timers.c **** 	#if( configUSE_DAEMON_TASK_STARTUP_HOOK == 1 )
 557:../../Middlewares/Third_Party/FreeRTOS/Source/timers.c **** 	{
 558:../../Middlewares/Third_Party/FreeRTOS/Source/timers.c **** 		extern void vApplicationDaemonTaskStartupHook( void );
 559:../../Middlewares/Third_Party/FreeRTOS/Source/timers.c **** 
 560:../../Middlewares/Third_Party/FreeRTOS/Source/timers.c **** 		/* Allow the application writer to execute some code in the context of
 561:../../Middlewares/Third_Party/FreeRTOS/Source/timers.c **** 		this task at the point the task starts executing.  This is useful if the
 562:../../Middlewares/Third_Party/FreeRTOS/Source/timers.c **** 		application includes initialisation code that would benefit from
 563:../../Middlewares/Third_Party/FreeRTOS/Source/timers.c **** 		executing after the scheduler has been started. */
 564:../../Middlewares/Third_Party/FreeRTOS/Source/timers.c **** 		vApplicationDaemonTaskStartupHook();
 565:../../Middlewares/Third_Party/FreeRTOS/Source/timers.c **** 	}
 566:../../Middlewares/Third_Party/FreeRTOS/Source/timers.c **** 	#endif /* configUSE_DAEMON_TASK_STARTUP_HOOK */
 567:../../Middlewares/Third_Party/FreeRTOS/Source/timers.c **** 
 568:../../Middlewares/Third_Party/FreeRTOS/Source/timers.c **** 	for( ;; )
 569:../../Middlewares/Third_Party/FreeRTOS/Source/timers.c **** 	{
 570:../../Middlewares/Third_Party/FreeRTOS/Source/timers.c **** 		/* Query the timers list to see if it contains any timers, and if so,
 571:../../Middlewares/Third_Party/FreeRTOS/Source/timers.c **** 		obtain the time at which the next timer will expire. */
 572:../../Middlewares/Third_Party/FreeRTOS/Source/timers.c **** 		xNextExpireTime = prvGetNextExpireTime( &xListWasEmpty );
 573:../../Middlewares/Third_Party/FreeRTOS/Source/timers.c **** 
 574:../../Middlewares/Third_Party/FreeRTOS/Source/timers.c **** 		/* If a timer has expired, process it.  Otherwise, block this task
 575:../../Middlewares/Third_Party/FreeRTOS/Source/timers.c **** 		until either a timer does expire, or a command is received. */
 576:../../Middlewares/Third_Party/FreeRTOS/Source/timers.c **** 		prvProcessTimerOrBlockTask( xNextExpireTime, xListWasEmpty );
 577:../../Middlewares/Third_Party/FreeRTOS/Source/timers.c **** 
 578:../../Middlewares/Third_Party/FreeRTOS/Source/timers.c **** 		/* Empty the command queue. */
 579:../../Middlewares/Third_Party/FreeRTOS/Source/timers.c **** 		prvProcessReceivedCommands();
 580:../../Middlewares/Third_Party/FreeRTOS/Source/timers.c **** 	}
 581:../../Middlewares/Third_Party/FreeRTOS/Source/timers.c **** }
 582:../../Middlewares/Third_Party/FreeRTOS/Source/timers.c **** /*-----------------------------------------------------------*/
 583:../../Middlewares/Third_Party/FreeRTOS/Source/timers.c **** 
 584:../../Middlewares/Third_Party/FreeRTOS/Source/timers.c **** static void prvProcessTimerOrBlockTask( const TickType_t xNextExpireTime, BaseType_t xListWasEmpty 
 585:../../Middlewares/Third_Party/FreeRTOS/Source/timers.c **** {
 586:../../Middlewares/Third_Party/FreeRTOS/Source/timers.c **** TickType_t xTimeNow;
 587:../../Middlewares/Third_Party/FreeRTOS/Source/timers.c **** BaseType_t xTimerListsWereSwitched;
 588:../../Middlewares/Third_Party/FreeRTOS/Source/timers.c **** 
 589:../../Middlewares/Third_Party/FreeRTOS/Source/timers.c **** 	vTaskSuspendAll();
 590:../../Middlewares/Third_Party/FreeRTOS/Source/timers.c **** 	{
 591:../../Middlewares/Third_Party/FreeRTOS/Source/timers.c **** 		/* Obtain the time now to make an assessment as to whether the timer
 592:../../Middlewares/Third_Party/FreeRTOS/Source/timers.c **** 		has expired or not.  If obtaining the time causes the lists to switch
 593:../../Middlewares/Third_Party/FreeRTOS/Source/timers.c **** 		then don't process this timer as any timers that remained in the list
 594:../../Middlewares/Third_Party/FreeRTOS/Source/timers.c **** 		when the lists were switched will have been processed within the
 595:../../Middlewares/Third_Party/FreeRTOS/Source/timers.c **** 		prvSampleTimeNow() function. */
 596:../../Middlewares/Third_Party/FreeRTOS/Source/timers.c **** 		xTimeNow = prvSampleTimeNow( &xTimerListsWereSwitched );
 597:../../Middlewares/Third_Party/FreeRTOS/Source/timers.c **** 		if( xTimerListsWereSwitched == pdFALSE )
 598:../../Middlewares/Third_Party/FreeRTOS/Source/timers.c **** 		{
 599:../../Middlewares/Third_Party/FreeRTOS/Source/timers.c **** 			/* The tick count has not overflowed, has the timer expired? */
 600:../../Middlewares/Third_Party/FreeRTOS/Source/timers.c **** 			if( ( xListWasEmpty == pdFALSE ) && ( xNextExpireTime <= xTimeNow ) )
ARM GAS  C:\Users\gigig\AppData\Local\Temp\ccovY76i.s 			page 12


 601:../../Middlewares/Third_Party/FreeRTOS/Source/timers.c **** 			{
 602:../../Middlewares/Third_Party/FreeRTOS/Source/timers.c **** 				( void ) xTaskResumeAll();
 603:../../Middlewares/Third_Party/FreeRTOS/Source/timers.c **** 				prvProcessExpiredTimer( xNextExpireTime, xTimeNow );
 604:../../Middlewares/Third_Party/FreeRTOS/Source/timers.c **** 			}
 605:../../Middlewares/Third_Party/FreeRTOS/Source/timers.c **** 			else
 606:../../Middlewares/Third_Party/FreeRTOS/Source/timers.c **** 			{
 607:../../Middlewares/Third_Party/FreeRTOS/Source/timers.c **** 				/* The tick count has not overflowed, and the next expire
 608:../../Middlewares/Third_Party/FreeRTOS/Source/timers.c **** 				time has not been reached yet.  This task should therefore
 609:../../Middlewares/Third_Party/FreeRTOS/Source/timers.c **** 				block to wait for the next expire time or a command to be
 610:../../Middlewares/Third_Party/FreeRTOS/Source/timers.c **** 				received - whichever comes first.  The following line cannot
 611:../../Middlewares/Third_Party/FreeRTOS/Source/timers.c **** 				be reached unless xNextExpireTime > xTimeNow, except in the
 612:../../Middlewares/Third_Party/FreeRTOS/Source/timers.c **** 				case when the current timer list is empty. */
 613:../../Middlewares/Third_Party/FreeRTOS/Source/timers.c **** 				if( xListWasEmpty != pdFALSE )
 614:../../Middlewares/Third_Party/FreeRTOS/Source/timers.c **** 				{
 615:../../Middlewares/Third_Party/FreeRTOS/Source/timers.c **** 					/* The current timer list is empty - is the overflow list
 616:../../Middlewares/Third_Party/FreeRTOS/Source/timers.c **** 					also empty? */
 617:../../Middlewares/Third_Party/FreeRTOS/Source/timers.c **** 					xListWasEmpty = listLIST_IS_EMPTY( pxOverflowTimerList );
 618:../../Middlewares/Third_Party/FreeRTOS/Source/timers.c **** 				}
 619:../../Middlewares/Third_Party/FreeRTOS/Source/timers.c **** 
 620:../../Middlewares/Third_Party/FreeRTOS/Source/timers.c **** 				vQueueWaitForMessageRestricted( xTimerQueue, ( xNextExpireTime - xTimeNow ), xListWasEmpty );
 621:../../Middlewares/Third_Party/FreeRTOS/Source/timers.c **** 
 622:../../Middlewares/Third_Party/FreeRTOS/Source/timers.c **** 				if( xTaskResumeAll() == pdFALSE )
 623:../../Middlewares/Third_Party/FreeRTOS/Source/timers.c **** 				{
 624:../../Middlewares/Third_Party/FreeRTOS/Source/timers.c **** 					/* Yield to wait for either a command to arrive, or the
 625:../../Middlewares/Third_Party/FreeRTOS/Source/timers.c **** 					block time to expire.  If a command arrived between the
 626:../../Middlewares/Third_Party/FreeRTOS/Source/timers.c **** 					critical section being exited and this yield then the yield
 627:../../Middlewares/Third_Party/FreeRTOS/Source/timers.c **** 					will not cause the task to block. */
 628:../../Middlewares/Third_Party/FreeRTOS/Source/timers.c **** 					portYIELD_WITHIN_API();
 629:../../Middlewares/Third_Party/FreeRTOS/Source/timers.c **** 				}
 630:../../Middlewares/Third_Party/FreeRTOS/Source/timers.c **** 				else
 631:../../Middlewares/Third_Party/FreeRTOS/Source/timers.c **** 				{
 632:../../Middlewares/Third_Party/FreeRTOS/Source/timers.c **** 					mtCOVERAGE_TEST_MARKER();
 633:../../Middlewares/Third_Party/FreeRTOS/Source/timers.c **** 				}
 634:../../Middlewares/Third_Party/FreeRTOS/Source/timers.c **** 			}
 635:../../Middlewares/Third_Party/FreeRTOS/Source/timers.c **** 		}
 636:../../Middlewares/Third_Party/FreeRTOS/Source/timers.c **** 		else
 637:../../Middlewares/Third_Party/FreeRTOS/Source/timers.c **** 		{
 638:../../Middlewares/Third_Party/FreeRTOS/Source/timers.c **** 			( void ) xTaskResumeAll();
 639:../../Middlewares/Third_Party/FreeRTOS/Source/timers.c **** 		}
 640:../../Middlewares/Third_Party/FreeRTOS/Source/timers.c **** 	}
 641:../../Middlewares/Third_Party/FreeRTOS/Source/timers.c **** }
 642:../../Middlewares/Third_Party/FreeRTOS/Source/timers.c **** /*-----------------------------------------------------------*/
 643:../../Middlewares/Third_Party/FreeRTOS/Source/timers.c **** 
 644:../../Middlewares/Third_Party/FreeRTOS/Source/timers.c **** static TickType_t prvGetNextExpireTime( BaseType_t * const pxListWasEmpty )
 645:../../Middlewares/Third_Party/FreeRTOS/Source/timers.c **** {
  29              		.loc 1 645 1 view -0
  30              		.cfi_startproc
  31              		@ args = 0, pretend = 0, frame = 0
  32              		@ frame_needed = 0, uses_anonymous_args = 0
  33              		@ link register save eliminated.
 646:../../Middlewares/Third_Party/FreeRTOS/Source/timers.c **** TickType_t xNextExpireTime;
  34              		.loc 1 646 1 view .LVU1
 647:../../Middlewares/Third_Party/FreeRTOS/Source/timers.c **** 
 648:../../Middlewares/Third_Party/FreeRTOS/Source/timers.c **** 	/* Timers are listed in expiry time order, with the head of the list
 649:../../Middlewares/Third_Party/FreeRTOS/Source/timers.c **** 	referencing the task that will expire first.  Obtain the time at which
 650:../../Middlewares/Third_Party/FreeRTOS/Source/timers.c **** 	the timer with the nearest expiry time will expire.  If there are no
 651:../../Middlewares/Third_Party/FreeRTOS/Source/timers.c **** 	active timers then just set the next expire time to 0.  That will cause
ARM GAS  C:\Users\gigig\AppData\Local\Temp\ccovY76i.s 			page 13


 652:../../Middlewares/Third_Party/FreeRTOS/Source/timers.c **** 	this task to unblock when the tick count overflows, at which point the
 653:../../Middlewares/Third_Party/FreeRTOS/Source/timers.c **** 	timer lists will be switched and the next expiry time can be
 654:../../Middlewares/Third_Party/FreeRTOS/Source/timers.c **** 	re-assessed.  */
 655:../../Middlewares/Third_Party/FreeRTOS/Source/timers.c **** 	*pxListWasEmpty = listLIST_IS_EMPTY( pxCurrentTimerList );
  35              		.loc 1 655 2 view .LVU2
  36              		.loc 1 655 20 is_stmt 0 view .LVU3
  37 0000 064B     		ldr	r3, .L6
  38 0002 1A68     		ldr	r2, [r3]
  39 0004 1368     		ldr	r3, [r2]
  40 0006 2BB9     		cbnz	r3, .L4
  41 0008 0123     		movs	r3, #1
  42              	.L2:
  43              		.loc 1 655 18 discriminator 4 view .LVU4
  44 000a 0360     		str	r3, [r0]
 656:../../Middlewares/Third_Party/FreeRTOS/Source/timers.c **** 	if( *pxListWasEmpty == pdFALSE )
  45              		.loc 1 656 2 is_stmt 1 discriminator 4 view .LVU5
  46              		.loc 1 656 4 is_stmt 0 discriminator 4 view .LVU6
  47 000c 23B9     		cbnz	r3, .L5
 657:../../Middlewares/Third_Party/FreeRTOS/Source/timers.c **** 	{
 658:../../Middlewares/Third_Party/FreeRTOS/Source/timers.c **** 		xNextExpireTime = listGET_ITEM_VALUE_OF_HEAD_ENTRY( pxCurrentTimerList );
  48              		.loc 1 658 3 is_stmt 1 view .LVU7
  49              		.loc 1 658 21 is_stmt 0 view .LVU8
  50 000e D368     		ldr	r3, [r2, #12]
  51              		.loc 1 658 19 view .LVU9
  52 0010 1868     		ldr	r0, [r3]
  53              	.LVL1:
  54              		.loc 1 658 19 view .LVU10
  55 0012 7047     		bx	lr
  56              	.LVL2:
  57              	.L4:
 655:../../Middlewares/Third_Party/FreeRTOS/Source/timers.c **** 	if( *pxListWasEmpty == pdFALSE )
  58              		.loc 1 655 20 view .LVU11
  59 0014 0023     		movs	r3, #0
  60 0016 F8E7     		b	.L2
  61              	.L5:
 659:../../Middlewares/Third_Party/FreeRTOS/Source/timers.c **** 	}
 660:../../Middlewares/Third_Party/FreeRTOS/Source/timers.c **** 	else
 661:../../Middlewares/Third_Party/FreeRTOS/Source/timers.c **** 	{
 662:../../Middlewares/Third_Party/FreeRTOS/Source/timers.c **** 		/* Ensure the task unblocks when the tick count rolls over. */
 663:../../Middlewares/Third_Party/FreeRTOS/Source/timers.c **** 		xNextExpireTime = ( TickType_t ) 0U;
  62              		.loc 1 663 19 view .LVU12
  63 0018 0020     		movs	r0, #0
  64              	.LVL3:
 664:../../Middlewares/Third_Party/FreeRTOS/Source/timers.c **** 	}
 665:../../Middlewares/Third_Party/FreeRTOS/Source/timers.c **** 
 666:../../Middlewares/Third_Party/FreeRTOS/Source/timers.c **** 	return xNextExpireTime;
  65              		.loc 1 666 2 is_stmt 1 view .LVU13
 667:../../Middlewares/Third_Party/FreeRTOS/Source/timers.c **** }
  66              		.loc 1 667 1 is_stmt 0 view .LVU14
  67 001a 7047     		bx	lr
  68              	.L7:
  69              		.align	2
  70              	.L6:
  71 001c 00000000 		.word	.LANCHOR0
  72              		.cfi_endproc
  73              	.LFE18:
  75              		.section	.text.prvInsertTimerInActiveList,"ax",%progbits
ARM GAS  C:\Users\gigig\AppData\Local\Temp\ccovY76i.s 			page 14


  76              		.align	1
  77              		.syntax unified
  78              		.thumb
  79              		.thumb_func
  81              	prvInsertTimerInActiveList:
  82              	.LVL4:
  83              	.LFB20:
 668:../../Middlewares/Third_Party/FreeRTOS/Source/timers.c **** /*-----------------------------------------------------------*/
 669:../../Middlewares/Third_Party/FreeRTOS/Source/timers.c **** 
 670:../../Middlewares/Third_Party/FreeRTOS/Source/timers.c **** static TickType_t prvSampleTimeNow( BaseType_t * const pxTimerListsWereSwitched )
 671:../../Middlewares/Third_Party/FreeRTOS/Source/timers.c **** {
 672:../../Middlewares/Third_Party/FreeRTOS/Source/timers.c **** TickType_t xTimeNow;
 673:../../Middlewares/Third_Party/FreeRTOS/Source/timers.c **** PRIVILEGED_DATA static TickType_t xLastTime = ( TickType_t ) 0U; /*lint !e956 Variable is only acce
 674:../../Middlewares/Third_Party/FreeRTOS/Source/timers.c **** 
 675:../../Middlewares/Third_Party/FreeRTOS/Source/timers.c **** 	xTimeNow = xTaskGetTickCount();
 676:../../Middlewares/Third_Party/FreeRTOS/Source/timers.c **** 
 677:../../Middlewares/Third_Party/FreeRTOS/Source/timers.c **** 	if( xTimeNow < xLastTime )
 678:../../Middlewares/Third_Party/FreeRTOS/Source/timers.c **** 	{
 679:../../Middlewares/Third_Party/FreeRTOS/Source/timers.c **** 		prvSwitchTimerLists();
 680:../../Middlewares/Third_Party/FreeRTOS/Source/timers.c **** 		*pxTimerListsWereSwitched = pdTRUE;
 681:../../Middlewares/Third_Party/FreeRTOS/Source/timers.c **** 	}
 682:../../Middlewares/Third_Party/FreeRTOS/Source/timers.c **** 	else
 683:../../Middlewares/Third_Party/FreeRTOS/Source/timers.c **** 	{
 684:../../Middlewares/Third_Party/FreeRTOS/Source/timers.c **** 		*pxTimerListsWereSwitched = pdFALSE;
 685:../../Middlewares/Third_Party/FreeRTOS/Source/timers.c **** 	}
 686:../../Middlewares/Third_Party/FreeRTOS/Source/timers.c **** 
 687:../../Middlewares/Third_Party/FreeRTOS/Source/timers.c **** 	xLastTime = xTimeNow;
 688:../../Middlewares/Third_Party/FreeRTOS/Source/timers.c **** 
 689:../../Middlewares/Third_Party/FreeRTOS/Source/timers.c **** 	return xTimeNow;
 690:../../Middlewares/Third_Party/FreeRTOS/Source/timers.c **** }
 691:../../Middlewares/Third_Party/FreeRTOS/Source/timers.c **** /*-----------------------------------------------------------*/
 692:../../Middlewares/Third_Party/FreeRTOS/Source/timers.c **** 
 693:../../Middlewares/Third_Party/FreeRTOS/Source/timers.c **** static BaseType_t prvInsertTimerInActiveList( Timer_t * const pxTimer, const TickType_t xNextExpiry
 694:../../Middlewares/Third_Party/FreeRTOS/Source/timers.c **** {
  84              		.loc 1 694 1 is_stmt 1 view -0
  85              		.cfi_startproc
  86              		@ args = 0, pretend = 0, frame = 0
  87              		@ frame_needed = 0, uses_anonymous_args = 0
  88              		.loc 1 694 1 is_stmt 0 view .LVU16
  89 0000 08B5     		push	{r3, lr}
  90              	.LCFI0:
  91              		.cfi_def_cfa_offset 8
  92              		.cfi_offset 3, -8
  93              		.cfi_offset 14, -4
 695:../../Middlewares/Third_Party/FreeRTOS/Source/timers.c **** BaseType_t xProcessTimerNow = pdFALSE;
  94              		.loc 1 695 1 is_stmt 1 view .LVU17
  95              	.LVL5:
 696:../../Middlewares/Third_Party/FreeRTOS/Source/timers.c **** 
 697:../../Middlewares/Third_Party/FreeRTOS/Source/timers.c **** 	listSET_LIST_ITEM_VALUE( &( pxTimer->xTimerListItem ), xNextExpiryTime );
  96              		.loc 1 697 2 view .LVU18
  97 0002 4160     		str	r1, [r0, #4]
 698:../../Middlewares/Third_Party/FreeRTOS/Source/timers.c **** 	listSET_LIST_ITEM_OWNER( &( pxTimer->xTimerListItem ), pxTimer );
  98              		.loc 1 698 2 view .LVU19
  99 0004 0061     		str	r0, [r0, #16]
 699:../../Middlewares/Third_Party/FreeRTOS/Source/timers.c **** 
 700:../../Middlewares/Third_Party/FreeRTOS/Source/timers.c **** 	if( xNextExpiryTime <= xTimeNow )
 100              		.loc 1 700 2 view .LVU20
ARM GAS  C:\Users\gigig\AppData\Local\Temp\ccovY76i.s 			page 15


 101              		.loc 1 700 4 is_stmt 0 view .LVU21
 102 0006 9142     		cmp	r1, r2
 103 0008 0CD8     		bhi	.L9
 701:../../Middlewares/Third_Party/FreeRTOS/Source/timers.c **** 	{
 702:../../Middlewares/Third_Party/FreeRTOS/Source/timers.c **** 		/* Has the expiry time elapsed between the command to start/reset a
 703:../../Middlewares/Third_Party/FreeRTOS/Source/timers.c **** 		timer was issued, and the time the command was processed? */
 704:../../Middlewares/Third_Party/FreeRTOS/Source/timers.c **** 		if( ( ( TickType_t ) ( xTimeNow - xCommandTime ) ) >= pxTimer->xTimerPeriodInTicks ) /*lint !e961
 104              		.loc 1 704 3 is_stmt 1 view .LVU22
 105              		.loc 1 704 9 is_stmt 0 view .LVU23
 106 000a D21A     		subs	r2, r2, r3
 107              	.LVL6:
 108              		.loc 1 704 64 view .LVU24
 109 000c 8369     		ldr	r3, [r0, #24]
 110              	.LVL7:
 111              		.loc 1 704 5 view .LVU25
 112 000e 9A42     		cmp	r2, r3
 113 0010 01D3     		bcc	.L14
 705:../../Middlewares/Third_Party/FreeRTOS/Source/timers.c **** 		{
 706:../../Middlewares/Third_Party/FreeRTOS/Source/timers.c **** 			/* The time between a command being issued and the command being
 707:../../Middlewares/Third_Party/FreeRTOS/Source/timers.c **** 			processed actually exceeds the timers period.  */
 708:../../Middlewares/Third_Party/FreeRTOS/Source/timers.c **** 			xProcessTimerNow = pdTRUE;
 114              		.loc 1 708 21 view .LVU26
 115 0012 0120     		movs	r0, #1
 116              	.LVL8:
 117              	.L8:
 709:../../Middlewares/Third_Party/FreeRTOS/Source/timers.c **** 		}
 710:../../Middlewares/Third_Party/FreeRTOS/Source/timers.c **** 		else
 711:../../Middlewares/Third_Party/FreeRTOS/Source/timers.c **** 		{
 712:../../Middlewares/Third_Party/FreeRTOS/Source/timers.c **** 			vListInsert( pxOverflowTimerList, &( pxTimer->xTimerListItem ) );
 713:../../Middlewares/Third_Party/FreeRTOS/Source/timers.c **** 		}
 714:../../Middlewares/Third_Party/FreeRTOS/Source/timers.c **** 	}
 715:../../Middlewares/Third_Party/FreeRTOS/Source/timers.c **** 	else
 716:../../Middlewares/Third_Party/FreeRTOS/Source/timers.c **** 	{
 717:../../Middlewares/Third_Party/FreeRTOS/Source/timers.c **** 		if( ( xTimeNow < xCommandTime ) && ( xNextExpiryTime >= xCommandTime ) )
 718:../../Middlewares/Third_Party/FreeRTOS/Source/timers.c **** 		{
 719:../../Middlewares/Third_Party/FreeRTOS/Source/timers.c **** 			/* If, since the command was issued, the tick count has overflowed
 720:../../Middlewares/Third_Party/FreeRTOS/Source/timers.c **** 			but the expiry time has not, then the timer must have already passed
 721:../../Middlewares/Third_Party/FreeRTOS/Source/timers.c **** 			its expiry time and should be processed immediately. */
 722:../../Middlewares/Third_Party/FreeRTOS/Source/timers.c **** 			xProcessTimerNow = pdTRUE;
 723:../../Middlewares/Third_Party/FreeRTOS/Source/timers.c **** 		}
 724:../../Middlewares/Third_Party/FreeRTOS/Source/timers.c **** 		else
 725:../../Middlewares/Third_Party/FreeRTOS/Source/timers.c **** 		{
 726:../../Middlewares/Third_Party/FreeRTOS/Source/timers.c **** 			vListInsert( pxCurrentTimerList, &( pxTimer->xTimerListItem ) );
 727:../../Middlewares/Third_Party/FreeRTOS/Source/timers.c **** 		}
 728:../../Middlewares/Third_Party/FreeRTOS/Source/timers.c **** 	}
 729:../../Middlewares/Third_Party/FreeRTOS/Source/timers.c **** 
 730:../../Middlewares/Third_Party/FreeRTOS/Source/timers.c **** 	return xProcessTimerNow;
 731:../../Middlewares/Third_Party/FreeRTOS/Source/timers.c **** }
 118              		.loc 1 731 1 view .LVU27
 119 0014 08BD     		pop	{r3, pc}
 120              	.LVL9:
 121              	.L14:
 712:../../Middlewares/Third_Party/FreeRTOS/Source/timers.c **** 		}
 122              		.loc 1 712 4 is_stmt 1 view .LVU28
 123 0016 011D     		adds	r1, r0, #4
 124              	.LVL10:
 712:../../Middlewares/Third_Party/FreeRTOS/Source/timers.c **** 		}
ARM GAS  C:\Users\gigig\AppData\Local\Temp\ccovY76i.s 			page 16


 125              		.loc 1 712 4 is_stmt 0 view .LVU29
 126 0018 0B4B     		ldr	r3, .L16
 127 001a 1868     		ldr	r0, [r3]
 128              	.LVL11:
 712:../../Middlewares/Third_Party/FreeRTOS/Source/timers.c **** 		}
 129              		.loc 1 712 4 view .LVU30
 130 001c FFF7FEFF 		bl	vListInsert
 131              	.LVL12:
 695:../../Middlewares/Third_Party/FreeRTOS/Source/timers.c **** 
 132              		.loc 1 695 12 view .LVU31
 133 0020 0020     		movs	r0, #0
 134 0022 F7E7     		b	.L8
 135              	.LVL13:
 136              	.L9:
 717:../../Middlewares/Third_Party/FreeRTOS/Source/timers.c **** 		{
 137              		.loc 1 717 3 is_stmt 1 view .LVU32
 717:../../Middlewares/Third_Party/FreeRTOS/Source/timers.c **** 		{
 138              		.loc 1 717 35 is_stmt 0 view .LVU33
 139 0024 9A42     		cmp	r2, r3
 140 0026 2CBF     		ite	cs
 141 0028 0022     		movcs	r2, #0
 142              	.LVL14:
 717:../../Middlewares/Third_Party/FreeRTOS/Source/timers.c **** 		{
 143              		.loc 1 717 35 view .LVU34
 144 002a 0122     		movcc	r2, #1
 145 002c 9942     		cmp	r1, r3
 146 002e 38BF     		it	cc
 147 0030 0022     		movcc	r2, #0
 717:../../Middlewares/Third_Party/FreeRTOS/Source/timers.c **** 		{
 148              		.loc 1 717 5 view .LVU35
 149 0032 0AB1     		cbz	r2, .L15
 722:../../Middlewares/Third_Party/FreeRTOS/Source/timers.c **** 		}
 150              		.loc 1 722 21 view .LVU36
 151 0034 0120     		movs	r0, #1
 152              	.LVL15:
 730:../../Middlewares/Third_Party/FreeRTOS/Source/timers.c **** }
 153              		.loc 1 730 2 is_stmt 1 view .LVU37
 730:../../Middlewares/Third_Party/FreeRTOS/Source/timers.c **** }
 154              		.loc 1 730 9 is_stmt 0 view .LVU38
 155 0036 EDE7     		b	.L8
 156              	.LVL16:
 157              	.L15:
 726:../../Middlewares/Third_Party/FreeRTOS/Source/timers.c **** 		}
 158              		.loc 1 726 4 is_stmt 1 view .LVU39
 159 0038 011D     		adds	r1, r0, #4
 160              	.LVL17:
 726:../../Middlewares/Third_Party/FreeRTOS/Source/timers.c **** 		}
 161              		.loc 1 726 4 is_stmt 0 view .LVU40
 162 003a 044B     		ldr	r3, .L16+4
 163              	.LVL18:
 726:../../Middlewares/Third_Party/FreeRTOS/Source/timers.c **** 		}
 164              		.loc 1 726 4 view .LVU41
 165 003c 1868     		ldr	r0, [r3]
 166              	.LVL19:
 726:../../Middlewares/Third_Party/FreeRTOS/Source/timers.c **** 		}
 167              		.loc 1 726 4 view .LVU42
 168 003e FFF7FEFF 		bl	vListInsert
ARM GAS  C:\Users\gigig\AppData\Local\Temp\ccovY76i.s 			page 17


 169              	.LVL20:
 695:../../Middlewares/Third_Party/FreeRTOS/Source/timers.c **** 
 170              		.loc 1 695 12 view .LVU43
 171 0042 0020     		movs	r0, #0
 172 0044 E6E7     		b	.L8
 173              	.L17:
 174 0046 00BF     		.align	2
 175              	.L16:
 176 0048 00000000 		.word	.LANCHOR1
 177 004c 00000000 		.word	.LANCHOR0
 178              		.cfi_endproc
 179              	.LFE20:
 181              		.section	.rodata.prvCheckForValidListAndQueue.str1.4,"aMS",%progbits,1
 182              		.align	2
 183              	.LC0:
 184 0000 546D7251 		.ascii	"TmrQ\000"
 184      00
 185              		.section	.text.prvCheckForValidListAndQueue,"ax",%progbits
 186              		.align	1
 187              		.syntax unified
 188              		.thumb
 189              		.thumb_func
 191              	prvCheckForValidListAndQueue:
 192              	.LFB23:
 732:../../Middlewares/Third_Party/FreeRTOS/Source/timers.c **** /*-----------------------------------------------------------*/
 733:../../Middlewares/Third_Party/FreeRTOS/Source/timers.c **** 
 734:../../Middlewares/Third_Party/FreeRTOS/Source/timers.c **** static void	prvProcessReceivedCommands( void )
 735:../../Middlewares/Third_Party/FreeRTOS/Source/timers.c **** {
 736:../../Middlewares/Third_Party/FreeRTOS/Source/timers.c **** DaemonTaskMessage_t xMessage;
 737:../../Middlewares/Third_Party/FreeRTOS/Source/timers.c **** Timer_t *pxTimer;
 738:../../Middlewares/Third_Party/FreeRTOS/Source/timers.c **** BaseType_t xTimerListsWereSwitched, xResult;
 739:../../Middlewares/Third_Party/FreeRTOS/Source/timers.c **** TickType_t xTimeNow;
 740:../../Middlewares/Third_Party/FreeRTOS/Source/timers.c **** 
 741:../../Middlewares/Third_Party/FreeRTOS/Source/timers.c **** 	while( xQueueReceive( xTimerQueue, &xMessage, tmrNO_DELAY ) != pdFAIL ) /*lint !e603 xMessage does
 742:../../Middlewares/Third_Party/FreeRTOS/Source/timers.c **** 	{
 743:../../Middlewares/Third_Party/FreeRTOS/Source/timers.c **** 		#if ( INCLUDE_xTimerPendFunctionCall == 1 )
 744:../../Middlewares/Third_Party/FreeRTOS/Source/timers.c **** 		{
 745:../../Middlewares/Third_Party/FreeRTOS/Source/timers.c **** 			/* Negative commands are pended function calls rather than timer
 746:../../Middlewares/Third_Party/FreeRTOS/Source/timers.c **** 			commands. */
 747:../../Middlewares/Third_Party/FreeRTOS/Source/timers.c **** 			if( xMessage.xMessageID < ( BaseType_t ) 0 )
 748:../../Middlewares/Third_Party/FreeRTOS/Source/timers.c **** 			{
 749:../../Middlewares/Third_Party/FreeRTOS/Source/timers.c **** 				const CallbackParameters_t * const pxCallback = &( xMessage.u.xCallbackParameters );
 750:../../Middlewares/Third_Party/FreeRTOS/Source/timers.c **** 
 751:../../Middlewares/Third_Party/FreeRTOS/Source/timers.c **** 				/* The timer uses the xCallbackParameters member to request a
 752:../../Middlewares/Third_Party/FreeRTOS/Source/timers.c **** 				callback be executed.  Check the callback is not NULL. */
 753:../../Middlewares/Third_Party/FreeRTOS/Source/timers.c **** 				configASSERT( pxCallback );
 754:../../Middlewares/Third_Party/FreeRTOS/Source/timers.c **** 
 755:../../Middlewares/Third_Party/FreeRTOS/Source/timers.c **** 				/* Call the function. */
 756:../../Middlewares/Third_Party/FreeRTOS/Source/timers.c **** 				pxCallback->pxCallbackFunction( pxCallback->pvParameter1, pxCallback->ulParameter2 );
 757:../../Middlewares/Third_Party/FreeRTOS/Source/timers.c **** 			}
 758:../../Middlewares/Third_Party/FreeRTOS/Source/timers.c **** 			else
 759:../../Middlewares/Third_Party/FreeRTOS/Source/timers.c **** 			{
 760:../../Middlewares/Third_Party/FreeRTOS/Source/timers.c **** 				mtCOVERAGE_TEST_MARKER();
 761:../../Middlewares/Third_Party/FreeRTOS/Source/timers.c **** 			}
 762:../../Middlewares/Third_Party/FreeRTOS/Source/timers.c **** 		}
 763:../../Middlewares/Third_Party/FreeRTOS/Source/timers.c **** 		#endif /* INCLUDE_xTimerPendFunctionCall */
 764:../../Middlewares/Third_Party/FreeRTOS/Source/timers.c **** 
ARM GAS  C:\Users\gigig\AppData\Local\Temp\ccovY76i.s 			page 18


 765:../../Middlewares/Third_Party/FreeRTOS/Source/timers.c **** 		/* Commands that are positive are timer commands rather than pended
 766:../../Middlewares/Third_Party/FreeRTOS/Source/timers.c **** 		function calls. */
 767:../../Middlewares/Third_Party/FreeRTOS/Source/timers.c **** 		if( xMessage.xMessageID >= ( BaseType_t ) 0 )
 768:../../Middlewares/Third_Party/FreeRTOS/Source/timers.c **** 		{
 769:../../Middlewares/Third_Party/FreeRTOS/Source/timers.c **** 			/* The messages uses the xTimerParameters member to work on a
 770:../../Middlewares/Third_Party/FreeRTOS/Source/timers.c **** 			software timer. */
 771:../../Middlewares/Third_Party/FreeRTOS/Source/timers.c **** 			pxTimer = xMessage.u.xTimerParameters.pxTimer;
 772:../../Middlewares/Third_Party/FreeRTOS/Source/timers.c **** 
 773:../../Middlewares/Third_Party/FreeRTOS/Source/timers.c **** 			if( listIS_CONTAINED_WITHIN( NULL, &( pxTimer->xTimerListItem ) ) == pdFALSE ) /*lint !e961. The
 774:../../Middlewares/Third_Party/FreeRTOS/Source/timers.c **** 			{
 775:../../Middlewares/Third_Party/FreeRTOS/Source/timers.c **** 				/* The timer is in a list, remove it. */
 776:../../Middlewares/Third_Party/FreeRTOS/Source/timers.c **** 				( void ) uxListRemove( &( pxTimer->xTimerListItem ) );
 777:../../Middlewares/Third_Party/FreeRTOS/Source/timers.c **** 			}
 778:../../Middlewares/Third_Party/FreeRTOS/Source/timers.c **** 			else
 779:../../Middlewares/Third_Party/FreeRTOS/Source/timers.c **** 			{
 780:../../Middlewares/Third_Party/FreeRTOS/Source/timers.c **** 				mtCOVERAGE_TEST_MARKER();
 781:../../Middlewares/Third_Party/FreeRTOS/Source/timers.c **** 			}
 782:../../Middlewares/Third_Party/FreeRTOS/Source/timers.c **** 
 783:../../Middlewares/Third_Party/FreeRTOS/Source/timers.c **** 			traceTIMER_COMMAND_RECEIVED( pxTimer, xMessage.xMessageID, xMessage.u.xTimerParameters.xMessageV
 784:../../Middlewares/Third_Party/FreeRTOS/Source/timers.c **** 
 785:../../Middlewares/Third_Party/FreeRTOS/Source/timers.c **** 			/* In this case the xTimerListsWereSwitched parameter is not used, but
 786:../../Middlewares/Third_Party/FreeRTOS/Source/timers.c **** 			it must be present in the function call.  prvSampleTimeNow() must be
 787:../../Middlewares/Third_Party/FreeRTOS/Source/timers.c **** 			called after the message is received from xTimerQueue so there is no
 788:../../Middlewares/Third_Party/FreeRTOS/Source/timers.c **** 			possibility of a higher priority task adding a message to the message
 789:../../Middlewares/Third_Party/FreeRTOS/Source/timers.c **** 			queue with a time that is ahead of the timer daemon task (because it
 790:../../Middlewares/Third_Party/FreeRTOS/Source/timers.c **** 			pre-empted the timer daemon task after the xTimeNow value was set). */
 791:../../Middlewares/Third_Party/FreeRTOS/Source/timers.c **** 			xTimeNow = prvSampleTimeNow( &xTimerListsWereSwitched );
 792:../../Middlewares/Third_Party/FreeRTOS/Source/timers.c **** 
 793:../../Middlewares/Third_Party/FreeRTOS/Source/timers.c **** 			switch( xMessage.xMessageID )
 794:../../Middlewares/Third_Party/FreeRTOS/Source/timers.c **** 			{
 795:../../Middlewares/Third_Party/FreeRTOS/Source/timers.c **** 				case tmrCOMMAND_START :
 796:../../Middlewares/Third_Party/FreeRTOS/Source/timers.c **** 				case tmrCOMMAND_START_FROM_ISR :
 797:../../Middlewares/Third_Party/FreeRTOS/Source/timers.c **** 				case tmrCOMMAND_RESET :
 798:../../Middlewares/Third_Party/FreeRTOS/Source/timers.c **** 				case tmrCOMMAND_RESET_FROM_ISR :
 799:../../Middlewares/Third_Party/FreeRTOS/Source/timers.c **** 				case tmrCOMMAND_START_DONT_TRACE :
 800:../../Middlewares/Third_Party/FreeRTOS/Source/timers.c **** 					/* Start or restart a timer. */
 801:../../Middlewares/Third_Party/FreeRTOS/Source/timers.c **** 					pxTimer->ucStatus |= tmrSTATUS_IS_ACTIVE;
 802:../../Middlewares/Third_Party/FreeRTOS/Source/timers.c **** 					if( prvInsertTimerInActiveList( pxTimer,  xMessage.u.xTimerParameters.xMessageValue + pxTimer-
 803:../../Middlewares/Third_Party/FreeRTOS/Source/timers.c **** 					{
 804:../../Middlewares/Third_Party/FreeRTOS/Source/timers.c **** 						/* The timer expired before it was added to the active
 805:../../Middlewares/Third_Party/FreeRTOS/Source/timers.c **** 						timer list.  Process it now. */
 806:../../Middlewares/Third_Party/FreeRTOS/Source/timers.c **** 						pxTimer->pxCallbackFunction( ( TimerHandle_t ) pxTimer );
 807:../../Middlewares/Third_Party/FreeRTOS/Source/timers.c **** 						traceTIMER_EXPIRED( pxTimer );
 808:../../Middlewares/Third_Party/FreeRTOS/Source/timers.c **** 
 809:../../Middlewares/Third_Party/FreeRTOS/Source/timers.c **** 						if( ( pxTimer->ucStatus & tmrSTATUS_IS_AUTORELOAD ) != 0 )
 810:../../Middlewares/Third_Party/FreeRTOS/Source/timers.c **** 						{
 811:../../Middlewares/Third_Party/FreeRTOS/Source/timers.c **** 							xResult = xTimerGenericCommand( pxTimer, tmrCOMMAND_START_DONT_TRACE, xMessage.u.xTimerParam
 812:../../Middlewares/Third_Party/FreeRTOS/Source/timers.c **** 							configASSERT( xResult );
 813:../../Middlewares/Third_Party/FreeRTOS/Source/timers.c **** 							( void ) xResult;
 814:../../Middlewares/Third_Party/FreeRTOS/Source/timers.c **** 						}
 815:../../Middlewares/Third_Party/FreeRTOS/Source/timers.c **** 						else
 816:../../Middlewares/Third_Party/FreeRTOS/Source/timers.c **** 						{
 817:../../Middlewares/Third_Party/FreeRTOS/Source/timers.c **** 							mtCOVERAGE_TEST_MARKER();
 818:../../Middlewares/Third_Party/FreeRTOS/Source/timers.c **** 						}
 819:../../Middlewares/Third_Party/FreeRTOS/Source/timers.c **** 					}
 820:../../Middlewares/Third_Party/FreeRTOS/Source/timers.c **** 					else
 821:../../Middlewares/Third_Party/FreeRTOS/Source/timers.c **** 					{
ARM GAS  C:\Users\gigig\AppData\Local\Temp\ccovY76i.s 			page 19


 822:../../Middlewares/Third_Party/FreeRTOS/Source/timers.c **** 						mtCOVERAGE_TEST_MARKER();
 823:../../Middlewares/Third_Party/FreeRTOS/Source/timers.c **** 					}
 824:../../Middlewares/Third_Party/FreeRTOS/Source/timers.c **** 					break;
 825:../../Middlewares/Third_Party/FreeRTOS/Source/timers.c **** 
 826:../../Middlewares/Third_Party/FreeRTOS/Source/timers.c **** 				case tmrCOMMAND_STOP :
 827:../../Middlewares/Third_Party/FreeRTOS/Source/timers.c **** 				case tmrCOMMAND_STOP_FROM_ISR :
 828:../../Middlewares/Third_Party/FreeRTOS/Source/timers.c **** 					/* The timer has already been removed from the active list. */
 829:../../Middlewares/Third_Party/FreeRTOS/Source/timers.c **** 					pxTimer->ucStatus &= ~tmrSTATUS_IS_ACTIVE;
 830:../../Middlewares/Third_Party/FreeRTOS/Source/timers.c **** 					break;
 831:../../Middlewares/Third_Party/FreeRTOS/Source/timers.c **** 
 832:../../Middlewares/Third_Party/FreeRTOS/Source/timers.c **** 				case tmrCOMMAND_CHANGE_PERIOD :
 833:../../Middlewares/Third_Party/FreeRTOS/Source/timers.c **** 				case tmrCOMMAND_CHANGE_PERIOD_FROM_ISR :
 834:../../Middlewares/Third_Party/FreeRTOS/Source/timers.c **** 					pxTimer->ucStatus |= tmrSTATUS_IS_ACTIVE;
 835:../../Middlewares/Third_Party/FreeRTOS/Source/timers.c **** 					pxTimer->xTimerPeriodInTicks = xMessage.u.xTimerParameters.xMessageValue;
 836:../../Middlewares/Third_Party/FreeRTOS/Source/timers.c **** 					configASSERT( ( pxTimer->xTimerPeriodInTicks > 0 ) );
 837:../../Middlewares/Third_Party/FreeRTOS/Source/timers.c **** 
 838:../../Middlewares/Third_Party/FreeRTOS/Source/timers.c **** 					/* The new period does not really have a reference, and can
 839:../../Middlewares/Third_Party/FreeRTOS/Source/timers.c **** 					be longer or shorter than the old one.  The command time is
 840:../../Middlewares/Third_Party/FreeRTOS/Source/timers.c **** 					therefore set to the current time, and as the period cannot
 841:../../Middlewares/Third_Party/FreeRTOS/Source/timers.c **** 					be zero the next expiry time can only be in the future,
 842:../../Middlewares/Third_Party/FreeRTOS/Source/timers.c **** 					meaning (unlike for the xTimerStart() case above) there is
 843:../../Middlewares/Third_Party/FreeRTOS/Source/timers.c **** 					no fail case that needs to be handled here. */
 844:../../Middlewares/Third_Party/FreeRTOS/Source/timers.c **** 					( void ) prvInsertTimerInActiveList( pxTimer, ( xTimeNow + pxTimer->xTimerPeriodInTicks ), xTi
 845:../../Middlewares/Third_Party/FreeRTOS/Source/timers.c **** 					break;
 846:../../Middlewares/Third_Party/FreeRTOS/Source/timers.c **** 
 847:../../Middlewares/Third_Party/FreeRTOS/Source/timers.c **** 				case tmrCOMMAND_DELETE :
 848:../../Middlewares/Third_Party/FreeRTOS/Source/timers.c **** 					#if ( configSUPPORT_DYNAMIC_ALLOCATION == 1 )
 849:../../Middlewares/Third_Party/FreeRTOS/Source/timers.c **** 					{
 850:../../Middlewares/Third_Party/FreeRTOS/Source/timers.c **** 						/* The timer has already been removed from the active list,
 851:../../Middlewares/Third_Party/FreeRTOS/Source/timers.c **** 						just free up the memory if the memory was dynamically
 852:../../Middlewares/Third_Party/FreeRTOS/Source/timers.c **** 						allocated. */
 853:../../Middlewares/Third_Party/FreeRTOS/Source/timers.c **** 						if( ( pxTimer->ucStatus & tmrSTATUS_IS_STATICALLY_ALLOCATED ) == ( uint8_t ) 0 )
 854:../../Middlewares/Third_Party/FreeRTOS/Source/timers.c **** 						{
 855:../../Middlewares/Third_Party/FreeRTOS/Source/timers.c **** 							vPortFree( pxTimer );
 856:../../Middlewares/Third_Party/FreeRTOS/Source/timers.c **** 						}
 857:../../Middlewares/Third_Party/FreeRTOS/Source/timers.c **** 						else
 858:../../Middlewares/Third_Party/FreeRTOS/Source/timers.c **** 						{
 859:../../Middlewares/Third_Party/FreeRTOS/Source/timers.c **** 							pxTimer->ucStatus &= ~tmrSTATUS_IS_ACTIVE;
 860:../../Middlewares/Third_Party/FreeRTOS/Source/timers.c **** 						}
 861:../../Middlewares/Third_Party/FreeRTOS/Source/timers.c **** 					}
 862:../../Middlewares/Third_Party/FreeRTOS/Source/timers.c **** 					#else
 863:../../Middlewares/Third_Party/FreeRTOS/Source/timers.c **** 					{
 864:../../Middlewares/Third_Party/FreeRTOS/Source/timers.c **** 						/* If dynamic allocation is not enabled, the memory
 865:../../Middlewares/Third_Party/FreeRTOS/Source/timers.c **** 						could not have been dynamically allocated. So there is
 866:../../Middlewares/Third_Party/FreeRTOS/Source/timers.c **** 						no need to free the memory - just mark the timer as
 867:../../Middlewares/Third_Party/FreeRTOS/Source/timers.c **** 						"not active". */
 868:../../Middlewares/Third_Party/FreeRTOS/Source/timers.c **** 						pxTimer->ucStatus &= ~tmrSTATUS_IS_ACTIVE;
 869:../../Middlewares/Third_Party/FreeRTOS/Source/timers.c **** 					}
 870:../../Middlewares/Third_Party/FreeRTOS/Source/timers.c **** 					#endif /* configSUPPORT_DYNAMIC_ALLOCATION */
 871:../../Middlewares/Third_Party/FreeRTOS/Source/timers.c **** 					break;
 872:../../Middlewares/Third_Party/FreeRTOS/Source/timers.c **** 
 873:../../Middlewares/Third_Party/FreeRTOS/Source/timers.c **** 				default	:
 874:../../Middlewares/Third_Party/FreeRTOS/Source/timers.c **** 					/* Don't expect to get here. */
 875:../../Middlewares/Third_Party/FreeRTOS/Source/timers.c **** 					break;
 876:../../Middlewares/Third_Party/FreeRTOS/Source/timers.c **** 			}
 877:../../Middlewares/Third_Party/FreeRTOS/Source/timers.c **** 		}
 878:../../Middlewares/Third_Party/FreeRTOS/Source/timers.c **** 	}
ARM GAS  C:\Users\gigig\AppData\Local\Temp\ccovY76i.s 			page 20


 879:../../Middlewares/Third_Party/FreeRTOS/Source/timers.c **** }
 880:../../Middlewares/Third_Party/FreeRTOS/Source/timers.c **** /*-----------------------------------------------------------*/
 881:../../Middlewares/Third_Party/FreeRTOS/Source/timers.c **** 
 882:../../Middlewares/Third_Party/FreeRTOS/Source/timers.c **** static void prvSwitchTimerLists( void )
 883:../../Middlewares/Third_Party/FreeRTOS/Source/timers.c **** {
 884:../../Middlewares/Third_Party/FreeRTOS/Source/timers.c **** TickType_t xNextExpireTime, xReloadTime;
 885:../../Middlewares/Third_Party/FreeRTOS/Source/timers.c **** List_t *pxTemp;
 886:../../Middlewares/Third_Party/FreeRTOS/Source/timers.c **** Timer_t *pxTimer;
 887:../../Middlewares/Third_Party/FreeRTOS/Source/timers.c **** BaseType_t xResult;
 888:../../Middlewares/Third_Party/FreeRTOS/Source/timers.c **** 
 889:../../Middlewares/Third_Party/FreeRTOS/Source/timers.c **** 	/* The tick count has overflowed.  The timer lists must be switched.
 890:../../Middlewares/Third_Party/FreeRTOS/Source/timers.c **** 	If there are any timers still referenced from the current timer list
 891:../../Middlewares/Third_Party/FreeRTOS/Source/timers.c **** 	then they must have expired and should be processed before the lists
 892:../../Middlewares/Third_Party/FreeRTOS/Source/timers.c **** 	are switched. */
 893:../../Middlewares/Third_Party/FreeRTOS/Source/timers.c **** 	while( listLIST_IS_EMPTY( pxCurrentTimerList ) == pdFALSE )
 894:../../Middlewares/Third_Party/FreeRTOS/Source/timers.c **** 	{
 895:../../Middlewares/Third_Party/FreeRTOS/Source/timers.c **** 		xNextExpireTime = listGET_ITEM_VALUE_OF_HEAD_ENTRY( pxCurrentTimerList );
 896:../../Middlewares/Third_Party/FreeRTOS/Source/timers.c **** 
 897:../../Middlewares/Third_Party/FreeRTOS/Source/timers.c **** 		/* Remove the timer from the list. */
 898:../../Middlewares/Third_Party/FreeRTOS/Source/timers.c **** 		pxTimer = ( Timer_t * ) listGET_OWNER_OF_HEAD_ENTRY( pxCurrentTimerList ); /*lint !e9087 !e9079 v
 899:../../Middlewares/Third_Party/FreeRTOS/Source/timers.c **** 		( void ) uxListRemove( &( pxTimer->xTimerListItem ) );
 900:../../Middlewares/Third_Party/FreeRTOS/Source/timers.c **** 		traceTIMER_EXPIRED( pxTimer );
 901:../../Middlewares/Third_Party/FreeRTOS/Source/timers.c **** 
 902:../../Middlewares/Third_Party/FreeRTOS/Source/timers.c **** 		/* Execute its callback, then send a command to restart the timer if
 903:../../Middlewares/Third_Party/FreeRTOS/Source/timers.c **** 		it is an auto-reload timer.  It cannot be restarted here as the lists
 904:../../Middlewares/Third_Party/FreeRTOS/Source/timers.c **** 		have not yet been switched. */
 905:../../Middlewares/Third_Party/FreeRTOS/Source/timers.c **** 		pxTimer->pxCallbackFunction( ( TimerHandle_t ) pxTimer );
 906:../../Middlewares/Third_Party/FreeRTOS/Source/timers.c **** 
 907:../../Middlewares/Third_Party/FreeRTOS/Source/timers.c **** 		if( ( pxTimer->ucStatus & tmrSTATUS_IS_AUTORELOAD ) != 0 )
 908:../../Middlewares/Third_Party/FreeRTOS/Source/timers.c **** 		{
 909:../../Middlewares/Third_Party/FreeRTOS/Source/timers.c **** 			/* Calculate the reload value, and if the reload value results in
 910:../../Middlewares/Third_Party/FreeRTOS/Source/timers.c **** 			the timer going into the same timer list then it has already expired
 911:../../Middlewares/Third_Party/FreeRTOS/Source/timers.c **** 			and the timer should be re-inserted into the current list so it is
 912:../../Middlewares/Third_Party/FreeRTOS/Source/timers.c **** 			processed again within this loop.  Otherwise a command should be sent
 913:../../Middlewares/Third_Party/FreeRTOS/Source/timers.c **** 			to restart the timer to ensure it is only inserted into a list after
 914:../../Middlewares/Third_Party/FreeRTOS/Source/timers.c **** 			the lists have been swapped. */
 915:../../Middlewares/Third_Party/FreeRTOS/Source/timers.c **** 			xReloadTime = ( xNextExpireTime + pxTimer->xTimerPeriodInTicks );
 916:../../Middlewares/Third_Party/FreeRTOS/Source/timers.c **** 			if( xReloadTime > xNextExpireTime )
 917:../../Middlewares/Third_Party/FreeRTOS/Source/timers.c **** 			{
 918:../../Middlewares/Third_Party/FreeRTOS/Source/timers.c **** 				listSET_LIST_ITEM_VALUE( &( pxTimer->xTimerListItem ), xReloadTime );
 919:../../Middlewares/Third_Party/FreeRTOS/Source/timers.c **** 				listSET_LIST_ITEM_OWNER( &( pxTimer->xTimerListItem ), pxTimer );
 920:../../Middlewares/Third_Party/FreeRTOS/Source/timers.c **** 				vListInsert( pxCurrentTimerList, &( pxTimer->xTimerListItem ) );
 921:../../Middlewares/Third_Party/FreeRTOS/Source/timers.c **** 			}
 922:../../Middlewares/Third_Party/FreeRTOS/Source/timers.c **** 			else
 923:../../Middlewares/Third_Party/FreeRTOS/Source/timers.c **** 			{
 924:../../Middlewares/Third_Party/FreeRTOS/Source/timers.c **** 				xResult = xTimerGenericCommand( pxTimer, tmrCOMMAND_START_DONT_TRACE, xNextExpireTime, NULL, tm
 925:../../Middlewares/Third_Party/FreeRTOS/Source/timers.c **** 				configASSERT( xResult );
 926:../../Middlewares/Third_Party/FreeRTOS/Source/timers.c **** 				( void ) xResult;
 927:../../Middlewares/Third_Party/FreeRTOS/Source/timers.c **** 			}
 928:../../Middlewares/Third_Party/FreeRTOS/Source/timers.c **** 		}
 929:../../Middlewares/Third_Party/FreeRTOS/Source/timers.c **** 		else
 930:../../Middlewares/Third_Party/FreeRTOS/Source/timers.c **** 		{
 931:../../Middlewares/Third_Party/FreeRTOS/Source/timers.c **** 			mtCOVERAGE_TEST_MARKER();
 932:../../Middlewares/Third_Party/FreeRTOS/Source/timers.c **** 		}
 933:../../Middlewares/Third_Party/FreeRTOS/Source/timers.c **** 	}
 934:../../Middlewares/Third_Party/FreeRTOS/Source/timers.c **** 
 935:../../Middlewares/Third_Party/FreeRTOS/Source/timers.c **** 	pxTemp = pxCurrentTimerList;
ARM GAS  C:\Users\gigig\AppData\Local\Temp\ccovY76i.s 			page 21


 936:../../Middlewares/Third_Party/FreeRTOS/Source/timers.c **** 	pxCurrentTimerList = pxOverflowTimerList;
 937:../../Middlewares/Third_Party/FreeRTOS/Source/timers.c **** 	pxOverflowTimerList = pxTemp;
 938:../../Middlewares/Third_Party/FreeRTOS/Source/timers.c **** }
 939:../../Middlewares/Third_Party/FreeRTOS/Source/timers.c **** /*-----------------------------------------------------------*/
 940:../../Middlewares/Third_Party/FreeRTOS/Source/timers.c **** 
 941:../../Middlewares/Third_Party/FreeRTOS/Source/timers.c **** static void prvCheckForValidListAndQueue( void )
 942:../../Middlewares/Third_Party/FreeRTOS/Source/timers.c **** {
 193              		.loc 1 942 1 is_stmt 1 view -0
 194              		.cfi_startproc
 195              		@ args = 0, pretend = 0, frame = 0
 196              		@ frame_needed = 0, uses_anonymous_args = 0
 197 0000 30B5     		push	{r4, r5, lr}
 198              	.LCFI1:
 199              		.cfi_def_cfa_offset 12
 200              		.cfi_offset 4, -12
 201              		.cfi_offset 5, -8
 202              		.cfi_offset 14, -4
 203 0002 83B0     		sub	sp, sp, #12
 204              	.LCFI2:
 205              		.cfi_def_cfa_offset 24
 943:../../Middlewares/Third_Party/FreeRTOS/Source/timers.c **** 	/* Check that the list from which active timers are referenced, and the
 944:../../Middlewares/Third_Party/FreeRTOS/Source/timers.c **** 	queue used to communicate with the timer service, have been
 945:../../Middlewares/Third_Party/FreeRTOS/Source/timers.c **** 	initialised. */
 946:../../Middlewares/Third_Party/FreeRTOS/Source/timers.c **** 	taskENTER_CRITICAL();
 206              		.loc 1 946 2 view .LVU45
 207 0004 FFF7FEFF 		bl	vPortEnterCritical
 208              	.LVL21:
 947:../../Middlewares/Third_Party/FreeRTOS/Source/timers.c **** 	{
 948:../../Middlewares/Third_Party/FreeRTOS/Source/timers.c **** 		if( xTimerQueue == NULL )
 209              		.loc 1 948 3 view .LVU46
 210              		.loc 1 948 19 is_stmt 0 view .LVU47
 211 0008 114B     		ldr	r3, .L22
 212 000a 1B68     		ldr	r3, [r3]
 213              		.loc 1 948 5 view .LVU48
 214 000c 1BB1     		cbz	r3, .L21
 215              	.L19:
 949:../../Middlewares/Third_Party/FreeRTOS/Source/timers.c **** 		{
 950:../../Middlewares/Third_Party/FreeRTOS/Source/timers.c **** 			vListInitialise( &xActiveTimerList1 );
 951:../../Middlewares/Third_Party/FreeRTOS/Source/timers.c **** 			vListInitialise( &xActiveTimerList2 );
 952:../../Middlewares/Third_Party/FreeRTOS/Source/timers.c **** 			pxCurrentTimerList = &xActiveTimerList1;
 953:../../Middlewares/Third_Party/FreeRTOS/Source/timers.c **** 			pxOverflowTimerList = &xActiveTimerList2;
 954:../../Middlewares/Third_Party/FreeRTOS/Source/timers.c **** 
 955:../../Middlewares/Third_Party/FreeRTOS/Source/timers.c **** 			#if( configSUPPORT_STATIC_ALLOCATION == 1 )
 956:../../Middlewares/Third_Party/FreeRTOS/Source/timers.c **** 			{
 957:../../Middlewares/Third_Party/FreeRTOS/Source/timers.c **** 				/* The timer queue is allocated statically in case
 958:../../Middlewares/Third_Party/FreeRTOS/Source/timers.c **** 				configSUPPORT_DYNAMIC_ALLOCATION is 0. */
 959:../../Middlewares/Third_Party/FreeRTOS/Source/timers.c **** 				static StaticQueue_t xStaticTimerQueue; /*lint !e956 Ok to declare in this manner to prevent ad
 960:../../Middlewares/Third_Party/FreeRTOS/Source/timers.c **** 				static uint8_t ucStaticTimerQueueStorage[ ( size_t ) configTIMER_QUEUE_LENGTH * sizeof( DaemonT
 961:../../Middlewares/Third_Party/FreeRTOS/Source/timers.c **** 
 962:../../Middlewares/Third_Party/FreeRTOS/Source/timers.c **** 				xTimerQueue = xQueueCreateStatic( ( UBaseType_t ) configTIMER_QUEUE_LENGTH, ( UBaseType_t ) siz
 963:../../Middlewares/Third_Party/FreeRTOS/Source/timers.c **** 			}
 964:../../Middlewares/Third_Party/FreeRTOS/Source/timers.c **** 			#else
 965:../../Middlewares/Third_Party/FreeRTOS/Source/timers.c **** 			{
 966:../../Middlewares/Third_Party/FreeRTOS/Source/timers.c **** 				xTimerQueue = xQueueCreate( ( UBaseType_t ) configTIMER_QUEUE_LENGTH, sizeof( DaemonTaskMessage
 967:../../Middlewares/Third_Party/FreeRTOS/Source/timers.c **** 			}
 968:../../Middlewares/Third_Party/FreeRTOS/Source/timers.c **** 			#endif
 969:../../Middlewares/Third_Party/FreeRTOS/Source/timers.c **** 
ARM GAS  C:\Users\gigig\AppData\Local\Temp\ccovY76i.s 			page 22


 970:../../Middlewares/Third_Party/FreeRTOS/Source/timers.c **** 			#if ( configQUEUE_REGISTRY_SIZE > 0 )
 971:../../Middlewares/Third_Party/FreeRTOS/Source/timers.c **** 			{
 972:../../Middlewares/Third_Party/FreeRTOS/Source/timers.c **** 				if( xTimerQueue != NULL )
 973:../../Middlewares/Third_Party/FreeRTOS/Source/timers.c **** 				{
 974:../../Middlewares/Third_Party/FreeRTOS/Source/timers.c **** 					vQueueAddToRegistry( xTimerQueue, "TmrQ" );
 975:../../Middlewares/Third_Party/FreeRTOS/Source/timers.c **** 				}
 976:../../Middlewares/Third_Party/FreeRTOS/Source/timers.c **** 				else
 977:../../Middlewares/Third_Party/FreeRTOS/Source/timers.c **** 				{
 978:../../Middlewares/Third_Party/FreeRTOS/Source/timers.c **** 					mtCOVERAGE_TEST_MARKER();
 979:../../Middlewares/Third_Party/FreeRTOS/Source/timers.c **** 				}
 980:../../Middlewares/Third_Party/FreeRTOS/Source/timers.c **** 			}
 981:../../Middlewares/Third_Party/FreeRTOS/Source/timers.c **** 			#endif /* configQUEUE_REGISTRY_SIZE */
 982:../../Middlewares/Third_Party/FreeRTOS/Source/timers.c **** 		}
 983:../../Middlewares/Third_Party/FreeRTOS/Source/timers.c **** 		else
 984:../../Middlewares/Third_Party/FreeRTOS/Source/timers.c **** 		{
 985:../../Middlewares/Third_Party/FreeRTOS/Source/timers.c **** 			mtCOVERAGE_TEST_MARKER();
 216              		.loc 1 985 28 is_stmt 1 view .LVU49
 986:../../Middlewares/Third_Party/FreeRTOS/Source/timers.c **** 		}
 987:../../Middlewares/Third_Party/FreeRTOS/Source/timers.c **** 	}
 988:../../Middlewares/Third_Party/FreeRTOS/Source/timers.c **** 	taskEXIT_CRITICAL();
 217              		.loc 1 988 2 view .LVU50
 218 000e FFF7FEFF 		bl	vPortExitCritical
 219              	.LVL22:
 989:../../Middlewares/Third_Party/FreeRTOS/Source/timers.c **** }
 220              		.loc 1 989 1 is_stmt 0 view .LVU51
 221 0012 03B0     		add	sp, sp, #12
 222              	.LCFI3:
 223              		.cfi_remember_state
 224              		.cfi_def_cfa_offset 12
 225              		@ sp needed
 226 0014 30BD     		pop	{r4, r5, pc}
 227              	.L21:
 228              	.LCFI4:
 229              		.cfi_restore_state
 950:../../Middlewares/Third_Party/FreeRTOS/Source/timers.c **** 			vListInitialise( &xActiveTimerList2 );
 230              		.loc 1 950 4 is_stmt 1 view .LVU52
 231 0016 0F4D     		ldr	r5, .L22+4
 232 0018 2846     		mov	r0, r5
 233 001a FFF7FEFF 		bl	vListInitialise
 234              	.LVL23:
 951:../../Middlewares/Third_Party/FreeRTOS/Source/timers.c **** 			pxCurrentTimerList = &xActiveTimerList1;
 235              		.loc 1 951 4 view .LVU53
 236 001e 0E4C     		ldr	r4, .L22+8
 237 0020 2046     		mov	r0, r4
 238 0022 FFF7FEFF 		bl	vListInitialise
 239              	.LVL24:
 952:../../Middlewares/Third_Party/FreeRTOS/Source/timers.c **** 			pxOverflowTimerList = &xActiveTimerList2;
 240              		.loc 1 952 4 view .LVU54
 952:../../Middlewares/Third_Party/FreeRTOS/Source/timers.c **** 			pxOverflowTimerList = &xActiveTimerList2;
 241              		.loc 1 952 23 is_stmt 0 view .LVU55
 242 0026 0D4B     		ldr	r3, .L22+12
 243 0028 1D60     		str	r5, [r3]
 953:../../Middlewares/Third_Party/FreeRTOS/Source/timers.c **** 
 244              		.loc 1 953 4 is_stmt 1 view .LVU56
 953:../../Middlewares/Third_Party/FreeRTOS/Source/timers.c **** 
 245              		.loc 1 953 24 is_stmt 0 view .LVU57
 246 002a 0D4B     		ldr	r3, .L22+16
ARM GAS  C:\Users\gigig\AppData\Local\Temp\ccovY76i.s 			page 23


 247 002c 1C60     		str	r4, [r3]
 248              	.LBB45:
 959:../../Middlewares/Third_Party/FreeRTOS/Source/timers.c **** 				static uint8_t ucStaticTimerQueueStorage[ ( size_t ) configTIMER_QUEUE_LENGTH * sizeof( DaemonT
 249              		.loc 1 959 5 is_stmt 1 view .LVU58
 960:../../Middlewares/Third_Party/FreeRTOS/Source/timers.c **** 
 250              		.loc 1 960 5 view .LVU59
 962:../../Middlewares/Third_Party/FreeRTOS/Source/timers.c **** 			}
 251              		.loc 1 962 5 view .LVU60
 962:../../Middlewares/Third_Party/FreeRTOS/Source/timers.c **** 			}
 252              		.loc 1 962 19 is_stmt 0 view .LVU61
 253 002e 0023     		movs	r3, #0
 254 0030 0093     		str	r3, [sp]
 255 0032 0C4B     		ldr	r3, .L22+20
 256 0034 0C4A     		ldr	r2, .L22+24
 257 0036 1021     		movs	r1, #16
 258 0038 0A20     		movs	r0, #10
 259 003a FFF7FEFF 		bl	xQueueGenericCreateStatic
 260              	.LVL25:
 962:../../Middlewares/Third_Party/FreeRTOS/Source/timers.c **** 			}
 261              		.loc 1 962 17 view .LVU62
 262 003e 044B     		ldr	r3, .L22
 263 0040 1860     		str	r0, [r3]
 264              	.LBE45:
 972:../../Middlewares/Third_Party/FreeRTOS/Source/timers.c **** 				{
 265              		.loc 1 972 5 is_stmt 1 view .LVU63
 972:../../Middlewares/Third_Party/FreeRTOS/Source/timers.c **** 				{
 266              		.loc 1 972 7 is_stmt 0 view .LVU64
 267 0042 0028     		cmp	r0, #0
 268 0044 E3D0     		beq	.L19
 974:../../Middlewares/Third_Party/FreeRTOS/Source/timers.c **** 				}
 269              		.loc 1 974 6 is_stmt 1 view .LVU65
 270 0046 0949     		ldr	r1, .L22+28
 271 0048 FFF7FEFF 		bl	vQueueAddToRegistry
 272              	.LVL26:
 273 004c DFE7     		b	.L19
 274              	.L23:
 275 004e 00BF     		.align	2
 276              	.L22:
 277 0050 00000000 		.word	.LANCHOR2
 278 0054 00000000 		.word	.LANCHOR3
 279 0058 00000000 		.word	.LANCHOR4
 280 005c 00000000 		.word	.LANCHOR0
 281 0060 00000000 		.word	.LANCHOR1
 282 0064 00000000 		.word	.LANCHOR5
 283 0068 00000000 		.word	.LANCHOR6
 284 006c 00000000 		.word	.LC0
 285              		.cfi_endproc
 286              	.LFE23:
 288              		.section	.text.prvInitialiseNewTimer,"ax",%progbits
 289              		.align	1
 290              		.syntax unified
 291              		.thumb
 292              		.thumb_func
 294              	prvInitialiseNewTimer:
 295              	.LVL27:
 296              	.LFB7:
 355:../../Middlewares/Third_Party/FreeRTOS/Source/timers.c **** 	/* 0 is not a valid value for xTimerPeriodInTicks. */
ARM GAS  C:\Users\gigig\AppData\Local\Temp\ccovY76i.s 			page 24


 297              		.loc 1 355 1 view -0
 298              		.cfi_startproc
 299              		@ args = 8, pretend = 0, frame = 0
 300              		@ frame_needed = 0, uses_anonymous_args = 0
 355:../../Middlewares/Third_Party/FreeRTOS/Source/timers.c **** 	/* 0 is not a valid value for xTimerPeriodInTicks. */
 301              		.loc 1 355 1 is_stmt 0 view .LVU67
 302 0000 2DE9F041 		push	{r4, r5, r6, r7, r8, lr}
 303              	.LCFI5:
 304              		.cfi_def_cfa_offset 24
 305              		.cfi_offset 4, -24
 306              		.cfi_offset 5, -20
 307              		.cfi_offset 6, -16
 308              		.cfi_offset 7, -12
 309              		.cfi_offset 8, -8
 310              		.cfi_offset 14, -4
 311 0004 079F     		ldr	r7, [sp, #28]
 357:../../Middlewares/Third_Party/FreeRTOS/Source/timers.c **** 
 312              		.loc 1 357 2 is_stmt 1 view .LVU68
 313 0006 41B9     		cbnz	r1, .L25
 357:../../Middlewares/Third_Party/FreeRTOS/Source/timers.c **** 
 314              		.loc 1 357 2 view .LVU69
 315              	.LBB46:
 316              	.LBI46:
 317              		.file 2 "../../Middlewares/Third_Party/FreeRTOS/Source/portable/GCC/ARM_CM4F/portmacro.h"
   1:../../Middlewares/Third_Party/FreeRTOS/Source/portable/GCC/ARM_CM4F/portmacro.h **** /*
   2:../../Middlewares/Third_Party/FreeRTOS/Source/portable/GCC/ARM_CM4F/portmacro.h ****  * FreeRTOS Kernel V10.3.1
   3:../../Middlewares/Third_Party/FreeRTOS/Source/portable/GCC/ARM_CM4F/portmacro.h ****  * Copyright (C) 2020 Amazon.com, Inc. or its affiliates.  All Rights Reserved.
   4:../../Middlewares/Third_Party/FreeRTOS/Source/portable/GCC/ARM_CM4F/portmacro.h ****  *
   5:../../Middlewares/Third_Party/FreeRTOS/Source/portable/GCC/ARM_CM4F/portmacro.h ****  * Permission is hereby granted, free of charge, to any person obtaining a copy of
   6:../../Middlewares/Third_Party/FreeRTOS/Source/portable/GCC/ARM_CM4F/portmacro.h ****  * this software and associated documentation files (the "Software"), to deal in
   7:../../Middlewares/Third_Party/FreeRTOS/Source/portable/GCC/ARM_CM4F/portmacro.h ****  * the Software without restriction, including without limitation the rights to
   8:../../Middlewares/Third_Party/FreeRTOS/Source/portable/GCC/ARM_CM4F/portmacro.h ****  * use, copy, modify, merge, publish, distribute, sublicense, and/or sell copies of
   9:../../Middlewares/Third_Party/FreeRTOS/Source/portable/GCC/ARM_CM4F/portmacro.h ****  * the Software, and to permit persons to whom the Software is furnished to do so,
  10:../../Middlewares/Third_Party/FreeRTOS/Source/portable/GCC/ARM_CM4F/portmacro.h ****  * subject to the following conditions:
  11:../../Middlewares/Third_Party/FreeRTOS/Source/portable/GCC/ARM_CM4F/portmacro.h ****  *
  12:../../Middlewares/Third_Party/FreeRTOS/Source/portable/GCC/ARM_CM4F/portmacro.h ****  * The above copyright notice and this permission notice shall be included in all
  13:../../Middlewares/Third_Party/FreeRTOS/Source/portable/GCC/ARM_CM4F/portmacro.h ****  * copies or substantial portions of the Software.
  14:../../Middlewares/Third_Party/FreeRTOS/Source/portable/GCC/ARM_CM4F/portmacro.h ****  *
  15:../../Middlewares/Third_Party/FreeRTOS/Source/portable/GCC/ARM_CM4F/portmacro.h ****  * THE SOFTWARE IS PROVIDED "AS IS", WITHOUT WARRANTY OF ANY KIND, EXPRESS OR
  16:../../Middlewares/Third_Party/FreeRTOS/Source/portable/GCC/ARM_CM4F/portmacro.h ****  * IMPLIED, INCLUDING BUT NOT LIMITED TO THE WARRANTIES OF MERCHANTABILITY, FITNESS
  17:../../Middlewares/Third_Party/FreeRTOS/Source/portable/GCC/ARM_CM4F/portmacro.h ****  * FOR A PARTICULAR PURPOSE AND NONINFRINGEMENT. IN NO EVENT SHALL THE AUTHORS OR
  18:../../Middlewares/Third_Party/FreeRTOS/Source/portable/GCC/ARM_CM4F/portmacro.h ****  * COPYRIGHT HOLDERS BE LIABLE FOR ANY CLAIM, DAMAGES OR OTHER LIABILITY, WHETHER
  19:../../Middlewares/Third_Party/FreeRTOS/Source/portable/GCC/ARM_CM4F/portmacro.h ****  * IN AN ACTION OF CONTRACT, TORT OR OTHERWISE, ARISING FROM, OUT OF OR IN
  20:../../Middlewares/Third_Party/FreeRTOS/Source/portable/GCC/ARM_CM4F/portmacro.h ****  * CONNECTION WITH THE SOFTWARE OR THE USE OR OTHER DEALINGS IN THE SOFTWARE.
  21:../../Middlewares/Third_Party/FreeRTOS/Source/portable/GCC/ARM_CM4F/portmacro.h ****  *
  22:../../Middlewares/Third_Party/FreeRTOS/Source/portable/GCC/ARM_CM4F/portmacro.h ****  * http://www.FreeRTOS.org
  23:../../Middlewares/Third_Party/FreeRTOS/Source/portable/GCC/ARM_CM4F/portmacro.h ****  * http://aws.amazon.com/freertos
  24:../../Middlewares/Third_Party/FreeRTOS/Source/portable/GCC/ARM_CM4F/portmacro.h ****  *
  25:../../Middlewares/Third_Party/FreeRTOS/Source/portable/GCC/ARM_CM4F/portmacro.h ****  * 1 tab == 4 spaces!
  26:../../Middlewares/Third_Party/FreeRTOS/Source/portable/GCC/ARM_CM4F/portmacro.h ****  */
  27:../../Middlewares/Third_Party/FreeRTOS/Source/portable/GCC/ARM_CM4F/portmacro.h **** 
  28:../../Middlewares/Third_Party/FreeRTOS/Source/portable/GCC/ARM_CM4F/portmacro.h **** 
  29:../../Middlewares/Third_Party/FreeRTOS/Source/portable/GCC/ARM_CM4F/portmacro.h **** #ifndef PORTMACRO_H
  30:../../Middlewares/Third_Party/FreeRTOS/Source/portable/GCC/ARM_CM4F/portmacro.h **** #define PORTMACRO_H
  31:../../Middlewares/Third_Party/FreeRTOS/Source/portable/GCC/ARM_CM4F/portmacro.h **** 
  32:../../Middlewares/Third_Party/FreeRTOS/Source/portable/GCC/ARM_CM4F/portmacro.h **** #ifdef __cplusplus
  33:../../Middlewares/Third_Party/FreeRTOS/Source/portable/GCC/ARM_CM4F/portmacro.h **** extern "C" {
ARM GAS  C:\Users\gigig\AppData\Local\Temp\ccovY76i.s 			page 25


  34:../../Middlewares/Third_Party/FreeRTOS/Source/portable/GCC/ARM_CM4F/portmacro.h **** #endif
  35:../../Middlewares/Third_Party/FreeRTOS/Source/portable/GCC/ARM_CM4F/portmacro.h **** 
  36:../../Middlewares/Third_Party/FreeRTOS/Source/portable/GCC/ARM_CM4F/portmacro.h **** /*-----------------------------------------------------------
  37:../../Middlewares/Third_Party/FreeRTOS/Source/portable/GCC/ARM_CM4F/portmacro.h ****  * Port specific definitions.
  38:../../Middlewares/Third_Party/FreeRTOS/Source/portable/GCC/ARM_CM4F/portmacro.h ****  *
  39:../../Middlewares/Third_Party/FreeRTOS/Source/portable/GCC/ARM_CM4F/portmacro.h ****  * The settings in this file configure FreeRTOS correctly for the
  40:../../Middlewares/Third_Party/FreeRTOS/Source/portable/GCC/ARM_CM4F/portmacro.h ****  * given hardware and compiler.
  41:../../Middlewares/Third_Party/FreeRTOS/Source/portable/GCC/ARM_CM4F/portmacro.h ****  *
  42:../../Middlewares/Third_Party/FreeRTOS/Source/portable/GCC/ARM_CM4F/portmacro.h ****  * These settings should not be altered.
  43:../../Middlewares/Third_Party/FreeRTOS/Source/portable/GCC/ARM_CM4F/portmacro.h ****  *-----------------------------------------------------------
  44:../../Middlewares/Third_Party/FreeRTOS/Source/portable/GCC/ARM_CM4F/portmacro.h ****  */
  45:../../Middlewares/Third_Party/FreeRTOS/Source/portable/GCC/ARM_CM4F/portmacro.h **** 
  46:../../Middlewares/Third_Party/FreeRTOS/Source/portable/GCC/ARM_CM4F/portmacro.h **** /* Type definitions. */
  47:../../Middlewares/Third_Party/FreeRTOS/Source/portable/GCC/ARM_CM4F/portmacro.h **** #define portCHAR		char
  48:../../Middlewares/Third_Party/FreeRTOS/Source/portable/GCC/ARM_CM4F/portmacro.h **** #define portFLOAT		float
  49:../../Middlewares/Third_Party/FreeRTOS/Source/portable/GCC/ARM_CM4F/portmacro.h **** #define portDOUBLE		double
  50:../../Middlewares/Third_Party/FreeRTOS/Source/portable/GCC/ARM_CM4F/portmacro.h **** #define portLONG		long
  51:../../Middlewares/Third_Party/FreeRTOS/Source/portable/GCC/ARM_CM4F/portmacro.h **** #define portSHORT		short
  52:../../Middlewares/Third_Party/FreeRTOS/Source/portable/GCC/ARM_CM4F/portmacro.h **** #define portSTACK_TYPE	uint32_t
  53:../../Middlewares/Third_Party/FreeRTOS/Source/portable/GCC/ARM_CM4F/portmacro.h **** #define portBASE_TYPE	long
  54:../../Middlewares/Third_Party/FreeRTOS/Source/portable/GCC/ARM_CM4F/portmacro.h **** 
  55:../../Middlewares/Third_Party/FreeRTOS/Source/portable/GCC/ARM_CM4F/portmacro.h **** typedef portSTACK_TYPE StackType_t;
  56:../../Middlewares/Third_Party/FreeRTOS/Source/portable/GCC/ARM_CM4F/portmacro.h **** typedef long BaseType_t;
  57:../../Middlewares/Third_Party/FreeRTOS/Source/portable/GCC/ARM_CM4F/portmacro.h **** typedef unsigned long UBaseType_t;
  58:../../Middlewares/Third_Party/FreeRTOS/Source/portable/GCC/ARM_CM4F/portmacro.h **** 
  59:../../Middlewares/Third_Party/FreeRTOS/Source/portable/GCC/ARM_CM4F/portmacro.h **** #if( configUSE_16_BIT_TICKS == 1 )
  60:../../Middlewares/Third_Party/FreeRTOS/Source/portable/GCC/ARM_CM4F/portmacro.h **** 	typedef uint16_t TickType_t;
  61:../../Middlewares/Third_Party/FreeRTOS/Source/portable/GCC/ARM_CM4F/portmacro.h **** 	#define portMAX_DELAY ( TickType_t ) 0xffff
  62:../../Middlewares/Third_Party/FreeRTOS/Source/portable/GCC/ARM_CM4F/portmacro.h **** #else
  63:../../Middlewares/Third_Party/FreeRTOS/Source/portable/GCC/ARM_CM4F/portmacro.h **** 	typedef uint32_t TickType_t;
  64:../../Middlewares/Third_Party/FreeRTOS/Source/portable/GCC/ARM_CM4F/portmacro.h **** 	#define portMAX_DELAY ( TickType_t ) 0xffffffffUL
  65:../../Middlewares/Third_Party/FreeRTOS/Source/portable/GCC/ARM_CM4F/portmacro.h **** 
  66:../../Middlewares/Third_Party/FreeRTOS/Source/portable/GCC/ARM_CM4F/portmacro.h **** 	/* 32-bit tick type on a 32-bit architecture, so reads of the tick count do
  67:../../Middlewares/Third_Party/FreeRTOS/Source/portable/GCC/ARM_CM4F/portmacro.h **** 	not need to be guarded with a critical section. */
  68:../../Middlewares/Third_Party/FreeRTOS/Source/portable/GCC/ARM_CM4F/portmacro.h **** 	#define portTICK_TYPE_IS_ATOMIC 1
  69:../../Middlewares/Third_Party/FreeRTOS/Source/portable/GCC/ARM_CM4F/portmacro.h **** #endif
  70:../../Middlewares/Third_Party/FreeRTOS/Source/portable/GCC/ARM_CM4F/portmacro.h **** /*-----------------------------------------------------------*/
  71:../../Middlewares/Third_Party/FreeRTOS/Source/portable/GCC/ARM_CM4F/portmacro.h **** 
  72:../../Middlewares/Third_Party/FreeRTOS/Source/portable/GCC/ARM_CM4F/portmacro.h **** /* Architecture specifics. */
  73:../../Middlewares/Third_Party/FreeRTOS/Source/portable/GCC/ARM_CM4F/portmacro.h **** #define portSTACK_GROWTH			( -1 )
  74:../../Middlewares/Third_Party/FreeRTOS/Source/portable/GCC/ARM_CM4F/portmacro.h **** #define portTICK_PERIOD_MS			( ( TickType_t ) 1000 / configTICK_RATE_HZ )
  75:../../Middlewares/Third_Party/FreeRTOS/Source/portable/GCC/ARM_CM4F/portmacro.h **** #define portBYTE_ALIGNMENT			8
  76:../../Middlewares/Third_Party/FreeRTOS/Source/portable/GCC/ARM_CM4F/portmacro.h **** /*-----------------------------------------------------------*/
  77:../../Middlewares/Third_Party/FreeRTOS/Source/portable/GCC/ARM_CM4F/portmacro.h **** 
  78:../../Middlewares/Third_Party/FreeRTOS/Source/portable/GCC/ARM_CM4F/portmacro.h **** /* Scheduler utilities. */
  79:../../Middlewares/Third_Party/FreeRTOS/Source/portable/GCC/ARM_CM4F/portmacro.h **** #define portYIELD() 															\
  80:../../Middlewares/Third_Party/FreeRTOS/Source/portable/GCC/ARM_CM4F/portmacro.h **** {																				\
  81:../../Middlewares/Third_Party/FreeRTOS/Source/portable/GCC/ARM_CM4F/portmacro.h **** 	/* Set a PendSV to request a context switch. */								\
  82:../../Middlewares/Third_Party/FreeRTOS/Source/portable/GCC/ARM_CM4F/portmacro.h **** 	portNVIC_INT_CTRL_REG = portNVIC_PENDSVSET_BIT;								\
  83:../../Middlewares/Third_Party/FreeRTOS/Source/portable/GCC/ARM_CM4F/portmacro.h **** 																				\
  84:../../Middlewares/Third_Party/FreeRTOS/Source/portable/GCC/ARM_CM4F/portmacro.h **** 	/* Barriers are normally not required but do ensure the code is completely	\
  85:../../Middlewares/Third_Party/FreeRTOS/Source/portable/GCC/ARM_CM4F/portmacro.h **** 	within the specified behaviour for the architecture. */						\
  86:../../Middlewares/Third_Party/FreeRTOS/Source/portable/GCC/ARM_CM4F/portmacro.h **** 	__asm volatile( "dsb" ::: "memory" );										\
  87:../../Middlewares/Third_Party/FreeRTOS/Source/portable/GCC/ARM_CM4F/portmacro.h **** 	__asm volatile( "isb" );													\
  88:../../Middlewares/Third_Party/FreeRTOS/Source/portable/GCC/ARM_CM4F/portmacro.h **** }
  89:../../Middlewares/Third_Party/FreeRTOS/Source/portable/GCC/ARM_CM4F/portmacro.h **** 
  90:../../Middlewares/Third_Party/FreeRTOS/Source/portable/GCC/ARM_CM4F/portmacro.h **** #define portNVIC_INT_CTRL_REG		( * ( ( volatile uint32_t * ) 0xe000ed04 ) )
ARM GAS  C:\Users\gigig\AppData\Local\Temp\ccovY76i.s 			page 26


  91:../../Middlewares/Third_Party/FreeRTOS/Source/portable/GCC/ARM_CM4F/portmacro.h **** #define portNVIC_PENDSVSET_BIT		( 1UL << 28UL )
  92:../../Middlewares/Third_Party/FreeRTOS/Source/portable/GCC/ARM_CM4F/portmacro.h **** #define portEND_SWITCHING_ISR( xSwitchRequired ) if( xSwitchRequired != pdFALSE ) portYIELD()
  93:../../Middlewares/Third_Party/FreeRTOS/Source/portable/GCC/ARM_CM4F/portmacro.h **** #define portYIELD_FROM_ISR( x ) portEND_SWITCHING_ISR( x )
  94:../../Middlewares/Third_Party/FreeRTOS/Source/portable/GCC/ARM_CM4F/portmacro.h **** /*-----------------------------------------------------------*/
  95:../../Middlewares/Third_Party/FreeRTOS/Source/portable/GCC/ARM_CM4F/portmacro.h **** 
  96:../../Middlewares/Third_Party/FreeRTOS/Source/portable/GCC/ARM_CM4F/portmacro.h **** /* Critical section management. */
  97:../../Middlewares/Third_Party/FreeRTOS/Source/portable/GCC/ARM_CM4F/portmacro.h **** extern void vPortEnterCritical( void );
  98:../../Middlewares/Third_Party/FreeRTOS/Source/portable/GCC/ARM_CM4F/portmacro.h **** extern void vPortExitCritical( void );
  99:../../Middlewares/Third_Party/FreeRTOS/Source/portable/GCC/ARM_CM4F/portmacro.h **** #define portSET_INTERRUPT_MASK_FROM_ISR()		ulPortRaiseBASEPRI()
 100:../../Middlewares/Third_Party/FreeRTOS/Source/portable/GCC/ARM_CM4F/portmacro.h **** #define portCLEAR_INTERRUPT_MASK_FROM_ISR(x)	vPortSetBASEPRI(x)
 101:../../Middlewares/Third_Party/FreeRTOS/Source/portable/GCC/ARM_CM4F/portmacro.h **** #define portDISABLE_INTERRUPTS()				vPortRaiseBASEPRI()
 102:../../Middlewares/Third_Party/FreeRTOS/Source/portable/GCC/ARM_CM4F/portmacro.h **** #define portENABLE_INTERRUPTS()					vPortSetBASEPRI(0)
 103:../../Middlewares/Third_Party/FreeRTOS/Source/portable/GCC/ARM_CM4F/portmacro.h **** #define portENTER_CRITICAL()					vPortEnterCritical()
 104:../../Middlewares/Third_Party/FreeRTOS/Source/portable/GCC/ARM_CM4F/portmacro.h **** #define portEXIT_CRITICAL()						vPortExitCritical()
 105:../../Middlewares/Third_Party/FreeRTOS/Source/portable/GCC/ARM_CM4F/portmacro.h **** 
 106:../../Middlewares/Third_Party/FreeRTOS/Source/portable/GCC/ARM_CM4F/portmacro.h **** /*-----------------------------------------------------------*/
 107:../../Middlewares/Third_Party/FreeRTOS/Source/portable/GCC/ARM_CM4F/portmacro.h **** 
 108:../../Middlewares/Third_Party/FreeRTOS/Source/portable/GCC/ARM_CM4F/portmacro.h **** /* Task function macros as described on the FreeRTOS.org WEB site.  These are
 109:../../Middlewares/Third_Party/FreeRTOS/Source/portable/GCC/ARM_CM4F/portmacro.h **** not necessary for to use this port.  They are defined so the common demo files
 110:../../Middlewares/Third_Party/FreeRTOS/Source/portable/GCC/ARM_CM4F/portmacro.h **** (which build with all the ports) will build. */
 111:../../Middlewares/Third_Party/FreeRTOS/Source/portable/GCC/ARM_CM4F/portmacro.h **** #define portTASK_FUNCTION_PROTO( vFunction, pvParameters ) void vFunction( void *pvParameters )
 112:../../Middlewares/Third_Party/FreeRTOS/Source/portable/GCC/ARM_CM4F/portmacro.h **** #define portTASK_FUNCTION( vFunction, pvParameters ) void vFunction( void *pvParameters )
 113:../../Middlewares/Third_Party/FreeRTOS/Source/portable/GCC/ARM_CM4F/portmacro.h **** /*-----------------------------------------------------------*/
 114:../../Middlewares/Third_Party/FreeRTOS/Source/portable/GCC/ARM_CM4F/portmacro.h **** 
 115:../../Middlewares/Third_Party/FreeRTOS/Source/portable/GCC/ARM_CM4F/portmacro.h **** /* Tickless idle/low power functionality. */
 116:../../Middlewares/Third_Party/FreeRTOS/Source/portable/GCC/ARM_CM4F/portmacro.h **** #ifndef portSUPPRESS_TICKS_AND_SLEEP
 117:../../Middlewares/Third_Party/FreeRTOS/Source/portable/GCC/ARM_CM4F/portmacro.h **** 	extern void vPortSuppressTicksAndSleep( TickType_t xExpectedIdleTime );
 118:../../Middlewares/Third_Party/FreeRTOS/Source/portable/GCC/ARM_CM4F/portmacro.h **** 	#define portSUPPRESS_TICKS_AND_SLEEP( xExpectedIdleTime ) vPortSuppressTicksAndSleep( xExpectedIdl
 119:../../Middlewares/Third_Party/FreeRTOS/Source/portable/GCC/ARM_CM4F/portmacro.h **** #endif
 120:../../Middlewares/Third_Party/FreeRTOS/Source/portable/GCC/ARM_CM4F/portmacro.h **** /*-----------------------------------------------------------*/
 121:../../Middlewares/Third_Party/FreeRTOS/Source/portable/GCC/ARM_CM4F/portmacro.h **** 
 122:../../Middlewares/Third_Party/FreeRTOS/Source/portable/GCC/ARM_CM4F/portmacro.h **** /* Architecture specific optimisations. */
 123:../../Middlewares/Third_Party/FreeRTOS/Source/portable/GCC/ARM_CM4F/portmacro.h **** #ifndef configUSE_PORT_OPTIMISED_TASK_SELECTION
 124:../../Middlewares/Third_Party/FreeRTOS/Source/portable/GCC/ARM_CM4F/portmacro.h **** 	#define configUSE_PORT_OPTIMISED_TASK_SELECTION 1
 125:../../Middlewares/Third_Party/FreeRTOS/Source/portable/GCC/ARM_CM4F/portmacro.h **** #endif
 126:../../Middlewares/Third_Party/FreeRTOS/Source/portable/GCC/ARM_CM4F/portmacro.h **** 
 127:../../Middlewares/Third_Party/FreeRTOS/Source/portable/GCC/ARM_CM4F/portmacro.h **** #if configUSE_PORT_OPTIMISED_TASK_SELECTION == 1
 128:../../Middlewares/Third_Party/FreeRTOS/Source/portable/GCC/ARM_CM4F/portmacro.h **** 
 129:../../Middlewares/Third_Party/FreeRTOS/Source/portable/GCC/ARM_CM4F/portmacro.h **** 	/* Generic helper function. */
 130:../../Middlewares/Third_Party/FreeRTOS/Source/portable/GCC/ARM_CM4F/portmacro.h **** 	__attribute__( ( always_inline ) ) static inline uint8_t ucPortCountLeadingZeros( uint32_t ulBitma
 131:../../Middlewares/Third_Party/FreeRTOS/Source/portable/GCC/ARM_CM4F/portmacro.h **** 	{
 132:../../Middlewares/Third_Party/FreeRTOS/Source/portable/GCC/ARM_CM4F/portmacro.h **** 	uint8_t ucReturn;
 133:../../Middlewares/Third_Party/FreeRTOS/Source/portable/GCC/ARM_CM4F/portmacro.h **** 
 134:../../Middlewares/Third_Party/FreeRTOS/Source/portable/GCC/ARM_CM4F/portmacro.h **** 		__asm volatile ( "clz %0, %1" : "=r" ( ucReturn ) : "r" ( ulBitmap ) : "memory" );
 135:../../Middlewares/Third_Party/FreeRTOS/Source/portable/GCC/ARM_CM4F/portmacro.h **** 		return ucReturn;
 136:../../Middlewares/Third_Party/FreeRTOS/Source/portable/GCC/ARM_CM4F/portmacro.h **** 	}
 137:../../Middlewares/Third_Party/FreeRTOS/Source/portable/GCC/ARM_CM4F/portmacro.h **** 
 138:../../Middlewares/Third_Party/FreeRTOS/Source/portable/GCC/ARM_CM4F/portmacro.h **** 	/* Check the configuration. */
 139:../../Middlewares/Third_Party/FreeRTOS/Source/portable/GCC/ARM_CM4F/portmacro.h **** 	#if( configMAX_PRIORITIES > 32 )
 140:../../Middlewares/Third_Party/FreeRTOS/Source/portable/GCC/ARM_CM4F/portmacro.h **** 		#error configUSE_PORT_OPTIMISED_TASK_SELECTION can only be set to 1 when configMAX_PRIORITIES is 
 141:../../Middlewares/Third_Party/FreeRTOS/Source/portable/GCC/ARM_CM4F/portmacro.h **** 	#endif
 142:../../Middlewares/Third_Party/FreeRTOS/Source/portable/GCC/ARM_CM4F/portmacro.h **** 
 143:../../Middlewares/Third_Party/FreeRTOS/Source/portable/GCC/ARM_CM4F/portmacro.h **** 	/* Store/clear the ready priorities in a bit map. */
 144:../../Middlewares/Third_Party/FreeRTOS/Source/portable/GCC/ARM_CM4F/portmacro.h **** 	#define portRECORD_READY_PRIORITY( uxPriority, uxReadyPriorities ) ( uxReadyPriorities ) |= ( 1UL 
 145:../../Middlewares/Third_Party/FreeRTOS/Source/portable/GCC/ARM_CM4F/portmacro.h **** 	#define portRESET_READY_PRIORITY( uxPriority, uxReadyPriorities ) ( uxReadyPriorities ) &= ~( 1UL 
 146:../../Middlewares/Third_Party/FreeRTOS/Source/portable/GCC/ARM_CM4F/portmacro.h **** 
 147:../../Middlewares/Third_Party/FreeRTOS/Source/portable/GCC/ARM_CM4F/portmacro.h **** 	/*-----------------------------------------------------------*/
ARM GAS  C:\Users\gigig\AppData\Local\Temp\ccovY76i.s 			page 27


 148:../../Middlewares/Third_Party/FreeRTOS/Source/portable/GCC/ARM_CM4F/portmacro.h **** 
 149:../../Middlewares/Third_Party/FreeRTOS/Source/portable/GCC/ARM_CM4F/portmacro.h **** 	#define portGET_HIGHEST_PRIORITY( uxTopPriority, uxReadyPriorities ) uxTopPriority = ( 31UL - ( ui
 150:../../Middlewares/Third_Party/FreeRTOS/Source/portable/GCC/ARM_CM4F/portmacro.h **** 
 151:../../Middlewares/Third_Party/FreeRTOS/Source/portable/GCC/ARM_CM4F/portmacro.h **** #endif /* configUSE_PORT_OPTIMISED_TASK_SELECTION */
 152:../../Middlewares/Third_Party/FreeRTOS/Source/portable/GCC/ARM_CM4F/portmacro.h **** 
 153:../../Middlewares/Third_Party/FreeRTOS/Source/portable/GCC/ARM_CM4F/portmacro.h **** /*-----------------------------------------------------------*/
 154:../../Middlewares/Third_Party/FreeRTOS/Source/portable/GCC/ARM_CM4F/portmacro.h **** 
 155:../../Middlewares/Third_Party/FreeRTOS/Source/portable/GCC/ARM_CM4F/portmacro.h **** #ifdef configASSERT
 156:../../Middlewares/Third_Party/FreeRTOS/Source/portable/GCC/ARM_CM4F/portmacro.h **** 	void vPortValidateInterruptPriority( void );
 157:../../Middlewares/Third_Party/FreeRTOS/Source/portable/GCC/ARM_CM4F/portmacro.h **** 	#define portASSERT_IF_INTERRUPT_PRIORITY_INVALID() 	vPortValidateInterruptPriority()
 158:../../Middlewares/Third_Party/FreeRTOS/Source/portable/GCC/ARM_CM4F/portmacro.h **** #endif
 159:../../Middlewares/Third_Party/FreeRTOS/Source/portable/GCC/ARM_CM4F/portmacro.h **** 
 160:../../Middlewares/Third_Party/FreeRTOS/Source/portable/GCC/ARM_CM4F/portmacro.h **** /* portNOP() is not required by this port. */
 161:../../Middlewares/Third_Party/FreeRTOS/Source/portable/GCC/ARM_CM4F/portmacro.h **** #define portNOP()
 162:../../Middlewares/Third_Party/FreeRTOS/Source/portable/GCC/ARM_CM4F/portmacro.h **** 
 163:../../Middlewares/Third_Party/FreeRTOS/Source/portable/GCC/ARM_CM4F/portmacro.h **** #define portINLINE	__inline
 164:../../Middlewares/Third_Party/FreeRTOS/Source/portable/GCC/ARM_CM4F/portmacro.h **** 
 165:../../Middlewares/Third_Party/FreeRTOS/Source/portable/GCC/ARM_CM4F/portmacro.h **** #ifndef portFORCE_INLINE
 166:../../Middlewares/Third_Party/FreeRTOS/Source/portable/GCC/ARM_CM4F/portmacro.h **** 	#define portFORCE_INLINE inline __attribute__(( always_inline))
 167:../../Middlewares/Third_Party/FreeRTOS/Source/portable/GCC/ARM_CM4F/portmacro.h **** #endif
 168:../../Middlewares/Third_Party/FreeRTOS/Source/portable/GCC/ARM_CM4F/portmacro.h **** 
 169:../../Middlewares/Third_Party/FreeRTOS/Source/portable/GCC/ARM_CM4F/portmacro.h **** portFORCE_INLINE static BaseType_t xPortIsInsideInterrupt( void )
 170:../../Middlewares/Third_Party/FreeRTOS/Source/portable/GCC/ARM_CM4F/portmacro.h **** {
 171:../../Middlewares/Third_Party/FreeRTOS/Source/portable/GCC/ARM_CM4F/portmacro.h **** uint32_t ulCurrentInterrupt;
 172:../../Middlewares/Third_Party/FreeRTOS/Source/portable/GCC/ARM_CM4F/portmacro.h **** BaseType_t xReturn;
 173:../../Middlewares/Third_Party/FreeRTOS/Source/portable/GCC/ARM_CM4F/portmacro.h **** 
 174:../../Middlewares/Third_Party/FreeRTOS/Source/portable/GCC/ARM_CM4F/portmacro.h **** 	/* Obtain the number of the currently executing interrupt. */
 175:../../Middlewares/Third_Party/FreeRTOS/Source/portable/GCC/ARM_CM4F/portmacro.h **** 	__asm volatile( "mrs %0, ipsr" : "=r"( ulCurrentInterrupt ) :: "memory" );
 176:../../Middlewares/Third_Party/FreeRTOS/Source/portable/GCC/ARM_CM4F/portmacro.h **** 
 177:../../Middlewares/Third_Party/FreeRTOS/Source/portable/GCC/ARM_CM4F/portmacro.h **** 	if( ulCurrentInterrupt == 0 )
 178:../../Middlewares/Third_Party/FreeRTOS/Source/portable/GCC/ARM_CM4F/portmacro.h **** 	{
 179:../../Middlewares/Third_Party/FreeRTOS/Source/portable/GCC/ARM_CM4F/portmacro.h **** 		xReturn = pdFALSE;
 180:../../Middlewares/Third_Party/FreeRTOS/Source/portable/GCC/ARM_CM4F/portmacro.h **** 	}
 181:../../Middlewares/Third_Party/FreeRTOS/Source/portable/GCC/ARM_CM4F/portmacro.h **** 	else
 182:../../Middlewares/Third_Party/FreeRTOS/Source/portable/GCC/ARM_CM4F/portmacro.h **** 	{
 183:../../Middlewares/Third_Party/FreeRTOS/Source/portable/GCC/ARM_CM4F/portmacro.h **** 		xReturn = pdTRUE;
 184:../../Middlewares/Third_Party/FreeRTOS/Source/portable/GCC/ARM_CM4F/portmacro.h **** 	}
 185:../../Middlewares/Third_Party/FreeRTOS/Source/portable/GCC/ARM_CM4F/portmacro.h **** 
 186:../../Middlewares/Third_Party/FreeRTOS/Source/portable/GCC/ARM_CM4F/portmacro.h **** 	return xReturn;
 187:../../Middlewares/Third_Party/FreeRTOS/Source/portable/GCC/ARM_CM4F/portmacro.h **** }
 188:../../Middlewares/Third_Party/FreeRTOS/Source/portable/GCC/ARM_CM4F/portmacro.h **** 
 189:../../Middlewares/Third_Party/FreeRTOS/Source/portable/GCC/ARM_CM4F/portmacro.h **** /*-----------------------------------------------------------*/
 190:../../Middlewares/Third_Party/FreeRTOS/Source/portable/GCC/ARM_CM4F/portmacro.h **** 
 191:../../Middlewares/Third_Party/FreeRTOS/Source/portable/GCC/ARM_CM4F/portmacro.h **** portFORCE_INLINE static void vPortRaiseBASEPRI( void )
 318              		.loc 2 191 30 view .LVU70
 319              	.LBB47:
 192:../../Middlewares/Third_Party/FreeRTOS/Source/portable/GCC/ARM_CM4F/portmacro.h **** {
 193:../../Middlewares/Third_Party/FreeRTOS/Source/portable/GCC/ARM_CM4F/portmacro.h **** uint32_t ulNewBASEPRI;
 320              		.loc 2 193 1 view .LVU71
 194:../../Middlewares/Third_Party/FreeRTOS/Source/portable/GCC/ARM_CM4F/portmacro.h **** 
 195:../../Middlewares/Third_Party/FreeRTOS/Source/portable/GCC/ARM_CM4F/portmacro.h **** 	__asm volatile
 321              		.loc 2 195 2 view .LVU72
 322              		.syntax unified
 323              	@ 195 "../../Middlewares/Third_Party/FreeRTOS/Source/portable/GCC/ARM_CM4F/portmacro.h" 1
 324 0008 4FF05003 			mov r3, #80												
 325 000c 83F31188 		msr basepri, r3											
 326 0010 BFF36F8F 		isb														
ARM GAS  C:\Users\gigig\AppData\Local\Temp\ccovY76i.s 			page 28


 327 0014 BFF34F8F 		dsb														
 328              	
 329              	@ 0 "" 2
 330              	.LVL28:
 331              		.thumb
 332              		.syntax unified
 333              	.L26:
 334              		.loc 2 195 2 is_stmt 0 view .LVU73
 335              	.LBE47:
 336              	.LBE46:
 357:../../Middlewares/Third_Party/FreeRTOS/Source/timers.c **** 
 337              		.loc 1 357 2 is_stmt 1 discriminator 1 view .LVU74
 357:../../Middlewares/Third_Party/FreeRTOS/Source/timers.c **** 
 338              		.loc 1 357 2 discriminator 1 view .LVU75
 357:../../Middlewares/Third_Party/FreeRTOS/Source/timers.c **** 
 339              		.loc 1 357 2 discriminator 1 view .LVU76
 340 0018 FEE7     		b	.L26
 341              	.LVL29:
 342              	.L25:
 357:../../Middlewares/Third_Party/FreeRTOS/Source/timers.c **** 
 343              		.loc 1 357 2 is_stmt 0 discriminator 1 view .LVU77
 344 001a 0646     		mov	r6, r0
 345 001c 1446     		mov	r4, r2
 346 001e 1D46     		mov	r5, r3
 347 0020 8846     		mov	r8, r1
 357:../../Middlewares/Third_Party/FreeRTOS/Source/timers.c **** 
 348              		.loc 1 357 45 is_stmt 1 discriminator 2 view .LVU78
 359:../../Middlewares/Third_Party/FreeRTOS/Source/timers.c **** 	{
 349              		.loc 1 359 2 discriminator 2 view .LVU79
 359:../../Middlewares/Third_Party/FreeRTOS/Source/timers.c **** 	{
 350              		.loc 1 359 4 is_stmt 0 discriminator 2 view .LVU80
 351 0022 8FB1     		cbz	r7, .L24
 363:../../Middlewares/Third_Party/FreeRTOS/Source/timers.c **** 
 352              		.loc 1 363 3 is_stmt 1 view .LVU81
 353 0024 FFF7FEFF 		bl	prvCheckForValidListAndQueue
 354              	.LVL30:
 367:../../Middlewares/Third_Party/FreeRTOS/Source/timers.c **** 		pxNewTimer->xTimerPeriodInTicks = xTimerPeriodInTicks;
 355              		.loc 1 367 3 view .LVU82
 367:../../Middlewares/Third_Party/FreeRTOS/Source/timers.c **** 		pxNewTimer->xTimerPeriodInTicks = xTimerPeriodInTicks;
 356              		.loc 1 367 27 is_stmt 0 view .LVU83
 357 0028 3E60     		str	r6, [r7]
 368:../../Middlewares/Third_Party/FreeRTOS/Source/timers.c **** 		pxNewTimer->pvTimerID = pvTimerID;
 358              		.loc 1 368 3 is_stmt 1 view .LVU84
 368:../../Middlewares/Third_Party/FreeRTOS/Source/timers.c **** 		pxNewTimer->pvTimerID = pvTimerID;
 359              		.loc 1 368 35 is_stmt 0 view .LVU85
 360 002a C7F81880 		str	r8, [r7, #24]
 369:../../Middlewares/Third_Party/FreeRTOS/Source/timers.c **** 		pxNewTimer->pxCallbackFunction = pxCallbackFunction;
 361              		.loc 1 369 3 is_stmt 1 view .LVU86
 369:../../Middlewares/Third_Party/FreeRTOS/Source/timers.c **** 		pxNewTimer->pxCallbackFunction = pxCallbackFunction;
 362              		.loc 1 369 25 is_stmt 0 view .LVU87
 363 002e FD61     		str	r5, [r7, #28]
 370:../../Middlewares/Third_Party/FreeRTOS/Source/timers.c **** 		vListInitialiseItem( &( pxNewTimer->xTimerListItem ) );
 364              		.loc 1 370 3 is_stmt 1 view .LVU88
 370:../../Middlewares/Third_Party/FreeRTOS/Source/timers.c **** 		vListInitialiseItem( &( pxNewTimer->xTimerListItem ) );
 365              		.loc 1 370 34 is_stmt 0 view .LVU89
 366 0030 069B     		ldr	r3, [sp, #24]
 367 0032 3B62     		str	r3, [r7, #32]
ARM GAS  C:\Users\gigig\AppData\Local\Temp\ccovY76i.s 			page 29


 371:../../Middlewares/Third_Party/FreeRTOS/Source/timers.c **** 		if( uxAutoReload != pdFALSE )
 368              		.loc 1 371 3 is_stmt 1 view .LVU90
 369 0034 381D     		adds	r0, r7, #4
 370 0036 FFF7FEFF 		bl	vListInitialiseItem
 371              	.LVL31:
 372:../../Middlewares/Third_Party/FreeRTOS/Source/timers.c **** 		{
 372              		.loc 1 372 3 view .LVU91
 372:../../Middlewares/Third_Party/FreeRTOS/Source/timers.c **** 		{
 373              		.loc 1 372 5 is_stmt 0 view .LVU92
 374 003a 2CB1     		cbz	r4, .L24
 374:../../Middlewares/Third_Party/FreeRTOS/Source/timers.c **** 		}
 375              		.loc 1 374 4 is_stmt 1 view .LVU93
 374:../../Middlewares/Third_Party/FreeRTOS/Source/timers.c **** 		}
 376              		.loc 1 374 25 is_stmt 0 view .LVU94
 377 003c 97F82830 		ldrb	r3, [r7, #40]	@ zero_extendqisi2
 378 0040 43F00403 		orr	r3, r3, #4
 379 0044 87F82830 		strb	r3, [r7, #40]
 376:../../Middlewares/Third_Party/FreeRTOS/Source/timers.c **** 	}
 380              		.loc 1 376 34 is_stmt 1 view .LVU95
 381              	.L24:
 378:../../Middlewares/Third_Party/FreeRTOS/Source/timers.c **** /*-----------------------------------------------------------*/
 382              		.loc 1 378 1 is_stmt 0 view .LVU96
 383 0048 BDE8F081 		pop	{r4, r5, r6, r7, r8, pc}
 378:../../Middlewares/Third_Party/FreeRTOS/Source/timers.c **** /*-----------------------------------------------------------*/
 384              		.loc 1 378 1 view .LVU97
 385              		.cfi_endproc
 386              	.LFE7:
 388              		.section	.rodata.xTimerCreateTimerTask.str1.4,"aMS",%progbits,1
 389              		.align	2
 390              	.LC1:
 391 0000 546D7220 		.ascii	"Tmr Svc\000"
 391      53766300 
 392              		.section	.text.xTimerCreateTimerTask,"ax",%progbits
 393              		.align	1
 394              		.global	xTimerCreateTimerTask
 395              		.syntax unified
 396              		.thumb
 397              		.thumb_func
 399              	xTimerCreateTimerTask:
 400              	.LFB4:
 228:../../Middlewares/Third_Party/FreeRTOS/Source/timers.c **** BaseType_t xReturn = pdFAIL;
 401              		.loc 1 228 1 is_stmt 1 view -0
 402              		.cfi_startproc
 403              		@ args = 0, pretend = 0, frame = 16
 404              		@ frame_needed = 0, uses_anonymous_args = 0
 405 0000 10B5     		push	{r4, lr}
 406              	.LCFI6:
 407              		.cfi_def_cfa_offset 8
 408              		.cfi_offset 4, -8
 409              		.cfi_offset 14, -4
 410 0002 88B0     		sub	sp, sp, #32
 411              	.LCFI7:
 412              		.cfi_def_cfa_offset 40
 229:../../Middlewares/Third_Party/FreeRTOS/Source/timers.c **** 
 413              		.loc 1 229 1 view .LVU99
 414              	.LVL32:
 235:../../Middlewares/Third_Party/FreeRTOS/Source/timers.c **** 
ARM GAS  C:\Users\gigig\AppData\Local\Temp\ccovY76i.s 			page 30


 415              		.loc 1 235 2 view .LVU100
 416 0004 FFF7FEFF 		bl	prvCheckForValidListAndQueue
 417              	.LVL33:
 237:../../Middlewares/Third_Party/FreeRTOS/Source/timers.c **** 	{
 418              		.loc 1 237 2 view .LVU101
 237:../../Middlewares/Third_Party/FreeRTOS/Source/timers.c **** 	{
 419              		.loc 1 237 18 is_stmt 0 view .LVU102
 420 0008 124B     		ldr	r3, .L35
 421 000a 1B68     		ldr	r3, [r3]
 237:../../Middlewares/Third_Party/FreeRTOS/Source/timers.c **** 	{
 422              		.loc 1 237 4 view .LVU103
 423 000c CBB1     		cbz	r3, .L30
 424              	.LBB48:
 241:../../Middlewares/Third_Party/FreeRTOS/Source/timers.c **** 			StackType_t *pxTimerTaskStackBuffer = NULL;
 425              		.loc 1 241 4 is_stmt 1 view .LVU104
 241:../../Middlewares/Third_Party/FreeRTOS/Source/timers.c **** 			StackType_t *pxTimerTaskStackBuffer = NULL;
 426              		.loc 1 241 18 is_stmt 0 view .LVU105
 427 000e 0024     		movs	r4, #0
 428 0010 0594     		str	r4, [sp, #20]
 242:../../Middlewares/Third_Party/FreeRTOS/Source/timers.c **** 			uint32_t ulTimerTaskStackSize;
 429              		.loc 1 242 4 is_stmt 1 view .LVU106
 242:../../Middlewares/Third_Party/FreeRTOS/Source/timers.c **** 			uint32_t ulTimerTaskStackSize;
 430              		.loc 1 242 17 is_stmt 0 view .LVU107
 431 0012 0694     		str	r4, [sp, #24]
 243:../../Middlewares/Third_Party/FreeRTOS/Source/timers.c **** 
 432              		.loc 1 243 4 is_stmt 1 view .LVU108
 245:../../Middlewares/Third_Party/FreeRTOS/Source/timers.c **** 			xTimerTaskHandle = xTaskCreateStatic(	prvTimerTask,
 433              		.loc 1 245 4 view .LVU109
 434 0014 07AA     		add	r2, sp, #28
 435 0016 06A9     		add	r1, sp, #24
 436 0018 05A8     		add	r0, sp, #20
 437 001a FFF7FEFF 		bl	vApplicationGetTimerTaskMemory
 438              	.LVL34:
 246:../../Middlewares/Third_Party/FreeRTOS/Source/timers.c **** 													configTIMER_SERVICE_TASK_NAME,
 439              		.loc 1 246 4 view .LVU110
 246:../../Middlewares/Third_Party/FreeRTOS/Source/timers.c **** 													configTIMER_SERVICE_TASK_NAME,
 440              		.loc 1 246 23 is_stmt 0 view .LVU111
 441 001e 059B     		ldr	r3, [sp, #20]
 442 0020 0293     		str	r3, [sp, #8]
 443 0022 069B     		ldr	r3, [sp, #24]
 444 0024 0193     		str	r3, [sp, #4]
 445 0026 0223     		movs	r3, #2
 446 0028 0093     		str	r3, [sp]
 447 002a 2346     		mov	r3, r4
 448 002c 079A     		ldr	r2, [sp, #28]
 449 002e 0A49     		ldr	r1, .L35+4
 450 0030 0A48     		ldr	r0, .L35+8
 451 0032 FFF7FEFF 		bl	xTaskCreateStatic
 452              	.LVL35:
 246:../../Middlewares/Third_Party/FreeRTOS/Source/timers.c **** 													configTIMER_SERVICE_TASK_NAME,
 453              		.loc 1 246 21 view .LVU112
 454 0036 0A4B     		ldr	r3, .L35+12
 455 0038 1860     		str	r0, [r3]
 254:../../Middlewares/Third_Party/FreeRTOS/Source/timers.c **** 			{
 456              		.loc 1 254 4 is_stmt 1 view .LVU113
 254:../../Middlewares/Third_Party/FreeRTOS/Source/timers.c **** 			{
 457              		.loc 1 254 6 is_stmt 0 view .LVU114
ARM GAS  C:\Users\gigig\AppData\Local\Temp\ccovY76i.s 			page 31


 458 003a 10B1     		cbz	r0, .L30
 459              	.LBE48:
 277:../../Middlewares/Third_Party/FreeRTOS/Source/timers.c **** /*-----------------------------------------------------------*/
 460              		.loc 1 277 1 view .LVU115
 461 003c 0120     		movs	r0, #1
 462 003e 08B0     		add	sp, sp, #32
 463              	.LCFI8:
 464              		.cfi_remember_state
 465              		.cfi_def_cfa_offset 8
 466              		@ sp needed
 467 0040 10BD     		pop	{r4, pc}
 468              	.L30:
 469              	.LCFI9:
 470              		.cfi_restore_state
 471              	.LVL36:
 275:../../Middlewares/Third_Party/FreeRTOS/Source/timers.c **** 	return xReturn;
 472              		.loc 1 275 2 is_stmt 1 view .LVU116
 473              	.LBB49:
 474              	.LBI49:
 191:../../Middlewares/Third_Party/FreeRTOS/Source/portable/GCC/ARM_CM4F/portmacro.h **** {
 475              		.loc 2 191 30 view .LVU117
 476              	.LBB50:
 193:../../Middlewares/Third_Party/FreeRTOS/Source/portable/GCC/ARM_CM4F/portmacro.h **** 
 477              		.loc 2 193 1 view .LVU118
 478              		.loc 2 195 2 view .LVU119
 479              		.syntax unified
 480              	@ 195 "../../Middlewares/Third_Party/FreeRTOS/Source/portable/GCC/ARM_CM4F/portmacro.h" 1
 481 0042 4FF05003 			mov r3, #80												
 482 0046 83F31188 		msr basepri, r3											
 483 004a BFF36F8F 		isb														
 484 004e BFF34F8F 		dsb														
 485              	
 486              	@ 0 "" 2
 487              	.LVL37:
 488              		.thumb
 489              		.syntax unified
 490              	.L32:
 491              		.loc 2 195 2 is_stmt 0 view .LVU120
 492              	.LBE50:
 493              	.LBE49:
 275:../../Middlewares/Third_Party/FreeRTOS/Source/timers.c **** 	return xReturn;
 494              		.loc 1 275 2 is_stmt 1 discriminator 1 view .LVU121
 275:../../Middlewares/Third_Party/FreeRTOS/Source/timers.c **** 	return xReturn;
 495              		.loc 1 275 2 discriminator 1 view .LVU122
 275:../../Middlewares/Third_Party/FreeRTOS/Source/timers.c **** 	return xReturn;
 496              		.loc 1 275 2 discriminator 1 view .LVU123
 497 0052 FEE7     		b	.L32
 498              	.L36:
 499              		.align	2
 500              	.L35:
 501 0054 00000000 		.word	.LANCHOR2
 502 0058 00000000 		.word	.LC1
 503 005c 00000000 		.word	prvTimerTask
 504 0060 00000000 		.word	.LANCHOR7
 505              		.cfi_endproc
 506              	.LFE4:
 508              		.section	.text.xTimerCreate,"ax",%progbits
ARM GAS  C:\Users\gigig\AppData\Local\Temp\ccovY76i.s 			page 32


 509              		.align	1
 510              		.global	xTimerCreate
 511              		.syntax unified
 512              		.thumb
 513              		.thumb_func
 515              	xTimerCreate:
 516              	.LVL38:
 517              	.LFB5:
 287:../../Middlewares/Third_Party/FreeRTOS/Source/timers.c **** 	Timer_t *pxNewTimer;
 518              		.loc 1 287 2 view -0
 519              		.cfi_startproc
 520              		@ args = 4, pretend = 0, frame = 0
 521              		@ frame_needed = 0, uses_anonymous_args = 0
 287:../../Middlewares/Third_Party/FreeRTOS/Source/timers.c **** 	Timer_t *pxNewTimer;
 522              		.loc 1 287 2 is_stmt 0 view .LVU125
 523 0000 2DE9F041 		push	{r4, r5, r6, r7, r8, lr}
 524              	.LCFI10:
 525              		.cfi_def_cfa_offset 24
 526              		.cfi_offset 4, -24
 527              		.cfi_offset 5, -20
 528              		.cfi_offset 6, -16
 529              		.cfi_offset 7, -12
 530              		.cfi_offset 8, -8
 531              		.cfi_offset 14, -4
 532 0004 82B0     		sub	sp, sp, #8
 533              	.LCFI11:
 534              		.cfi_def_cfa_offset 32
 535 0006 0446     		mov	r4, r0
 536 0008 8846     		mov	r8, r1
 537 000a 1746     		mov	r7, r2
 538 000c 1D46     		mov	r5, r3
 288:../../Middlewares/Third_Party/FreeRTOS/Source/timers.c **** 
 539              		.loc 1 288 2 is_stmt 1 view .LVU126
 290:../../Middlewares/Third_Party/FreeRTOS/Source/timers.c **** 
 540              		.loc 1 290 3 view .LVU127
 290:../../Middlewares/Third_Party/FreeRTOS/Source/timers.c **** 
 541              		.loc 1 290 30 is_stmt 0 view .LVU128
 542 000e 2C20     		movs	r0, #44
 543              	.LVL39:
 290:../../Middlewares/Third_Party/FreeRTOS/Source/timers.c **** 
 544              		.loc 1 290 30 view .LVU129
 545 0010 FFF7FEFF 		bl	pvPortMalloc
 546              	.LVL40:
 292:../../Middlewares/Third_Party/FreeRTOS/Source/timers.c **** 		{
 547              		.loc 1 292 3 is_stmt 1 view .LVU130
 292:../../Middlewares/Third_Party/FreeRTOS/Source/timers.c **** 		{
 548              		.loc 1 292 5 is_stmt 0 view .LVU131
 549 0014 0646     		mov	r6, r0
 550 0016 58B1     		cbz	r0, .L37
 297:../../Middlewares/Third_Party/FreeRTOS/Source/timers.c **** 			prvInitialiseNewTimer( pcTimerName, xTimerPeriodInTicks, uxAutoReload, pvTimerID, pxCallbackFunc
 551              		.loc 1 297 4 is_stmt 1 view .LVU132
 297:../../Middlewares/Third_Party/FreeRTOS/Source/timers.c **** 			prvInitialiseNewTimer( pcTimerName, xTimerPeriodInTicks, uxAutoReload, pvTimerID, pxCallbackFunc
 552              		.loc 1 297 25 is_stmt 0 view .LVU133
 553 0018 0023     		movs	r3, #0
 554 001a 80F82830 		strb	r3, [r0, #40]
 298:../../Middlewares/Third_Party/FreeRTOS/Source/timers.c **** 		}
 555              		.loc 1 298 4 is_stmt 1 view .LVU134
ARM GAS  C:\Users\gigig\AppData\Local\Temp\ccovY76i.s 			page 33


 556 001e 0190     		str	r0, [sp, #4]
 557 0020 089B     		ldr	r3, [sp, #32]
 558 0022 0093     		str	r3, [sp]
 559 0024 2B46     		mov	r3, r5
 560 0026 3A46     		mov	r2, r7
 561 0028 4146     		mov	r1, r8
 562 002a 2046     		mov	r0, r4
 563              	.LVL41:
 298:../../Middlewares/Third_Party/FreeRTOS/Source/timers.c **** 		}
 564              		.loc 1 298 4 is_stmt 0 view .LVU135
 565 002c FFF7FEFF 		bl	prvInitialiseNewTimer
 566              	.LVL42:
 301:../../Middlewares/Third_Party/FreeRTOS/Source/timers.c **** 	}
 567              		.loc 1 301 3 is_stmt 1 view .LVU136
 568              	.L37:
 302:../../Middlewares/Third_Party/FreeRTOS/Source/timers.c **** 
 569              		.loc 1 302 2 is_stmt 0 view .LVU137
 570 0030 3046     		mov	r0, r6
 571 0032 02B0     		add	sp, sp, #8
 572              	.LCFI12:
 573              		.cfi_def_cfa_offset 24
 574              		@ sp needed
 575 0034 BDE8F081 		pop	{r4, r5, r6, r7, r8, pc}
 302:../../Middlewares/Third_Party/FreeRTOS/Source/timers.c **** 
 576              		.loc 1 302 2 view .LVU138
 577              		.cfi_endproc
 578              	.LFE5:
 580              		.section	.text.xTimerCreateStatic,"ax",%progbits
 581              		.align	1
 582              		.global	xTimerCreateStatic
 583              		.syntax unified
 584              		.thumb
 585              		.thumb_func
 587              	xTimerCreateStatic:
 588              	.LVL43:
 589              	.LFB6:
 315:../../Middlewares/Third_Party/FreeRTOS/Source/timers.c **** 	Timer_t *pxNewTimer;
 590              		.loc 1 315 2 is_stmt 1 view -0
 591              		.cfi_startproc
 592              		@ args = 8, pretend = 0, frame = 8
 593              		@ frame_needed = 0, uses_anonymous_args = 0
 315:../../Middlewares/Third_Party/FreeRTOS/Source/timers.c **** 	Timer_t *pxNewTimer;
 594              		.loc 1 315 2 is_stmt 0 view .LVU140
 595 0000 10B5     		push	{r4, lr}
 596              	.LCFI13:
 597              		.cfi_def_cfa_offset 8
 598              		.cfi_offset 4, -8
 599              		.cfi_offset 14, -4
 600 0002 84B0     		sub	sp, sp, #16
 601              	.LCFI14:
 602              		.cfi_def_cfa_offset 24
 603 0004 8446     		mov	ip, r0
 316:../../Middlewares/Third_Party/FreeRTOS/Source/timers.c **** 
 604              		.loc 1 316 2 is_stmt 1 view .LVU141
 605              	.LBB51:
 323:../../Middlewares/Third_Party/FreeRTOS/Source/timers.c **** 			configASSERT( xSize == sizeof( Timer_t ) );
 606              		.loc 1 323 4 view .LVU142
ARM GAS  C:\Users\gigig\AppData\Local\Temp\ccovY76i.s 			page 34


 323:../../Middlewares/Third_Party/FreeRTOS/Source/timers.c **** 			configASSERT( xSize == sizeof( Timer_t ) );
 607              		.loc 1 323 20 is_stmt 0 view .LVU143
 608 0006 2C20     		movs	r0, #44
 609              	.LVL44:
 323:../../Middlewares/Third_Party/FreeRTOS/Source/timers.c **** 			configASSERT( xSize == sizeof( Timer_t ) );
 610              		.loc 1 323 20 view .LVU144
 611 0008 0390     		str	r0, [sp, #12]
 324:../../Middlewares/Third_Party/FreeRTOS/Source/timers.c **** 			( void ) xSize; /* Keeps lint quiet when configASSERT() is not defined. */
 612              		.loc 1 324 4 is_stmt 1 view .LVU145
 613 000a 0398     		ldr	r0, [sp, #12]
 614 000c 2C28     		cmp	r0, #44
 615 000e 08D0     		beq	.L41
 324:../../Middlewares/Third_Party/FreeRTOS/Source/timers.c **** 			( void ) xSize; /* Keeps lint quiet when configASSERT() is not defined. */
 616              		.loc 1 324 4 view .LVU146
 617              	.LBB52:
 618              	.LBI52:
 191:../../Middlewares/Third_Party/FreeRTOS/Source/portable/GCC/ARM_CM4F/portmacro.h **** {
 619              		.loc 2 191 30 view .LVU147
 620              	.LBB53:
 193:../../Middlewares/Third_Party/FreeRTOS/Source/portable/GCC/ARM_CM4F/portmacro.h **** 
 621              		.loc 2 193 1 view .LVU148
 622              		.loc 2 195 2 view .LVU149
 623              		.syntax unified
 624              	@ 195 "../../Middlewares/Third_Party/FreeRTOS/Source/portable/GCC/ARM_CM4F/portmacro.h" 1
 625 0010 4FF05003 			mov r3, #80												
 626 0014 83F31188 		msr basepri, r3											
 627 0018 BFF36F8F 		isb														
 628 001c BFF34F8F 		dsb														
 629              	
 630              	@ 0 "" 2
 631              	.LVL45:
 632              		.thumb
 633              		.syntax unified
 634              	.L42:
 635              		.loc 2 195 2 is_stmt 0 view .LVU150
 636              	.LBE53:
 637              	.LBE52:
 324:../../Middlewares/Third_Party/FreeRTOS/Source/timers.c **** 			( void ) xSize; /* Keeps lint quiet when configASSERT() is not defined. */
 638              		.loc 1 324 4 is_stmt 1 discriminator 1 view .LVU151
 324:../../Middlewares/Third_Party/FreeRTOS/Source/timers.c **** 			( void ) xSize; /* Keeps lint quiet when configASSERT() is not defined. */
 639              		.loc 1 324 4 discriminator 1 view .LVU152
 324:../../Middlewares/Third_Party/FreeRTOS/Source/timers.c **** 			( void ) xSize; /* Keeps lint quiet when configASSERT() is not defined. */
 640              		.loc 1 324 4 discriminator 1 view .LVU153
 641 0020 FEE7     		b	.L42
 642              	.LVL46:
 643              	.L41:
 324:../../Middlewares/Third_Party/FreeRTOS/Source/timers.c **** 			( void ) xSize; /* Keeps lint quiet when configASSERT() is not defined. */
 644              		.loc 1 324 46 discriminator 2 view .LVU154
 325:../../Middlewares/Third_Party/FreeRTOS/Source/timers.c **** 		}
 645              		.loc 1 325 4 discriminator 2 view .LVU155
 646 0022 0398     		ldr	r0, [sp, #12]
 647              	.LBE51:
 330:../../Middlewares/Third_Party/FreeRTOS/Source/timers.c **** 		pxNewTimer = ( Timer_t * ) pxTimerBuffer; /*lint !e740 !e9087 StaticTimer_t is a pointer to a Tim
 648              		.loc 1 330 3 discriminator 2 view .LVU156
 649 0024 0798     		ldr	r0, [sp, #28]
 650 0026 60B1     		cbz	r0, .L46
 330:../../Middlewares/Third_Party/FreeRTOS/Source/timers.c **** 		pxNewTimer = ( Timer_t * ) pxTimerBuffer; /*lint !e740 !e9087 StaticTimer_t is a pointer to a Tim
ARM GAS  C:\Users\gigig\AppData\Local\Temp\ccovY76i.s 			page 35


 651              		.loc 1 330 32 view .LVU157
 331:../../Middlewares/Third_Party/FreeRTOS/Source/timers.c **** 
 652              		.loc 1 331 3 view .LVU158
 653              	.LVL47:
 333:../../Middlewares/Third_Party/FreeRTOS/Source/timers.c **** 		{
 654              		.loc 1 333 3 view .LVU159
 338:../../Middlewares/Third_Party/FreeRTOS/Source/timers.c **** 
 655              		.loc 1 338 4 view .LVU160
 338:../../Middlewares/Third_Party/FreeRTOS/Source/timers.c **** 
 656              		.loc 1 338 25 is_stmt 0 view .LVU161
 657 0028 0220     		movs	r0, #2
 658              	.LVL48:
 338:../../Middlewares/Third_Party/FreeRTOS/Source/timers.c **** 
 659              		.loc 1 338 25 view .LVU162
 660 002a 079C     		ldr	r4, [sp, #28]
 661 002c 84F82800 		strb	r0, [r4, #40]
 340:../../Middlewares/Third_Party/FreeRTOS/Source/timers.c **** 		}
 662              		.loc 1 340 4 is_stmt 1 view .LVU163
 663 0030 0194     		str	r4, [sp, #4]
 664 0032 0698     		ldr	r0, [sp, #24]
 665 0034 0090     		str	r0, [sp]
 666 0036 6046     		mov	r0, ip
 667 0038 FFF7FEFF 		bl	prvInitialiseNewTimer
 668              	.LVL49:
 343:../../Middlewares/Third_Party/FreeRTOS/Source/timers.c **** 	}
 669              		.loc 1 343 3 view .LVU164
 344:../../Middlewares/Third_Party/FreeRTOS/Source/timers.c **** 
 670              		.loc 1 344 2 is_stmt 0 view .LVU165
 671 003c 0798     		ldr	r0, [sp, #28]
 672 003e 04B0     		add	sp, sp, #16
 673              	.LCFI15:
 674              		.cfi_remember_state
 675              		.cfi_def_cfa_offset 8
 676              		@ sp needed
 677 0040 10BD     		pop	{r4, pc}
 678              	.LVL50:
 679              	.L46:
 680              	.LCFI16:
 681              		.cfi_restore_state
 330:../../Middlewares/Third_Party/FreeRTOS/Source/timers.c **** 		pxNewTimer = ( Timer_t * ) pxTimerBuffer; /*lint !e740 !e9087 StaticTimer_t is a pointer to a Tim
 682              		.loc 1 330 3 is_stmt 1 view .LVU166
 683              	.LBB54:
 684              	.LBI54:
 191:../../Middlewares/Third_Party/FreeRTOS/Source/portable/GCC/ARM_CM4F/portmacro.h **** {
 685              		.loc 2 191 30 view .LVU167
 686              	.LBB55:
 193:../../Middlewares/Third_Party/FreeRTOS/Source/portable/GCC/ARM_CM4F/portmacro.h **** 
 687              		.loc 2 193 1 view .LVU168
 688              		.loc 2 195 2 view .LVU169
 689              		.syntax unified
 690              	@ 195 "../../Middlewares/Third_Party/FreeRTOS/Source/portable/GCC/ARM_CM4F/portmacro.h" 1
 691 0042 4FF05003 			mov r3, #80												
 692 0046 83F31188 		msr basepri, r3											
 693 004a BFF36F8F 		isb														
 694 004e BFF34F8F 		dsb														
 695              	
 696              	@ 0 "" 2
ARM GAS  C:\Users\gigig\AppData\Local\Temp\ccovY76i.s 			page 36


 697              	.LVL51:
 698              		.thumb
 699              		.syntax unified
 700              	.L44:
 701              		.loc 2 195 2 is_stmt 0 view .LVU170
 702              	.LBE55:
 703              	.LBE54:
 330:../../Middlewares/Third_Party/FreeRTOS/Source/timers.c **** 		pxNewTimer = ( Timer_t * ) pxTimerBuffer; /*lint !e740 !e9087 StaticTimer_t is a pointer to a Tim
 704              		.loc 1 330 3 is_stmt 1 discriminator 2 view .LVU171
 330:../../Middlewares/Third_Party/FreeRTOS/Source/timers.c **** 		pxNewTimer = ( Timer_t * ) pxTimerBuffer; /*lint !e740 !e9087 StaticTimer_t is a pointer to a Tim
 705              		.loc 1 330 3 discriminator 2 view .LVU172
 330:../../Middlewares/Third_Party/FreeRTOS/Source/timers.c **** 		pxNewTimer = ( Timer_t * ) pxTimerBuffer; /*lint !e740 !e9087 StaticTimer_t is a pointer to a Tim
 706              		.loc 1 330 3 discriminator 2 view .LVU173
 707 0052 FEE7     		b	.L44
 708              		.cfi_endproc
 709              	.LFE6:
 711              		.section	.text.xTimerGenericCommand,"ax",%progbits
 712              		.align	1
 713              		.global	xTimerGenericCommand
 714              		.syntax unified
 715              		.thumb
 716              		.thumb_func
 718              	xTimerGenericCommand:
 719              	.LVL52:
 720              	.LFB8:
 382:../../Middlewares/Third_Party/FreeRTOS/Source/timers.c **** BaseType_t xReturn = pdFAIL;
 721              		.loc 1 382 1 view -0
 722              		.cfi_startproc
 723              		@ args = 4, pretend = 0, frame = 16
 724              		@ frame_needed = 0, uses_anonymous_args = 0
 383:../../Middlewares/Third_Party/FreeRTOS/Source/timers.c **** DaemonTaskMessage_t xMessage;
 725              		.loc 1 383 1 view .LVU175
 384:../../Middlewares/Third_Party/FreeRTOS/Source/timers.c **** 
 726              		.loc 1 384 1 view .LVU176
 386:../../Middlewares/Third_Party/FreeRTOS/Source/timers.c **** 
 727              		.loc 1 386 2 view .LVU177
 728 0000 B8B1     		cbz	r0, .L58
 729 0002 9C46     		mov	ip, r3
 730 0004 0346     		mov	r3, r0
 731              	.LVL53:
 386:../../Middlewares/Third_Party/FreeRTOS/Source/timers.c **** 
 732              		.loc 1 386 24 discriminator 2 view .LVU178
 390:../../Middlewares/Third_Party/FreeRTOS/Source/timers.c **** 	{
 733              		.loc 1 390 2 discriminator 2 view .LVU179
 390:../../Middlewares/Third_Party/FreeRTOS/Source/timers.c **** 	{
 734              		.loc 1 390 18 is_stmt 0 discriminator 2 view .LVU180
 735 0006 1848     		ldr	r0, .L60
 736              	.LVL54:
 390:../../Middlewares/Third_Party/FreeRTOS/Source/timers.c **** 	{
 737              		.loc 1 390 18 discriminator 2 view .LVU181
 738 0008 0068     		ldr	r0, [r0]
 390:../../Middlewares/Third_Party/FreeRTOS/Source/timers.c **** 	{
 739              		.loc 1 390 4 discriminator 2 view .LVU182
 740 000a 58B3     		cbz	r0, .L53
 382:../../Middlewares/Third_Party/FreeRTOS/Source/timers.c **** BaseType_t xReturn = pdFAIL;
 741              		.loc 1 382 1 view .LVU183
 742 000c 00B5     		push	{lr}
ARM GAS  C:\Users\gigig\AppData\Local\Temp\ccovY76i.s 			page 37


 743              	.LCFI17:
 744              		.cfi_def_cfa_offset 4
 745              		.cfi_offset 14, -4
 746 000e 85B0     		sub	sp, sp, #20
 747              	.LCFI18:
 748              		.cfi_def_cfa_offset 24
 393:../../Middlewares/Third_Party/FreeRTOS/Source/timers.c **** 		xMessage.u.xTimerParameters.xMessageValue = xOptionalValue;
 749              		.loc 1 393 3 is_stmt 1 view .LVU184
 393:../../Middlewares/Third_Party/FreeRTOS/Source/timers.c **** 		xMessage.u.xTimerParameters.xMessageValue = xOptionalValue;
 750              		.loc 1 393 23 is_stmt 0 view .LVU185
 751 0010 0091     		str	r1, [sp]
 394:../../Middlewares/Third_Party/FreeRTOS/Source/timers.c **** 		xMessage.u.xTimerParameters.pxTimer = xTimer;
 752              		.loc 1 394 3 is_stmt 1 view .LVU186
 394:../../Middlewares/Third_Party/FreeRTOS/Source/timers.c **** 		xMessage.u.xTimerParameters.pxTimer = xTimer;
 753              		.loc 1 394 45 is_stmt 0 view .LVU187
 754 0012 0192     		str	r2, [sp, #4]
 395:../../Middlewares/Third_Party/FreeRTOS/Source/timers.c **** 
 755              		.loc 1 395 3 is_stmt 1 view .LVU188
 395:../../Middlewares/Third_Party/FreeRTOS/Source/timers.c **** 
 756              		.loc 1 395 39 is_stmt 0 view .LVU189
 757 0014 0293     		str	r3, [sp, #8]
 397:../../Middlewares/Third_Party/FreeRTOS/Source/timers.c **** 		{
 758              		.loc 1 397 3 is_stmt 1 view .LVU190
 397:../../Middlewares/Third_Party/FreeRTOS/Source/timers.c **** 		{
 759              		.loc 1 397 5 is_stmt 0 view .LVU191
 760 0016 0529     		cmp	r1, #5
 761 0018 1CDC     		bgt	.L51
 399:../../Middlewares/Third_Party/FreeRTOS/Source/timers.c **** 			{
 762              		.loc 1 399 4 is_stmt 1 view .LVU192
 399:../../Middlewares/Third_Party/FreeRTOS/Source/timers.c **** 			{
 763              		.loc 1 399 8 is_stmt 0 view .LVU193
 764 001a FFF7FEFF 		bl	xTaskGetSchedulerState
 765              	.LVL55:
 399:../../Middlewares/Third_Party/FreeRTOS/Source/timers.c **** 			{
 766              		.loc 1 399 6 view .LVU194
 767 001e 0228     		cmp	r0, #2
 768 0020 10D0     		beq	.L59
 405:../../Middlewares/Third_Party/FreeRTOS/Source/timers.c **** 			}
 769              		.loc 1 405 5 is_stmt 1 view .LVU195
 405:../../Middlewares/Third_Party/FreeRTOS/Source/timers.c **** 			}
 770              		.loc 1 405 15 is_stmt 0 view .LVU196
 771 0022 0023     		movs	r3, #0
 772 0024 1A46     		mov	r2, r3
 773 0026 6946     		mov	r1, sp
 774 0028 0F48     		ldr	r0, .L60
 775 002a 0068     		ldr	r0, [r0]
 776 002c FFF7FEFF 		bl	xQueueGenericSend
 777              	.LVL56:
 405:../../Middlewares/Third_Party/FreeRTOS/Source/timers.c **** 			}
 778              		.loc 1 405 15 view .LVU197
 779 0030 15E0     		b	.L47
 780              	.LVL57:
 781              	.L58:
 782              	.LCFI19:
 783              		.cfi_def_cfa_offset 0
 784              		.cfi_restore 14
 386:../../Middlewares/Third_Party/FreeRTOS/Source/timers.c **** 
ARM GAS  C:\Users\gigig\AppData\Local\Temp\ccovY76i.s 			page 38


 785              		.loc 1 386 2 is_stmt 1 view .LVU198
 786              	.LBB56:
 787              	.LBI56:
 191:../../Middlewares/Third_Party/FreeRTOS/Source/portable/GCC/ARM_CM4F/portmacro.h **** {
 788              		.loc 2 191 30 view .LVU199
 789              	.LBB57:
 193:../../Middlewares/Third_Party/FreeRTOS/Source/portable/GCC/ARM_CM4F/portmacro.h **** 
 790              		.loc 2 193 1 view .LVU200
 791              		.loc 2 195 2 view .LVU201
 792              		.syntax unified
 793              	@ 195 "../../Middlewares/Third_Party/FreeRTOS/Source/portable/GCC/ARM_CM4F/portmacro.h" 1
 794 0032 4FF05003 			mov r3, #80												
 795 0036 83F31188 		msr basepri, r3											
 796 003a BFF36F8F 		isb														
 797 003e BFF34F8F 		dsb														
 798              	
 799              	@ 0 "" 2
 800              	.LVL58:
 801              		.thumb
 802              		.syntax unified
 803              	.L49:
 804              		.loc 2 195 2 is_stmt 0 view .LVU202
 805              	.LBE57:
 806              	.LBE56:
 386:../../Middlewares/Third_Party/FreeRTOS/Source/timers.c **** 
 807              		.loc 1 386 2 is_stmt 1 discriminator 1 view .LVU203
 386:../../Middlewares/Third_Party/FreeRTOS/Source/timers.c **** 
 808              		.loc 1 386 2 discriminator 1 view .LVU204
 386:../../Middlewares/Third_Party/FreeRTOS/Source/timers.c **** 
 809              		.loc 1 386 2 discriminator 1 view .LVU205
 810 0042 FEE7     		b	.L49
 811              	.LVL59:
 812              	.L59:
 813              	.LCFI20:
 814              		.cfi_def_cfa_offset 24
 815              		.cfi_offset 14, -4
 401:../../Middlewares/Third_Party/FreeRTOS/Source/timers.c **** 			}
 816              		.loc 1 401 5 view .LVU206
 401:../../Middlewares/Third_Party/FreeRTOS/Source/timers.c **** 			}
 817              		.loc 1 401 15 is_stmt 0 view .LVU207
 818 0044 0023     		movs	r3, #0
 819 0046 069A     		ldr	r2, [sp, #24]
 820 0048 6946     		mov	r1, sp
 821 004a 0748     		ldr	r0, .L60
 822 004c 0068     		ldr	r0, [r0]
 823 004e FFF7FEFF 		bl	xQueueGenericSend
 824              	.LVL60:
 401:../../Middlewares/Third_Party/FreeRTOS/Source/timers.c **** 			}
 825              		.loc 1 401 15 view .LVU208
 826 0052 04E0     		b	.L47
 827              	.LVL61:
 828              	.L51:
 410:../../Middlewares/Third_Party/FreeRTOS/Source/timers.c **** 		}
 829              		.loc 1 410 4 is_stmt 1 view .LVU209
 410:../../Middlewares/Third_Party/FreeRTOS/Source/timers.c **** 		}
 830              		.loc 1 410 14 is_stmt 0 view .LVU210
 831 0054 0023     		movs	r3, #0
ARM GAS  C:\Users\gigig\AppData\Local\Temp\ccovY76i.s 			page 39


 832              	.LVL62:
 410:../../Middlewares/Third_Party/FreeRTOS/Source/timers.c **** 		}
 833              		.loc 1 410 14 view .LVU211
 834 0056 6246     		mov	r2, ip
 835              	.LVL63:
 410:../../Middlewares/Third_Party/FreeRTOS/Source/timers.c **** 		}
 836              		.loc 1 410 14 view .LVU212
 837 0058 6946     		mov	r1, sp
 838              	.LVL64:
 410:../../Middlewares/Third_Party/FreeRTOS/Source/timers.c **** 		}
 839              		.loc 1 410 14 view .LVU213
 840 005a FFF7FEFF 		bl	xQueueGenericSendFromISR
 841              	.LVL65:
 842              	.L47:
 421:../../Middlewares/Third_Party/FreeRTOS/Source/timers.c **** /*-----------------------------------------------------------*/
 843              		.loc 1 421 1 view .LVU214
 844 005e 05B0     		add	sp, sp, #20
 845              	.LCFI21:
 846              		.cfi_def_cfa_offset 4
 847              		@ sp needed
 848 0060 5DF804FB 		ldr	pc, [sp], #4
 849              	.LVL66:
 850              	.L53:
 851              	.LCFI22:
 852              		.cfi_def_cfa_offset 0
 853              		.cfi_restore 14
 383:../../Middlewares/Third_Party/FreeRTOS/Source/timers.c **** DaemonTaskMessage_t xMessage;
 854              		.loc 1 383 12 view .LVU215
 855 0064 0020     		movs	r0, #0
 417:../../Middlewares/Third_Party/FreeRTOS/Source/timers.c **** 	}
 856              		.loc 1 417 27 is_stmt 1 view .LVU216
 420:../../Middlewares/Third_Party/FreeRTOS/Source/timers.c **** }
 857              		.loc 1 420 2 view .LVU217
 421:../../Middlewares/Third_Party/FreeRTOS/Source/timers.c **** /*-----------------------------------------------------------*/
 858              		.loc 1 421 1 is_stmt 0 view .LVU218
 859 0066 7047     		bx	lr
 860              	.L61:
 861              		.align	2
 862              	.L60:
 863 0068 00000000 		.word	.LANCHOR2
 864              		.cfi_endproc
 865              	.LFE8:
 867              		.section	.text.prvSwitchTimerLists,"ax",%progbits
 868              		.align	1
 869              		.syntax unified
 870              		.thumb
 871              		.thumb_func
 873              	prvSwitchTimerLists:
 874              	.LFB22:
 883:../../Middlewares/Third_Party/FreeRTOS/Source/timers.c **** TickType_t xNextExpireTime, xReloadTime;
 875              		.loc 1 883 1 is_stmt 1 view -0
 876              		.cfi_startproc
 877              		@ args = 0, pretend = 0, frame = 0
 878              		@ frame_needed = 0, uses_anonymous_args = 0
 879 0000 70B5     		push	{r4, r5, r6, lr}
 880              	.LCFI23:
 881              		.cfi_def_cfa_offset 16
ARM GAS  C:\Users\gigig\AppData\Local\Temp\ccovY76i.s 			page 40


 882              		.cfi_offset 4, -16
 883              		.cfi_offset 5, -12
 884              		.cfi_offset 6, -8
 885              		.cfi_offset 14, -4
 886 0002 82B0     		sub	sp, sp, #8
 887              	.LCFI24:
 888              		.cfi_def_cfa_offset 24
 884:../../Middlewares/Third_Party/FreeRTOS/Source/timers.c **** List_t *pxTemp;
 889              		.loc 1 884 1 view .LVU220
 885:../../Middlewares/Third_Party/FreeRTOS/Source/timers.c **** Timer_t *pxTimer;
 890              		.loc 1 885 1 view .LVU221
 886:../../Middlewares/Third_Party/FreeRTOS/Source/timers.c **** BaseType_t xResult;
 891              		.loc 1 886 1 view .LVU222
 887:../../Middlewares/Third_Party/FreeRTOS/Source/timers.c **** 
 892              		.loc 1 887 1 view .LVU223
 893:../../Middlewares/Third_Party/FreeRTOS/Source/timers.c **** 	{
 893              		.loc 1 893 2 view .LVU224
 894              	.L64:
 931:../../Middlewares/Third_Party/FreeRTOS/Source/timers.c **** 		}
 895              		.loc 1 931 28 view .LVU225
 893:../../Middlewares/Third_Party/FreeRTOS/Source/timers.c **** 	{
 896              		.loc 1 893 7 view .LVU226
 893:../../Middlewares/Third_Party/FreeRTOS/Source/timers.c **** 	{
 897              		.loc 1 893 9 is_stmt 0 view .LVU227
 898 0004 1B4B     		ldr	r3, .L71
 899 0006 1B68     		ldr	r3, [r3]
 900 0008 1A68     		ldr	r2, [r3]
 893:../../Middlewares/Third_Party/FreeRTOS/Source/timers.c **** 	{
 901              		.loc 1 893 7 view .LVU228
 902 000a 62B3     		cbz	r2, .L70
 895:../../Middlewares/Third_Party/FreeRTOS/Source/timers.c **** 
 903              		.loc 1 895 3 is_stmt 1 view .LVU229
 895:../../Middlewares/Third_Party/FreeRTOS/Source/timers.c **** 
 904              		.loc 1 895 21 is_stmt 0 view .LVU230
 905 000c DB68     		ldr	r3, [r3, #12]
 895:../../Middlewares/Third_Party/FreeRTOS/Source/timers.c **** 
 906              		.loc 1 895 19 view .LVU231
 907 000e 1E68     		ldr	r6, [r3]
 908              	.LVL67:
 898:../../Middlewares/Third_Party/FreeRTOS/Source/timers.c **** 		( void ) uxListRemove( &( pxTimer->xTimerListItem ) );
 909              		.loc 1 898 3 is_stmt 1 view .LVU232
 898:../../Middlewares/Third_Party/FreeRTOS/Source/timers.c **** 		( void ) uxListRemove( &( pxTimer->xTimerListItem ) );
 910              		.loc 1 898 11 is_stmt 0 view .LVU233
 911 0010 DC68     		ldr	r4, [r3, #12]
 912              	.LVL68:
 899:../../Middlewares/Third_Party/FreeRTOS/Source/timers.c **** 		traceTIMER_EXPIRED( pxTimer );
 913              		.loc 1 899 3 is_stmt 1 view .LVU234
 899:../../Middlewares/Third_Party/FreeRTOS/Source/timers.c **** 		traceTIMER_EXPIRED( pxTimer );
 914              		.loc 1 899 12 is_stmt 0 view .LVU235
 915 0012 251D     		adds	r5, r4, #4
 916 0014 2846     		mov	r0, r5
 917 0016 FFF7FEFF 		bl	uxListRemove
 918              	.LVL69:
 900:../../Middlewares/Third_Party/FreeRTOS/Source/timers.c **** 
 919              		.loc 1 900 32 is_stmt 1 view .LVU236
 905:../../Middlewares/Third_Party/FreeRTOS/Source/timers.c **** 
 920              		.loc 1 905 3 view .LVU237
ARM GAS  C:\Users\gigig\AppData\Local\Temp\ccovY76i.s 			page 41


 905:../../Middlewares/Third_Party/FreeRTOS/Source/timers.c **** 
 921              		.loc 1 905 10 is_stmt 0 view .LVU238
 922 001a 236A     		ldr	r3, [r4, #32]
 905:../../Middlewares/Third_Party/FreeRTOS/Source/timers.c **** 
 923              		.loc 1 905 3 view .LVU239
 924 001c 2046     		mov	r0, r4
 925 001e 9847     		blx	r3
 926              	.LVL70:
 907:../../Middlewares/Third_Party/FreeRTOS/Source/timers.c **** 		{
 927              		.loc 1 907 3 is_stmt 1 view .LVU240
 907:../../Middlewares/Third_Party/FreeRTOS/Source/timers.c **** 		{
 928              		.loc 1 907 16 is_stmt 0 view .LVU241
 929 0020 94F82830 		ldrb	r3, [r4, #40]	@ zero_extendqisi2
 907:../../Middlewares/Third_Party/FreeRTOS/Source/timers.c **** 		{
 930              		.loc 1 907 5 view .LVU242
 931 0024 13F0040F 		tst	r3, #4
 932 0028 ECD0     		beq	.L64
 915:../../Middlewares/Third_Party/FreeRTOS/Source/timers.c **** 			if( xReloadTime > xNextExpireTime )
 933              		.loc 1 915 4 is_stmt 1 view .LVU243
 915:../../Middlewares/Third_Party/FreeRTOS/Source/timers.c **** 			if( xReloadTime > xNextExpireTime )
 934              		.loc 1 915 45 is_stmt 0 view .LVU244
 935 002a A369     		ldr	r3, [r4, #24]
 915:../../Middlewares/Third_Party/FreeRTOS/Source/timers.c **** 			if( xReloadTime > xNextExpireTime )
 936              		.loc 1 915 16 view .LVU245
 937 002c 3344     		add	r3, r3, r6
 938              	.LVL71:
 916:../../Middlewares/Third_Party/FreeRTOS/Source/timers.c **** 			{
 939              		.loc 1 916 4 is_stmt 1 view .LVU246
 916:../../Middlewares/Third_Party/FreeRTOS/Source/timers.c **** 			{
 940              		.loc 1 916 6 is_stmt 0 view .LVU247
 941 002e 9E42     		cmp	r6, r3
 942 0030 07D2     		bcs	.L65
 918:../../Middlewares/Third_Party/FreeRTOS/Source/timers.c **** 				listSET_LIST_ITEM_OWNER( &( pxTimer->xTimerListItem ), pxTimer );
 943              		.loc 1 918 5 is_stmt 1 view .LVU248
 944 0032 6360     		str	r3, [r4, #4]
 919:../../Middlewares/Third_Party/FreeRTOS/Source/timers.c **** 				vListInsert( pxCurrentTimerList, &( pxTimer->xTimerListItem ) );
 945              		.loc 1 919 5 view .LVU249
 946 0034 2461     		str	r4, [r4, #16]
 920:../../Middlewares/Third_Party/FreeRTOS/Source/timers.c **** 			}
 947              		.loc 1 920 5 view .LVU250
 948 0036 2946     		mov	r1, r5
 949 0038 0E4B     		ldr	r3, .L71
 950              	.LVL72:
 920:../../Middlewares/Third_Party/FreeRTOS/Source/timers.c **** 			}
 951              		.loc 1 920 5 is_stmt 0 view .LVU251
 952 003a 1868     		ldr	r0, [r3]
 953 003c FFF7FEFF 		bl	vListInsert
 954              	.LVL73:
 920:../../Middlewares/Third_Party/FreeRTOS/Source/timers.c **** 			}
 955              		.loc 1 920 5 view .LVU252
 956 0040 E0E7     		b	.L64
 957              	.LVL74:
 958              	.L65:
 924:../../Middlewares/Third_Party/FreeRTOS/Source/timers.c **** 				configASSERT( xResult );
 959              		.loc 1 924 5 is_stmt 1 view .LVU253
 924:../../Middlewares/Third_Party/FreeRTOS/Source/timers.c **** 				configASSERT( xResult );
 960              		.loc 1 924 15 is_stmt 0 view .LVU254
ARM GAS  C:\Users\gigig\AppData\Local\Temp\ccovY76i.s 			page 42


 961 0042 0021     		movs	r1, #0
 962 0044 0091     		str	r1, [sp]
 963 0046 0B46     		mov	r3, r1
 964              	.LVL75:
 924:../../Middlewares/Third_Party/FreeRTOS/Source/timers.c **** 				configASSERT( xResult );
 965              		.loc 1 924 15 view .LVU255
 966 0048 3246     		mov	r2, r6
 967 004a 2046     		mov	r0, r4
 968 004c FFF7FEFF 		bl	xTimerGenericCommand
 969              	.LVL76:
 925:../../Middlewares/Third_Party/FreeRTOS/Source/timers.c **** 				( void ) xResult;
 970              		.loc 1 925 5 is_stmt 1 view .LVU256
 971 0050 0028     		cmp	r0, #0
 972 0052 D7D1     		bne	.L64
 925:../../Middlewares/Third_Party/FreeRTOS/Source/timers.c **** 				( void ) xResult;
 973              		.loc 1 925 5 view .LVU257
 974              	.LBB58:
 975              	.LBI58:
 191:../../Middlewares/Third_Party/FreeRTOS/Source/portable/GCC/ARM_CM4F/portmacro.h **** {
 976              		.loc 2 191 30 view .LVU258
 977              	.LBB59:
 193:../../Middlewares/Third_Party/FreeRTOS/Source/portable/GCC/ARM_CM4F/portmacro.h **** 
 978              		.loc 2 193 1 view .LVU259
 979              		.loc 2 195 2 view .LVU260
 980              		.syntax unified
 981              	@ 195 "../../Middlewares/Third_Party/FreeRTOS/Source/portable/GCC/ARM_CM4F/portmacro.h" 1
 982 0054 4FF05003 			mov r3, #80												
 983 0058 83F31188 		msr basepri, r3											
 984 005c BFF36F8F 		isb														
 985 0060 BFF34F8F 		dsb														
 986              	
 987              	@ 0 "" 2
 988              	.LVL77:
 989              		.thumb
 990              		.syntax unified
 991              	.L67:
 992              		.loc 2 195 2 is_stmt 0 view .LVU261
 993              	.LBE59:
 994              	.LBE58:
 925:../../Middlewares/Third_Party/FreeRTOS/Source/timers.c **** 				( void ) xResult;
 995              		.loc 1 925 5 is_stmt 1 discriminator 1 view .LVU262
 925:../../Middlewares/Third_Party/FreeRTOS/Source/timers.c **** 				( void ) xResult;
 996              		.loc 1 925 5 discriminator 1 view .LVU263
 925:../../Middlewares/Third_Party/FreeRTOS/Source/timers.c **** 				( void ) xResult;
 997              		.loc 1 925 5 discriminator 1 view .LVU264
 998 0064 FEE7     		b	.L67
 999              	.LVL78:
 1000              	.L70:
 935:../../Middlewares/Third_Party/FreeRTOS/Source/timers.c **** 	pxCurrentTimerList = pxOverflowTimerList;
 1001              		.loc 1 935 2 view .LVU265
 936:../../Middlewares/Third_Party/FreeRTOS/Source/timers.c **** 	pxOverflowTimerList = pxTemp;
 1002              		.loc 1 936 2 view .LVU266
 936:../../Middlewares/Third_Party/FreeRTOS/Source/timers.c **** 	pxOverflowTimerList = pxTemp;
 1003              		.loc 1 936 21 is_stmt 0 view .LVU267
 1004 0066 044A     		ldr	r2, .L71+4
 1005 0068 1068     		ldr	r0, [r2]
 1006 006a 0249     		ldr	r1, .L71
ARM GAS  C:\Users\gigig\AppData\Local\Temp\ccovY76i.s 			page 43


 1007 006c 0860     		str	r0, [r1]
 937:../../Middlewares/Third_Party/FreeRTOS/Source/timers.c **** }
 1008              		.loc 1 937 2 is_stmt 1 view .LVU268
 937:../../Middlewares/Third_Party/FreeRTOS/Source/timers.c **** }
 1009              		.loc 1 937 22 is_stmt 0 view .LVU269
 1010 006e 1360     		str	r3, [r2]
 938:../../Middlewares/Third_Party/FreeRTOS/Source/timers.c **** /*-----------------------------------------------------------*/
 1011              		.loc 1 938 1 view .LVU270
 1012 0070 02B0     		add	sp, sp, #8
 1013              	.LCFI25:
 1014              		.cfi_def_cfa_offset 16
 1015              		@ sp needed
 1016 0072 70BD     		pop	{r4, r5, r6, pc}
 1017              	.L72:
 1018              		.align	2
 1019              	.L71:
 1020 0074 00000000 		.word	.LANCHOR0
 1021 0078 00000000 		.word	.LANCHOR1
 1022              		.cfi_endproc
 1023              	.LFE22:
 1025              		.section	.text.prvSampleTimeNow,"ax",%progbits
 1026              		.align	1
 1027              		.syntax unified
 1028              		.thumb
 1029              		.thumb_func
 1031              	prvSampleTimeNow:
 1032              	.LVL79:
 1033              	.LFB19:
 671:../../Middlewares/Third_Party/FreeRTOS/Source/timers.c **** TickType_t xTimeNow;
 1034              		.loc 1 671 1 is_stmt 1 view -0
 1035              		.cfi_startproc
 1036              		@ args = 0, pretend = 0, frame = 0
 1037              		@ frame_needed = 0, uses_anonymous_args = 0
 671:../../Middlewares/Third_Party/FreeRTOS/Source/timers.c **** TickType_t xTimeNow;
 1038              		.loc 1 671 1 is_stmt 0 view .LVU272
 1039 0000 38B5     		push	{r3, r4, r5, lr}
 1040              	.LCFI26:
 1041              		.cfi_def_cfa_offset 16
 1042              		.cfi_offset 3, -16
 1043              		.cfi_offset 4, -12
 1044              		.cfi_offset 5, -8
 1045              		.cfi_offset 14, -4
 1046 0002 0546     		mov	r5, r0
 672:../../Middlewares/Third_Party/FreeRTOS/Source/timers.c **** PRIVILEGED_DATA static TickType_t xLastTime = ( TickType_t ) 0U; /*lint !e956 Variable is only acce
 1047              		.loc 1 672 1 is_stmt 1 view .LVU273
 673:../../Middlewares/Third_Party/FreeRTOS/Source/timers.c **** 
 1048              		.loc 1 673 17 view .LVU274
 675:../../Middlewares/Third_Party/FreeRTOS/Source/timers.c **** 
 1049              		.loc 1 675 2 view .LVU275
 675:../../Middlewares/Third_Party/FreeRTOS/Source/timers.c **** 
 1050              		.loc 1 675 13 is_stmt 0 view .LVU276
 1051 0004 FFF7FEFF 		bl	xTaskGetTickCount
 1052              	.LVL80:
 675:../../Middlewares/Third_Party/FreeRTOS/Source/timers.c **** 
 1053              		.loc 1 675 13 view .LVU277
 1054 0008 0446     		mov	r4, r0
 1055              	.LVL81:
ARM GAS  C:\Users\gigig\AppData\Local\Temp\ccovY76i.s 			page 44


 677:../../Middlewares/Third_Party/FreeRTOS/Source/timers.c **** 	{
 1056              		.loc 1 677 2 is_stmt 1 view .LVU278
 677:../../Middlewares/Third_Party/FreeRTOS/Source/timers.c **** 	{
 1057              		.loc 1 677 15 is_stmt 0 view .LVU279
 1058 000a 074B     		ldr	r3, .L78
 1059 000c 1B68     		ldr	r3, [r3]
 677:../../Middlewares/Third_Party/FreeRTOS/Source/timers.c **** 	{
 1060              		.loc 1 677 4 view .LVU280
 1061 000e 8342     		cmp	r3, r0
 1062 0010 05D8     		bhi	.L77
 684:../../Middlewares/Third_Party/FreeRTOS/Source/timers.c **** 	}
 1063              		.loc 1 684 3 is_stmt 1 view .LVU281
 684:../../Middlewares/Third_Party/FreeRTOS/Source/timers.c **** 	}
 1064              		.loc 1 684 29 is_stmt 0 view .LVU282
 1065 0012 0023     		movs	r3, #0
 1066 0014 2B60     		str	r3, [r5]
 1067              	.LVL82:
 1068              	.L75:
 687:../../Middlewares/Third_Party/FreeRTOS/Source/timers.c **** 
 1069              		.loc 1 687 2 is_stmt 1 view .LVU283
 687:../../Middlewares/Third_Party/FreeRTOS/Source/timers.c **** 
 1070              		.loc 1 687 12 is_stmt 0 view .LVU284
 1071 0016 044B     		ldr	r3, .L78
 1072 0018 1C60     		str	r4, [r3]
 689:../../Middlewares/Third_Party/FreeRTOS/Source/timers.c **** }
 1073              		.loc 1 689 2 is_stmt 1 view .LVU285
 690:../../Middlewares/Third_Party/FreeRTOS/Source/timers.c **** /*-----------------------------------------------------------*/
 1074              		.loc 1 690 1 is_stmt 0 view .LVU286
 1075 001a 2046     		mov	r0, r4
 1076 001c 38BD     		pop	{r3, r4, r5, pc}
 1077              	.LVL83:
 1078              	.L77:
 679:../../Middlewares/Third_Party/FreeRTOS/Source/timers.c **** 		*pxTimerListsWereSwitched = pdTRUE;
 1079              		.loc 1 679 3 is_stmt 1 view .LVU287
 1080 001e FFF7FEFF 		bl	prvSwitchTimerLists
 1081              	.LVL84:
 680:../../Middlewares/Third_Party/FreeRTOS/Source/timers.c **** 	}
 1082              		.loc 1 680 3 view .LVU288
 680:../../Middlewares/Third_Party/FreeRTOS/Source/timers.c **** 	}
 1083              		.loc 1 680 29 is_stmt 0 view .LVU289
 1084 0022 0123     		movs	r3, #1
 1085 0024 2B60     		str	r3, [r5]
 1086 0026 F6E7     		b	.L75
 1087              	.L79:
 1088              		.align	2
 1089              	.L78:
 1090 0028 00000000 		.word	.LANCHOR8
 1091              		.cfi_endproc
 1092              	.LFE19:
 1094              		.section	.text.prvProcessExpiredTimer,"ax",%progbits
 1095              		.align	1
 1096              		.syntax unified
 1097              		.thumb
 1098              		.thumb_func
 1100              	prvProcessExpiredTimer:
 1101              	.LVL85:
 1102              	.LFB15:
ARM GAS  C:\Users\gigig\AppData\Local\Temp\ccovY76i.s 			page 45


 508:../../Middlewares/Third_Party/FreeRTOS/Source/timers.c **** BaseType_t xResult;
 1103              		.loc 1 508 1 is_stmt 1 view -0
 1104              		.cfi_startproc
 1105              		@ args = 0, pretend = 0, frame = 0
 1106              		@ frame_needed = 0, uses_anonymous_args = 0
 508:../../Middlewares/Third_Party/FreeRTOS/Source/timers.c **** BaseType_t xResult;
 1107              		.loc 1 508 1 is_stmt 0 view .LVU291
 1108 0000 70B5     		push	{r4, r5, r6, lr}
 1109              	.LCFI27:
 1110              		.cfi_def_cfa_offset 16
 1111              		.cfi_offset 4, -16
 1112              		.cfi_offset 5, -12
 1113              		.cfi_offset 6, -8
 1114              		.cfi_offset 14, -4
 1115 0002 82B0     		sub	sp, sp, #8
 1116              	.LCFI28:
 1117              		.cfi_def_cfa_offset 24
 1118 0004 0646     		mov	r6, r0
 1119 0006 0D46     		mov	r5, r1
 509:../../Middlewares/Third_Party/FreeRTOS/Source/timers.c **** Timer_t * const pxTimer = ( Timer_t * ) listGET_OWNER_OF_HEAD_ENTRY( pxCurrentTimerList ); /*lint !
 1120              		.loc 1 509 1 is_stmt 1 view .LVU292
 510:../../Middlewares/Third_Party/FreeRTOS/Source/timers.c **** 
 1121              		.loc 1 510 1 view .LVU293
 510:../../Middlewares/Third_Party/FreeRTOS/Source/timers.c **** 
 1122              		.loc 1 510 41 is_stmt 0 view .LVU294
 1123 0008 1749     		ldr	r1, .L86
 1124              	.LVL86:
 510:../../Middlewares/Third_Party/FreeRTOS/Source/timers.c **** 
 1125              		.loc 1 510 41 view .LVU295
 1126 000a 0968     		ldr	r1, [r1]
 1127 000c C968     		ldr	r1, [r1, #12]
 510:../../Middlewares/Third_Party/FreeRTOS/Source/timers.c **** 
 1128              		.loc 1 510 17 view .LVU296
 1129 000e CC68     		ldr	r4, [r1, #12]
 1130              	.LVL87:
 514:../../Middlewares/Third_Party/FreeRTOS/Source/timers.c **** 	traceTIMER_EXPIRED( pxTimer );
 1131              		.loc 1 514 2 is_stmt 1 view .LVU297
 514:../../Middlewares/Third_Party/FreeRTOS/Source/timers.c **** 	traceTIMER_EXPIRED( pxTimer );
 1132              		.loc 1 514 11 is_stmt 0 view .LVU298
 1133 0010 201D     		adds	r0, r4, #4
 1134              	.LVL88:
 514:../../Middlewares/Third_Party/FreeRTOS/Source/timers.c **** 	traceTIMER_EXPIRED( pxTimer );
 1135              		.loc 1 514 11 view .LVU299
 1136 0012 FFF7FEFF 		bl	uxListRemove
 1137              	.LVL89:
 515:../../Middlewares/Third_Party/FreeRTOS/Source/timers.c **** 
 1138              		.loc 1 515 31 is_stmt 1 view .LVU300
 519:../../Middlewares/Third_Party/FreeRTOS/Source/timers.c **** 	{
 1139              		.loc 1 519 2 view .LVU301
 519:../../Middlewares/Third_Party/FreeRTOS/Source/timers.c **** 	{
 1140              		.loc 1 519 15 is_stmt 0 view .LVU302
 1141 0016 94F828C0 		ldrb	ip, [r4, #40]	@ zero_extendqisi2
 519:../../Middlewares/Third_Party/FreeRTOS/Source/timers.c **** 	{
 1142              		.loc 1 519 4 view .LVU303
 1143 001a 1CF0040F 		tst	ip, #4
 1144 001e 08D1     		bne	.L85
 539:../../Middlewares/Third_Party/FreeRTOS/Source/timers.c **** 		mtCOVERAGE_TEST_MARKER();
ARM GAS  C:\Users\gigig\AppData\Local\Temp\ccovY76i.s 			page 46


 1145              		.loc 1 539 3 is_stmt 1 view .LVU304
 539:../../Middlewares/Third_Party/FreeRTOS/Source/timers.c **** 		mtCOVERAGE_TEST_MARKER();
 1146              		.loc 1 539 21 is_stmt 0 view .LVU305
 1147 0020 2CF0010C 		bic	ip, ip, #1
 1148 0024 84F828C0 		strb	ip, [r4, #40]
 1149              	.L82:
 540:../../Middlewares/Third_Party/FreeRTOS/Source/timers.c **** 	}
 1150              		.loc 1 540 27 is_stmt 1 view .LVU306
 544:../../Middlewares/Third_Party/FreeRTOS/Source/timers.c **** }
 1151              		.loc 1 544 2 view .LVU307
 544:../../Middlewares/Third_Party/FreeRTOS/Source/timers.c **** }
 1152              		.loc 1 544 9 is_stmt 0 view .LVU308
 1153 0028 236A     		ldr	r3, [r4, #32]
 544:../../Middlewares/Third_Party/FreeRTOS/Source/timers.c **** }
 1154              		.loc 1 544 2 view .LVU309
 1155 002a 2046     		mov	r0, r4
 1156 002c 9847     		blx	r3
 1157              	.LVL90:
 545:../../Middlewares/Third_Party/FreeRTOS/Source/timers.c **** /*-----------------------------------------------------------*/
 1158              		.loc 1 545 1 view .LVU310
 1159 002e 02B0     		add	sp, sp, #8
 1160              	.LCFI29:
 1161              		.cfi_remember_state
 1162              		.cfi_def_cfa_offset 16
 1163              		@ sp needed
 1164 0030 70BD     		pop	{r4, r5, r6, pc}
 1165              	.LVL91:
 1166              	.L85:
 1167              	.LCFI30:
 1168              		.cfi_restore_state
 524:../../Middlewares/Third_Party/FreeRTOS/Source/timers.c **** 		{
 1169              		.loc 1 524 3 is_stmt 1 view .LVU311
 524:../../Middlewares/Third_Party/FreeRTOS/Source/timers.c **** 		{
 1170              		.loc 1 524 71 is_stmt 0 view .LVU312
 1171 0032 A169     		ldr	r1, [r4, #24]
 524:../../Middlewares/Third_Party/FreeRTOS/Source/timers.c **** 		{
 1172              		.loc 1 524 7 view .LVU313
 1173 0034 3346     		mov	r3, r6
 1174 0036 2A46     		mov	r2, r5
 1175 0038 3144     		add	r1, r1, r6
 1176 003a 2046     		mov	r0, r4
 1177 003c FFF7FEFF 		bl	prvInsertTimerInActiveList
 1178              	.LVL92:
 524:../../Middlewares/Third_Party/FreeRTOS/Source/timers.c **** 		{
 1179              		.loc 1 524 5 view .LVU314
 1180 0040 0028     		cmp	r0, #0
 1181 0042 F1D0     		beq	.L82
 528:../../Middlewares/Third_Party/FreeRTOS/Source/timers.c **** 			configASSERT( xResult );
 1182              		.loc 1 528 4 is_stmt 1 view .LVU315
 528:../../Middlewares/Third_Party/FreeRTOS/Source/timers.c **** 			configASSERT( xResult );
 1183              		.loc 1 528 14 is_stmt 0 view .LVU316
 1184 0044 0021     		movs	r1, #0
 1185 0046 0091     		str	r1, [sp]
 1186 0048 0B46     		mov	r3, r1
 1187 004a 3246     		mov	r2, r6
 1188 004c 2046     		mov	r0, r4
 1189 004e FFF7FEFF 		bl	xTimerGenericCommand
ARM GAS  C:\Users\gigig\AppData\Local\Temp\ccovY76i.s 			page 47


 1190              	.LVL93:
 529:../../Middlewares/Third_Party/FreeRTOS/Source/timers.c **** 			( void ) xResult;
 1191              		.loc 1 529 4 is_stmt 1 view .LVU317
 1192 0052 0028     		cmp	r0, #0
 1193 0054 E8D1     		bne	.L82
 529:../../Middlewares/Third_Party/FreeRTOS/Source/timers.c **** 			( void ) xResult;
 1194              		.loc 1 529 4 view .LVU318
 1195              	.LBB60:
 1196              	.LBI60:
 191:../../Middlewares/Third_Party/FreeRTOS/Source/portable/GCC/ARM_CM4F/portmacro.h **** {
 1197              		.loc 2 191 30 view .LVU319
 1198              	.LBB61:
 193:../../Middlewares/Third_Party/FreeRTOS/Source/portable/GCC/ARM_CM4F/portmacro.h **** 
 1199              		.loc 2 193 1 view .LVU320
 1200              		.loc 2 195 2 view .LVU321
 1201              		.syntax unified
 1202              	@ 195 "../../Middlewares/Third_Party/FreeRTOS/Source/portable/GCC/ARM_CM4F/portmacro.h" 1
 1203 0056 4FF05003 			mov r3, #80												
 1204 005a 83F31188 		msr basepri, r3											
 1205 005e BFF36F8F 		isb														
 1206 0062 BFF34F8F 		dsb														
 1207              	
 1208              	@ 0 "" 2
 1209              	.LVL94:
 1210              		.thumb
 1211              		.syntax unified
 1212              	.L83:
 1213              		.loc 2 195 2 is_stmt 0 view .LVU322
 1214              	.LBE61:
 1215              	.LBE60:
 529:../../Middlewares/Third_Party/FreeRTOS/Source/timers.c **** 			( void ) xResult;
 1216              		.loc 1 529 4 is_stmt 1 discriminator 1 view .LVU323
 529:../../Middlewares/Third_Party/FreeRTOS/Source/timers.c **** 			( void ) xResult;
 1217              		.loc 1 529 4 discriminator 1 view .LVU324
 529:../../Middlewares/Third_Party/FreeRTOS/Source/timers.c **** 			( void ) xResult;
 1218              		.loc 1 529 4 discriminator 1 view .LVU325
 1219 0066 FEE7     		b	.L83
 1220              	.L87:
 1221              		.align	2
 1222              	.L86:
 1223 0068 00000000 		.word	.LANCHOR0
 1224              		.cfi_endproc
 1225              	.LFE15:
 1227              		.section	.text.prvProcessTimerOrBlockTask,"ax",%progbits
 1228              		.align	1
 1229              		.syntax unified
 1230              		.thumb
 1231              		.thumb_func
 1233              	prvProcessTimerOrBlockTask:
 1234              	.LVL95:
 1235              	.LFB17:
 585:../../Middlewares/Third_Party/FreeRTOS/Source/timers.c **** TickType_t xTimeNow;
 1236              		.loc 1 585 1 view -0
 1237              		.cfi_startproc
 1238              		@ args = 0, pretend = 0, frame = 8
 1239              		@ frame_needed = 0, uses_anonymous_args = 0
 585:../../Middlewares/Third_Party/FreeRTOS/Source/timers.c **** TickType_t xTimeNow;
ARM GAS  C:\Users\gigig\AppData\Local\Temp\ccovY76i.s 			page 48


 1240              		.loc 1 585 1 is_stmt 0 view .LVU327
 1241 0000 70B5     		push	{r4, r5, r6, lr}
 1242              	.LCFI31:
 1243              		.cfi_def_cfa_offset 16
 1244              		.cfi_offset 4, -16
 1245              		.cfi_offset 5, -12
 1246              		.cfi_offset 6, -8
 1247              		.cfi_offset 14, -4
 1248 0002 82B0     		sub	sp, sp, #8
 1249              	.LCFI32:
 1250              		.cfi_def_cfa_offset 24
 1251 0004 0646     		mov	r6, r0
 1252 0006 0C46     		mov	r4, r1
 586:../../Middlewares/Third_Party/FreeRTOS/Source/timers.c **** BaseType_t xTimerListsWereSwitched;
 1253              		.loc 1 586 1 is_stmt 1 view .LVU328
 587:../../Middlewares/Third_Party/FreeRTOS/Source/timers.c **** 
 1254              		.loc 1 587 1 view .LVU329
 589:../../Middlewares/Third_Party/FreeRTOS/Source/timers.c **** 	{
 1255              		.loc 1 589 2 view .LVU330
 1256 0008 FFF7FEFF 		bl	vTaskSuspendAll
 1257              	.LVL96:
 596:../../Middlewares/Third_Party/FreeRTOS/Source/timers.c **** 		if( xTimerListsWereSwitched == pdFALSE )
 1258              		.loc 1 596 3 view .LVU331
 596:../../Middlewares/Third_Party/FreeRTOS/Source/timers.c **** 		if( xTimerListsWereSwitched == pdFALSE )
 1259              		.loc 1 596 14 is_stmt 0 view .LVU332
 1260 000c 01A8     		add	r0, sp, #4
 1261 000e FFF7FEFF 		bl	prvSampleTimeNow
 1262              	.LVL97:
 597:../../Middlewares/Third_Party/FreeRTOS/Source/timers.c **** 		{
 1263              		.loc 1 597 3 is_stmt 1 view .LVU333
 597:../../Middlewares/Third_Party/FreeRTOS/Source/timers.c **** 		{
 1264              		.loc 1 597 31 is_stmt 0 view .LVU334
 1265 0012 019B     		ldr	r3, [sp, #4]
 597:../../Middlewares/Third_Party/FreeRTOS/Source/timers.c **** 		{
 1266              		.loc 1 597 5 view .LVU335
 1267 0014 3BBB     		cbnz	r3, .L89
 1268 0016 0546     		mov	r5, r0
 600:../../Middlewares/Third_Party/FreeRTOS/Source/timers.c **** 			{
 1269              		.loc 1 600 4 is_stmt 1 view .LVU336
 600:../../Middlewares/Third_Party/FreeRTOS/Source/timers.c **** 			{
 1270              		.loc 1 600 6 is_stmt 0 view .LVU337
 1271 0018 B042     		cmp	r0, r6
 1272 001a 28BF     		it	cs
 1273 001c 002C     		cmpcs	r4, #0
 1274 001e 19D0     		beq	.L95
 613:../../Middlewares/Third_Party/FreeRTOS/Source/timers.c **** 				{
 1275              		.loc 1 613 5 is_stmt 1 view .LVU338
 613:../../Middlewares/Third_Party/FreeRTOS/Source/timers.c **** 				{
 1276              		.loc 1 613 7 is_stmt 0 view .LVU339
 1277 0020 24B1     		cbz	r4, .L92
 617:../../Middlewares/Third_Party/FreeRTOS/Source/timers.c **** 				}
 1278              		.loc 1 617 6 is_stmt 1 view .LVU340
 617:../../Middlewares/Third_Party/FreeRTOS/Source/timers.c **** 				}
 1279              		.loc 1 617 22 is_stmt 0 view .LVU341
 1280 0022 134A     		ldr	r2, .L96
 1281 0024 1268     		ldr	r2, [r2]
 1282 0026 1268     		ldr	r2, [r2]
ARM GAS  C:\Users\gigig\AppData\Local\Temp\ccovY76i.s 			page 49


 1283 0028 DAB9     		cbnz	r2, .L93
 1284 002a 0124     		movs	r4, #1
 1285              	.LVL98:
 1286              	.L92:
 620:../../Middlewares/Third_Party/FreeRTOS/Source/timers.c **** 
 1287              		.loc 1 620 5 is_stmt 1 view .LVU342
 1288 002c 2246     		mov	r2, r4
 1289 002e 711B     		subs	r1, r6, r5
 1290 0030 104B     		ldr	r3, .L96+4
 1291 0032 1868     		ldr	r0, [r3]
 1292              	.LVL99:
 620:../../Middlewares/Third_Party/FreeRTOS/Source/timers.c **** 
 1293              		.loc 1 620 5 is_stmt 0 view .LVU343
 1294 0034 FFF7FEFF 		bl	vQueueWaitForMessageRestricted
 1295              	.LVL100:
 622:../../Middlewares/Third_Party/FreeRTOS/Source/timers.c **** 				{
 1296              		.loc 1 622 5 is_stmt 1 view .LVU344
 622:../../Middlewares/Third_Party/FreeRTOS/Source/timers.c **** 				{
 1297              		.loc 1 622 9 is_stmt 0 view .LVU345
 1298 0038 FFF7FEFF 		bl	xTaskResumeAll
 1299              	.LVL101:
 622:../../Middlewares/Third_Party/FreeRTOS/Source/timers.c **** 				{
 1300              		.loc 1 622 7 view .LVU346
 1301 003c A8B9     		cbnz	r0, .L88
 628:../../Middlewares/Third_Party/FreeRTOS/Source/timers.c **** 				}
 1302              		.loc 1 628 6 is_stmt 1 view .LVU347
 1303 003e 4FF0E023 		mov	r3, #-536813568
 1304 0042 4FF08052 		mov	r2, #268435456
 1305 0046 C3F8042D 		str	r2, [r3, #3332]
 628:../../Middlewares/Third_Party/FreeRTOS/Source/timers.c **** 				}
 1306              		.loc 1 628 6 view .LVU348
 1307              		.syntax unified
 1308              	@ 628 "../../Middlewares/Third_Party/FreeRTOS/Source/timers.c" 1
 1309 004a BFF34F8F 		dsb
 1310              	@ 0 "" 2
 628:../../Middlewares/Third_Party/FreeRTOS/Source/timers.c **** 				}
 1311              		.loc 1 628 6 view .LVU349
 1312              	@ 628 "../../Middlewares/Third_Party/FreeRTOS/Source/timers.c" 1
 1313 004e BFF36F8F 		isb
 1314              	@ 0 "" 2
 628:../../Middlewares/Third_Party/FreeRTOS/Source/timers.c **** 				}
 1315              		.loc 1 628 28 view .LVU350
 1316              		.thumb
 1317              		.syntax unified
 1318 0052 0AE0     		b	.L88
 1319              	.LVL102:
 1320              	.L95:
 602:../../Middlewares/Third_Party/FreeRTOS/Source/timers.c **** 				prvProcessExpiredTimer( xNextExpireTime, xTimeNow );
 1321              		.loc 1 602 5 view .LVU351
 602:../../Middlewares/Third_Party/FreeRTOS/Source/timers.c **** 				prvProcessExpiredTimer( xNextExpireTime, xTimeNow );
 1322              		.loc 1 602 14 is_stmt 0 view .LVU352
 1323 0054 FFF7FEFF 		bl	xTaskResumeAll
 1324              	.LVL103:
 603:../../Middlewares/Third_Party/FreeRTOS/Source/timers.c **** 			}
 1325              		.loc 1 603 5 is_stmt 1 view .LVU353
 1326 0058 2946     		mov	r1, r5
 1327 005a 3046     		mov	r0, r6
ARM GAS  C:\Users\gigig\AppData\Local\Temp\ccovY76i.s 			page 50


 1328 005c FFF7FEFF 		bl	prvProcessExpiredTimer
 1329              	.LVL104:
 1330 0060 03E0     		b	.L88
 1331              	.LVL105:
 1332              	.L93:
 617:../../Middlewares/Third_Party/FreeRTOS/Source/timers.c **** 				}
 1333              		.loc 1 617 22 is_stmt 0 view .LVU354
 1334 0062 1C46     		mov	r4, r3
 1335              	.LVL106:
 617:../../Middlewares/Third_Party/FreeRTOS/Source/timers.c **** 				}
 1336              		.loc 1 617 22 view .LVU355
 1337 0064 E2E7     		b	.L92
 1338              	.LVL107:
 1339              	.L89:
 638:../../Middlewares/Third_Party/FreeRTOS/Source/timers.c **** 		}
 1340              		.loc 1 638 4 is_stmt 1 view .LVU356
 638:../../Middlewares/Third_Party/FreeRTOS/Source/timers.c **** 		}
 1341              		.loc 1 638 13 is_stmt 0 view .LVU357
 1342 0066 FFF7FEFF 		bl	xTaskResumeAll
 1343              	.LVL108:
 1344              	.L88:
 641:../../Middlewares/Third_Party/FreeRTOS/Source/timers.c **** /*-----------------------------------------------------------*/
 1345              		.loc 1 641 1 view .LVU358
 1346 006a 02B0     		add	sp, sp, #8
 1347              	.LCFI33:
 1348              		.cfi_def_cfa_offset 16
 1349              		@ sp needed
 1350 006c 70BD     		pop	{r4, r5, r6, pc}
 1351              	.LVL109:
 1352              	.L97:
 641:../../Middlewares/Third_Party/FreeRTOS/Source/timers.c **** /*-----------------------------------------------------------*/
 1353              		.loc 1 641 1 view .LVU359
 1354 006e 00BF     		.align	2
 1355              	.L96:
 1356 0070 00000000 		.word	.LANCHOR1
 1357 0074 00000000 		.word	.LANCHOR2
 1358              		.cfi_endproc
 1359              	.LFE17:
 1361              		.section	.text.prvProcessReceivedCommands,"ax",%progbits
 1362              		.align	1
 1363              		.syntax unified
 1364              		.thumb
 1365              		.thumb_func
 1367              	prvProcessReceivedCommands:
 1368              	.LFB21:
 735:../../Middlewares/Third_Party/FreeRTOS/Source/timers.c **** DaemonTaskMessage_t xMessage;
 1369              		.loc 1 735 1 is_stmt 1 view -0
 1370              		.cfi_startproc
 1371              		@ args = 0, pretend = 0, frame = 24
 1372              		@ frame_needed = 0, uses_anonymous_args = 0
 1373 0000 10B5     		push	{r4, lr}
 1374              	.LCFI34:
 1375              		.cfi_def_cfa_offset 8
 1376              		.cfi_offset 4, -8
 1377              		.cfi_offset 14, -4
 1378 0002 88B0     		sub	sp, sp, #32
 1379              	.LCFI35:
ARM GAS  C:\Users\gigig\AppData\Local\Temp\ccovY76i.s 			page 51


 1380              		.cfi_def_cfa_offset 40
 736:../../Middlewares/Third_Party/FreeRTOS/Source/timers.c **** Timer_t *pxTimer;
 1381              		.loc 1 736 1 view .LVU361
 737:../../Middlewares/Third_Party/FreeRTOS/Source/timers.c **** BaseType_t xTimerListsWereSwitched, xResult;
 1382              		.loc 1 737 1 view .LVU362
 738:../../Middlewares/Third_Party/FreeRTOS/Source/timers.c **** TickType_t xTimeNow;
 1383              		.loc 1 738 1 view .LVU363
 739:../../Middlewares/Third_Party/FreeRTOS/Source/timers.c **** 
 1384              		.loc 1 739 1 view .LVU364
 741:../../Middlewares/Third_Party/FreeRTOS/Source/timers.c **** 	{
 1385              		.loc 1 741 2 view .LVU365
 741:../../Middlewares/Third_Party/FreeRTOS/Source/timers.c **** 	{
 1386              		.loc 1 741 7 is_stmt 0 view .LVU366
 1387 0004 02E0     		b	.L101
 1388              	.L100:
 760:../../Middlewares/Third_Party/FreeRTOS/Source/timers.c **** 			}
 1389              		.loc 1 760 29 is_stmt 1 view .LVU367
 767:../../Middlewares/Third_Party/FreeRTOS/Source/timers.c **** 		{
 1390              		.loc 1 767 3 view .LVU368
 767:../../Middlewares/Third_Party/FreeRTOS/Source/timers.c **** 		{
 1391              		.loc 1 767 15 is_stmt 0 view .LVU369
 1392 0006 049B     		ldr	r3, [sp, #16]
 767:../../Middlewares/Third_Party/FreeRTOS/Source/timers.c **** 		{
 1393              		.loc 1 767 5 view .LVU370
 1394 0008 002B     		cmp	r3, #0
 1395 000a 0FDA     		bge	.L116
 1396              	.L101:
 741:../../Middlewares/Third_Party/FreeRTOS/Source/timers.c **** 	{
 1397              		.loc 1 741 7 is_stmt 1 view .LVU371
 741:../../Middlewares/Third_Party/FreeRTOS/Source/timers.c **** 	{
 1398              		.loc 1 741 9 is_stmt 0 view .LVU372
 1399 000c 0022     		movs	r2, #0
 1400 000e 04A9     		add	r1, sp, #16
 1401 0010 3D4B     		ldr	r3, .L120
 1402 0012 1868     		ldr	r0, [r3]
 1403 0014 FFF7FEFF 		bl	xQueueReceive
 1404              	.LVL110:
 741:../../Middlewares/Third_Party/FreeRTOS/Source/timers.c **** 	{
 1405              		.loc 1 741 7 view .LVU373
 1406 0018 0028     		cmp	r0, #0
 1407 001a 73D0     		beq	.L117
 747:../../Middlewares/Third_Party/FreeRTOS/Source/timers.c **** 			{
 1408              		.loc 1 747 4 is_stmt 1 view .LVU374
 747:../../Middlewares/Third_Party/FreeRTOS/Source/timers.c **** 			{
 1409              		.loc 1 747 16 is_stmt 0 view .LVU375
 1410 001c 049B     		ldr	r3, [sp, #16]
 747:../../Middlewares/Third_Party/FreeRTOS/Source/timers.c **** 			{
 1411              		.loc 1 747 6 view .LVU376
 1412 001e 002B     		cmp	r3, #0
 1413 0020 F1DA     		bge	.L100
 1414              	.LBB62:
 749:../../Middlewares/Third_Party/FreeRTOS/Source/timers.c **** 
 1415              		.loc 1 749 5 is_stmt 1 discriminator 2 view .LVU377
 1416              	.LVL111:
 753:../../Middlewares/Third_Party/FreeRTOS/Source/timers.c **** 
 1417              		.loc 1 753 5 discriminator 2 view .LVU378
 753:../../Middlewares/Third_Party/FreeRTOS/Source/timers.c **** 
ARM GAS  C:\Users\gigig\AppData\Local\Temp\ccovY76i.s 			page 52


 1418              		.loc 1 753 31 discriminator 2 view .LVU379
 756:../../Middlewares/Third_Party/FreeRTOS/Source/timers.c **** 			}
 1419              		.loc 1 756 5 discriminator 2 view .LVU380
 1420 0022 0799     		ldr	r1, [sp, #28]
 1421 0024 0698     		ldr	r0, [sp, #24]
 1422 0026 059B     		ldr	r3, [sp, #20]
 1423 0028 9847     		blx	r3
 1424              	.LVL112:
 1425              	.LBE62:
 1426 002a ECE7     		b	.L100
 1427              	.LVL113:
 1428              	.L116:
 771:../../Middlewares/Third_Party/FreeRTOS/Source/timers.c **** 
 1429              		.loc 1 771 4 view .LVU381
 771:../../Middlewares/Third_Party/FreeRTOS/Source/timers.c **** 
 1430              		.loc 1 771 12 is_stmt 0 view .LVU382
 1431 002c 069C     		ldr	r4, [sp, #24]
 1432              	.LVL114:
 773:../../Middlewares/Third_Party/FreeRTOS/Source/timers.c **** 			{
 1433              		.loc 1 773 4 is_stmt 1 view .LVU383
 773:../../Middlewares/Third_Party/FreeRTOS/Source/timers.c **** 			{
 1434              		.loc 1 773 8 is_stmt 0 view .LVU384
 1435 002e 6369     		ldr	r3, [r4, #20]
 773:../../Middlewares/Third_Party/FreeRTOS/Source/timers.c **** 			{
 1436              		.loc 1 773 6 view .LVU385
 1437 0030 13B1     		cbz	r3, .L102
 776:../../Middlewares/Third_Party/FreeRTOS/Source/timers.c **** 			}
 1438              		.loc 1 776 5 is_stmt 1 view .LVU386
 776:../../Middlewares/Third_Party/FreeRTOS/Source/timers.c **** 			}
 1439              		.loc 1 776 14 is_stmt 0 view .LVU387
 1440 0032 201D     		adds	r0, r4, #4
 1441 0034 FFF7FEFF 		bl	uxListRemove
 1442              	.LVL115:
 1443              	.L102:
 780:../../Middlewares/Third_Party/FreeRTOS/Source/timers.c **** 			}
 1444              		.loc 1 780 29 is_stmt 1 view .LVU388
 783:../../Middlewares/Third_Party/FreeRTOS/Source/timers.c **** 
 1445              		.loc 1 783 106 view .LVU389
 791:../../Middlewares/Third_Party/FreeRTOS/Source/timers.c **** 
 1446              		.loc 1 791 4 view .LVU390
 791:../../Middlewares/Third_Party/FreeRTOS/Source/timers.c **** 
 1447              		.loc 1 791 15 is_stmt 0 view .LVU391
 1448 0038 03A8     		add	r0, sp, #12
 1449 003a FFF7FEFF 		bl	prvSampleTimeNow
 1450              	.LVL116:
 793:../../Middlewares/Third_Party/FreeRTOS/Source/timers.c **** 			{
 1451              		.loc 1 793 4 is_stmt 1 view .LVU392
 793:../../Middlewares/Third_Party/FreeRTOS/Source/timers.c **** 			{
 1452              		.loc 1 793 20 is_stmt 0 view .LVU393
 1453 003e 049B     		ldr	r3, [sp, #16]
 793:../../Middlewares/Third_Party/FreeRTOS/Source/timers.c **** 			{
 1454              		.loc 1 793 4 view .LVU394
 1455 0040 092B     		cmp	r3, #9
 1456 0042 E3D8     		bhi	.L101
 1457 0044 DFE803F0 		tbb	[pc, r3]
 1458              	.L105:
 1459 0048 05       		.byte	(.L107-.L105)/2
ARM GAS  C:\Users\gigig\AppData\Local\Temp\ccovY76i.s 			page 53


 1460 0049 05       		.byte	(.L107-.L105)/2
 1461 004a 05       		.byte	(.L107-.L105)/2
 1462 004b 30       		.byte	(.L106-.L105)/2
 1463 004c 37       		.byte	(.L104-.L105)/2
 1464 004d 50       		.byte	(.L108-.L105)/2
 1465 004e 05       		.byte	(.L107-.L105)/2
 1466 004f 05       		.byte	(.L107-.L105)/2
 1467 0050 30       		.byte	(.L106-.L105)/2
 1468 0051 37       		.byte	(.L104-.L105)/2
 1469              		.p2align 1
 1470              	.L107:
 801:../../Middlewares/Third_Party/FreeRTOS/Source/timers.c **** 					if( prvInsertTimerInActiveList( pxTimer,  xMessage.u.xTimerParameters.xMessageValue + pxTimer-
 1471              		.loc 1 801 6 is_stmt 1 view .LVU395
 801:../../Middlewares/Third_Party/FreeRTOS/Source/timers.c **** 					if( prvInsertTimerInActiveList( pxTimer,  xMessage.u.xTimerParameters.xMessageValue + pxTimer-
 1472              		.loc 1 801 24 is_stmt 0 view .LVU396
 1473 0052 94F82830 		ldrb	r3, [r4, #40]	@ zero_extendqisi2
 1474 0056 43F00103 		orr	r3, r3, #1
 1475 005a 84F82830 		strb	r3, [r4, #40]
 802:../../Middlewares/Third_Party/FreeRTOS/Source/timers.c **** 					{
 1476              		.loc 1 802 6 is_stmt 1 view .LVU397
 802:../../Middlewares/Third_Party/FreeRTOS/Source/timers.c **** 					{
 1477              		.loc 1 802 75 is_stmt 0 view .LVU398
 1478 005e 059B     		ldr	r3, [sp, #20]
 802:../../Middlewares/Third_Party/FreeRTOS/Source/timers.c **** 					{
 1479              		.loc 1 802 99 view .LVU399
 1480 0060 A169     		ldr	r1, [r4, #24]
 802:../../Middlewares/Third_Party/FreeRTOS/Source/timers.c **** 					{
 1481              		.loc 1 802 10 view .LVU400
 1482 0062 0246     		mov	r2, r0
 1483 0064 1944     		add	r1, r1, r3
 1484 0066 2046     		mov	r0, r4
 1485              	.LVL117:
 802:../../Middlewares/Third_Party/FreeRTOS/Source/timers.c **** 					{
 1486              		.loc 1 802 10 view .LVU401
 1487 0068 FFF7FEFF 		bl	prvInsertTimerInActiveList
 1488              	.LVL118:
 802:../../Middlewares/Third_Party/FreeRTOS/Source/timers.c **** 					{
 1489              		.loc 1 802 8 view .LVU402
 1490 006c 0028     		cmp	r0, #0
 1491 006e CDD0     		beq	.L101
 806:../../Middlewares/Third_Party/FreeRTOS/Source/timers.c **** 						traceTIMER_EXPIRED( pxTimer );
 1492              		.loc 1 806 7 is_stmt 1 view .LVU403
 806:../../Middlewares/Third_Party/FreeRTOS/Source/timers.c **** 						traceTIMER_EXPIRED( pxTimer );
 1493              		.loc 1 806 14 is_stmt 0 view .LVU404
 1494 0070 236A     		ldr	r3, [r4, #32]
 806:../../Middlewares/Third_Party/FreeRTOS/Source/timers.c **** 						traceTIMER_EXPIRED( pxTimer );
 1495              		.loc 1 806 7 view .LVU405
 1496 0072 2046     		mov	r0, r4
 1497 0074 9847     		blx	r3
 1498              	.LVL119:
 807:../../Middlewares/Third_Party/FreeRTOS/Source/timers.c **** 
 1499              		.loc 1 807 36 is_stmt 1 view .LVU406
 809:../../Middlewares/Third_Party/FreeRTOS/Source/timers.c **** 						{
 1500              		.loc 1 809 7 view .LVU407
 809:../../Middlewares/Third_Party/FreeRTOS/Source/timers.c **** 						{
 1501              		.loc 1 809 20 is_stmt 0 view .LVU408
 1502 0076 94F82830 		ldrb	r3, [r4, #40]	@ zero_extendqisi2
ARM GAS  C:\Users\gigig\AppData\Local\Temp\ccovY76i.s 			page 54


 809:../../Middlewares/Third_Party/FreeRTOS/Source/timers.c **** 						{
 1503              		.loc 1 809 9 view .LVU409
 1504 007a 13F0040F 		tst	r3, #4
 1505 007e C5D0     		beq	.L101
 811:../../Middlewares/Third_Party/FreeRTOS/Source/timers.c **** 							configASSERT( xResult );
 1506              		.loc 1 811 8 is_stmt 1 view .LVU410
 811:../../Middlewares/Third_Party/FreeRTOS/Source/timers.c **** 							configASSERT( xResult );
 1507              		.loc 1 811 129 is_stmt 0 view .LVU411
 1508 0080 A269     		ldr	r2, [r4, #24]
 811:../../Middlewares/Third_Party/FreeRTOS/Source/timers.c **** 							configASSERT( xResult );
 1509              		.loc 1 811 18 view .LVU412
 1510 0082 0021     		movs	r1, #0
 1511 0084 0091     		str	r1, [sp]
 1512 0086 0B46     		mov	r3, r1
 1513 0088 0598     		ldr	r0, [sp, #20]
 1514 008a 0244     		add	r2, r2, r0
 1515 008c 2046     		mov	r0, r4
 1516 008e FFF7FEFF 		bl	xTimerGenericCommand
 1517              	.LVL120:
 812:../../Middlewares/Third_Party/FreeRTOS/Source/timers.c **** 							( void ) xResult;
 1518              		.loc 1 812 8 is_stmt 1 view .LVU413
 1519 0092 0028     		cmp	r0, #0
 1520 0094 BAD1     		bne	.L101
 812:../../Middlewares/Third_Party/FreeRTOS/Source/timers.c **** 							( void ) xResult;
 1521              		.loc 1 812 8 view .LVU414
 1522              	.LBB63:
 1523              	.LBI63:
 191:../../Middlewares/Third_Party/FreeRTOS/Source/portable/GCC/ARM_CM4F/portmacro.h **** {
 1524              		.loc 2 191 30 view .LVU415
 1525              	.LBB64:
 193:../../Middlewares/Third_Party/FreeRTOS/Source/portable/GCC/ARM_CM4F/portmacro.h **** 
 1526              		.loc 2 193 1 view .LVU416
 1527              		.loc 2 195 2 view .LVU417
 1528              		.syntax unified
 1529              	@ 195 "../../Middlewares/Third_Party/FreeRTOS/Source/portable/GCC/ARM_CM4F/portmacro.h" 1
 1530 0096 4FF05003 			mov r3, #80												
 1531 009a 83F31188 		msr basepri, r3											
 1532 009e BFF36F8F 		isb														
 1533 00a2 BFF34F8F 		dsb														
 1534              	
 1535              	@ 0 "" 2
 1536              	.LVL121:
 1537              		.thumb
 1538              		.syntax unified
 1539              	.L110:
 1540              		.loc 2 195 2 is_stmt 0 view .LVU418
 1541              	.LBE64:
 1542              	.LBE63:
 812:../../Middlewares/Third_Party/FreeRTOS/Source/timers.c **** 							( void ) xResult;
 1543              		.loc 1 812 8 is_stmt 1 discriminator 2 view .LVU419
 812:../../Middlewares/Third_Party/FreeRTOS/Source/timers.c **** 							( void ) xResult;
 1544              		.loc 1 812 8 discriminator 2 view .LVU420
 812:../../Middlewares/Third_Party/FreeRTOS/Source/timers.c **** 							( void ) xResult;
 1545              		.loc 1 812 8 discriminator 2 view .LVU421
 1546 00a6 FEE7     		b	.L110
 1547              	.LVL122:
 1548              	.L106:
ARM GAS  C:\Users\gigig\AppData\Local\Temp\ccovY76i.s 			page 55


 829:../../Middlewares/Third_Party/FreeRTOS/Source/timers.c **** 					break;
 1549              		.loc 1 829 6 view .LVU422
 829:../../Middlewares/Third_Party/FreeRTOS/Source/timers.c **** 					break;
 1550              		.loc 1 829 24 is_stmt 0 view .LVU423
 1551 00a8 94F82830 		ldrb	r3, [r4, #40]	@ zero_extendqisi2
 1552 00ac 23F00103 		bic	r3, r3, #1
 1553 00b0 84F82830 		strb	r3, [r4, #40]
 830:../../Middlewares/Third_Party/FreeRTOS/Source/timers.c **** 
 1554              		.loc 1 830 6 is_stmt 1 view .LVU424
 1555 00b4 AAE7     		b	.L101
 1556              	.L104:
 834:../../Middlewares/Third_Party/FreeRTOS/Source/timers.c **** 					pxTimer->xTimerPeriodInTicks = xMessage.u.xTimerParameters.xMessageValue;
 1557              		.loc 1 834 6 view .LVU425
 834:../../Middlewares/Third_Party/FreeRTOS/Source/timers.c **** 					pxTimer->xTimerPeriodInTicks = xMessage.u.xTimerParameters.xMessageValue;
 1558              		.loc 1 834 24 is_stmt 0 view .LVU426
 1559 00b6 94F82830 		ldrb	r3, [r4, #40]	@ zero_extendqisi2
 1560 00ba 43F00103 		orr	r3, r3, #1
 1561 00be 84F82830 		strb	r3, [r4, #40]
 835:../../Middlewares/Third_Party/FreeRTOS/Source/timers.c **** 					configASSERT( ( pxTimer->xTimerPeriodInTicks > 0 ) );
 1562              		.loc 1 835 6 is_stmt 1 view .LVU427
 835:../../Middlewares/Third_Party/FreeRTOS/Source/timers.c **** 					configASSERT( ( pxTimer->xTimerPeriodInTicks > 0 ) );
 1563              		.loc 1 835 64 is_stmt 0 view .LVU428
 1564 00c2 0599     		ldr	r1, [sp, #20]
 835:../../Middlewares/Third_Party/FreeRTOS/Source/timers.c **** 					configASSERT( ( pxTimer->xTimerPeriodInTicks > 0 ) );
 1565              		.loc 1 835 35 view .LVU429
 1566 00c4 A161     		str	r1, [r4, #24]
 836:../../Middlewares/Third_Party/FreeRTOS/Source/timers.c **** 
 1567              		.loc 1 836 6 is_stmt 1 view .LVU430
 1568 00c6 31B1     		cbz	r1, .L118
 836:../../Middlewares/Third_Party/FreeRTOS/Source/timers.c **** 
 1569              		.loc 1 836 58 discriminator 2 view .LVU431
 844:../../Middlewares/Third_Party/FreeRTOS/Source/timers.c **** 					break;
 1570              		.loc 1 844 6 discriminator 2 view .LVU432
 844:../../Middlewares/Third_Party/FreeRTOS/Source/timers.c **** 					break;
 1571              		.loc 1 844 15 is_stmt 0 discriminator 2 view .LVU433
 1572 00c8 0346     		mov	r3, r0
 1573 00ca 0246     		mov	r2, r0
 1574 00cc 0144     		add	r1, r1, r0
 1575 00ce 2046     		mov	r0, r4
 1576              	.LVL123:
 844:../../Middlewares/Third_Party/FreeRTOS/Source/timers.c **** 					break;
 1577              		.loc 1 844 15 discriminator 2 view .LVU434
 1578 00d0 FFF7FEFF 		bl	prvInsertTimerInActiveList
 1579              	.LVL124:
 845:../../Middlewares/Third_Party/FreeRTOS/Source/timers.c **** 
 1580              		.loc 1 845 6 is_stmt 1 discriminator 2 view .LVU435
 1581 00d4 9AE7     		b	.L101
 1582              	.LVL125:
 1583              	.L118:
 836:../../Middlewares/Third_Party/FreeRTOS/Source/timers.c **** 
 1584              		.loc 1 836 6 view .LVU436
 1585              	.LBB65:
 1586              	.LBI65:
 191:../../Middlewares/Third_Party/FreeRTOS/Source/portable/GCC/ARM_CM4F/portmacro.h **** {
 1587              		.loc 2 191 30 view .LVU437
 1588              	.LBB66:
 193:../../Middlewares/Third_Party/FreeRTOS/Source/portable/GCC/ARM_CM4F/portmacro.h **** 
ARM GAS  C:\Users\gigig\AppData\Local\Temp\ccovY76i.s 			page 56


 1589              		.loc 2 193 1 view .LVU438
 1590              		.loc 2 195 2 view .LVU439
 1591              		.syntax unified
 1592              	@ 195 "../../Middlewares/Third_Party/FreeRTOS/Source/portable/GCC/ARM_CM4F/portmacro.h" 1
 1593 00d6 4FF05003 			mov r3, #80												
 1594 00da 83F31188 		msr basepri, r3											
 1595 00de BFF36F8F 		isb														
 1596 00e2 BFF34F8F 		dsb														
 1597              	
 1598              	@ 0 "" 2
 1599              	.LVL126:
 1600              		.thumb
 1601              		.syntax unified
 1602              	.L112:
 1603              		.loc 2 195 2 is_stmt 0 view .LVU440
 1604              	.LBE66:
 1605              	.LBE65:
 836:../../Middlewares/Third_Party/FreeRTOS/Source/timers.c **** 
 1606              		.loc 1 836 6 is_stmt 1 discriminator 5 view .LVU441
 836:../../Middlewares/Third_Party/FreeRTOS/Source/timers.c **** 
 1607              		.loc 1 836 6 discriminator 5 view .LVU442
 836:../../Middlewares/Third_Party/FreeRTOS/Source/timers.c **** 
 1608              		.loc 1 836 6 discriminator 5 view .LVU443
 1609 00e6 FEE7     		b	.L112
 1610              	.L108:
 853:../../Middlewares/Third_Party/FreeRTOS/Source/timers.c **** 						{
 1611              		.loc 1 853 7 view .LVU444
 853:../../Middlewares/Third_Party/FreeRTOS/Source/timers.c **** 						{
 1612              		.loc 1 853 20 is_stmt 0 view .LVU445
 1613 00e8 94F82830 		ldrb	r3, [r4, #40]	@ zero_extendqisi2
 853:../../Middlewares/Third_Party/FreeRTOS/Source/timers.c **** 						{
 1614              		.loc 1 853 9 view .LVU446
 1615 00ec 13F0020F 		tst	r3, #2
 1616 00f0 04D0     		beq	.L119
 859:../../Middlewares/Third_Party/FreeRTOS/Source/timers.c **** 						}
 1617              		.loc 1 859 8 is_stmt 1 view .LVU447
 859:../../Middlewares/Third_Party/FreeRTOS/Source/timers.c **** 						}
 1618              		.loc 1 859 26 is_stmt 0 view .LVU448
 1619 00f2 23F00103 		bic	r3, r3, #1
 1620 00f6 84F82830 		strb	r3, [r4, #40]
 1621 00fa 87E7     		b	.L101
 1622              	.L119:
 855:../../Middlewares/Third_Party/FreeRTOS/Source/timers.c **** 						}
 1623              		.loc 1 855 8 is_stmt 1 view .LVU449
 1624 00fc 2046     		mov	r0, r4
 1625              	.LVL127:
 855:../../Middlewares/Third_Party/FreeRTOS/Source/timers.c **** 						}
 1626              		.loc 1 855 8 is_stmt 0 view .LVU450
 1627 00fe FFF7FEFF 		bl	vPortFree
 1628              	.LVL128:
 1629 0102 83E7     		b	.L101
 1630              	.LVL129:
 1631              	.L117:
 879:../../Middlewares/Third_Party/FreeRTOS/Source/timers.c **** /*-----------------------------------------------------------*/
 1632              		.loc 1 879 1 view .LVU451
 1633 0104 08B0     		add	sp, sp, #32
 1634              	.LCFI36:
ARM GAS  C:\Users\gigig\AppData\Local\Temp\ccovY76i.s 			page 57


 1635              		.cfi_def_cfa_offset 8
 1636              		@ sp needed
 1637 0106 10BD     		pop	{r4, pc}
 1638              	.L121:
 1639              		.align	2
 1640              	.L120:
 1641 0108 00000000 		.word	.LANCHOR2
 1642              		.cfi_endproc
 1643              	.LFE21:
 1645              		.section	.text.prvTimerTask,"ax",%progbits
 1646              		.align	1
 1647              		.syntax unified
 1648              		.thumb
 1649              		.thumb_func
 1651              	prvTimerTask:
 1652              	.LFB16:
 549:../../Middlewares/Third_Party/FreeRTOS/Source/timers.c **** TickType_t xNextExpireTime;
 1653              		.loc 1 549 1 is_stmt 1 view -0
 1654              		.cfi_startproc
 1655              		@ args = 0, pretend = 0, frame = 8
 1656              		@ frame_needed = 0, uses_anonymous_args = 0
 1657              	.LVL130:
 549:../../Middlewares/Third_Party/FreeRTOS/Source/timers.c **** TickType_t xNextExpireTime;
 1658              		.loc 1 549 1 is_stmt 0 view .LVU453
 1659 0000 00B5     		push	{lr}
 1660              	.LCFI37:
 1661              		.cfi_def_cfa_offset 4
 1662              		.cfi_offset 14, -4
 1663 0002 83B0     		sub	sp, sp, #12
 1664              	.LCFI38:
 1665              		.cfi_def_cfa_offset 16
 1666              	.LVL131:
 1667              	.L123:
 550:../../Middlewares/Third_Party/FreeRTOS/Source/timers.c **** BaseType_t xListWasEmpty;
 1668              		.loc 1 550 1 is_stmt 1 discriminator 1 view .LVU454
 551:../../Middlewares/Third_Party/FreeRTOS/Source/timers.c **** 
 1669              		.loc 1 551 1 discriminator 1 view .LVU455
 554:../../Middlewares/Third_Party/FreeRTOS/Source/timers.c **** 
 1670              		.loc 1 554 2 discriminator 1 view .LVU456
 568:../../Middlewares/Third_Party/FreeRTOS/Source/timers.c **** 	{
 1671              		.loc 1 568 2 discriminator 1 view .LVU457
 572:../../Middlewares/Third_Party/FreeRTOS/Source/timers.c **** 
 1672              		.loc 1 572 3 discriminator 1 view .LVU458
 572:../../Middlewares/Third_Party/FreeRTOS/Source/timers.c **** 
 1673              		.loc 1 572 21 is_stmt 0 discriminator 1 view .LVU459
 1674 0004 01A8     		add	r0, sp, #4
 1675 0006 FFF7FEFF 		bl	prvGetNextExpireTime
 1676              	.LVL132:
 576:../../Middlewares/Third_Party/FreeRTOS/Source/timers.c **** 
 1677              		.loc 1 576 3 is_stmt 1 discriminator 1 view .LVU460
 1678 000a 0199     		ldr	r1, [sp, #4]
 1679 000c FFF7FEFF 		bl	prvProcessTimerOrBlockTask
 1680              	.LVL133:
 579:../../Middlewares/Third_Party/FreeRTOS/Source/timers.c **** 	}
 1681              		.loc 1 579 3 discriminator 1 view .LVU461
 1682 0010 FFF7FEFF 		bl	prvProcessReceivedCommands
 1683              	.LVL134:
ARM GAS  C:\Users\gigig\AppData\Local\Temp\ccovY76i.s 			page 58


 568:../../Middlewares/Third_Party/FreeRTOS/Source/timers.c **** 	{
 1684              		.loc 1 568 8 discriminator 1 view .LVU462
 1685 0014 F6E7     		b	.L123
 1686              		.cfi_endproc
 1687              	.LFE16:
 1689              		.section	.text.xTimerGetTimerDaemonTaskHandle,"ax",%progbits
 1690              		.align	1
 1691              		.global	xTimerGetTimerDaemonTaskHandle
 1692              		.syntax unified
 1693              		.thumb
 1694              		.thumb_func
 1696              	xTimerGetTimerDaemonTaskHandle:
 1697              	.LFB9:
 425:../../Middlewares/Third_Party/FreeRTOS/Source/timers.c **** 	/* If xTimerGetTimerDaemonTaskHandle() is called before the scheduler has been
 1698              		.loc 1 425 1 view -0
 1699              		.cfi_startproc
 1700              		@ args = 0, pretend = 0, frame = 0
 1701              		@ frame_needed = 0, uses_anonymous_args = 0
 1702              		@ link register save eliminated.
 428:../../Middlewares/Third_Party/FreeRTOS/Source/timers.c **** 	return xTimerTaskHandle;
 1703              		.loc 1 428 2 view .LVU464
 1704 0000 064B     		ldr	r3, .L129
 1705 0002 1868     		ldr	r0, [r3]
 1706 0004 00B1     		cbz	r0, .L128
 430:../../Middlewares/Third_Party/FreeRTOS/Source/timers.c **** /*-----------------------------------------------------------*/
 1707              		.loc 1 430 1 is_stmt 0 view .LVU465
 1708 0006 7047     		bx	lr
 1709              	.L128:
 428:../../Middlewares/Third_Party/FreeRTOS/Source/timers.c **** 	return xTimerTaskHandle;
 1710              		.loc 1 428 2 is_stmt 1 view .LVU466
 1711              	.LBB67:
 1712              	.LBI67:
 191:../../Middlewares/Third_Party/FreeRTOS/Source/portable/GCC/ARM_CM4F/portmacro.h **** {
 1713              		.loc 2 191 30 view .LVU467
 1714              	.LBB68:
 193:../../Middlewares/Third_Party/FreeRTOS/Source/portable/GCC/ARM_CM4F/portmacro.h **** 
 1715              		.loc 2 193 1 view .LVU468
 1716              		.loc 2 195 2 view .LVU469
 1717              		.syntax unified
 1718              	@ 195 "../../Middlewares/Third_Party/FreeRTOS/Source/portable/GCC/ARM_CM4F/portmacro.h" 1
 1719 0008 4FF05003 			mov r3, #80												
 1720 000c 83F31188 		msr basepri, r3											
 1721 0010 BFF36F8F 		isb														
 1722 0014 BFF34F8F 		dsb														
 1723              	
 1724              	@ 0 "" 2
 1725              	.LVL135:
 1726              		.thumb
 1727              		.syntax unified
 1728              	.L127:
 1729              		.loc 2 195 2 is_stmt 0 view .LVU470
 1730              	.LBE68:
 1731              	.LBE67:
 428:../../Middlewares/Third_Party/FreeRTOS/Source/timers.c **** 	return xTimerTaskHandle;
 1732              		.loc 1 428 2 is_stmt 1 discriminator 1 view .LVU471
 428:../../Middlewares/Third_Party/FreeRTOS/Source/timers.c **** 	return xTimerTaskHandle;
 1733              		.loc 1 428 2 discriminator 1 view .LVU472
ARM GAS  C:\Users\gigig\AppData\Local\Temp\ccovY76i.s 			page 59


 428:../../Middlewares/Third_Party/FreeRTOS/Source/timers.c **** 	return xTimerTaskHandle;
 1734              		.loc 1 428 2 discriminator 1 view .LVU473
 1735 0018 FEE7     		b	.L127
 1736              	.L130:
 1737 001a 00BF     		.align	2
 1738              	.L129:
 1739 001c 00000000 		.word	.LANCHOR7
 1740              		.cfi_endproc
 1741              	.LFE9:
 1743              		.section	.text.xTimerGetPeriod,"ax",%progbits
 1744              		.align	1
 1745              		.global	xTimerGetPeriod
 1746              		.syntax unified
 1747              		.thumb
 1748              		.thumb_func
 1750              	xTimerGetPeriod:
 1751              	.LVL136:
 1752              	.LFB10:
 434:../../Middlewares/Third_Party/FreeRTOS/Source/timers.c **** Timer_t *pxTimer = xTimer;
 1753              		.loc 1 434 1 view -0
 1754              		.cfi_startproc
 1755              		@ args = 0, pretend = 0, frame = 0
 1756              		@ frame_needed = 0, uses_anonymous_args = 0
 1757              		@ link register save eliminated.
 435:../../Middlewares/Third_Party/FreeRTOS/Source/timers.c **** 
 1758              		.loc 1 435 1 view .LVU475
 437:../../Middlewares/Third_Party/FreeRTOS/Source/timers.c **** 	return pxTimer->xTimerPeriodInTicks;
 1759              		.loc 1 437 2 view .LVU476
 1760 0000 08B1     		cbz	r0, .L134
 437:../../Middlewares/Third_Party/FreeRTOS/Source/timers.c **** 	return pxTimer->xTimerPeriodInTicks;
 1761              		.loc 1 437 24 discriminator 2 view .LVU477
 438:../../Middlewares/Third_Party/FreeRTOS/Source/timers.c **** }
 1762              		.loc 1 438 2 discriminator 2 view .LVU478
 439:../../Middlewares/Third_Party/FreeRTOS/Source/timers.c **** /*-----------------------------------------------------------*/
 1763              		.loc 1 439 1 is_stmt 0 discriminator 2 view .LVU479
 1764 0002 8069     		ldr	r0, [r0, #24]
 1765              	.LVL137:
 439:../../Middlewares/Third_Party/FreeRTOS/Source/timers.c **** /*-----------------------------------------------------------*/
 1766              		.loc 1 439 1 discriminator 2 view .LVU480
 1767 0004 7047     		bx	lr
 1768              	.LVL138:
 1769              	.L134:
 437:../../Middlewares/Third_Party/FreeRTOS/Source/timers.c **** 	return pxTimer->xTimerPeriodInTicks;
 1770              		.loc 1 437 2 is_stmt 1 view .LVU481
 1771              	.LBB69:
 1772              	.LBI69:
 191:../../Middlewares/Third_Party/FreeRTOS/Source/portable/GCC/ARM_CM4F/portmacro.h **** {
 1773              		.loc 2 191 30 view .LVU482
 1774              	.LBB70:
 193:../../Middlewares/Third_Party/FreeRTOS/Source/portable/GCC/ARM_CM4F/portmacro.h **** 
 1775              		.loc 2 193 1 view .LVU483
 1776              		.loc 2 195 2 view .LVU484
 1777              		.syntax unified
 1778              	@ 195 "../../Middlewares/Third_Party/FreeRTOS/Source/portable/GCC/ARM_CM4F/portmacro.h" 1
 1779 0006 4FF05003 			mov r3, #80												
 1780 000a 83F31188 		msr basepri, r3											
 1781 000e BFF36F8F 		isb														
ARM GAS  C:\Users\gigig\AppData\Local\Temp\ccovY76i.s 			page 60


 1782 0012 BFF34F8F 		dsb														
 1783              	
 1784              	@ 0 "" 2
 1785              	.LVL139:
 1786              		.thumb
 1787              		.syntax unified
 1788              	.L133:
 1789              		.loc 2 195 2 is_stmt 0 view .LVU485
 1790              	.LBE70:
 1791              	.LBE69:
 437:../../Middlewares/Third_Party/FreeRTOS/Source/timers.c **** 	return pxTimer->xTimerPeriodInTicks;
 1792              		.loc 1 437 2 is_stmt 1 discriminator 1 view .LVU486
 437:../../Middlewares/Third_Party/FreeRTOS/Source/timers.c **** 	return pxTimer->xTimerPeriodInTicks;
 1793              		.loc 1 437 2 discriminator 1 view .LVU487
 437:../../Middlewares/Third_Party/FreeRTOS/Source/timers.c **** 	return pxTimer->xTimerPeriodInTicks;
 1794              		.loc 1 437 2 discriminator 1 view .LVU488
 1795 0016 FEE7     		b	.L133
 1796              		.cfi_endproc
 1797              	.LFE10:
 1799              		.section	.text.vTimerSetReloadMode,"ax",%progbits
 1800              		.align	1
 1801              		.global	vTimerSetReloadMode
 1802              		.syntax unified
 1803              		.thumb
 1804              		.thumb_func
 1806              	vTimerSetReloadMode:
 1807              	.LVL140:
 1808              	.LFB11:
 443:../../Middlewares/Third_Party/FreeRTOS/Source/timers.c **** Timer_t * pxTimer =  xTimer;
 1809              		.loc 1 443 1 view -0
 1810              		.cfi_startproc
 1811              		@ args = 0, pretend = 0, frame = 0
 1812              		@ frame_needed = 0, uses_anonymous_args = 0
 443:../../Middlewares/Third_Party/FreeRTOS/Source/timers.c **** Timer_t * pxTimer =  xTimer;
 1813              		.loc 1 443 1 is_stmt 0 view .LVU490
 1814 0000 38B5     		push	{r3, r4, r5, lr}
 1815              	.LCFI39:
 1816              		.cfi_def_cfa_offset 16
 1817              		.cfi_offset 3, -16
 1818              		.cfi_offset 4, -12
 1819              		.cfi_offset 5, -8
 1820              		.cfi_offset 14, -4
 444:../../Middlewares/Third_Party/FreeRTOS/Source/timers.c **** 
 1821              		.loc 1 444 1 is_stmt 1 view .LVU491
 1822              	.LVL141:
 446:../../Middlewares/Third_Party/FreeRTOS/Source/timers.c **** 	taskENTER_CRITICAL();
 1823              		.loc 1 446 2 view .LVU492
 1824 0002 68B1     		cbz	r0, .L141
 1825 0004 0C46     		mov	r4, r1
 1826 0006 0546     		mov	r5, r0
 446:../../Middlewares/Third_Party/FreeRTOS/Source/timers.c **** 	taskENTER_CRITICAL();
 1827              		.loc 1 446 24 discriminator 2 view .LVU493
 447:../../Middlewares/Third_Party/FreeRTOS/Source/timers.c **** 	{
 1828              		.loc 1 447 2 discriminator 2 view .LVU494
 1829 0008 FFF7FEFF 		bl	vPortEnterCritical
 1830              	.LVL142:
 449:../../Middlewares/Third_Party/FreeRTOS/Source/timers.c **** 		{
ARM GAS  C:\Users\gigig\AppData\Local\Temp\ccovY76i.s 			page 61


 1831              		.loc 1 449 3 discriminator 2 view .LVU495
 449:../../Middlewares/Third_Party/FreeRTOS/Source/timers.c **** 		{
 1832              		.loc 1 449 5 is_stmt 0 discriminator 2 view .LVU496
 1833 000c 8CB1     		cbz	r4, .L138
 451:../../Middlewares/Third_Party/FreeRTOS/Source/timers.c **** 		}
 1834              		.loc 1 451 4 is_stmt 1 view .LVU497
 451:../../Middlewares/Third_Party/FreeRTOS/Source/timers.c **** 		}
 1835              		.loc 1 451 22 is_stmt 0 view .LVU498
 1836 000e 95F82830 		ldrb	r3, [r5, #40]	@ zero_extendqisi2
 1837 0012 43F00403 		orr	r3, r3, #4
 1838 0016 85F82830 		strb	r3, [r5, #40]
 1839              	.L139:
 458:../../Middlewares/Third_Party/FreeRTOS/Source/timers.c **** }
 1840              		.loc 1 458 2 is_stmt 1 view .LVU499
 1841 001a FFF7FEFF 		bl	vPortExitCritical
 1842              	.LVL143:
 459:../../Middlewares/Third_Party/FreeRTOS/Source/timers.c **** /*-----------------------------------------------------------*/
 1843              		.loc 1 459 1 is_stmt 0 view .LVU500
 1844 001e 38BD     		pop	{r3, r4, r5, pc}
 1845              	.LVL144:
 1846              	.L141:
 446:../../Middlewares/Third_Party/FreeRTOS/Source/timers.c **** 	taskENTER_CRITICAL();
 1847              		.loc 1 446 2 is_stmt 1 view .LVU501
 1848              	.LBB71:
 1849              	.LBI71:
 191:../../Middlewares/Third_Party/FreeRTOS/Source/portable/GCC/ARM_CM4F/portmacro.h **** {
 1850              		.loc 2 191 30 view .LVU502
 1851              	.LBB72:
 193:../../Middlewares/Third_Party/FreeRTOS/Source/portable/GCC/ARM_CM4F/portmacro.h **** 
 1852              		.loc 2 193 1 view .LVU503
 1853              		.loc 2 195 2 view .LVU504
 1854              		.syntax unified
 1855              	@ 195 "../../Middlewares/Third_Party/FreeRTOS/Source/portable/GCC/ARM_CM4F/portmacro.h" 1
 1856 0020 4FF05003 			mov r3, #80												
 1857 0024 83F31188 		msr basepri, r3											
 1858 0028 BFF36F8F 		isb														
 1859 002c BFF34F8F 		dsb														
 1860              	
 1861              	@ 0 "" 2
 1862              	.LVL145:
 1863              		.thumb
 1864              		.syntax unified
 1865              	.L137:
 1866              		.loc 2 195 2 is_stmt 0 view .LVU505
 1867              	.LBE72:
 1868              	.LBE71:
 446:../../Middlewares/Third_Party/FreeRTOS/Source/timers.c **** 	taskENTER_CRITICAL();
 1869              		.loc 1 446 2 is_stmt 1 discriminator 1 view .LVU506
 446:../../Middlewares/Third_Party/FreeRTOS/Source/timers.c **** 	taskENTER_CRITICAL();
 1870              		.loc 1 446 2 discriminator 1 view .LVU507
 446:../../Middlewares/Third_Party/FreeRTOS/Source/timers.c **** 	taskENTER_CRITICAL();
 1871              		.loc 1 446 2 discriminator 1 view .LVU508
 1872 0030 FEE7     		b	.L137
 1873              	.LVL146:
 1874              	.L138:
 455:../../Middlewares/Third_Party/FreeRTOS/Source/timers.c **** 		}
 1875              		.loc 1 455 4 view .LVU509
ARM GAS  C:\Users\gigig\AppData\Local\Temp\ccovY76i.s 			page 62


 455:../../Middlewares/Third_Party/FreeRTOS/Source/timers.c **** 		}
 1876              		.loc 1 455 22 is_stmt 0 view .LVU510
 1877 0032 95F82830 		ldrb	r3, [r5, #40]	@ zero_extendqisi2
 1878 0036 23F00403 		bic	r3, r3, #4
 1879 003a 85F82830 		strb	r3, [r5, #40]
 1880 003e ECE7     		b	.L139
 1881              		.cfi_endproc
 1882              	.LFE11:
 1884              		.section	.text.uxTimerGetReloadMode,"ax",%progbits
 1885              		.align	1
 1886              		.global	uxTimerGetReloadMode
 1887              		.syntax unified
 1888              		.thumb
 1889              		.thumb_func
 1891              	uxTimerGetReloadMode:
 1892              	.LVL147:
 1893              	.LFB12:
 463:../../Middlewares/Third_Party/FreeRTOS/Source/timers.c **** Timer_t * pxTimer =  xTimer;
 1894              		.loc 1 463 1 is_stmt 1 view -0
 1895              		.cfi_startproc
 1896              		@ args = 0, pretend = 0, frame = 0
 1897              		@ frame_needed = 0, uses_anonymous_args = 0
 464:../../Middlewares/Third_Party/FreeRTOS/Source/timers.c **** UBaseType_t uxReturn;
 1898              		.loc 1 464 1 view .LVU512
 465:../../Middlewares/Third_Party/FreeRTOS/Source/timers.c **** 
 1899              		.loc 1 465 1 view .LVU513
 467:../../Middlewares/Third_Party/FreeRTOS/Source/timers.c **** 	taskENTER_CRITICAL();
 1900              		.loc 1 467 2 view .LVU514
 1901 0000 68B1     		cbz	r0, .L149
 463:../../Middlewares/Third_Party/FreeRTOS/Source/timers.c **** Timer_t * pxTimer =  xTimer;
 1902              		.loc 1 463 1 is_stmt 0 discriminator 2 view .LVU515
 1903 0002 10B5     		push	{r4, lr}
 1904              	.LCFI40:
 1905              		.cfi_def_cfa_offset 8
 1906              		.cfi_offset 4, -8
 1907              		.cfi_offset 14, -4
 1908 0004 0446     		mov	r4, r0
 467:../../Middlewares/Third_Party/FreeRTOS/Source/timers.c **** 	taskENTER_CRITICAL();
 1909              		.loc 1 467 24 is_stmt 1 discriminator 2 view .LVU516
 468:../../Middlewares/Third_Party/FreeRTOS/Source/timers.c **** 	{
 1910              		.loc 1 468 2 discriminator 2 view .LVU517
 1911 0006 FFF7FEFF 		bl	vPortEnterCritical
 1912              	.LVL148:
 470:../../Middlewares/Third_Party/FreeRTOS/Source/timers.c **** 		{
 1913              		.loc 1 470 3 discriminator 2 view .LVU518
 470:../../Middlewares/Third_Party/FreeRTOS/Source/timers.c **** 		{
 1914              		.loc 1 470 16 is_stmt 0 discriminator 2 view .LVU519
 1915 000a 94F82830 		ldrb	r3, [r4, #40]	@ zero_extendqisi2
 470:../../Middlewares/Third_Party/FreeRTOS/Source/timers.c **** 		{
 1916              		.loc 1 470 5 discriminator 2 view .LVU520
 1917 000e 13F0040F 		tst	r3, #4
 1918 0012 0DD1     		bne	.L146
 473:../../Middlewares/Third_Party/FreeRTOS/Source/timers.c **** 		}
 1919              		.loc 1 473 13 view .LVU521
 1920 0014 0024     		movs	r4, #0
 1921              	.LVL149:
 1922              	.L145:
ARM GAS  C:\Users\gigig\AppData\Local\Temp\ccovY76i.s 			page 63


 481:../../Middlewares/Third_Party/FreeRTOS/Source/timers.c **** 
 1923              		.loc 1 481 2 is_stmt 1 view .LVU522
 1924 0016 FFF7FEFF 		bl	vPortExitCritical
 1925              	.LVL150:
 483:../../Middlewares/Third_Party/FreeRTOS/Source/timers.c **** }
 1926              		.loc 1 483 2 view .LVU523
 484:../../Middlewares/Third_Party/FreeRTOS/Source/timers.c **** /*-----------------------------------------------------------*/
 1927              		.loc 1 484 1 is_stmt 0 view .LVU524
 1928 001a 2046     		mov	r0, r4
 1929 001c 10BD     		pop	{r4, pc}
 1930              	.LVL151:
 1931              	.L149:
 1932              	.LCFI41:
 1933              		.cfi_def_cfa_offset 0
 1934              		.cfi_restore 4
 1935              		.cfi_restore 14
 467:../../Middlewares/Third_Party/FreeRTOS/Source/timers.c **** 	taskENTER_CRITICAL();
 1936              		.loc 1 467 2 is_stmt 1 view .LVU525
 1937              	.LBB73:
 1938              	.LBI73:
 191:../../Middlewares/Third_Party/FreeRTOS/Source/portable/GCC/ARM_CM4F/portmacro.h **** {
 1939              		.loc 2 191 30 view .LVU526
 1940              	.LBB74:
 193:../../Middlewares/Third_Party/FreeRTOS/Source/portable/GCC/ARM_CM4F/portmacro.h **** 
 1941              		.loc 2 193 1 view .LVU527
 1942              		.loc 2 195 2 view .LVU528
 1943              		.syntax unified
 1944              	@ 195 "../../Middlewares/Third_Party/FreeRTOS/Source/portable/GCC/ARM_CM4F/portmacro.h" 1
 1945 001e 4FF05003 			mov r3, #80												
 1946 0022 83F31188 		msr basepri, r3											
 1947 0026 BFF36F8F 		isb														
 1948 002a BFF34F8F 		dsb														
 1949              	
 1950              	@ 0 "" 2
 1951              	.LVL152:
 1952              		.thumb
 1953              		.syntax unified
 1954              	.L144:
 1955              		.loc 2 195 2 is_stmt 0 view .LVU529
 1956              	.LBE74:
 1957              	.LBE73:
 467:../../Middlewares/Third_Party/FreeRTOS/Source/timers.c **** 	taskENTER_CRITICAL();
 1958              		.loc 1 467 2 is_stmt 1 discriminator 1 view .LVU530
 467:../../Middlewares/Third_Party/FreeRTOS/Source/timers.c **** 	taskENTER_CRITICAL();
 1959              		.loc 1 467 2 discriminator 1 view .LVU531
 467:../../Middlewares/Third_Party/FreeRTOS/Source/timers.c **** 	taskENTER_CRITICAL();
 1960              		.loc 1 467 2 discriminator 1 view .LVU532
 1961 002e FEE7     		b	.L144
 1962              	.LVL153:
 1963              	.L146:
 1964              	.LCFI42:
 1965              		.cfi_def_cfa_offset 8
 1966              		.cfi_offset 4, -8
 1967              		.cfi_offset 14, -4
 478:../../Middlewares/Third_Party/FreeRTOS/Source/timers.c **** 		}
 1968              		.loc 1 478 13 is_stmt 0 view .LVU533
 1969 0030 0124     		movs	r4, #1
ARM GAS  C:\Users\gigig\AppData\Local\Temp\ccovY76i.s 			page 64


 1970              	.LVL154:
 478:../../Middlewares/Third_Party/FreeRTOS/Source/timers.c **** 		}
 1971              		.loc 1 478 13 view .LVU534
 1972 0032 F0E7     		b	.L145
 1973              		.cfi_endproc
 1974              	.LFE12:
 1976              		.section	.text.xTimerGetExpiryTime,"ax",%progbits
 1977              		.align	1
 1978              		.global	xTimerGetExpiryTime
 1979              		.syntax unified
 1980              		.thumb
 1981              		.thumb_func
 1983              	xTimerGetExpiryTime:
 1984              	.LVL155:
 1985              	.LFB13:
 488:../../Middlewares/Third_Party/FreeRTOS/Source/timers.c **** Timer_t * pxTimer =  xTimer;
 1986              		.loc 1 488 1 is_stmt 1 view -0
 1987              		.cfi_startproc
 1988              		@ args = 0, pretend = 0, frame = 0
 1989              		@ frame_needed = 0, uses_anonymous_args = 0
 1990              		@ link register save eliminated.
 489:../../Middlewares/Third_Party/FreeRTOS/Source/timers.c **** TickType_t xReturn;
 1991              		.loc 1 489 1 view .LVU536
 490:../../Middlewares/Third_Party/FreeRTOS/Source/timers.c **** 
 1992              		.loc 1 490 1 view .LVU537
 492:../../Middlewares/Third_Party/FreeRTOS/Source/timers.c **** 	xReturn = listGET_LIST_ITEM_VALUE( &( pxTimer->xTimerListItem ) );
 1993              		.loc 1 492 2 view .LVU538
 1994 0000 08B1     		cbz	r0, .L153
 492:../../Middlewares/Third_Party/FreeRTOS/Source/timers.c **** 	xReturn = listGET_LIST_ITEM_VALUE( &( pxTimer->xTimerListItem ) );
 1995              		.loc 1 492 24 discriminator 2 view .LVU539
 493:../../Middlewares/Third_Party/FreeRTOS/Source/timers.c **** 	return xReturn;
 1996              		.loc 1 493 2 discriminator 2 view .LVU540
 1997              	.LVL156:
 494:../../Middlewares/Third_Party/FreeRTOS/Source/timers.c **** }
 1998              		.loc 1 494 2 discriminator 2 view .LVU541
 495:../../Middlewares/Third_Party/FreeRTOS/Source/timers.c **** /*-----------------------------------------------------------*/
 1999              		.loc 1 495 1 is_stmt 0 discriminator 2 view .LVU542
 2000 0002 4068     		ldr	r0, [r0, #4]
 2001              	.LVL157:
 495:../../Middlewares/Third_Party/FreeRTOS/Source/timers.c **** /*-----------------------------------------------------------*/
 2002              		.loc 1 495 1 discriminator 2 view .LVU543
 2003 0004 7047     		bx	lr
 2004              	.LVL158:
 2005              	.L153:
 492:../../Middlewares/Third_Party/FreeRTOS/Source/timers.c **** 	xReturn = listGET_LIST_ITEM_VALUE( &( pxTimer->xTimerListItem ) );
 2006              		.loc 1 492 2 is_stmt 1 view .LVU544
 2007              	.LBB75:
 2008              	.LBI75:
 191:../../Middlewares/Third_Party/FreeRTOS/Source/portable/GCC/ARM_CM4F/portmacro.h **** {
 2009              		.loc 2 191 30 view .LVU545
 2010              	.LBB76:
 193:../../Middlewares/Third_Party/FreeRTOS/Source/portable/GCC/ARM_CM4F/portmacro.h **** 
 2011              		.loc 2 193 1 view .LVU546
 2012              		.loc 2 195 2 view .LVU547
 2013              		.syntax unified
 2014              	@ 195 "../../Middlewares/Third_Party/FreeRTOS/Source/portable/GCC/ARM_CM4F/portmacro.h" 1
 2015 0006 4FF05003 			mov r3, #80												
ARM GAS  C:\Users\gigig\AppData\Local\Temp\ccovY76i.s 			page 65


 2016 000a 83F31188 		msr basepri, r3											
 2017 000e BFF36F8F 		isb														
 2018 0012 BFF34F8F 		dsb														
 2019              	
 2020              	@ 0 "" 2
 2021              	.LVL159:
 2022              		.thumb
 2023              		.syntax unified
 2024              	.L152:
 2025              		.loc 2 195 2 is_stmt 0 view .LVU548
 2026              	.LBE76:
 2027              	.LBE75:
 492:../../Middlewares/Third_Party/FreeRTOS/Source/timers.c **** 	xReturn = listGET_LIST_ITEM_VALUE( &( pxTimer->xTimerListItem ) );
 2028              		.loc 1 492 2 is_stmt 1 discriminator 1 view .LVU549
 492:../../Middlewares/Third_Party/FreeRTOS/Source/timers.c **** 	xReturn = listGET_LIST_ITEM_VALUE( &( pxTimer->xTimerListItem ) );
 2029              		.loc 1 492 2 discriminator 1 view .LVU550
 492:../../Middlewares/Third_Party/FreeRTOS/Source/timers.c **** 	xReturn = listGET_LIST_ITEM_VALUE( &( pxTimer->xTimerListItem ) );
 2030              		.loc 1 492 2 discriminator 1 view .LVU551
 2031 0016 FEE7     		b	.L152
 2032              		.cfi_endproc
 2033              	.LFE13:
 2035              		.section	.text.pcTimerGetName,"ax",%progbits
 2036              		.align	1
 2037              		.global	pcTimerGetName
 2038              		.syntax unified
 2039              		.thumb
 2040              		.thumb_func
 2042              	pcTimerGetName:
 2043              	.LVL160:
 2044              	.LFB14:
 499:../../Middlewares/Third_Party/FreeRTOS/Source/timers.c **** Timer_t *pxTimer = xTimer;
 2045              		.loc 1 499 1 view -0
 2046              		.cfi_startproc
 2047              		@ args = 0, pretend = 0, frame = 0
 2048              		@ frame_needed = 0, uses_anonymous_args = 0
 2049              		@ link register save eliminated.
 500:../../Middlewares/Third_Party/FreeRTOS/Source/timers.c **** 
 2050              		.loc 1 500 1 view .LVU553
 502:../../Middlewares/Third_Party/FreeRTOS/Source/timers.c **** 	return pxTimer->pcTimerName;
 2051              		.loc 1 502 2 view .LVU554
 2052 0000 08B1     		cbz	r0, .L157
 502:../../Middlewares/Third_Party/FreeRTOS/Source/timers.c **** 	return pxTimer->pcTimerName;
 2053              		.loc 1 502 24 discriminator 2 view .LVU555
 503:../../Middlewares/Third_Party/FreeRTOS/Source/timers.c **** }
 2054              		.loc 1 503 2 discriminator 2 view .LVU556
 504:../../Middlewares/Third_Party/FreeRTOS/Source/timers.c **** /*-----------------------------------------------------------*/
 2055              		.loc 1 504 1 is_stmt 0 discriminator 2 view .LVU557
 2056 0002 0068     		ldr	r0, [r0]
 2057              	.LVL161:
 504:../../Middlewares/Third_Party/FreeRTOS/Source/timers.c **** /*-----------------------------------------------------------*/
 2058              		.loc 1 504 1 discriminator 2 view .LVU558
 2059 0004 7047     		bx	lr
 2060              	.LVL162:
 2061              	.L157:
 502:../../Middlewares/Third_Party/FreeRTOS/Source/timers.c **** 	return pxTimer->pcTimerName;
 2062              		.loc 1 502 2 is_stmt 1 view .LVU559
 2063              	.LBB77:
ARM GAS  C:\Users\gigig\AppData\Local\Temp\ccovY76i.s 			page 66


 2064              	.LBI77:
 191:../../Middlewares/Third_Party/FreeRTOS/Source/portable/GCC/ARM_CM4F/portmacro.h **** {
 2065              		.loc 2 191 30 view .LVU560
 2066              	.LBB78:
 193:../../Middlewares/Third_Party/FreeRTOS/Source/portable/GCC/ARM_CM4F/portmacro.h **** 
 2067              		.loc 2 193 1 view .LVU561
 2068              		.loc 2 195 2 view .LVU562
 2069              		.syntax unified
 2070              	@ 195 "../../Middlewares/Third_Party/FreeRTOS/Source/portable/GCC/ARM_CM4F/portmacro.h" 1
 2071 0006 4FF05003 			mov r3, #80												
 2072 000a 83F31188 		msr basepri, r3											
 2073 000e BFF36F8F 		isb														
 2074 0012 BFF34F8F 		dsb														
 2075              	
 2076              	@ 0 "" 2
 2077              	.LVL163:
 2078              		.thumb
 2079              		.syntax unified
 2080              	.L156:
 2081              		.loc 2 195 2 is_stmt 0 view .LVU563
 2082              	.LBE78:
 2083              	.LBE77:
 502:../../Middlewares/Third_Party/FreeRTOS/Source/timers.c **** 	return pxTimer->pcTimerName;
 2084              		.loc 1 502 2 is_stmt 1 discriminator 1 view .LVU564
 502:../../Middlewares/Third_Party/FreeRTOS/Source/timers.c **** 	return pxTimer->pcTimerName;
 2085              		.loc 1 502 2 discriminator 1 view .LVU565
 502:../../Middlewares/Third_Party/FreeRTOS/Source/timers.c **** 	return pxTimer->pcTimerName;
 2086              		.loc 1 502 2 discriminator 1 view .LVU566
 2087 0016 FEE7     		b	.L156
 2088              		.cfi_endproc
 2089              	.LFE14:
 2091              		.section	.text.xTimerIsTimerActive,"ax",%progbits
 2092              		.align	1
 2093              		.global	xTimerIsTimerActive
 2094              		.syntax unified
 2095              		.thumb
 2096              		.thumb_func
 2098              	xTimerIsTimerActive:
 2099              	.LVL164:
 2100              	.LFB24:
 990:../../Middlewares/Third_Party/FreeRTOS/Source/timers.c **** /*-----------------------------------------------------------*/
 991:../../Middlewares/Third_Party/FreeRTOS/Source/timers.c **** 
 992:../../Middlewares/Third_Party/FreeRTOS/Source/timers.c **** BaseType_t xTimerIsTimerActive( TimerHandle_t xTimer )
 993:../../Middlewares/Third_Party/FreeRTOS/Source/timers.c **** {
 2101              		.loc 1 993 1 view -0
 2102              		.cfi_startproc
 2103              		@ args = 0, pretend = 0, frame = 0
 2104              		@ frame_needed = 0, uses_anonymous_args = 0
 994:../../Middlewares/Third_Party/FreeRTOS/Source/timers.c **** BaseType_t xReturn;
 2105              		.loc 1 994 1 view .LVU568
 995:../../Middlewares/Third_Party/FreeRTOS/Source/timers.c **** Timer_t *pxTimer = xTimer;
 2106              		.loc 1 995 1 view .LVU569
 996:../../Middlewares/Third_Party/FreeRTOS/Source/timers.c **** 
 997:../../Middlewares/Third_Party/FreeRTOS/Source/timers.c **** 	configASSERT( xTimer );
 2107              		.loc 1 997 2 view .LVU570
 2108 0000 68B1     		cbz	r0, .L165
 993:../../Middlewares/Third_Party/FreeRTOS/Source/timers.c **** BaseType_t xReturn;
ARM GAS  C:\Users\gigig\AppData\Local\Temp\ccovY76i.s 			page 67


 2109              		.loc 1 993 1 is_stmt 0 discriminator 2 view .LVU571
 2110 0002 10B5     		push	{r4, lr}
 2111              	.LCFI43:
 2112              		.cfi_def_cfa_offset 8
 2113              		.cfi_offset 4, -8
 2114              		.cfi_offset 14, -4
 2115 0004 0446     		mov	r4, r0
 2116              		.loc 1 997 24 is_stmt 1 discriminator 2 view .LVU572
 998:../../Middlewares/Third_Party/FreeRTOS/Source/timers.c **** 
 999:../../Middlewares/Third_Party/FreeRTOS/Source/timers.c **** 	/* Is the timer in the list of active timers? */
1000:../../Middlewares/Third_Party/FreeRTOS/Source/timers.c **** 	taskENTER_CRITICAL();
 2117              		.loc 1 1000 2 discriminator 2 view .LVU573
 2118 0006 FFF7FEFF 		bl	vPortEnterCritical
 2119              	.LVL165:
1001:../../Middlewares/Third_Party/FreeRTOS/Source/timers.c **** 	{
1002:../../Middlewares/Third_Party/FreeRTOS/Source/timers.c **** 		if( ( pxTimer->ucStatus & tmrSTATUS_IS_ACTIVE ) == 0 )
 2120              		.loc 1 1002 3 discriminator 2 view .LVU574
 2121              		.loc 1 1002 16 is_stmt 0 discriminator 2 view .LVU575
 2122 000a 94F82830 		ldrb	r3, [r4, #40]	@ zero_extendqisi2
 2123              		.loc 1 1002 5 discriminator 2 view .LVU576
 2124 000e 13F0010F 		tst	r3, #1
 2125 0012 0DD1     		bne	.L162
1003:../../Middlewares/Third_Party/FreeRTOS/Source/timers.c **** 		{
1004:../../Middlewares/Third_Party/FreeRTOS/Source/timers.c **** 			xReturn = pdFALSE;
 2126              		.loc 1 1004 12 view .LVU577
 2127 0014 0024     		movs	r4, #0
 2128              	.LVL166:
 2129              	.L161:
1005:../../Middlewares/Third_Party/FreeRTOS/Source/timers.c **** 		}
1006:../../Middlewares/Third_Party/FreeRTOS/Source/timers.c **** 		else
1007:../../Middlewares/Third_Party/FreeRTOS/Source/timers.c **** 		{
1008:../../Middlewares/Third_Party/FreeRTOS/Source/timers.c **** 			xReturn = pdTRUE;
1009:../../Middlewares/Third_Party/FreeRTOS/Source/timers.c **** 		}
1010:../../Middlewares/Third_Party/FreeRTOS/Source/timers.c **** 	}
1011:../../Middlewares/Third_Party/FreeRTOS/Source/timers.c **** 	taskEXIT_CRITICAL();
 2130              		.loc 1 1011 2 is_stmt 1 view .LVU578
 2131 0016 FFF7FEFF 		bl	vPortExitCritical
 2132              	.LVL167:
1012:../../Middlewares/Third_Party/FreeRTOS/Source/timers.c **** 
1013:../../Middlewares/Third_Party/FreeRTOS/Source/timers.c **** 	return xReturn;
 2133              		.loc 1 1013 2 view .LVU579
1014:../../Middlewares/Third_Party/FreeRTOS/Source/timers.c **** } /*lint !e818 Can't be pointer to const due to the typedef. */
 2134              		.loc 1 1014 1 is_stmt 0 view .LVU580
 2135 001a 2046     		mov	r0, r4
 2136 001c 10BD     		pop	{r4, pc}
 2137              	.LVL168:
 2138              	.L165:
 2139              	.LCFI44:
 2140              		.cfi_def_cfa_offset 0
 2141              		.cfi_restore 4
 2142              		.cfi_restore 14
 997:../../Middlewares/Third_Party/FreeRTOS/Source/timers.c **** 
 2143              		.loc 1 997 2 is_stmt 1 view .LVU581
 2144              	.LBB79:
 2145              	.LBI79:
 191:../../Middlewares/Third_Party/FreeRTOS/Source/portable/GCC/ARM_CM4F/portmacro.h **** {
 2146              		.loc 2 191 30 view .LVU582
ARM GAS  C:\Users\gigig\AppData\Local\Temp\ccovY76i.s 			page 68


 2147              	.LBB80:
 193:../../Middlewares/Third_Party/FreeRTOS/Source/portable/GCC/ARM_CM4F/portmacro.h **** 
 2148              		.loc 2 193 1 view .LVU583
 2149              		.loc 2 195 2 view .LVU584
 2150              		.syntax unified
 2151              	@ 195 "../../Middlewares/Third_Party/FreeRTOS/Source/portable/GCC/ARM_CM4F/portmacro.h" 1
 2152 001e 4FF05003 			mov r3, #80												
 2153 0022 83F31188 		msr basepri, r3											
 2154 0026 BFF36F8F 		isb														
 2155 002a BFF34F8F 		dsb														
 2156              	
 2157              	@ 0 "" 2
 2158              	.LVL169:
 2159              		.thumb
 2160              		.syntax unified
 2161              	.L160:
 2162              		.loc 2 195 2 is_stmt 0 view .LVU585
 2163              	.LBE80:
 2164              	.LBE79:
 997:../../Middlewares/Third_Party/FreeRTOS/Source/timers.c **** 
 2165              		.loc 1 997 2 is_stmt 1 discriminator 1 view .LVU586
 997:../../Middlewares/Third_Party/FreeRTOS/Source/timers.c **** 
 2166              		.loc 1 997 2 discriminator 1 view .LVU587
 997:../../Middlewares/Third_Party/FreeRTOS/Source/timers.c **** 
 2167              		.loc 1 997 2 discriminator 1 view .LVU588
 2168 002e FEE7     		b	.L160
 2169              	.LVL170:
 2170              	.L162:
 2171              	.LCFI45:
 2172              		.cfi_def_cfa_offset 8
 2173              		.cfi_offset 4, -8
 2174              		.cfi_offset 14, -4
1008:../../Middlewares/Third_Party/FreeRTOS/Source/timers.c **** 		}
 2175              		.loc 1 1008 12 is_stmt 0 view .LVU589
 2176 0030 0124     		movs	r4, #1
 2177              	.LVL171:
1008:../../Middlewares/Third_Party/FreeRTOS/Source/timers.c **** 		}
 2178              		.loc 1 1008 12 view .LVU590
 2179 0032 F0E7     		b	.L161
 2180              		.cfi_endproc
 2181              	.LFE24:
 2183              		.section	.text.pvTimerGetTimerID,"ax",%progbits
 2184              		.align	1
 2185              		.global	pvTimerGetTimerID
 2186              		.syntax unified
 2187              		.thumb
 2188              		.thumb_func
 2190              	pvTimerGetTimerID:
 2191              	.LVL172:
 2192              	.LFB25:
1015:../../Middlewares/Third_Party/FreeRTOS/Source/timers.c **** /*-----------------------------------------------------------*/
1016:../../Middlewares/Third_Party/FreeRTOS/Source/timers.c **** 
1017:../../Middlewares/Third_Party/FreeRTOS/Source/timers.c **** void *pvTimerGetTimerID( const TimerHandle_t xTimer )
1018:../../Middlewares/Third_Party/FreeRTOS/Source/timers.c **** {
 2193              		.loc 1 1018 1 is_stmt 1 view -0
 2194              		.cfi_startproc
 2195              		@ args = 0, pretend = 0, frame = 0
ARM GAS  C:\Users\gigig\AppData\Local\Temp\ccovY76i.s 			page 69


 2196              		@ frame_needed = 0, uses_anonymous_args = 0
1019:../../Middlewares/Third_Party/FreeRTOS/Source/timers.c **** Timer_t * const pxTimer = xTimer;
 2197              		.loc 1 1019 1 view .LVU592
1020:../../Middlewares/Third_Party/FreeRTOS/Source/timers.c **** void *pvReturn;
 2198              		.loc 1 1020 1 view .LVU593
1021:../../Middlewares/Third_Party/FreeRTOS/Source/timers.c **** 
1022:../../Middlewares/Third_Party/FreeRTOS/Source/timers.c **** 	configASSERT( xTimer );
 2199              		.loc 1 1022 2 view .LVU594
 2200 0000 40B1     		cbz	r0, .L171
1018:../../Middlewares/Third_Party/FreeRTOS/Source/timers.c **** Timer_t * const pxTimer = xTimer;
 2201              		.loc 1 1018 1 is_stmt 0 discriminator 2 view .LVU595
 2202 0002 10B5     		push	{r4, lr}
 2203              	.LCFI46:
 2204              		.cfi_def_cfa_offset 8
 2205              		.cfi_offset 4, -8
 2206              		.cfi_offset 14, -4
 2207 0004 0446     		mov	r4, r0
 2208              		.loc 1 1022 24 is_stmt 1 discriminator 2 view .LVU596
1023:../../Middlewares/Third_Party/FreeRTOS/Source/timers.c **** 
1024:../../Middlewares/Third_Party/FreeRTOS/Source/timers.c **** 	taskENTER_CRITICAL();
 2209              		.loc 1 1024 2 discriminator 2 view .LVU597
 2210 0006 FFF7FEFF 		bl	vPortEnterCritical
 2211              	.LVL173:
1025:../../Middlewares/Third_Party/FreeRTOS/Source/timers.c **** 	{
1026:../../Middlewares/Third_Party/FreeRTOS/Source/timers.c **** 		pvReturn = pxTimer->pvTimerID;
 2212              		.loc 1 1026 3 discriminator 2 view .LVU598
 2213              		.loc 1 1026 12 is_stmt 0 discriminator 2 view .LVU599
 2214 000a E469     		ldr	r4, [r4, #28]
 2215              	.LVL174:
1027:../../Middlewares/Third_Party/FreeRTOS/Source/timers.c **** 	}
1028:../../Middlewares/Third_Party/FreeRTOS/Source/timers.c **** 	taskEXIT_CRITICAL();
 2216              		.loc 1 1028 2 is_stmt 1 discriminator 2 view .LVU600
 2217 000c FFF7FEFF 		bl	vPortExitCritical
 2218              	.LVL175:
1029:../../Middlewares/Third_Party/FreeRTOS/Source/timers.c **** 
1030:../../Middlewares/Third_Party/FreeRTOS/Source/timers.c **** 	return pvReturn;
 2219              		.loc 1 1030 2 discriminator 2 view .LVU601
1031:../../Middlewares/Third_Party/FreeRTOS/Source/timers.c **** }
 2220              		.loc 1 1031 1 is_stmt 0 discriminator 2 view .LVU602
 2221 0010 2046     		mov	r0, r4
 2222 0012 10BD     		pop	{r4, pc}
 2223              	.LVL176:
 2224              	.L171:
 2225              	.LCFI47:
 2226              		.cfi_def_cfa_offset 0
 2227              		.cfi_restore 4
 2228              		.cfi_restore 14
1022:../../Middlewares/Third_Party/FreeRTOS/Source/timers.c **** 
 2229              		.loc 1 1022 2 is_stmt 1 view .LVU603
 2230              	.LBB81:
 2231              	.LBI81:
 191:../../Middlewares/Third_Party/FreeRTOS/Source/portable/GCC/ARM_CM4F/portmacro.h **** {
 2232              		.loc 2 191 30 view .LVU604
 2233              	.LBB82:
 193:../../Middlewares/Third_Party/FreeRTOS/Source/portable/GCC/ARM_CM4F/portmacro.h **** 
 2234              		.loc 2 193 1 view .LVU605
 2235              		.loc 2 195 2 view .LVU606
ARM GAS  C:\Users\gigig\AppData\Local\Temp\ccovY76i.s 			page 70


 2236              		.syntax unified
 2237              	@ 195 "../../Middlewares/Third_Party/FreeRTOS/Source/portable/GCC/ARM_CM4F/portmacro.h" 1
 2238 0014 4FF05003 			mov r3, #80												
 2239 0018 83F31188 		msr basepri, r3											
 2240 001c BFF36F8F 		isb														
 2241 0020 BFF34F8F 		dsb														
 2242              	
 2243              	@ 0 "" 2
 2244              	.LVL177:
 2245              		.thumb
 2246              		.syntax unified
 2247              	.L168:
 2248              		.loc 2 195 2 is_stmt 0 view .LVU607
 2249              	.LBE82:
 2250              	.LBE81:
1022:../../Middlewares/Third_Party/FreeRTOS/Source/timers.c **** 
 2251              		.loc 1 1022 2 is_stmt 1 discriminator 1 view .LVU608
1022:../../Middlewares/Third_Party/FreeRTOS/Source/timers.c **** 
 2252              		.loc 1 1022 2 discriminator 1 view .LVU609
1022:../../Middlewares/Third_Party/FreeRTOS/Source/timers.c **** 
 2253              		.loc 1 1022 2 discriminator 1 view .LVU610
 2254 0024 FEE7     		b	.L168
 2255              		.cfi_endproc
 2256              	.LFE25:
 2258              		.section	.text.vTimerSetTimerID,"ax",%progbits
 2259              		.align	1
 2260              		.global	vTimerSetTimerID
 2261              		.syntax unified
 2262              		.thumb
 2263              		.thumb_func
 2265              	vTimerSetTimerID:
 2266              	.LVL178:
 2267              	.LFB26:
1032:../../Middlewares/Third_Party/FreeRTOS/Source/timers.c **** /*-----------------------------------------------------------*/
1033:../../Middlewares/Third_Party/FreeRTOS/Source/timers.c **** 
1034:../../Middlewares/Third_Party/FreeRTOS/Source/timers.c **** void vTimerSetTimerID( TimerHandle_t xTimer, void *pvNewID )
1035:../../Middlewares/Third_Party/FreeRTOS/Source/timers.c **** {
 2268              		.loc 1 1035 1 view -0
 2269              		.cfi_startproc
 2270              		@ args = 0, pretend = 0, frame = 0
 2271              		@ frame_needed = 0, uses_anonymous_args = 0
 2272              		.loc 1 1035 1 is_stmt 0 view .LVU612
 2273 0000 38B5     		push	{r3, r4, r5, lr}
 2274              	.LCFI48:
 2275              		.cfi_def_cfa_offset 16
 2276              		.cfi_offset 3, -16
 2277              		.cfi_offset 4, -12
 2278              		.cfi_offset 5, -8
 2279              		.cfi_offset 14, -4
1036:../../Middlewares/Third_Party/FreeRTOS/Source/timers.c **** Timer_t * const pxTimer = xTimer;
 2280              		.loc 1 1036 1 is_stmt 1 view .LVU613
 2281              	.LVL179:
1037:../../Middlewares/Third_Party/FreeRTOS/Source/timers.c **** 
1038:../../Middlewares/Third_Party/FreeRTOS/Source/timers.c **** 	configASSERT( xTimer );
 2282              		.loc 1 1038 2 view .LVU614
 2283 0002 38B1     		cbz	r0, .L176
 2284 0004 0C46     		mov	r4, r1
ARM GAS  C:\Users\gigig\AppData\Local\Temp\ccovY76i.s 			page 71


 2285 0006 0546     		mov	r5, r0
 2286              		.loc 1 1038 24 discriminator 2 view .LVU615
1039:../../Middlewares/Third_Party/FreeRTOS/Source/timers.c **** 
1040:../../Middlewares/Third_Party/FreeRTOS/Source/timers.c **** 	taskENTER_CRITICAL();
 2287              		.loc 1 1040 2 discriminator 2 view .LVU616
 2288 0008 FFF7FEFF 		bl	vPortEnterCritical
 2289              	.LVL180:
1041:../../Middlewares/Third_Party/FreeRTOS/Source/timers.c **** 	{
1042:../../Middlewares/Third_Party/FreeRTOS/Source/timers.c **** 		pxTimer->pvTimerID = pvNewID;
 2290              		.loc 1 1042 3 discriminator 2 view .LVU617
 2291              		.loc 1 1042 22 is_stmt 0 discriminator 2 view .LVU618
 2292 000c EC61     		str	r4, [r5, #28]
1043:../../Middlewares/Third_Party/FreeRTOS/Source/timers.c **** 	}
1044:../../Middlewares/Third_Party/FreeRTOS/Source/timers.c **** 	taskEXIT_CRITICAL();
 2293              		.loc 1 1044 2 is_stmt 1 discriminator 2 view .LVU619
 2294 000e FFF7FEFF 		bl	vPortExitCritical
 2295              	.LVL181:
1045:../../Middlewares/Third_Party/FreeRTOS/Source/timers.c **** }
 2296              		.loc 1 1045 1 is_stmt 0 discriminator 2 view .LVU620
 2297 0012 38BD     		pop	{r3, r4, r5, pc}
 2298              	.LVL182:
 2299              	.L176:
1038:../../Middlewares/Third_Party/FreeRTOS/Source/timers.c **** 
 2300              		.loc 1 1038 2 is_stmt 1 view .LVU621
 2301              	.LBB83:
 2302              	.LBI83:
 191:../../Middlewares/Third_Party/FreeRTOS/Source/portable/GCC/ARM_CM4F/portmacro.h **** {
 2303              		.loc 2 191 30 view .LVU622
 2304              	.LBB84:
 193:../../Middlewares/Third_Party/FreeRTOS/Source/portable/GCC/ARM_CM4F/portmacro.h **** 
 2305              		.loc 2 193 1 view .LVU623
 2306              		.loc 2 195 2 view .LVU624
 2307              		.syntax unified
 2308              	@ 195 "../../Middlewares/Third_Party/FreeRTOS/Source/portable/GCC/ARM_CM4F/portmacro.h" 1
 2309 0014 4FF05003 			mov r3, #80												
 2310 0018 83F31188 		msr basepri, r3											
 2311 001c BFF36F8F 		isb														
 2312 0020 BFF34F8F 		dsb														
 2313              	
 2314              	@ 0 "" 2
 2315              	.LVL183:
 2316              		.thumb
 2317              		.syntax unified
 2318              	.L174:
 2319              		.loc 2 195 2 is_stmt 0 view .LVU625
 2320              	.LBE84:
 2321              	.LBE83:
1038:../../Middlewares/Third_Party/FreeRTOS/Source/timers.c **** 
 2322              		.loc 1 1038 2 is_stmt 1 discriminator 1 view .LVU626
1038:../../Middlewares/Third_Party/FreeRTOS/Source/timers.c **** 
 2323              		.loc 1 1038 2 discriminator 1 view .LVU627
1038:../../Middlewares/Third_Party/FreeRTOS/Source/timers.c **** 
 2324              		.loc 1 1038 2 discriminator 1 view .LVU628
 2325 0024 FEE7     		b	.L174
 2326              		.cfi_endproc
 2327              	.LFE26:
 2329              		.section	.text.xTimerPendFunctionCallFromISR,"ax",%progbits
ARM GAS  C:\Users\gigig\AppData\Local\Temp\ccovY76i.s 			page 72


 2330              		.align	1
 2331              		.global	xTimerPendFunctionCallFromISR
 2332              		.syntax unified
 2333              		.thumb
 2334              		.thumb_func
 2336              	xTimerPendFunctionCallFromISR:
 2337              	.LVL184:
 2338              	.LFB27:
1046:../../Middlewares/Third_Party/FreeRTOS/Source/timers.c **** /*-----------------------------------------------------------*/
1047:../../Middlewares/Third_Party/FreeRTOS/Source/timers.c **** 
1048:../../Middlewares/Third_Party/FreeRTOS/Source/timers.c **** #if( INCLUDE_xTimerPendFunctionCall == 1 )
1049:../../Middlewares/Third_Party/FreeRTOS/Source/timers.c **** 
1050:../../Middlewares/Third_Party/FreeRTOS/Source/timers.c **** 	BaseType_t xTimerPendFunctionCallFromISR( PendedFunction_t xFunctionToPend, void *pvParameter1, ui
1051:../../Middlewares/Third_Party/FreeRTOS/Source/timers.c **** 	{
 2339              		.loc 1 1051 2 view -0
 2340              		.cfi_startproc
 2341              		@ args = 0, pretend = 0, frame = 16
 2342              		@ frame_needed = 0, uses_anonymous_args = 0
 2343              		.loc 1 1051 2 is_stmt 0 view .LVU630
 2344 0000 10B5     		push	{r4, lr}
 2345              	.LCFI49:
 2346              		.cfi_def_cfa_offset 8
 2347              		.cfi_offset 4, -8
 2348              		.cfi_offset 14, -4
 2349 0002 84B0     		sub	sp, sp, #16
 2350              	.LCFI50:
 2351              		.cfi_def_cfa_offset 24
 2352 0004 1446     		mov	r4, r2
 2353 0006 1A46     		mov	r2, r3
 2354              	.LVL185:
1052:../../Middlewares/Third_Party/FreeRTOS/Source/timers.c **** 	DaemonTaskMessage_t xMessage;
 2355              		.loc 1 1052 2 is_stmt 1 view .LVU631
1053:../../Middlewares/Third_Party/FreeRTOS/Source/timers.c **** 	BaseType_t xReturn;
 2356              		.loc 1 1053 2 view .LVU632
1054:../../Middlewares/Third_Party/FreeRTOS/Source/timers.c **** 
1055:../../Middlewares/Third_Party/FreeRTOS/Source/timers.c **** 		/* Complete the message with the function parameters and post it to the
1056:../../Middlewares/Third_Party/FreeRTOS/Source/timers.c **** 		daemon task. */
1057:../../Middlewares/Third_Party/FreeRTOS/Source/timers.c **** 		xMessage.xMessageID = tmrCOMMAND_EXECUTE_CALLBACK_FROM_ISR;
 2357              		.loc 1 1057 3 view .LVU633
 2358              		.loc 1 1057 23 is_stmt 0 view .LVU634
 2359 0008 6FF00103 		mvn	r3, #1
 2360              	.LVL186:
 2361              		.loc 1 1057 23 view .LVU635
 2362 000c 0093     		str	r3, [sp]
1058:../../Middlewares/Third_Party/FreeRTOS/Source/timers.c **** 		xMessage.u.xCallbackParameters.pxCallbackFunction = xFunctionToPend;
 2363              		.loc 1 1058 3 is_stmt 1 view .LVU636
 2364              		.loc 1 1058 53 is_stmt 0 view .LVU637
 2365 000e 0190     		str	r0, [sp, #4]
1059:../../Middlewares/Third_Party/FreeRTOS/Source/timers.c **** 		xMessage.u.xCallbackParameters.pvParameter1 = pvParameter1;
 2366              		.loc 1 1059 3 is_stmt 1 view .LVU638
 2367              		.loc 1 1059 47 is_stmt 0 view .LVU639
 2368 0010 0291     		str	r1, [sp, #8]
1060:../../Middlewares/Third_Party/FreeRTOS/Source/timers.c **** 		xMessage.u.xCallbackParameters.ulParameter2 = ulParameter2;
 2369              		.loc 1 1060 3 is_stmt 1 view .LVU640
 2370              		.loc 1 1060 47 is_stmt 0 view .LVU641
 2371 0012 0394     		str	r4, [sp, #12]
1061:../../Middlewares/Third_Party/FreeRTOS/Source/timers.c **** 
ARM GAS  C:\Users\gigig\AppData\Local\Temp\ccovY76i.s 			page 73


1062:../../Middlewares/Third_Party/FreeRTOS/Source/timers.c **** 		xReturn = xQueueSendFromISR( xTimerQueue, &xMessage, pxHigherPriorityTaskWoken );
 2372              		.loc 1 1062 3 is_stmt 1 view .LVU642
 2373              		.loc 1 1062 13 is_stmt 0 view .LVU643
 2374 0014 0023     		movs	r3, #0
 2375 0016 6946     		mov	r1, sp
 2376              	.LVL187:
 2377              		.loc 1 1062 13 view .LVU644
 2378 0018 0248     		ldr	r0, .L179
 2379              	.LVL188:
 2380              		.loc 1 1062 13 view .LVU645
 2381 001a 0068     		ldr	r0, [r0]
 2382 001c FFF7FEFF 		bl	xQueueGenericSendFromISR
 2383              	.LVL189:
1063:../../Middlewares/Third_Party/FreeRTOS/Source/timers.c **** 
1064:../../Middlewares/Third_Party/FreeRTOS/Source/timers.c **** 		tracePEND_FUNC_CALL_FROM_ISR( xFunctionToPend, pvParameter1, ulParameter2, xReturn );
 2384              		.loc 1 1064 87 is_stmt 1 view .LVU646
1065:../../Middlewares/Third_Party/FreeRTOS/Source/timers.c **** 
1066:../../Middlewares/Third_Party/FreeRTOS/Source/timers.c **** 		return xReturn;
 2385              		.loc 1 1066 3 view .LVU647
1067:../../Middlewares/Third_Party/FreeRTOS/Source/timers.c **** 	}
 2386              		.loc 1 1067 2 is_stmt 0 view .LVU648
 2387 0020 04B0     		add	sp, sp, #16
 2388              	.LCFI51:
 2389              		.cfi_def_cfa_offset 8
 2390              		@ sp needed
 2391 0022 10BD     		pop	{r4, pc}
 2392              	.LVL190:
 2393              	.L180:
 2394              		.loc 1 1067 2 view .LVU649
 2395              		.align	2
 2396              	.L179:
 2397 0024 00000000 		.word	.LANCHOR2
 2398              		.cfi_endproc
 2399              	.LFE27:
 2401              		.section	.text.xTimerPendFunctionCall,"ax",%progbits
 2402              		.align	1
 2403              		.global	xTimerPendFunctionCall
 2404              		.syntax unified
 2405              		.thumb
 2406              		.thumb_func
 2408              	xTimerPendFunctionCall:
 2409              	.LVL191:
 2410              	.LFB28:
1068:../../Middlewares/Third_Party/FreeRTOS/Source/timers.c **** 
1069:../../Middlewares/Third_Party/FreeRTOS/Source/timers.c **** #endif /* INCLUDE_xTimerPendFunctionCall */
1070:../../Middlewares/Third_Party/FreeRTOS/Source/timers.c **** /*-----------------------------------------------------------*/
1071:../../Middlewares/Third_Party/FreeRTOS/Source/timers.c **** 
1072:../../Middlewares/Third_Party/FreeRTOS/Source/timers.c **** #if( INCLUDE_xTimerPendFunctionCall == 1 )
1073:../../Middlewares/Third_Party/FreeRTOS/Source/timers.c **** 
1074:../../Middlewares/Third_Party/FreeRTOS/Source/timers.c **** 	BaseType_t xTimerPendFunctionCall( PendedFunction_t xFunctionToPend, void *pvParameter1, uint32_t 
1075:../../Middlewares/Third_Party/FreeRTOS/Source/timers.c **** 	{
 2411              		.loc 1 1075 2 is_stmt 1 view -0
 2412              		.cfi_startproc
 2413              		@ args = 0, pretend = 0, frame = 16
 2414              		@ frame_needed = 0, uses_anonymous_args = 0
 2415              		.loc 1 1075 2 is_stmt 0 view .LVU651
 2416 0000 30B5     		push	{r4, r5, lr}
ARM GAS  C:\Users\gigig\AppData\Local\Temp\ccovY76i.s 			page 74


 2417              	.LCFI52:
 2418              		.cfi_def_cfa_offset 12
 2419              		.cfi_offset 4, -12
 2420              		.cfi_offset 5, -8
 2421              		.cfi_offset 14, -4
 2422 0002 85B0     		sub	sp, sp, #20
 2423              	.LCFI53:
 2424              		.cfi_def_cfa_offset 32
 2425 0004 0C46     		mov	r4, r1
 2426 0006 1146     		mov	r1, r2
 2427              	.LVL192:
 2428              		.loc 1 1075 2 view .LVU652
 2429 0008 1A46     		mov	r2, r3
 2430              	.LVL193:
1076:../../Middlewares/Third_Party/FreeRTOS/Source/timers.c **** 	DaemonTaskMessage_t xMessage;
 2431              		.loc 1 1076 2 is_stmt 1 view .LVU653
1077:../../Middlewares/Third_Party/FreeRTOS/Source/timers.c **** 	BaseType_t xReturn;
 2432              		.loc 1 1077 2 view .LVU654
1078:../../Middlewares/Third_Party/FreeRTOS/Source/timers.c **** 
1079:../../Middlewares/Third_Party/FreeRTOS/Source/timers.c **** 		/* This function can only be called after a timer has been created or
1080:../../Middlewares/Third_Party/FreeRTOS/Source/timers.c **** 		after the scheduler has been started because, until then, the timer
1081:../../Middlewares/Third_Party/FreeRTOS/Source/timers.c **** 		queue does not exist. */
1082:../../Middlewares/Third_Party/FreeRTOS/Source/timers.c **** 		configASSERT( xTimerQueue );
 2433              		.loc 1 1082 3 view .LVU655
 2434 000a 0C4B     		ldr	r3, .L186
 2435              	.LVL194:
 2436              		.loc 1 1082 3 is_stmt 0 view .LVU656
 2437 000c 1D68     		ldr	r5, [r3]
 2438 000e 65B1     		cbz	r5, .L185
 2439              		.loc 1 1082 30 is_stmt 1 discriminator 2 view .LVU657
1083:../../Middlewares/Third_Party/FreeRTOS/Source/timers.c **** 
1084:../../Middlewares/Third_Party/FreeRTOS/Source/timers.c **** 		/* Complete the message with the function parameters and post it to the
1085:../../Middlewares/Third_Party/FreeRTOS/Source/timers.c **** 		daemon task. */
1086:../../Middlewares/Third_Party/FreeRTOS/Source/timers.c **** 		xMessage.xMessageID = tmrCOMMAND_EXECUTE_CALLBACK;
 2440              		.loc 1 1086 3 discriminator 2 view .LVU658
 2441              		.loc 1 1086 23 is_stmt 0 discriminator 2 view .LVU659
 2442 0010 4FF0FF33 		mov	r3, #-1
 2443 0014 0093     		str	r3, [sp]
1087:../../Middlewares/Third_Party/FreeRTOS/Source/timers.c **** 		xMessage.u.xCallbackParameters.pxCallbackFunction = xFunctionToPend;
 2444              		.loc 1 1087 3 is_stmt 1 discriminator 2 view .LVU660
 2445              		.loc 1 1087 53 is_stmt 0 discriminator 2 view .LVU661
 2446 0016 0190     		str	r0, [sp, #4]
1088:../../Middlewares/Third_Party/FreeRTOS/Source/timers.c **** 		xMessage.u.xCallbackParameters.pvParameter1 = pvParameter1;
 2447              		.loc 1 1088 3 is_stmt 1 discriminator 2 view .LVU662
 2448              		.loc 1 1088 47 is_stmt 0 discriminator 2 view .LVU663
 2449 0018 0294     		str	r4, [sp, #8]
1089:../../Middlewares/Third_Party/FreeRTOS/Source/timers.c **** 		xMessage.u.xCallbackParameters.ulParameter2 = ulParameter2;
 2450              		.loc 1 1089 3 is_stmt 1 discriminator 2 view .LVU664
 2451              		.loc 1 1089 47 is_stmt 0 discriminator 2 view .LVU665
 2452 001a 0391     		str	r1, [sp, #12]
1090:../../Middlewares/Third_Party/FreeRTOS/Source/timers.c **** 
1091:../../Middlewares/Third_Party/FreeRTOS/Source/timers.c **** 		xReturn = xQueueSendToBack( xTimerQueue, &xMessage, xTicksToWait );
 2453              		.loc 1 1091 3 is_stmt 1 discriminator 2 view .LVU666
 2454              		.loc 1 1091 13 is_stmt 0 discriminator 2 view .LVU667
 2455 001c 0023     		movs	r3, #0
 2456 001e 6946     		mov	r1, sp
 2457              	.LVL195:
ARM GAS  C:\Users\gigig\AppData\Local\Temp\ccovY76i.s 			page 75


 2458              		.loc 1 1091 13 discriminator 2 view .LVU668
 2459 0020 2846     		mov	r0, r5
 2460              	.LVL196:
 2461              		.loc 1 1091 13 discriminator 2 view .LVU669
 2462 0022 FFF7FEFF 		bl	xQueueGenericSend
 2463              	.LVL197:
1092:../../Middlewares/Third_Party/FreeRTOS/Source/timers.c **** 
1093:../../Middlewares/Third_Party/FreeRTOS/Source/timers.c **** 		tracePEND_FUNC_CALL( xFunctionToPend, pvParameter1, ulParameter2, xReturn );
 2464              		.loc 1 1093 78 is_stmt 1 discriminator 2 view .LVU670
1094:../../Middlewares/Third_Party/FreeRTOS/Source/timers.c **** 
1095:../../Middlewares/Third_Party/FreeRTOS/Source/timers.c **** 		return xReturn;
 2465              		.loc 1 1095 3 discriminator 2 view .LVU671
1096:../../Middlewares/Third_Party/FreeRTOS/Source/timers.c **** 	}
 2466              		.loc 1 1096 2 is_stmt 0 discriminator 2 view .LVU672
 2467 0026 05B0     		add	sp, sp, #20
 2468              	.LCFI54:
 2469              		.cfi_remember_state
 2470              		.cfi_def_cfa_offset 12
 2471              		@ sp needed
 2472 0028 30BD     		pop	{r4, r5, pc}
 2473              	.LVL198:
 2474              	.L185:
 2475              	.LCFI55:
 2476              		.cfi_restore_state
1082:../../Middlewares/Third_Party/FreeRTOS/Source/timers.c **** 
 2477              		.loc 1 1082 3 is_stmt 1 view .LVU673
 2478              	.LBB85:
 2479              	.LBI85:
 191:../../Middlewares/Third_Party/FreeRTOS/Source/portable/GCC/ARM_CM4F/portmacro.h **** {
 2480              		.loc 2 191 30 view .LVU674
 2481              	.LBB86:
 193:../../Middlewares/Third_Party/FreeRTOS/Source/portable/GCC/ARM_CM4F/portmacro.h **** 
 2482              		.loc 2 193 1 view .LVU675
 2483              		.loc 2 195 2 view .LVU676
 2484              		.syntax unified
 2485              	@ 195 "../../Middlewares/Third_Party/FreeRTOS/Source/portable/GCC/ARM_CM4F/portmacro.h" 1
 2486 002a 4FF05003 			mov r3, #80												
 2487 002e 83F31188 		msr basepri, r3											
 2488 0032 BFF36F8F 		isb														
 2489 0036 BFF34F8F 		dsb														
 2490              	
 2491              	@ 0 "" 2
 2492              	.LVL199:
 2493              		.thumb
 2494              		.syntax unified
 2495              	.L183:
 2496              		.loc 2 195 2 is_stmt 0 view .LVU677
 2497              	.LBE86:
 2498              	.LBE85:
1082:../../Middlewares/Third_Party/FreeRTOS/Source/timers.c **** 
 2499              		.loc 1 1082 3 is_stmt 1 discriminator 1 view .LVU678
1082:../../Middlewares/Third_Party/FreeRTOS/Source/timers.c **** 
 2500              		.loc 1 1082 3 discriminator 1 view .LVU679
1082:../../Middlewares/Third_Party/FreeRTOS/Source/timers.c **** 
 2501              		.loc 1 1082 3 discriminator 1 view .LVU680
 2502 003a FEE7     		b	.L183
 2503              	.L187:
ARM GAS  C:\Users\gigig\AppData\Local\Temp\ccovY76i.s 			page 76


 2504              		.align	2
 2505              	.L186:
 2506 003c 00000000 		.word	.LANCHOR2
 2507              		.cfi_endproc
 2508              	.LFE28:
 2510              		.section	.text.uxTimerGetTimerNumber,"ax",%progbits
 2511              		.align	1
 2512              		.global	uxTimerGetTimerNumber
 2513              		.syntax unified
 2514              		.thumb
 2515              		.thumb_func
 2517              	uxTimerGetTimerNumber:
 2518              	.LVL200:
 2519              	.LFB29:
1097:../../Middlewares/Third_Party/FreeRTOS/Source/timers.c **** 
1098:../../Middlewares/Third_Party/FreeRTOS/Source/timers.c **** #endif /* INCLUDE_xTimerPendFunctionCall */
1099:../../Middlewares/Third_Party/FreeRTOS/Source/timers.c **** /*-----------------------------------------------------------*/
1100:../../Middlewares/Third_Party/FreeRTOS/Source/timers.c **** 
1101:../../Middlewares/Third_Party/FreeRTOS/Source/timers.c **** #if ( configUSE_TRACE_FACILITY == 1 )
1102:../../Middlewares/Third_Party/FreeRTOS/Source/timers.c **** 
1103:../../Middlewares/Third_Party/FreeRTOS/Source/timers.c **** 	UBaseType_t uxTimerGetTimerNumber( TimerHandle_t xTimer )
1104:../../Middlewares/Third_Party/FreeRTOS/Source/timers.c **** 	{
 2520              		.loc 1 1104 2 view -0
 2521              		.cfi_startproc
 2522              		@ args = 0, pretend = 0, frame = 0
 2523              		@ frame_needed = 0, uses_anonymous_args = 0
 2524              		@ link register save eliminated.
1105:../../Middlewares/Third_Party/FreeRTOS/Source/timers.c **** 		return ( ( Timer_t * ) xTimer )->uxTimerNumber;
 2525              		.loc 1 1105 3 view .LVU682
1106:../../Middlewares/Third_Party/FreeRTOS/Source/timers.c **** 	}
 2526              		.loc 1 1106 2 is_stmt 0 view .LVU683
 2527 0000 406A     		ldr	r0, [r0, #36]
 2528              	.LVL201:
 2529              		.loc 1 1106 2 view .LVU684
 2530 0002 7047     		bx	lr
 2531              		.cfi_endproc
 2532              	.LFE29:
 2534              		.section	.text.vTimerSetTimerNumber,"ax",%progbits
 2535              		.align	1
 2536              		.global	vTimerSetTimerNumber
 2537              		.syntax unified
 2538              		.thumb
 2539              		.thumb_func
 2541              	vTimerSetTimerNumber:
 2542              	.LVL202:
 2543              	.LFB30:
1107:../../Middlewares/Third_Party/FreeRTOS/Source/timers.c **** 
1108:../../Middlewares/Third_Party/FreeRTOS/Source/timers.c **** #endif /* configUSE_TRACE_FACILITY */
1109:../../Middlewares/Third_Party/FreeRTOS/Source/timers.c **** /*-----------------------------------------------------------*/
1110:../../Middlewares/Third_Party/FreeRTOS/Source/timers.c **** 
1111:../../Middlewares/Third_Party/FreeRTOS/Source/timers.c **** #if ( configUSE_TRACE_FACILITY == 1 )
1112:../../Middlewares/Third_Party/FreeRTOS/Source/timers.c **** 
1113:../../Middlewares/Third_Party/FreeRTOS/Source/timers.c **** 	void vTimerSetTimerNumber( TimerHandle_t xTimer, UBaseType_t uxTimerNumber )
1114:../../Middlewares/Third_Party/FreeRTOS/Source/timers.c **** 	{
 2544              		.loc 1 1114 2 is_stmt 1 view -0
 2545              		.cfi_startproc
 2546              		@ args = 0, pretend = 0, frame = 0
ARM GAS  C:\Users\gigig\AppData\Local\Temp\ccovY76i.s 			page 77


 2547              		@ frame_needed = 0, uses_anonymous_args = 0
 2548              		@ link register save eliminated.
1115:../../Middlewares/Third_Party/FreeRTOS/Source/timers.c **** 		( ( Timer_t * ) xTimer )->uxTimerNumber = uxTimerNumber;
 2549              		.loc 1 1115 3 view .LVU686
 2550              		.loc 1 1115 43 is_stmt 0 view .LVU687
 2551 0000 4162     		str	r1, [r0, #36]
1116:../../Middlewares/Third_Party/FreeRTOS/Source/timers.c **** 	}
 2552              		.loc 1 1116 2 view .LVU688
 2553 0002 7047     		bx	lr
 2554              		.cfi_endproc
 2555              	.LFE30:
 2557              		.section	.bss.pxCurrentTimerList,"aw",%nobits
 2558              		.align	2
 2559              		.set	.LANCHOR0,. + 0
 2562              	pxCurrentTimerList:
 2563 0000 00000000 		.space	4
 2564              		.section	.bss.pxOverflowTimerList,"aw",%nobits
 2565              		.align	2
 2566              		.set	.LANCHOR1,. + 0
 2569              	pxOverflowTimerList:
 2570 0000 00000000 		.space	4
 2571              		.section	.bss.ucStaticTimerQueueStorage.1,"aw",%nobits
 2572              		.align	2
 2573              		.set	.LANCHOR6,. + 0
 2576              	ucStaticTimerQueueStorage.1:
 2577 0000 00000000 		.space	160
 2577      00000000 
 2577      00000000 
 2577      00000000 
 2577      00000000 
 2578              		.section	.bss.xActiveTimerList1,"aw",%nobits
 2579              		.align	2
 2580              		.set	.LANCHOR3,. + 0
 2583              	xActiveTimerList1:
 2584 0000 00000000 		.space	20
 2584      00000000 
 2584      00000000 
 2584      00000000 
 2584      00000000 
 2585              		.section	.bss.xActiveTimerList2,"aw",%nobits
 2586              		.align	2
 2587              		.set	.LANCHOR4,. + 0
 2590              	xActiveTimerList2:
 2591 0000 00000000 		.space	20
 2591      00000000 
 2591      00000000 
 2591      00000000 
 2591      00000000 
 2592              		.section	.bss.xLastTime.2,"aw",%nobits
 2593              		.align	2
 2594              		.set	.LANCHOR8,. + 0
 2597              	xLastTime.2:
 2598 0000 00000000 		.space	4
 2599              		.section	.bss.xStaticTimerQueue.0,"aw",%nobits
 2600              		.align	2
 2601              		.set	.LANCHOR5,. + 0
 2604              	xStaticTimerQueue.0:
ARM GAS  C:\Users\gigig\AppData\Local\Temp\ccovY76i.s 			page 78


 2605 0000 00000000 		.space	80
 2605      00000000 
 2605      00000000 
 2605      00000000 
 2605      00000000 
 2606              		.section	.bss.xTimerQueue,"aw",%nobits
 2607              		.align	2
 2608              		.set	.LANCHOR2,. + 0
 2611              	xTimerQueue:
 2612 0000 00000000 		.space	4
 2613              		.section	.bss.xTimerTaskHandle,"aw",%nobits
 2614              		.align	2
 2615              		.set	.LANCHOR7,. + 0
 2618              	xTimerTaskHandle:
 2619 0000 00000000 		.space	4
 2620              		.text
 2621              	.Letext0:
 2622              		.file 3 "c:\\program files (x86)\\gnu arm embedded toolchain\\10 2021.10\\lib\\gcc\\arm-none-eabi\
 2623              		.file 4 "c:\\program files (x86)\\gnu arm embedded toolchain\\10 2021.10\\arm-none-eabi\\include\\
 2624              		.file 5 "c:\\program files (x86)\\gnu arm embedded toolchain\\10 2021.10\\arm-none-eabi\\include\\
 2625              		.file 6 "../../Middlewares/Third_Party/FreeRTOS/Source/include/projdefs.h"
 2626              		.file 7 "../../Middlewares/Third_Party/FreeRTOS/Source/include/FreeRTOS.h"
 2627              		.file 8 "../../Middlewares/Third_Party/FreeRTOS/Source/include/list.h"
 2628              		.file 9 "../../Middlewares/Third_Party/FreeRTOS/Source/include/task.h"
 2629              		.file 10 "../../Middlewares/Third_Party/FreeRTOS/Source/include/queue.h"
 2630              		.file 11 "../../Middlewares/Third_Party/FreeRTOS/Source/include/timers.h"
 2631              		.file 12 "../../Middlewares/Third_Party/FreeRTOS/Source/include/portable.h"
ARM GAS  C:\Users\gigig\AppData\Local\Temp\ccovY76i.s 			page 79


DEFINED SYMBOLS
                            *ABS*:00000000 timers.c
C:\Users\gigig\AppData\Local\Temp\ccovY76i.s:20     .text.prvGetNextExpireTime:00000000 $t
C:\Users\gigig\AppData\Local\Temp\ccovY76i.s:25     .text.prvGetNextExpireTime:00000000 prvGetNextExpireTime
C:\Users\gigig\AppData\Local\Temp\ccovY76i.s:71     .text.prvGetNextExpireTime:0000001c $d
C:\Users\gigig\AppData\Local\Temp\ccovY76i.s:76     .text.prvInsertTimerInActiveList:00000000 $t
C:\Users\gigig\AppData\Local\Temp\ccovY76i.s:81     .text.prvInsertTimerInActiveList:00000000 prvInsertTimerInActiveList
C:\Users\gigig\AppData\Local\Temp\ccovY76i.s:176    .text.prvInsertTimerInActiveList:00000048 $d
C:\Users\gigig\AppData\Local\Temp\ccovY76i.s:182    .rodata.prvCheckForValidListAndQueue.str1.4:00000000 $d
C:\Users\gigig\AppData\Local\Temp\ccovY76i.s:186    .text.prvCheckForValidListAndQueue:00000000 $t
C:\Users\gigig\AppData\Local\Temp\ccovY76i.s:191    .text.prvCheckForValidListAndQueue:00000000 prvCheckForValidListAndQueue
C:\Users\gigig\AppData\Local\Temp\ccovY76i.s:277    .text.prvCheckForValidListAndQueue:00000050 $d
C:\Users\gigig\AppData\Local\Temp\ccovY76i.s:289    .text.prvInitialiseNewTimer:00000000 $t
C:\Users\gigig\AppData\Local\Temp\ccovY76i.s:294    .text.prvInitialiseNewTimer:00000000 prvInitialiseNewTimer
C:\Users\gigig\AppData\Local\Temp\ccovY76i.s:389    .rodata.xTimerCreateTimerTask.str1.4:00000000 $d
C:\Users\gigig\AppData\Local\Temp\ccovY76i.s:393    .text.xTimerCreateTimerTask:00000000 $t
C:\Users\gigig\AppData\Local\Temp\ccovY76i.s:399    .text.xTimerCreateTimerTask:00000000 xTimerCreateTimerTask
C:\Users\gigig\AppData\Local\Temp\ccovY76i.s:501    .text.xTimerCreateTimerTask:00000054 $d
C:\Users\gigig\AppData\Local\Temp\ccovY76i.s:1651   .text.prvTimerTask:00000000 prvTimerTask
C:\Users\gigig\AppData\Local\Temp\ccovY76i.s:509    .text.xTimerCreate:00000000 $t
C:\Users\gigig\AppData\Local\Temp\ccovY76i.s:515    .text.xTimerCreate:00000000 xTimerCreate
C:\Users\gigig\AppData\Local\Temp\ccovY76i.s:581    .text.xTimerCreateStatic:00000000 $t
C:\Users\gigig\AppData\Local\Temp\ccovY76i.s:587    .text.xTimerCreateStatic:00000000 xTimerCreateStatic
C:\Users\gigig\AppData\Local\Temp\ccovY76i.s:712    .text.xTimerGenericCommand:00000000 $t
C:\Users\gigig\AppData\Local\Temp\ccovY76i.s:718    .text.xTimerGenericCommand:00000000 xTimerGenericCommand
C:\Users\gigig\AppData\Local\Temp\ccovY76i.s:863    .text.xTimerGenericCommand:00000068 $d
C:\Users\gigig\AppData\Local\Temp\ccovY76i.s:868    .text.prvSwitchTimerLists:00000000 $t
C:\Users\gigig\AppData\Local\Temp\ccovY76i.s:873    .text.prvSwitchTimerLists:00000000 prvSwitchTimerLists
C:\Users\gigig\AppData\Local\Temp\ccovY76i.s:1020   .text.prvSwitchTimerLists:00000074 $d
C:\Users\gigig\AppData\Local\Temp\ccovY76i.s:1026   .text.prvSampleTimeNow:00000000 $t
C:\Users\gigig\AppData\Local\Temp\ccovY76i.s:1031   .text.prvSampleTimeNow:00000000 prvSampleTimeNow
C:\Users\gigig\AppData\Local\Temp\ccovY76i.s:1090   .text.prvSampleTimeNow:00000028 $d
C:\Users\gigig\AppData\Local\Temp\ccovY76i.s:1095   .text.prvProcessExpiredTimer:00000000 $t
C:\Users\gigig\AppData\Local\Temp\ccovY76i.s:1100   .text.prvProcessExpiredTimer:00000000 prvProcessExpiredTimer
C:\Users\gigig\AppData\Local\Temp\ccovY76i.s:1223   .text.prvProcessExpiredTimer:00000068 $d
C:\Users\gigig\AppData\Local\Temp\ccovY76i.s:1228   .text.prvProcessTimerOrBlockTask:00000000 $t
C:\Users\gigig\AppData\Local\Temp\ccovY76i.s:1233   .text.prvProcessTimerOrBlockTask:00000000 prvProcessTimerOrBlockTask
C:\Users\gigig\AppData\Local\Temp\ccovY76i.s:1356   .text.prvProcessTimerOrBlockTask:00000070 $d
C:\Users\gigig\AppData\Local\Temp\ccovY76i.s:1362   .text.prvProcessReceivedCommands:00000000 $t
C:\Users\gigig\AppData\Local\Temp\ccovY76i.s:1367   .text.prvProcessReceivedCommands:00000000 prvProcessReceivedCommands
C:\Users\gigig\AppData\Local\Temp\ccovY76i.s:1459   .text.prvProcessReceivedCommands:00000048 $d
C:\Users\gigig\AppData\Local\Temp\ccovY76i.s:1469   .text.prvProcessReceivedCommands:00000052 $t
C:\Users\gigig\AppData\Local\Temp\ccovY76i.s:1641   .text.prvProcessReceivedCommands:00000108 $d
C:\Users\gigig\AppData\Local\Temp\ccovY76i.s:1646   .text.prvTimerTask:00000000 $t
C:\Users\gigig\AppData\Local\Temp\ccovY76i.s:1690   .text.xTimerGetTimerDaemonTaskHandle:00000000 $t
C:\Users\gigig\AppData\Local\Temp\ccovY76i.s:1696   .text.xTimerGetTimerDaemonTaskHandle:00000000 xTimerGetTimerDaemonTaskHandle
C:\Users\gigig\AppData\Local\Temp\ccovY76i.s:1739   .text.xTimerGetTimerDaemonTaskHandle:0000001c $d
C:\Users\gigig\AppData\Local\Temp\ccovY76i.s:1744   .text.xTimerGetPeriod:00000000 $t
C:\Users\gigig\AppData\Local\Temp\ccovY76i.s:1750   .text.xTimerGetPeriod:00000000 xTimerGetPeriod
C:\Users\gigig\AppData\Local\Temp\ccovY76i.s:1800   .text.vTimerSetReloadMode:00000000 $t
C:\Users\gigig\AppData\Local\Temp\ccovY76i.s:1806   .text.vTimerSetReloadMode:00000000 vTimerSetReloadMode
C:\Users\gigig\AppData\Local\Temp\ccovY76i.s:1885   .text.uxTimerGetReloadMode:00000000 $t
C:\Users\gigig\AppData\Local\Temp\ccovY76i.s:1891   .text.uxTimerGetReloadMode:00000000 uxTimerGetReloadMode
C:\Users\gigig\AppData\Local\Temp\ccovY76i.s:1977   .text.xTimerGetExpiryTime:00000000 $t
C:\Users\gigig\AppData\Local\Temp\ccovY76i.s:1983   .text.xTimerGetExpiryTime:00000000 xTimerGetExpiryTime
C:\Users\gigig\AppData\Local\Temp\ccovY76i.s:2036   .text.pcTimerGetName:00000000 $t
C:\Users\gigig\AppData\Local\Temp\ccovY76i.s:2042   .text.pcTimerGetName:00000000 pcTimerGetName
ARM GAS  C:\Users\gigig\AppData\Local\Temp\ccovY76i.s 			page 80


C:\Users\gigig\AppData\Local\Temp\ccovY76i.s:2092   .text.xTimerIsTimerActive:00000000 $t
C:\Users\gigig\AppData\Local\Temp\ccovY76i.s:2098   .text.xTimerIsTimerActive:00000000 xTimerIsTimerActive
C:\Users\gigig\AppData\Local\Temp\ccovY76i.s:2184   .text.pvTimerGetTimerID:00000000 $t
C:\Users\gigig\AppData\Local\Temp\ccovY76i.s:2190   .text.pvTimerGetTimerID:00000000 pvTimerGetTimerID
C:\Users\gigig\AppData\Local\Temp\ccovY76i.s:2259   .text.vTimerSetTimerID:00000000 $t
C:\Users\gigig\AppData\Local\Temp\ccovY76i.s:2265   .text.vTimerSetTimerID:00000000 vTimerSetTimerID
C:\Users\gigig\AppData\Local\Temp\ccovY76i.s:2330   .text.xTimerPendFunctionCallFromISR:00000000 $t
C:\Users\gigig\AppData\Local\Temp\ccovY76i.s:2336   .text.xTimerPendFunctionCallFromISR:00000000 xTimerPendFunctionCallFromISR
C:\Users\gigig\AppData\Local\Temp\ccovY76i.s:2397   .text.xTimerPendFunctionCallFromISR:00000024 $d
C:\Users\gigig\AppData\Local\Temp\ccovY76i.s:2402   .text.xTimerPendFunctionCall:00000000 $t
C:\Users\gigig\AppData\Local\Temp\ccovY76i.s:2408   .text.xTimerPendFunctionCall:00000000 xTimerPendFunctionCall
C:\Users\gigig\AppData\Local\Temp\ccovY76i.s:2506   .text.xTimerPendFunctionCall:0000003c $d
C:\Users\gigig\AppData\Local\Temp\ccovY76i.s:2511   .text.uxTimerGetTimerNumber:00000000 $t
C:\Users\gigig\AppData\Local\Temp\ccovY76i.s:2517   .text.uxTimerGetTimerNumber:00000000 uxTimerGetTimerNumber
C:\Users\gigig\AppData\Local\Temp\ccovY76i.s:2535   .text.vTimerSetTimerNumber:00000000 $t
C:\Users\gigig\AppData\Local\Temp\ccovY76i.s:2541   .text.vTimerSetTimerNumber:00000000 vTimerSetTimerNumber
C:\Users\gigig\AppData\Local\Temp\ccovY76i.s:2558   .bss.pxCurrentTimerList:00000000 $d
C:\Users\gigig\AppData\Local\Temp\ccovY76i.s:2562   .bss.pxCurrentTimerList:00000000 pxCurrentTimerList
C:\Users\gigig\AppData\Local\Temp\ccovY76i.s:2565   .bss.pxOverflowTimerList:00000000 $d
C:\Users\gigig\AppData\Local\Temp\ccovY76i.s:2569   .bss.pxOverflowTimerList:00000000 pxOverflowTimerList
C:\Users\gigig\AppData\Local\Temp\ccovY76i.s:2572   .bss.ucStaticTimerQueueStorage.1:00000000 $d
C:\Users\gigig\AppData\Local\Temp\ccovY76i.s:2576   .bss.ucStaticTimerQueueStorage.1:00000000 ucStaticTimerQueueStorage.1
C:\Users\gigig\AppData\Local\Temp\ccovY76i.s:2579   .bss.xActiveTimerList1:00000000 $d
C:\Users\gigig\AppData\Local\Temp\ccovY76i.s:2583   .bss.xActiveTimerList1:00000000 xActiveTimerList1
C:\Users\gigig\AppData\Local\Temp\ccovY76i.s:2586   .bss.xActiveTimerList2:00000000 $d
C:\Users\gigig\AppData\Local\Temp\ccovY76i.s:2590   .bss.xActiveTimerList2:00000000 xActiveTimerList2
C:\Users\gigig\AppData\Local\Temp\ccovY76i.s:2593   .bss.xLastTime.2:00000000 $d
C:\Users\gigig\AppData\Local\Temp\ccovY76i.s:2597   .bss.xLastTime.2:00000000 xLastTime.2
C:\Users\gigig\AppData\Local\Temp\ccovY76i.s:2600   .bss.xStaticTimerQueue.0:00000000 $d
C:\Users\gigig\AppData\Local\Temp\ccovY76i.s:2604   .bss.xStaticTimerQueue.0:00000000 xStaticTimerQueue.0
C:\Users\gigig\AppData\Local\Temp\ccovY76i.s:2607   .bss.xTimerQueue:00000000 $d
C:\Users\gigig\AppData\Local\Temp\ccovY76i.s:2611   .bss.xTimerQueue:00000000 xTimerQueue
C:\Users\gigig\AppData\Local\Temp\ccovY76i.s:2614   .bss.xTimerTaskHandle:00000000 $d
C:\Users\gigig\AppData\Local\Temp\ccovY76i.s:2618   .bss.xTimerTaskHandle:00000000 xTimerTaskHandle

UNDEFINED SYMBOLS
vListInsert
vPortEnterCritical
vPortExitCritical
vListInitialise
xQueueGenericCreateStatic
vQueueAddToRegistry
vListInitialiseItem
vApplicationGetTimerTaskMemory
xTaskCreateStatic
pvPortMalloc
xTaskGetSchedulerState
xQueueGenericSend
xQueueGenericSendFromISR
uxListRemove
xTaskGetTickCount
vTaskSuspendAll
vQueueWaitForMessageRestricted
xTaskResumeAll
xQueueReceive
vPortFree
